
Hexadecimal

Area                               Addr   Size   Decimal Bytes (Attributes)
--------------------------------   ----   ----   ------- ----- ------------
CABS                               0000   0000 =      0. bytes (ABS,CON,CODE)

      Value  Global
   --------  --------------------------------
  0C:FFFFFF00    s_BSEG
  0C:0000    l_BIT_BANK
  0C:0000    l_BSEG
  0C:0000    l_BSEG_BYTES
  0C:0000    l_CABS
  0C:0000    l_CONST
  0C:0000    l_GSINIT
  0C:0000    l_GSINIT1
  0C:0000    l_GSINIT5
  0C:0000    l_IABS
  0C:0000    l_ISEG
  0C:0000    l_OSEG
  0C:0000    l_PSEG
  0C:0000    l_REG_BANK_1
  0C:0000    l_REG_BANK_2
  0C:0000    l_REG_BANK_3
  0C:0000    l_XINIT
  0C:0000    l_XISEG
  0C:0000    l__CODE
  0C:0000    s_CABS
  0C:0000    s_DSEG
  0C:0000    s_HOME
  0C:0000    s_IABS
  0C:0000    s_ISEG
  0C:0000    s_PSEG
  0C:0000    s_REG_BANK_0
  0C:0000    s_SSEG
  0C:0000    s_XSEG
  0C:0003    l_GSFINAL
  0C:0003    l_GSINIT0
  0C:0008    l_HOME
  0C:0008    l_REG_BANK_0
  0C:0008    s_GSINIT0
  0C:0008    s_REG_BANK_1
  0C:000A    l_GSINIT2
  0C:000B    s_GSINIT1
  0C:000B    s_GSINIT2
  0C:0010    s_REG_BANK_2
  0C:0015    s_GSINIT3
  0C:0016    l_RSEG
  0C:0018    s_BIT_BANK
  0C:0018    s_OSEG
  0C:0018    s_REG_BANK_3
  0C:0020    s_BSEG_BYTES
  0C:0020    s__CODE
  0C:0022    l_GSINIT3
  0C:0028    l_GSINIT4
  0C:0037    s_GSINIT4
  0C:005D    s_RSEG
  0C:005F    s_GSFINAL
  0C:005F    s_GSINIT
  0C:005F    s_GSINIT5
  0C:0062    s_CSEG
  0C:0070    l_DSEG
  0C:00A3    l_SSEG
  0C:0100    l_IRAM
  0C:0840    l_XSEG
  0C:0840    s_XISEG
  0C:5C4B    l_CSEG
  0C:5CAD    s_CONST
  0C:5CAD    s_XINIT

Hexadecimal

Area                               Addr   Size   Decimal Bytes (Attributes)
--------------------------------   ----   ----   ------- ----- ------------
IABS                               0000   0000 =      0. bytes (ABS,CON)

Hexadecimal

Area                               Addr   Size   Decimal Bytes (Attributes)
--------------------------------   ----   ----   ------- ----- ------------
.  .ABS.                           0000   0000 =      0. bytes (ABS,CON)

      Value  Global
   --------  --------------------------------
     00A0    __XPAGE
     00F5    _B_5
     00F6    _B_6
     00F7    _B_7

Hexadecimal

Area                               Addr   Size   Decimal Bytes (Attributes)
--------------------------------   ----   ----   ------- ----- ------------
BSEG_BYTES                         0020   0000 =      0. bytes (REL,CON)

Hexadecimal

Area                               Addr   Size   Decimal Bytes (Attributes)
--------------------------------   ----   ----   ------- ----- ------------
_CODE                              0020   0000 =      0. bytes (REL,CON)

Hexadecimal

Area                               Addr   Size   Decimal Bytes (Attributes)
--------------------------------   ----   ----   ------- ----- ------------
REG_BANK_0                         0000   0008 =      8. bytes (REL,OVR)

Hexadecimal

Area                               Addr   Size   Decimal Bytes (Attributes)
--------------------------------   ----   ----   ------- ----- ------------
REG_BANK_1                         0008   0000 =      0. bytes (REL,OVR)

Hexadecimal

Area                               Addr   Size   Decimal Bytes (Attributes)
--------------------------------   ----   ----   ------- ----- ------------
REG_BANK_2                         0010   0000 =      0. bytes (REL,OVR)

Hexadecimal

Area                               Addr   Size   Decimal Bytes (Attributes)
--------------------------------   ----   ----   ------- ----- ------------
REG_BANK_3                         0018   0000 =      0. bytes (REL,OVR)

Hexadecimal

Area                               Addr   Size   Decimal Bits  (Attributes)
--------------------------------   ----   ----   ------- ----- ------------
BSEG                               FFFFFF00   0000 =      0. bits  (REL,CON,BIT)

Hexadecimal

Area                               Addr   Size   Decimal Bytes (Attributes)
--------------------------------   ----   ----   ------- ----- ------------
BIT_BANK                           0018   0000 =      0. bytes (REL,OVR)

Hexadecimal

Area                               Addr   Size   Decimal Bytes (Attributes)
--------------------------------   ----   ----   ------- ----- ------------
DSEG                               0000   0070 =    112. bytes (REL,CON)

      Value  Global
   --------  --------------------------------
     0018    LHW_set_32bit_reg_field$sloc0$1$0
     001A    LHW_set_32bit_reg_field$sloc1$1$0
     001E    LHW_set_32bit_reg_field$sloc2$1$0
     001F    LHW_set_16bit_reg_field$sloc0$1$0
     0020    LWD_init$sloc0$1$0
     0024    LUART_init$sloc0$1$0
     0025    LUART_init$sloc1$1$0
     0027    LUART_init$sloc2$1$0
     0029    LUART_init$sloc3$1$0
     002B    LUART_send$sloc0$1$0
     002E    LUART_send$sloc1$1$0
     0031    LUART_fill_tx_fifo$sloc0$1$0
     0034    LUART_fill_tx_fifo$sloc1$1$0
     0037    LUART_get_rx$sloc0$1$0
     003A    LUART_get_rx$sloc1$1$0
     003D    LUART_polled_tx_string$sloc0$1$0
     003F    LUART_polled_tx_string$sloc1$1$0
     0043    LTMR_init$sloc0$1$0
     0047    LTMR_init$sloc1$1$0
     0049    LGPIO_set_outputs$sloc1$1$0
     004D    LGPIO_set_outputs$sloc2$1$0
     0051    LGPIO_set_output$sloc0$1$0
     0055    LGPIO_set_output$sloc2$1$0
     0059    LGPIO_clear_irq$sloc0$1$0

Hexadecimal

Area                               Addr   Size   Decimal Bytes (Attributes)
--------------------------------   ----   ----   ------- ----- ------------
OSEG                               0018   0000 =      0. bytes (REL,OVR)

Hexadecimal

Area                               Addr   Size   Decimal Bytes (Attributes)
--------------------------------   ----   ----   ------- ----- ------------
ISEG                               0000   0000 =      0. bytes (REL,CON)

Hexadecimal

Area                               Addr   Size   Decimal Bytes (Attributes)
--------------------------------   ----   ----   ------- ----- ------------
SSEG                               0000   00A3 =    163. bytes (REL,OVR)

      Value  Global
   --------  --------------------------------
     005D    __start__stack

Hexadecimal

Area                               Addr   Size   Decimal Bytes (Attributes)
--------------------------------   ----   ----   ------- ----- ------------
RSEG                               005D   0016 =     22. bytes (REL,CON)

      Value  Global
   --------  --------------------------------
     005D    _SP
     005E    _DPL
     005F    _DPH
     0060    _DPL1
     0061    _DPH1
     0062    _DPS
     0063    _XWB1
     0064    _XWB2
     0065    _XWB3
     0066    _XRB1
     0067    _XRB2
     0068    _XRB3
     0069    _PSW
     006A    _ACC
     006B    _B
     006C    _CY
     006D    _AC
     006E    _F0
     006F    _RS1
     0070    _RS0
     0071    _OV
     0072    _P

Hexadecimal

Area                               Addr   Size   Decimal Bytes (Attributes)
--------------------------------   ----   ----   ------- ----- ------------
PSEG                               0000   0000 =      0. bytes (REL,CON,PAG,XDATA)

Hexadecimal

Area                               Addr   Size   Decimal Bytes (Attributes)
--------------------------------   ----   ----   ------- ----- ------------
XSEG                               0000   0840 =   2112. bytes (REL,CON,XDATA)

      Value  Global
   --------  --------------------------------
  0D:0000    G$g_gpio$0$0
  0D:0000    _g_gpio
  0D:0003    G$g_uart0$0$0
  0D:0003    _g_uart0
  0D:0006    G$g_wd$0$0
  0D:0006    _g_wd
  0D:0008    Lmain$uart_msg$1$1
  0D:0027    Lmain$linefeed$1$1
  0D:002A    Lwait$time_in_ms$1$1
  0D:002C    Lwait$i$1$1
  0D:002E    LHAL_assert_fail$line_no$1$1
  0D:002E    _HAL_assert_fail_PARM_2
  0D:0032    LHAL_assert_fail$file_name$1$1
  0D:0035    LHAL_assert_fail$assert_file$2$2
  0D:0038    LHAL_assert_fail$assert_line$2$2
  0D:003C    LHAL_assert_fail$dummy$2$2
  0D:0049    _HW_set_16bit_reg_PARM_2
  0D:004B    _HW_set_8bit_reg_PARM_2
  0D:004C    _HW_set_32bit_reg_PARM_2
  0D:0050    LHW_set_32bit_reg_field$shift$1$1
  0D:0050    _HW_set_32bit_reg_field_PARM_2
  0D:0051    LHW_set_32bit_reg_field$mask$1$1
  0D:0051    _HW_set_32bit_reg_field_PARM_3
  0D:0055    LHW_set_32bit_reg_field$value$1$1
  0D:0055    _HW_set_32bit_reg_field_PARM_4
  0D:0059    LHW_set_32bit_reg_field$reg_addr$1$1
  0D:005B    LHW_set_32bit_reg_field$temp32$1$1
  0D:005F    LHW_get_32bit_reg_field$shift$1$1
  0D:005F    _HW_get_32bit_reg_field_PARM_2
  0D:0060    LHW_get_32bit_reg_field$mask$1$1
  0D:0060    _HW_get_32bit_reg_field_PARM_3
  0D:0064    LHW_get_32bit_reg_field$reg_addr$1$1
  0D:0066    LHW_get_32bit_reg_field$temp32$1$1
  0D:006A    LHW_set_16bit_reg_field$shift$1$1
  0D:006A    _HW_set_16bit_reg_field_PARM_2
  0D:006B    LHW_set_16bit_reg_field$mask$1$1
  0D:006B    _HW_set_16bit_reg_field_PARM_3
  0D:006D    LHW_set_16bit_reg_field$in_value16$1$1
  0D:006D    _HW_set_16bit_reg_field_PARM_4
  0D:006F    LHW_set_16bit_reg_field$reg_addr$1$1
  0D:0071    LHW_set_16bit_reg_field$temp16$1$1
  0D:0073    LHW_get_16bit_reg_field$shift$1$1
  0D:0073    _HW_get_16bit_reg_field_PARM_2
  0D:0074    LHW_get_16bit_reg_field$mask$1$1
  0D:0074    _HW_get_16bit_reg_field_PARM_3
  0D:0076    LHW_get_16bit_reg_field$reg_addr$1$1
  0D:0078    LHW_get_16bit_reg_field$temp16$1$1
  0D:007A    LHW_set_8bit_reg_field$shift$1$1
  0D:007A    _HW_set_8bit_reg_field_PARM_2
  0D:007B    LHW_set_8bit_reg_field$mask$1$1
  0D:007B    _HW_set_8bit_reg_field_PARM_3
  0D:007C    LHW_set_8bit_reg_field$value$1$1
  0D:007C    _HW_set_8bit_reg_field_PARM_4
  0D:007D    LHW_set_8bit_reg_field$reg_addr$1$1
  0D:007F    LHW_set_8bit_reg_field$temp8$1$1
  0D:0080    LHW_get_8bit_reg_field$shift$1$1
  0D:0080    _HW_get_8bit_reg_field_PARM_2
  0D:0081    LHW_get_8bit_reg_field$mask$1$1
  0D:0081    _HW_get_8bit_reg_field_PARM_3
  0D:0082    LHW_get_8bit_reg_field$reg_addr$1$1
  0D:0084    LHW_get_8bit_reg_field$temp8$1$1
  0D:0085    F___drivers_CoreWatchdog_core_watchdog$NULL_instance$0$0
  0D:0088    LWD_init$base$1$1
  0D:0088    _WD_init_PARM_2
  0D:008A    LWD_init$value$1$1
  0D:008A    _WD_init_PARM_3
  0D:008E    LWD_init$scale$1$1
  0D:008E    _WD_init_PARM_4
  0D:0092    LWD_init$instance$1$1
  0D:0095    LWD_init$file_name$3$3
  0D:00BD    LWD_init$file_name$3$5
  0D:00E5    LWD_enable$instance$1$1
  0D:00E8    LWD_enable$file_name$3$3
  0D:0110    LWD_disable$instance$1$1
  0D:0113    LWD_disable$file_name$3$3
  0D:013B    LWD_reload$instance$1$1
  0D:013E    LWD_reload$file_name$3$3
  0D:0166    LWD_current_value$instance$1$1
  0D:0169    LWD_current_value$file_name$3$3
  0D:0191    LUART_init$base_addr$1$1
  0D:0191    _UART_init_PARM_2
  0D:0193    LUART_init$baud_value$1$1
  0D:0193    _UART_init_PARM_3
  0D:0195    LUART_init$line_config$1$1
  0D:0195    _UART_init_PARM_4
  0D:0196    LUART_init$this_uart$1$1
  0D:0199    LUART_init$rx_full$1$1
  0D:019A    LUART_init$file_name$3$3
  0D:01C1    LUART_init$file_name$3$5
  0D:01E8    LUART_init$file_name$3$7
  0D:020F    LUART_init$file_name$5$11
  0D:0236    LUART_init$file_name$5$13
  0D:025D    LUART_init$rx_byte$3$14
  0D:025E    LUART_send$tx_buffer$1$1
  0D:025E    _UART_send_PARM_2
  0D:0261    LUART_send$tx_size$1$1
  0D:0261    _UART_send_PARM_3
  0D:0263    LUART_send$this_uart$1$1
  0D:0266    LUART_send$char_idx$1$1
  0D:0268    LUART_send$file_name$3$3
  0D:028F    LUART_send$file_name$3$5
  0D:02B6    LUART_send$file_name$3$7
  0D:02DD    LUART_fill_tx_fifo$tx_buffer$1$1
  0D:02DD    _UART_fill_tx_fifo_PARM_2
  0D:02E0    LUART_fill_tx_fifo$tx_size$1$1
  0D:02E0    _UART_fill_tx_fifo_PARM_3
  0D:02E2    LUART_fill_tx_fifo$this_uart$1$1
  0D:02E5    LUART_fill_tx_fifo$size_sent$1$1
  0D:02E7    LUART_fill_tx_fifo$file_name$3$3
  0D:030E    LUART_fill_tx_fifo$file_name$3$5
  0D:0335    LUART_fill_tx_fifo$file_name$3$7
  0D:035C    LUART_get_rx$rx_buffer$1$1
  0D:035C    _UART_get_rx_PARM_2
  0D:035F    LUART_get_rx$buff_size$1$1
  0D:035F    _UART_get_rx_PARM_3
  0D:0361    LUART_get_rx$this_uart$1$1
  0D:0364    LUART_get_rx$rx_full$1$1
  0D:0365    LUART_get_rx$rx_idx$1$1
  0D:0367    LUART_get_rx$file_name$3$3
  0D:038E    LUART_get_rx$file_name$3$5
  0D:03B5    LUART_get_rx$file_name$3$7
  0D:03DC    LUART_polled_tx_string$p_sz_string$1$1
  0D:03DC    _UART_polled_tx_string_PARM_2
  0D:03DF    LUART_polled_tx_string$this_uart$1$1
  0D:03E2    LUART_polled_tx_string$char_idx$1$1
  0D:03E6    LUART_polled_tx_string$file_name$3$3
  0D:040D    LUART_polled_tx_string$file_name$3$5
  0D:0434    LUART_get_rx_status$this_uart$1$1
  0D:0437    LUART_get_rx_status$status$1$1
  0D:0438    LUART_get_rx_status$file_name$3$3
  0D:045F    F___drivers_CoreTimer_core_timer$NULL_timer_instance$0$0
  0D:0462    LTMR_init$address$1$1
  0D:0462    _TMR_init_PARM_2
  0D:0464    LTMR_init$mode$1$1
  0D:0464    _TMR_init_PARM_3
  0D:0465    LTMR_init$prescale$1$1
  0D:0465    _TMR_init_PARM_4
  0D:0469    LTMR_init$load_value$1$1
  0D:0469    _TMR_init_PARM_5
  0D:046D    LTMR_init$this_timer$1$1
  0D:0470    LTMR_init$file_name$3$3
  0D:0492    LTMR_init$file_name$3$5
  0D:04B4    LTMR_init$file_name$3$7
  0D:04D6    LTMR_start$this_timer$1$1
  0D:04D9    LTMR_start$file_name$3$3
  0D:04FB    LTMR_stop$this_timer$1$1
  0D:04FE    LTMR_stop$file_name$3$3
  0D:0520    LTMR_enable_int$this_timer$1$1
  0D:0523    LTMR_enable_int$file_name$3$3
  0D:0545    LTMR_clear_int$this_timer$1$1
  0D:0548    LTMR_clear_int$file_name$3$3
  0D:056A    LTMR_current_value$this_timer$1$1
  0D:056D    LTMR_current_value$file_name$3$3
  0D:058F    LTMR_reload$load_value$1$1
  0D:058F    _TMR_reload_PARM_2
  0D:0593    LTMR_reload$this_timer$1$1
  0D:0596    LTMR_reload$file_name$3$3
  0D:05B8    LTMR_reload$file_name$3$5
  0D:05DA    LGPIO_init$base_addr$1$1
  0D:05DA    _GPIO_init_PARM_2
  0D:05DC    LGPIO_init$bus_width$1$1
  0D:05DC    _GPIO_init_PARM_3
  0D:05DD    LGPIO_init$this_gpio$1$1
  0D:05E0    LGPIO_init$i$1$1
  0D:05E1    LGPIO_init$cfg_reg_addr$1$1
  0D:05E3    LGPIO_init$file_name$4$5
  0D:0603    LGPIO_config$port_id$1$1
  0D:0603    _GPIO_config_PARM_2
  0D:0604    LGPIO_config$config$1$1
  0D:0604    _GPIO_config_PARM_3
  0D:0608    LGPIO_config$this_gpio$1$1
  0D:060B    LGPIO_config$file_name$3$3
  0D:062B    LGPIO_config$file_name$4$6
  0D:064B    LGPIO_set_outputs$value$1$1
  0D:064B    _GPIO_set_outputs_PARM_2
  0D:064F    LGPIO_set_outputs$this_gpio$1$1
  0D:0652    LGPIO_set_outputs$file_name$4$4
  0D:0672    LGPIO_set_outputs$file_name$3$6
  0D:0692    LGPIO_get_inputs$this_gpio$1$1
  0D:0695    LGPIO_get_inputs$gpio_in$1$1
  0D:0699    LGPIO_get_inputs$file_name$4$4
  0D:06B9    LGPIO_get_outputs$this_gpio$1$1
  0D:06BC    LGPIO_get_outputs$gpio_out$1$1
  0D:06C0    LGPIO_get_outputs$file_name$4$4
  0D:06E0    LGPIO_set_output$port_id$1$1
  0D:06E0    _GPIO_set_output_PARM_2
  0D:06E1    LGPIO_set_output$value$1$1
  0D:06E1    _GPIO_set_output_PARM_3
  0D:06E2    LGPIO_set_output$this_gpio$1$1
  0D:06E5    LGPIO_set_output$file_name$3$3
  0D:0705    LGPIO_set_output$outputs_state$3$5
  0D:0709    LGPIO_set_output$file_name$5$9
  0D:0729    LGPIO_set_output$outputs_state$3$10
  0D:072B    LGPIO_set_output$file_name$5$14
  0D:074B    LGPIO_set_output$outputs_state$3$15
  0D:074C    LGPIO_set_output$file_name$5$19
  0D:076C    LGPIO_set_output$file_name$4$21
  0D:078C    LGPIO_drive_inout$port_id$1$1
  0D:078C    _GPIO_drive_inout_PARM_2
  0D:078D    LGPIO_drive_inout$inout_state$1$1
  0D:078D    _GPIO_drive_inout_PARM_3
  0D:078E    LGPIO_drive_inout$this_gpio$1$1
  0D:0791    LGPIO_drive_inout$file_name$3$3
  0D:07B1    LGPIO_drive_inout$file_name$4$6
  0D:07D1    LGPIO_enable_irq$port_id$1$1
  0D:07D1    _GPIO_enable_irq_PARM_2
  0D:07D2    LGPIO_enable_irq$this_gpio$1$1
  0D:07D5    LGPIO_enable_irq$file_name$3$3
  0D:07F5    LGPIO_disable_irq$port_id$1$1
  0D:07F5    _GPIO_disable_irq_PARM_2
  0D:07F6    LGPIO_disable_irq$this_gpio$1$1
  0D:07F9    LGPIO_disable_irq$file_name$3$3
  0D:0819    LGPIO_clear_irq$port_id$1$1
  0D:0819    _GPIO_clear_irq_PARM_2
  0D:081A    LGPIO_clear_irq$this_gpio$1$1
  0D:081D    LGPIO_clear_irq$file_name$4$4
  0D:083D    __gptrput_PARM_2
  0D:083E    __mulint_PARM_2

Hexadecimal

Area                               Addr   Size   Decimal Bytes (Attributes)
--------------------------------   ----   ----   ------- ----- ------------
XISEG                              0840   0000 =      0. bytes (REL,CON,XDATA)

Hexadecimal

Area                               Addr   Size   Decimal Bytes (Attributes)
--------------------------------   ----   ----   ------- ----- ------------
HOME                               0000   0008 =      8. bytes (REL,CON,CODE)

      Value  Global
   --------  --------------------------------
  0C:0000    A$main$106
  0C:0003    A$main$128
  0C:0003    __sdcc_program_startup
  0C:0006    A$main$130

Hexadecimal

Area                               Addr   Size   Decimal Bytes (Attributes)
--------------------------------   ----   ----   ------- ----- ------------
GSINIT0                            0008   0003 =      3. bytes (REL,CON,CODE)

      Value  Global
   --------  --------------------------------
  0C:0008    __sdcc_gsinit_startup

Hexadecimal

Area                               Addr   Size   Decimal Bytes (Attributes)
--------------------------------   ----   ----   ------- ----- ------------
GSINIT1                            000B   0000 =      0. bytes (REL,CON,CODE)

Hexadecimal

Area                               Addr   Size   Decimal Bytes (Attributes)
--------------------------------   ----   ----   ------- ----- ------------
GSINIT2                            000B   000A =     10. bytes (REL,CON,CODE)

Hexadecimal

Area                               Addr   Size   Decimal Bytes (Attributes)
--------------------------------   ----   ----   ------- ----- ------------
GSINIT3                            0015   0022 =     34. bytes (REL,CON,CODE)

      Value  Global
   --------  --------------------------------
  0C:0015    __mcs51_genXINIT

Hexadecimal

Area                               Addr   Size   Decimal Bytes (Attributes)
--------------------------------   ----   ----   ------- ----- ------------
GSINIT4                            0037   0028 =     40. bytes (REL,CON,CODE)

      Value  Global
   --------  --------------------------------
  0C:0037    __mcs51_genRAMCLEAR
  0C:003D    __mcs51_genXRAMCLEAR

Hexadecimal

Area                               Addr   Size   Decimal Bytes (Attributes)
--------------------------------   ----   ----   ------- ----- ------------
GSINIT5                            005F   0000 =      0. bytes (REL,CON,CODE)

Hexadecimal

Area                               Addr   Size   Decimal Bytes (Attributes)
--------------------------------   ----   ----   ------- ----- ------------
GSINIT                             005F   0000 =      0. bytes (REL,CON,CODE)

Hexadecimal

Area                               Addr   Size   Decimal Bytes (Attributes)
--------------------------------   ----   ----   ------- ----- ------------
GSFINAL                            005F   0003 =      3. bytes (REL,CON,CODE)

      Value  Global
   --------  --------------------------------
  0C:005F    A$main$121

Hexadecimal

Area                               Addr   Size   Decimal Bytes (Attributes)
--------------------------------   ----   ----   ------- ----- ------------
CSEG                               0062   5C4B =  23627. bytes (REL,CON,CODE)

      Value  Global
   --------  --------------------------------
  0C:0062    A$main$160
  0C:0062    C$main.c$54$0$0
  0C:0062    C$main.c$56$1$0
  0C:0062    G$main$0$0
  0C:0062    _main
  0C:0065    A$main$161
  0C:0067    A$main$162
  0C:0068    A$main$165
  0C:006B    A$main$166
  0C:006D    A$main$167
  0C:006E    A$main$170
  0C:0071    A$main$171
  0C:0073    A$main$172
  0C:0074    A$main$175
  0C:0077    A$main$176
  0C:0079    A$main$177
  0C:007A    A$main$180
  0C:007D    A$main$181
  0C:007F    A$main$182
  0C:0080    A$main$185
  0C:0083    A$main$186
  0C:0085    A$main$187
  0C:0086    A$main$190
  0C:0089    A$main$191
  0C:008B    A$main$192
  0C:008C    A$main$195
  0C:008F    A$main$196
  0C:0091    A$main$197
  0C:0092    A$main$200
  0C:0095    A$main$201
  0C:0097    A$main$202
  0C:0098    A$main$205
  0C:009B    A$main$206
  0C:009D    A$main$207
  0C:009E    A$main$210
  0C:00A1    A$main$211
  0C:00A3    A$main$212
  0C:00A4    A$main$215
  0C:00A7    A$main$216
  0C:00A9    A$main$217
  0C:00AA    A$main$220
  0C:00AD    A$main$221
  0C:00AF    A$main$222
  0C:00B0    A$main$225
  0C:00B3    A$main$226
  0C:00B5    A$main$227
  0C:00B6    A$main$230
  0C:00B9    A$main$231
  0C:00BB    A$main$232
  0C:00BC    A$main$235
  0C:00BF    A$main$236
  0C:00C1    A$main$237
  0C:00C2    A$main$240
  0C:00C5    A$main$241
  0C:00C7    A$main$242
  0C:00C8    A$main$245
  0C:00CB    A$main$246
  0C:00CD    A$main$247
  0C:00CE    A$main$250
  0C:00D1    A$main$251
  0C:00D3    A$main$252
  0C:00D4    A$main$255
  0C:00D7    A$main$256
  0C:00D9    A$main$257
  0C:00DA    A$main$260
  0C:00DD    A$main$261
  0C:00DF    A$main$262
  0C:00E0    A$main$265
  0C:00E3    A$main$266
  0C:00E5    A$main$267
  0C:00E6    A$main$270
  0C:00E9    A$main$271
  0C:00EB    A$main$272
  0C:00EC    A$main$275
  0C:00EF    A$main$276
  0C:00F1    A$main$277
  0C:00F2    A$main$280
  0C:00F5    A$main$281
  0C:00F7    A$main$282
  0C:00F8    A$main$285
  0C:00FB    A$main$286
  0C:00FD    A$main$287
  0C:00FE    A$main$290
  0C:0101    A$main$291
  0C:0103    A$main$292
  0C:0104    A$main$295
  0C:0107    A$main$296
  0C:0109    A$main$297
  0C:010A    A$main$300
  0C:010D    A$main$301
  0C:010F    A$main$302
  0C:0110    A$main$305
  0C:0113    A$main$306
  0C:0115    A$main$307
  0C:0116    A$main$310
  0C:0119    A$main$311
  0C:011B    A$main$312
  0C:011C    A$main$317
  0C:011C    C$main.c$57$1$0
  0C:011F    A$main$318
  0C:0121    A$main$319
  0C:0122    A$main$322
  0C:0125    A$main$323
  0C:0127    A$main$324
  0C:0128    A$main$327
  0C:012B    A$main$328
  0C:012D    A$main$329
  0C:012E    A$main$333
  0C:012E    C$main.c$62$1$1
  0C:0131    A$main$334
  0C:0133    A$main$335
  0C:0134    A$main$336
  0C:0135    A$main$337
  0C:0137    A$main$338
  0C:0138    A$main$340
  0C:013B    A$main$341
  0C:013D    A$main$342
  0C:013E    A$main$343
  0C:013F    A$main$344
  0C:0140    A$main$345
  0C:0141    A$main$347
  0C:0144    A$main$348
  0C:0146    A$main$349
  0C:0147    A$main$351
  0C:014A    A$main$352
  0C:014D    A$main$353
  0C:0150    A$main$354
  0C:0153    A$main$358
  0C:0153    C$main.c$64$1$1
  0C:0156    A$main$359
  0C:0158    A$main$360
  0C:0159    A$main$361
  0C:015A    A$main$362
  0C:015C    A$main$363
  0C:015D    A$main$365
  0C:0160    A$main$366
  0C:0162    A$main$367
  0C:0163    A$main$368
  0C:0164    A$main$369
  0C:0166    A$main$370
  0C:0167    A$main$371
  0C:0168    A$main$372
  0C:016A    A$main$373
  0C:016B    A$main$374
  0C:016C    A$main$375
  0C:016E    A$main$376
  0C:016F    A$main$378
  0C:0172    A$main$379
  0C:0174    A$main$380
  0C:0175    A$main$381
  0C:0176    A$main$382
  0C:0177    A$main$383
  0C:0178    A$main$384
  0C:0179    A$main$385
  0C:017A    A$main$386
  0C:017B    A$main$387
  0C:017C    A$main$389
  0C:017F    A$main$390
  0C:0182    A$main$391
  0C:0185    A$main$392
  0C:0188    A$main$396
  0C:0188    C$main.c$65$1$1
  0C:018B    A$main$397
  0C:018E    A$main$398
  0C:0191    A$main$399
  0C:0194    A$main$403
  0C:0194    C$main.c$67$1$1
  0C:0197    A$main$404
  0C:0199    A$main$405
  0C:019A    A$main$406
  0C:019B    A$main$407
  0C:019D    A$main$408
  0C:019E    A$main$410
  0C:01A1    A$main$411
  0C:01A3    A$main$412
  0C:01A4    A$main$414
  0C:01A7    A$main$415
  0C:01AA    A$main$416
  0C:01AD    A$main$417
  0C:01B0    A$main$421
  0C:01B0    C$main.c$71$1$1
  0C:01B3    A$main$422
  0C:01B5    A$main$423
  0C:01B6    A$main$425
  0C:01B9    A$main$426
  0C:01BB    A$main$427
  0C:01BC    A$main$428
  0C:01BD    A$main$429
  0C:01BE    A$main$430
  0C:01BF    A$main$431
  0C:01C0    A$main$432
  0C:01C1    A$main$433
  0C:01C2    A$main$434
  0C:01C3    A$main$436
  0C:01C6    A$main$437
  0C:01C9    A$main$438
  0C:01CC    A$main$439
  0C:01CF    A$main$443
  0C:01CF    C$main.c$73$1$1
  0C:01D2    A$main$444
  0C:01D4    A$main$445
  0C:01D5    A$main$447
  0C:01D8    A$main$448
  0C:01DA    A$main$449
  0C:01DB    A$main$450
  0C:01DC    A$main$451
  0C:01DD    A$main$452
  0C:01DE    A$main$453
  0C:01DF    A$main$454
  0C:01E0    A$main$455
  0C:01E1    A$main$456
  0C:01E2    A$main$458
  0C:01E5    A$main$459
  0C:01E8    A$main$460
  0C:01EB    A$main$461
  0C:01EE    A$main$465
  0C:01EE    C$main.c$75$1$1
  0C:01F1    A$main$466
  0C:01F3    A$main$467
  0C:01F4    A$main$469
  0C:01F7    A$main$470
  0C:01F9    A$main$471
  0C:01FA    A$main$472
  0C:01FB    A$main$473
  0C:01FC    A$main$474
  0C:01FD    A$main$475
  0C:01FE    A$main$476
  0C:01FF    A$main$477
  0C:0200    A$main$478
  0C:0201    A$main$480
  0C:0204    A$main$481
  0C:0207    A$main$482
  0C:020A    A$main$483
  0C:020D    A$main$487
  0C:020D    C$main.c$77$1$1
  0C:0210    A$main$488
  0C:0212    A$main$489
  0C:0213    A$main$491
  0C:0216    A$main$492
  0C:0218    A$main$493
  0C:0219    A$main$494
  0C:021A    A$main$495
  0C:021B    A$main$496
  0C:021C    A$main$497
  0C:021D    A$main$498
  0C:021E    A$main$499
  0C:021F    A$main$500
  0C:0220    A$main$502
  0C:0223    A$main$503
  0C:0226    A$main$504
  0C:0229    A$main$505
  0C:022C    A$main$509
  0C:022C    C$main.c$79$1$1
  0C:022F    A$main$510
  0C:0231    A$main$511
  0C:0232    A$main$513
  0C:0235    A$main$514
  0C:0237    A$main$515
  0C:0238    A$main$516
  0C:0239    A$main$517
  0C:023A    A$main$518
  0C:023B    A$main$519
  0C:023C    A$main$520
  0C:023D    A$main$521
  0C:023E    A$main$522
  0C:023F    A$main$524
  0C:0242    A$main$525
  0C:0245    A$main$526
  0C:0248    A$main$527
  0C:024B    A$main$531
  0C:024B    C$main.c$81$1$1
  0C:024E    A$main$532
  0C:0250    A$main$533
  0C:0251    A$main$535
  0C:0254    A$main$536
  0C:0256    A$main$537
  0C:0257    A$main$538
  0C:0258    A$main$539
  0C:0259    A$main$540
  0C:025A    A$main$541
  0C:025B    A$main$542
  0C:025C    A$main$543
  0C:025D    A$main$544
  0C:025E    A$main$546
  0C:0261    A$main$547
  0C:0264    A$main$548
  0C:0267    A$main$549
  0C:026A    A$main$553
  0C:026A    C$main.c$83$1$1
  0C:026D    A$main$554
  0C:026F    A$main$555
  0C:0270    A$main$557
  0C:0273    A$main$558
  0C:0275    A$main$559
  0C:0276    A$main$560
  0C:0277    A$main$561
  0C:0278    A$main$562
  0C:0279    A$main$563
  0C:027A    A$main$564
  0C:027B    A$main$565
  0C:027C    A$main$566
  0C:027D    A$main$568
  0C:0280    A$main$569
  0C:0283    A$main$570
  0C:0286    A$main$571
  0C:0289    A$main$575
  0C:0289    C$main.c$85$1$1
  0C:028C    A$main$576
  0C:028E    A$main$577
  0C:028F    A$main$579
  0C:0292    A$main$580
  0C:0294    A$main$581
  0C:0295    A$main$582
  0C:0296    A$main$583
  0C:0297    A$main$584
  0C:0298    A$main$585
  0C:0299    A$main$586
  0C:029A    A$main$587
  0C:029B    A$main$588
  0C:029C    A$main$590
  0C:029F    A$main$591
  0C:02A2    A$main$592
  0C:02A5    A$main$593
  0C:02A8    A$main$597
  0C:02A8    C$main.c$87$1$1
  0C:02AB    A$main$598
  0C:02AD    A$main$599
  0C:02AE    A$main$601
  0C:02B1    A$main$602
  0C:02B3    A$main$603
  0C:02B4    A$main$604
  0C:02B5    A$main$605
  0C:02B6    A$main$606
  0C:02B7    A$main$607
  0C:02B8    A$main$608
  0C:02B9    A$main$609
  0C:02BA    A$main$610
  0C:02BB    A$main$612
  0C:02BE    A$main$613
  0C:02C1    A$main$614
  0C:02C4    A$main$615
  0C:02C7    A$main$619
  0C:02C7    C$main.c$90$1$1
  0C:02CA    A$main$620
  0C:02CC    A$main$621
  0C:02CD    A$main$623
  0C:02D0    A$main$624
  0C:02D2    A$main$625
  0C:02D3    A$main$627
  0C:02D6    A$main$628
  0C:02D9    A$main$629
  0C:02DC    A$main$630
  0C:02DF    A$main$634
  0C:02DF    C$main.c$92$1$1
  0C:02E2    A$main$635
  0C:02E4    A$main$636
  0C:02E5    A$main$638
  0C:02E8    A$main$639
  0C:02EA    A$main$640
  0C:02EB    A$main$642
  0C:02EE    A$main$643
  0C:02F1    A$main$644
  0C:02F4    A$main$645
  0C:02F7    A$main$649
  0C:02F7    C$main.c$94$1$1
  0C:02FA    A$main$650
  0C:02FC    A$main$651
  0C:02FD    A$main$653
  0C:0300    A$main$654
  0C:0302    A$main$655
  0C:0303    A$main$657
  0C:0306    A$main$658
  0C:0309    A$main$659
  0C:030C    A$main$660
  0C:030F    A$main$664
  0C:030F    C$main.c$96$1$1
  0C:0312    A$main$665
  0C:0314    A$main$666
  0C:0315    A$main$668
  0C:0318    A$main$669
  0C:031A    A$main$670
  0C:031B    A$main$672
  0C:031E    A$main$673
  0C:0321    A$main$674
  0C:0324    A$main$675
  0C:0327    A$main$679
  0C:0327    C$main.c$98$1$1
  0C:032A    A$main$680
  0C:032C    A$main$681
  0C:032D    A$main$683
  0C:0330    A$main$684
  0C:0332    A$main$685
  0C:0333    A$main$687
  0C:0336    A$main$688
  0C:0339    A$main$689
  0C:033C    A$main$690
  0C:033F    A$main$694
  0C:033F    C$main.c$100$1$1
  0C:0342    A$main$695
  0C:0344    A$main$696
  0C:0345    A$main$698
  0C:0348    A$main$699
  0C:034A    A$main$700
  0C:034B    A$main$702
  0C:034E    A$main$703
  0C:0351    A$main$704
  0C:0354    A$main$705
  0C:0357    A$main$709
  0C:0357    C$main.c$102$1$1
  0C:035A    A$main$710
  0C:035C    A$main$711
  0C:035D    A$main$713
  0C:0360    A$main$714
  0C:0362    A$main$715
  0C:0363    A$main$717
  0C:0366    A$main$718
  0C:0369    A$main$719
  0C:036C    A$main$720
  0C:036F    A$main$724
  0C:036F    C$main.c$104$1$1
  0C:0372    A$main$725
  0C:0374    A$main$726
  0C:0375    A$main$728
  0C:0378    A$main$729
  0C:037A    A$main$730
  0C:037B    A$main$732
  0C:037E    A$main$733
  0C:0381    A$main$734
  0C:0384    A$main$735
  0C:0387    A$main$739
  0C:0387    C$main.c$106$1$1
  0C:038A    A$main$740
  0C:038C    A$main$741
  0C:038D    A$main$743
  0C:0390    A$main$744
  0C:0392    A$main$745
  0C:0393    A$main$747
  0C:0396    A$main$748
  0C:0399    A$main$749
  0C:039C    A$main$750
  0C:039F    A$main$754
  0C:039F    C$main.c$108$1$1
  0C:03A2    A$main$755
  0C:03A4    A$main$756
  0C:03A5    A$main$757
  0C:03A6    A$main$758
  0C:03A8    A$main$759
  0C:03A9    A$main$760
  0C:03AA    A$main$761
  0C:03AC    A$main$762
  0C:03AD    A$main$764
  0C:03B0    A$main$765
  0C:03B2    A$main$766
  0C:03B3    A$main$767
  0C:03B4    A$main$768
  0C:03B5    A$main$769
  0C:03B6    A$main$771
  0C:03B9    A$main$772
  0C:03BC    A$main$773
  0C:03BF    A$main$774
  0C:03C2    A$main$778
  0C:03C2    C$main.c$109$1$1
  0C:03C5    A$main$779
  0C:03C7    A$main$780
  0C:03C8    A$main$781
  0C:03C9    A$main$782
  0C:03CB    A$main$783
  0C:03CC    A$main$784
  0C:03CD    A$main$785
  0C:03CF    A$main$786
  0C:03D0    A$main$788
  0C:03D3    A$main$789
  0C:03D5    A$main$790
  0C:03D6    A$main$791
  0C:03D7    A$main$792
  0C:03D8    A$main$793
  0C:03D9    A$main$795
  0C:03DC    A$main$796
  0C:03DF    A$main$797
  0C:03E2    A$main$798
  0C:03E5    A$main$805
  0C:03E5    C$main.c$111$1$1
  0C:03E5    C$main.c$115$2$2
  0C:03E8    A$main$806
  0C:03EA    A$main$807
  0C:03EB    A$main$809
  0C:03EE    A$main$810
  0C:03F0    A$main$811
  0C:03F1    A$main$813
  0C:03F4    A$main$814
  0C:03F7    A$main$815
  0C:03FA    A$main$816
  0C:03FD    A$main$820
  0C:03FD    C$main.c$117$2$2
  0C:0400    A$main$821
  0C:0403    A$main$822
  0C:0406    A$main$826
  0C:0406    C$main.c$119$2$2
  0C:0409    A$main$827
  0C:040B    A$main$828
  0C:040C    A$main$830
  0C:040F    A$main$831
  0C:0411    A$main$832
  0C:0412    A$main$834
  0C:0415    A$main$835
  0C:0418    A$main$836
  0C:041B    A$main$837
  0C:041E    A$main$841
  0C:041E    C$main.c$121$2$2
  0C:0421    A$main$842
  0C:0423    A$main$843
  0C:0424    A$main$845
  0C:0427    A$main$846
  0C:0429    A$main$847
  0C:042A    A$main$849
  0C:042D    A$main$850
  0C:0430    A$main$851
  0C:0433    A$main$852
  0C:0436    A$main$856
  0C:0436    C$main.c$123$2$2
  0C:0439    A$main$857
  0C:043C    A$main$858
  0C:043F    A$main$862
  0C:043F    C$main.c$125$2$2
  0C:0442    A$main$863
  0C:0444    A$main$864
  0C:0445    A$main$866
  0C:0448    A$main$867
  0C:044A    A$main$868
  0C:044B    A$main$870
  0C:044E    A$main$871
  0C:0451    A$main$872
  0C:0454    A$main$873
  0C:0457    A$main$877
  0C:0457    C$main.c$127$2$2
  0C:045A    A$main$878
  0C:045C    A$main$879
  0C:045D    A$main$881
  0C:0460    A$main$882
  0C:0462    A$main$883
  0C:0463    A$main$885
  0C:0466    A$main$886
  0C:0469    A$main$887
  0C:046C    A$main$888
  0C:046F    A$main$892
  0C:046F    C$main.c$129$2$2
  0C:0472    A$main$893
  0C:0475    A$main$894
  0C:0478    A$main$898
  0C:0478    C$main.c$131$2$2
  0C:047B    A$main$899
  0C:047D    A$main$900
  0C:047E    A$main$902
  0C:0481    A$main$903
  0C:0483    A$main$904
  0C:0484    A$main$906
  0C:0487    A$main$907
  0C:048A    A$main$908
  0C:048D    A$main$909
  0C:0490    A$main$913
  0C:0490    C$main.c$133$2$2
  0C:0493    A$main$914
  0C:0495    A$main$915
  0C:0496    A$main$917
  0C:0499    A$main$918
  0C:049B    A$main$919
  0C:049C    A$main$921
  0C:049F    A$main$922
  0C:04A2    A$main$923
  0C:04A5    A$main$924
  0C:04A8    A$main$928
  0C:04A8    C$main.c$135$2$2
  0C:04AB    A$main$929
  0C:04AE    A$main$930
  0C:04B1    A$main$934
  0C:04B1    C$main.c$137$2$2
  0C:04B4    A$main$935
  0C:04B6    A$main$936
  0C:04B7    A$main$938
  0C:04BA    A$main$939
  0C:04BC    A$main$940
  0C:04BD    A$main$942
  0C:04C0    A$main$943
  0C:04C3    A$main$944
  0C:04C6    A$main$945
  0C:04C9    A$main$949
  0C:04C9    C$main.c$139$2$2
  0C:04CC    A$main$950
  0C:04CE    A$main$951
  0C:04CF    A$main$953
  0C:04D2    A$main$954
  0C:04D4    A$main$955
  0C:04D5    A$main$957
  0C:04D8    A$main$958
  0C:04DB    A$main$959
  0C:04DE    A$main$960
  0C:04E1    A$main$964
  0C:04E1    C$main.c$141$2$2
  0C:04E4    A$main$965
  0C:04E7    A$main$966
  0C:04EA    A$main$970
  0C:04EA    C$main.c$143$2$2
  0C:04ED    A$main$971
  0C:04EF    A$main$972
  0C:04F0    A$main$974
  0C:04F3    A$main$975
  0C:04F5    A$main$976
  0C:04F6    A$main$978
  0C:04F9    A$main$979
  0C:04FC    A$main$980
  0C:04FF    A$main$981
  0C:0502    A$main$985
  0C:0502    C$main.c$145$2$2
  0C:0505    A$main$986
  0C:0507    A$main$987
  0C:0508    A$main$989
  0C:050B    A$main$990
  0C:050D    A$main$991
  0C:050E    A$main$993
  0C:0511    A$main$994
  0C:0514    A$main$995
  0C:0517    A$main$996
  0C:051A    A$main$1000
  0C:051A    C$main.c$147$2$2
  0C:051D    A$main$1001
  0C:0520    A$main$1002
  0C:0523    A$main$1006
  0C:0523    C$main.c$149$2$2
  0C:0526    A$main$1007
  0C:0528    A$main$1008
  0C:0529    A$main$1010
  0C:052C    A$main$1011
  0C:052E    A$main$1012
  0C:052F    A$main$1014
  0C:0532    A$main$1015
  0C:0535    A$main$1016
  0C:0538    A$main$1017
  0C:053B    A$main$1021
  0C:053B    C$main.c$151$2$2
  0C:053E    A$main$1022
  0C:0540    A$main$1023
  0C:0541    A$main$1025
  0C:0544    A$main$1026
  0C:0546    A$main$1027
  0C:0547    A$main$1029
  0C:054A    A$main$1030
  0C:054D    A$main$1031
  0C:0550    A$main$1032
  0C:0553    A$main$1036
  0C:0553    C$main.c$153$2$2
  0C:0556    A$main$1037
  0C:0559    A$main$1038
  0C:055C    A$main$1042
  0C:055C    C$main.c$155$2$2
  0C:055F    A$main$1043
  0C:0561    A$main$1044
  0C:0562    A$main$1046
  0C:0565    A$main$1047
  0C:0567    A$main$1048
  0C:0568    A$main$1050
  0C:056B    A$main$1051
  0C:056E    A$main$1052
  0C:0571    A$main$1053
  0C:0574    A$main$1057
  0C:0574    C$main.c$157$2$2
  0C:0577    A$main$1058
  0C:0579    A$main$1059
  0C:057A    A$main$1061
  0C:057D    A$main$1062
  0C:057F    A$main$1063
  0C:0580    A$main$1065
  0C:0583    A$main$1066
  0C:0586    A$main$1067
  0C:0589    A$main$1068
  0C:058C    A$main$1072
  0C:058C    C$main.c$159$2$2
  0C:058F    A$main$1073
  0C:0592    A$main$1074
  0C:0595    A$main$1078
  0C:0595    C$main.c$161$2$2
  0C:0598    A$main$1079
  0C:059A    A$main$1080
  0C:059B    A$main$1082
  0C:059E    A$main$1083
  0C:05A0    A$main$1084
  0C:05A1    A$main$1086
  0C:05A4    A$main$1087
  0C:05A7    A$main$1088
  0C:05AA    A$main$1089
  0C:05AD    A$main$1093
  0C:05AD    C$main.c$163$2$2
  0C:05B0    A$main$1094
  0C:05B2    A$main$1095
  0C:05B3    A$main$1097
  0C:05B6    A$main$1098
  0C:05B8    A$main$1099
  0C:05B9    A$main$1101
  0C:05BC    A$main$1102
  0C:05BF    A$main$1103
  0C:05C2    A$main$1104
  0C:05C5    A$main$1108
  0C:05C5    C$main.c$165$2$2
  0C:05C8    A$main$1109
  0C:05CB    A$main$1110
  0C:05CE    A$main$1114
  0C:05CE    C$main.c$171$2$2
  0C:05D1    A$main$1115
  0C:05D3    A$main$1116
  0C:05D4    A$main$1118
  0C:05D7    A$main$1119
  0C:05D9    A$main$1120
  0C:05DA    A$main$1122
  0C:05DD    A$main$1123
  0C:05E0    A$main$1124
  0C:05E3    A$main$1125
  0C:05E6    A$main$1129
  0C:05E6    C$main.c$173$2$2
  0C:05E9    A$main$1130
  0C:05EB    A$main$1131
  0C:05EC    A$main$1133
  0C:05EF    A$main$1134
  0C:05F1    A$main$1135
  0C:05F2    A$main$1137
  0C:05F5    A$main$1138
  0C:05F8    A$main$1139
  0C:05FB    A$main$1140
  0C:05FE    A$main$1144
  0C:05FE    C$main.c$175$2$2
  0C:0601    A$main$1145
  0C:0604    A$main$1146
  0C:0607    A$main$1150
  0C:0607    C$main.c$177$2$2
  0C:060A    A$main$1151
  0C:060C    A$main$1152
  0C:060D    A$main$1154
  0C:0610    A$main$1155
  0C:0612    A$main$1156
  0C:0613    A$main$1158
  0C:0616    A$main$1159
  0C:0619    A$main$1160
  0C:061C    A$main$1161
  0C:061F    A$main$1165
  0C:061F    C$main.c$179$2$2
  0C:0622    A$main$1166
  0C:0624    A$main$1167
  0C:0625    A$main$1169
  0C:0628    A$main$1170
  0C:062A    A$main$1171
  0C:062B    A$main$1173
  0C:062E    A$main$1174
  0C:0631    A$main$1175
  0C:0634    A$main$1176
  0C:0637    A$main$1180
  0C:0637    C$main.c$181$2$2
  0C:063A    A$main$1181
  0C:063D    A$main$1182
  0C:0640    A$main$1186
  0C:0640    C$main.c$183$2$2
  0C:0643    A$main$1187
  0C:0645    A$main$1188
  0C:0646    A$main$1190
  0C:0649    A$main$1191
  0C:064B    A$main$1192
  0C:064C    A$main$1194
  0C:064F    A$main$1195
  0C:0652    A$main$1196
  0C:0655    A$main$1197
  0C:0658    A$main$1201
  0C:0658    C$main.c$185$2$2
  0C:065B    A$main$1202
  0C:065D    A$main$1203
  0C:065E    A$main$1205
  0C:0661    A$main$1206
  0C:0663    A$main$1207
  0C:0664    A$main$1209
  0C:0667    A$main$1210
  0C:066A    A$main$1211
  0C:066D    A$main$1212
  0C:0670    A$main$1216
  0C:0670    C$main.c$187$2$2
  0C:0673    A$main$1217
  0C:0676    A$main$1218
  0C:0679    A$main$1222
  0C:0679    C$main.c$189$2$2
  0C:067C    A$main$1223
  0C:067E    A$main$1224
  0C:067F    A$main$1226
  0C:0682    A$main$1227
  0C:0684    A$main$1228
  0C:0685    A$main$1230
  0C:0688    A$main$1231
  0C:068B    A$main$1232
  0C:068E    A$main$1233
  0C:0691    A$main$1237
  0C:0691    C$main.c$191$2$2
  0C:0694    A$main$1238
  0C:0696    A$main$1239
  0C:0697    A$main$1241
  0C:069A    A$main$1242
  0C:069C    A$main$1243
  0C:069D    A$main$1245
  0C:06A0    A$main$1246
  0C:06A3    A$main$1247
  0C:06A6    A$main$1248
  0C:06A9    A$main$1252
  0C:06A9    C$main.c$193$2$2
  0C:06AC    A$main$1253
  0C:06AF    A$main$1254
  0C:06B2    A$main$1258
  0C:06B2    C$main.c$195$2$2
  0C:06B5    A$main$1259
  0C:06B7    A$main$1260
  0C:06B8    A$main$1262
  0C:06BB    A$main$1263
  0C:06BD    A$main$1264
  0C:06BE    A$main$1266
  0C:06C1    A$main$1267
  0C:06C4    A$main$1268
  0C:06C7    A$main$1269
  0C:06CA    A$main$1273
  0C:06CA    C$main.c$197$2$2
  0C:06CD    A$main$1274
  0C:06CF    A$main$1275
  0C:06D0    A$main$1277
  0C:06D3    A$main$1278
  0C:06D5    A$main$1279
  0C:06D6    A$main$1281
  0C:06D9    A$main$1282
  0C:06DC    A$main$1283
  0C:06DF    A$main$1284
  0C:06E2    A$main$1288
  0C:06E2    C$main.c$199$2$2
  0C:06E5    A$main$1289
  0C:06E8    A$main$1290
  0C:06EB    A$main$1294
  0C:06EB    C$main.c$201$2$2
  0C:06EE    A$main$1295
  0C:06F0    A$main$1296
  0C:06F1    A$main$1298
  0C:06F4    A$main$1299
  0C:06F6    A$main$1300
  0C:06F7    A$main$1302
  0C:06FA    A$main$1303
  0C:06FD    A$main$1304
  0C:0700    A$main$1305
  0C:0703    A$main$1309
  0C:0703    C$main.c$203$2$2
  0C:0706    A$main$1310
  0C:0708    A$main$1311
  0C:0709    A$main$1313
  0C:070C    A$main$1314
  0C:070E    A$main$1315
  0C:070F    A$main$1317
  0C:0712    A$main$1318
  0C:0715    A$main$1319
  0C:0718    A$main$1320
  0C:071B    A$main$1324
  0C:071B    C$main.c$205$2$2
  0C:071E    A$main$1325
  0C:0721    A$main$1326
  0C:0724    A$main$1330
  0C:0724    C$main.c$207$2$2
  0C:0727    A$main$1331
  0C:0729    A$main$1332
  0C:072A    A$main$1334
  0C:072D    A$main$1335
  0C:072F    A$main$1336
  0C:0730    A$main$1338
  0C:0733    A$main$1339
  0C:0736    A$main$1340
  0C:0739    A$main$1341
  0C:073C    A$main$1345
  0C:073C    C$main.c$209$2$2
  0C:073F    A$main$1346
  0C:0741    A$main$1347
  0C:0742    A$main$1349
  0C:0745    A$main$1350
  0C:0747    A$main$1351
  0C:0748    A$main$1353
  0C:074B    A$main$1354
  0C:074E    A$main$1355
  0C:0751    A$main$1356
  0C:0754    A$main$1360
  0C:0754    C$main.c$211$2$2
  0C:0757    A$main$1361
  0C:075A    A$main$1362
  0C:075D    A$main$1366
  0C:075D    C$main.c$213$2$2
  0C:0760    A$main$1367
  0C:0762    A$main$1368
  0C:0763    A$main$1370
  0C:0766    A$main$1371
  0C:0768    A$main$1372
  0C:0769    A$main$1374
  0C:076C    A$main$1375
  0C:076F    A$main$1376
  0C:0772    A$main$1377
  0C:0775    A$main$1381
  0C:0775    C$main.c$215$2$2
  0C:0778    A$main$1382
  0C:077A    A$main$1383
  0C:077B    A$main$1385
  0C:077E    A$main$1386
  0C:0780    A$main$1387
  0C:0781    A$main$1389
  0C:0784    A$main$1390
  0C:0787    A$main$1391
  0C:078A    A$main$1392
  0C:078D    A$main$1396
  0C:078D    C$main.c$217$2$2
  0C:0790    A$main$1397
  0C:0793    A$main$1398
  0C:0796    A$main$1402
  0C:0796    C$main.c$219$2$2
  0C:0799    A$main$1403
  0C:079B    A$main$1404
  0C:079C    A$main$1406
  0C:079F    A$main$1407
  0C:07A1    A$main$1408
  0C:07A2    A$main$1410
  0C:07A5    A$main$1411
  0C:07A8    A$main$1412
  0C:07AB    A$main$1413
  0C:07AE    A$main$1417
  0C:07AE    C$main.c$221$2$2
  0C:07B1    A$main$1418
  0C:07B4    A$main$1419
  0C:07B7    A$main$1420
  0C:07BA    A$main$1424
  0C:07BA    C$main.c$225$1$1
  0C:07BA    XG$main$0$0
  0C:07BB    A$main$1439
  0C:07BB    C$main.c$229$1$1
  0C:07BB    G$wait$0$0
  0C:07BB    _wait
  0C:07BD    A$main$1440
  0C:07BF    A$main$1441
  0C:07C2    A$main$1442
  0C:07C3    A$main$1443
  0C:07C4    A$main$1444
  0C:07C5    A$main$1445
  0C:07C6    A$main$1449
  0C:07C6    C$main.c$234$1$1
  0C:07C9    A$main$1450
  0C:07CA    A$main$1451
  0C:07CB    A$main$1452
  0C:07CC    A$main$1453
  0C:07CD    A$main$1455
  0C:07D0    A$main$1456
  0C:07D1    A$main$1457
  0C:07D2    A$main$1458
  0C:07D3    A$main$1459
  0C:07D4    A$main$1460
  0C:07D5    A$main$1462
  0C:07D8    A$main$1463
  0C:07D9    A$main$1464
  0C:07DA    A$main$1465
  0C:07DB    A$main$1466
  0C:07DC    A$main$1467
  0C:07DD    A$main$1469
  0C:07E0    A$main$1470
  0C:07E3    A$main$1471
  0C:07E6    A$main$1472
  0C:07E8    A$main$1473
  0C:07EA    A$main$1476
  0C:07ED    A$main$1477
  0C:07EE    A$main$1478
  0C:07EF    A$main$1479
  0C:07F0    A$main$1480
  0C:07F1    A$main$1481
  0C:07F2    A$main$1484
  0C:07F3    A$main$1485
  0C:07F4    A$main$1486
  0C:07F5    A$main$1487
  0C:07F6    A$main$1488
  0C:07F8    A$main$1489
  0C:07FA    A$main$1490
  0C:07FD    A$main$1491
  0C:07FF    A$main$1493
  0C:0801    A$main$1494
  0C:0804    A$main$1497
  0C:0807    A$main$1499
  0C:0809    A$main$1500
  0C:080B    A$main$1501
  0C:080C    A$main$1502
  0C:080E    A$main$1503
  0C:0810    A$main$1504
  0C:0811    A$main$1505
  0C:0812    A$main$1506
  0C:0815    A$main$1510
  0C:0815    C$main.c$239$1$1
  0C:0815    XG$wait$0$0
  0C:0816    A$hal_assert$126
  0C:0816    C$hal_assert.c$111$0$0
  0C:0816    G$HAL_assert_fail$0$0
  0C:0816    _HAL_assert_fail
  0C:0818    A$hal_assert$127
  0C:081A    A$hal_assert$128
  0C:081C    A$hal_assert$129
  0C:081F    A$hal_assert$130
  0C:0820    A$hal_assert$131
  0C:0821    A$hal_assert$132
  0C:0822    A$hal_assert$133
  0C:0823    A$hal_assert$134
  0C:0824    A$hal_assert$135
  0C:0825    A$hal_assert$136
  0C:0826    A$hal_assert$143
  0C:0826    C$hal_assert.c$117$1$1
  0C:0826    C$hal_assert.c$119$2$1
  0C:0829    A$hal_assert$144
  0C:082A    A$hal_assert$145
  0C:082B    A$hal_assert$146
  0C:082C    A$hal_assert$147
  0C:082D    A$hal_assert$148
  0C:082E    A$hal_assert$149
  0C:082F    A$hal_assert$150
  0C:0830    A$hal_assert$151
  0C:0831    A$hal_assert$153
  0C:0834    A$hal_assert$154
  0C:0835    A$hal_assert$155
  0C:0836    A$hal_assert$156
  0C:0837    A$hal_assert$157
  0C:0838    A$hal_assert$158
  0C:0839    A$hal_assert$159
  0C:083A    A$hal_assert$160
  0C:083B    A$hal_assert$161
  0C:083C    A$hal_assert$165
  0C:083C    C$hal_assert.c$120$2$1
  0C:083F    A$hal_assert$166
  0C:0840    A$hal_assert$167
  0C:0841    A$hal_assert$168
  0C:0842    A$hal_assert$169
  0C:0843    A$hal_assert$170
  0C:0844    A$hal_assert$171
  0C:0845    A$hal_assert$172
  0C:0846    A$hal_assert$173
  0C:0847    A$hal_assert$174
  0C:0848    A$hal_assert$175
  0C:0849    A$hal_assert$176
  0C:084A    A$hal_assert$178
  0C:084D    A$hal_assert$179
  0C:084E    A$hal_assert$180
  0C:084F    A$hal_assert$181
  0C:0850    A$hal_assert$182
  0C:0851    A$hal_assert$183
  0C:0852    A$hal_assert$184
  0C:0853    A$hal_assert$185
  0C:0854    A$hal_assert$186
  0C:0855    A$hal_assert$187
  0C:0856    A$hal_assert$188
  0C:0857    A$hal_assert$189
  0C:0858    A$hal_assert$193
  0C:0858    C$hal_assert.c$121$2$2
  0C:085B    A$hal_assert$194
  0C:085C    A$hal_assert$195
  0C:085D    A$hal_assert$196
  0C:085E    A$hal_assert$197
  0C:085F    A$hal_assert$198
  0C:0860    A$hal_assert$199
  0C:0861    A$hal_assert$200
  0C:0862    A$hal_assert$201
  0C:0863    A$hal_assert$204
  0C:0865    A$hal_assert$205
  0C:0867    A$hal_assert$206
  0C:0869    A$hal_assert$207
  0C:086C    A$hal_assert$208
  0C:086D    A$hal_assert$210
  0C:0870    A$hal_assert$211
  0C:0871    A$hal_assert$212
  0C:0872    A$hal_assert$213
  0C:0875    A$hal_assert$217
  0C:0875    C$hal_assert.c$123$1$1
  0C:0875    XG$HAL_assert_fail$0$0
  0C:0876    G$HW_get_32bit_reg$0$0
  0C:0876    _HW_get_32bit_reg
  0C:0881    XG$HW_get_32bit_reg$0$0
  0C:0882    G$HW_set_32bit_reg$0$0
  0C:0882    _HW_set_32bit_reg
  0C:089D    XG$HW_set_32bit_reg$0$0
  0C:089E    G$HW_set_16bit_reg$0$0
  0C:089E    _HW_set_16bit_reg
  0C:08B1    XG$HW_set_16bit_reg$0$0
  0C:08B2    G$HW_get_16bit_reg$0$0
  0C:08B2    _HW_get_16bit_reg
  0C:08B8    XG$HW_get_16bit_reg$0$0
  0C:08B9    G$HW_set_8bit_reg$0$0
  0C:08B9    _HW_set_8bit_reg
  0C:08C6    XG$HW_set_8bit_reg$0$0
  0C:08C7    G$HW_get_8bit_reg$0$0
  0C:08C7    _HW_get_8bit_reg
  0C:08CA    XG$HW_get_8bit_reg$0$0
  0C:08CB    G$HAL_enable_interrupts$0$0
  0C:08CB    _HAL_enable_interrupts
  0C:08CE    XG$HAL_enable_interrupts$0$0
  0C:08CF    G$HAL_disable_interrupts$0$0
  0C:08CF    _HAL_disable_interrupts
  0C:08D5    XG$HAL_disable_interrupts$0$0
  0C:08D6    G$HAL_restore_interrupts$0$0
  0C:08D6    _HAL_restore_interrupts
  0C:08D9    XG$HAL_restore_interrupts$0$0
  0C:08DA    A$hw_reg_access$226
  0C:08DA    C$hw_reg_access.c$16$0$0
  0C:08DA    G$HW_set_32bit_reg_field$0$0
  0C:08DA    _HW_set_32bit_reg_field
  0C:08DC    A$hw_reg_access$227
  0C:08DE    A$hw_reg_access$228
  0C:08E1    A$hw_reg_access$229
  0C:08E2    A$hw_reg_access$230
  0C:08E3    A$hw_reg_access$231
  0C:08E4    A$hw_reg_access$232
  0C:08E5    A$hw_reg_access$236
  0C:08E5    C$hw_reg_access.c$25$1$1
  0C:08E8    A$hw_reg_access$237
  0C:08E9    A$hw_reg_access$238
  0C:08EB    A$hw_reg_access$239
  0C:08EC    A$hw_reg_access$240
  0C:08ED    A$hw_reg_access$241
  0C:08EF    A$hw_reg_access$243
  0C:08F2    A$hw_reg_access$244
  0C:08F5    A$hw_reg_access$245
  0C:08F8    A$hw_reg_access$246
  0C:08FA    A$hw_reg_access$247
  0C:08FC    A$hw_reg_access$248
  0C:08FE    A$hw_reg_access$249
  0C:08FF    A$hw_reg_access$251
  0C:0902    A$hw_reg_access$252
  0C:0903    A$hw_reg_access$253
  0C:0904    A$hw_reg_access$254
  0C:0905    A$hw_reg_access$255
  0C:0906    A$hw_reg_access$256
  0C:0907    A$hw_reg_access$257
  0C:0908    A$hw_reg_access$258
  0C:0909    A$hw_reg_access$259
  0C:090A    A$hw_reg_access$260
  0C:090B    A$hw_reg_access$261
  0C:090C    A$hw_reg_access$262
  0C:090D    A$hw_reg_access$266
  0C:090D    C$hw_reg_access.c$26$1$1
  0C:0910    A$hw_reg_access$267
  0C:0911    A$hw_reg_access$268
  0C:0912    A$hw_reg_access$269
  0C:0913    A$hw_reg_access$270
  0C:0914    A$hw_reg_access$271
  0C:0915    A$hw_reg_access$272
  0C:0916    A$hw_reg_access$273
  0C:0917    A$hw_reg_access$274
  0C:0918    A$hw_reg_access$275
  0C:0919    A$hw_reg_access$276
  0C:091A    A$hw_reg_access$277
  0C:091B    A$hw_reg_access$279
  0C:091C    A$hw_reg_access$280
  0C:091D    A$hw_reg_access$281
  0C:091F    A$hw_reg_access$282
  0C:0920    A$hw_reg_access$283
  0C:0921    A$hw_reg_access$284
  0C:0923    A$hw_reg_access$285
  0C:0924    A$hw_reg_access$286
  0C:0925    A$hw_reg_access$287
  0C:0927    A$hw_reg_access$288
  0C:0928    A$hw_reg_access$289
  0C:0929    A$hw_reg_access$290
  0C:092B    A$hw_reg_access$292
  0C:092E    A$hw_reg_access$293
  0C:092F    A$hw_reg_access$294
  0C:0930    A$hw_reg_access$295
  0C:0931    A$hw_reg_access$296
  0C:0932    A$hw_reg_access$297
  0C:0933    A$hw_reg_access$298
  0C:0934    A$hw_reg_access$299
  0C:0935    A$hw_reg_access$300
  0C:0936    A$hw_reg_access$301
  0C:0937    A$hw_reg_access$302
  0C:0938    A$hw_reg_access$303
  0C:0939    A$hw_reg_access$305
  0C:093A    A$hw_reg_access$306
  0C:093C    A$hw_reg_access$307
  0C:093D    A$hw_reg_access$308
  0C:093F    A$hw_reg_access$309
  0C:0940    A$hw_reg_access$310
  0C:0942    A$hw_reg_access$311
  0C:0943    A$hw_reg_access$312
  0C:0945    A$hw_reg_access$314
  0C:0948    A$hw_reg_access$315
  0C:0949    A$hw_reg_access$316
  0C:094B    A$hw_reg_access$318
  0C:094E    A$hw_reg_access$319
  0C:094F    A$hw_reg_access$320
  0C:0950    A$hw_reg_access$321
  0C:0951    A$hw_reg_access$322
  0C:0952    A$hw_reg_access$323
  0C:0953    A$hw_reg_access$324
  0C:0954    A$hw_reg_access$325
  0C:0955    A$hw_reg_access$326
  0C:0956    A$hw_reg_access$327
  0C:0957    A$hw_reg_access$328
  0C:0958    A$hw_reg_access$329
  0C:0959    A$hw_reg_access$331
  0C:095C    A$hw_reg_access$332
  0C:095E    A$hw_reg_access$333
  0C:0960    A$hw_reg_access$335
  0C:0961    A$hw_reg_access$336
  0C:0963    A$hw_reg_access$337
  0C:0964    A$hw_reg_access$338
  0C:0965    A$hw_reg_access$339
  0C:0966    A$hw_reg_access$340
  0C:0967    A$hw_reg_access$341
  0C:0968    A$hw_reg_access$342
  0C:0969    A$hw_reg_access$343
  0C:096A    A$hw_reg_access$344
  0C:096B    A$hw_reg_access$345
  0C:096C    A$hw_reg_access$346
  0C:096D    A$hw_reg_access$348
  0C:0970    A$hw_reg_access$350
  0C:0971    A$hw_reg_access$351
  0C:0973    A$hw_reg_access$352
  0C:0974    A$hw_reg_access$353
  0C:0976    A$hw_reg_access$354
  0C:0977    A$hw_reg_access$355
  0C:0979    A$hw_reg_access$356
  0C:097A    A$hw_reg_access$357
  0C:097C    A$hw_reg_access$359
  0C:097F    A$hw_reg_access$360
  0C:0980    A$hw_reg_access$361
  0C:0982    A$hw_reg_access$362
  0C:0983    A$hw_reg_access$363
  0C:0984    A$hw_reg_access$364
  0C:0986    A$hw_reg_access$365
  0C:0987    A$hw_reg_access$366
  0C:0988    A$hw_reg_access$367
  0C:0989    A$hw_reg_access$368
  0C:098B    A$hw_reg_access$369
  0C:098C    A$hw_reg_access$370
  0C:098D    A$hw_reg_access$371
  0C:098E    A$hw_reg_access$372
  0C:0990    A$hw_reg_access$373
  0C:0991    A$hw_reg_access$374
  0C:0992    A$hw_reg_access$378
  0C:0992    C$hw_reg_access.c$27$1$1
  0C:0995    A$hw_reg_access$379
  0C:0996    A$hw_reg_access$380
  0C:0997    A$hw_reg_access$381
  0C:0998    A$hw_reg_access$382
  0C:0999    A$hw_reg_access$383
  0C:099A    A$hw_reg_access$384
  0C:099B    A$hw_reg_access$385
  0C:099C    A$hw_reg_access$386
  0C:099D    A$hw_reg_access$387
  0C:099E    A$hw_reg_access$388
  0C:099F    A$hw_reg_access$389
  0C:09A0    A$hw_reg_access$391
  0C:09A3    A$hw_reg_access$392
  0C:09A4    A$hw_reg_access$393
  0C:09A5    A$hw_reg_access$394
  0C:09A6    A$hw_reg_access$395
  0C:09A7    A$hw_reg_access$396
  0C:09A8    A$hw_reg_access$397
  0C:09A9    A$hw_reg_access$398
  0C:09AA    A$hw_reg_access$399
  0C:09AB    A$hw_reg_access$400
  0C:09AC    A$hw_reg_access$401
  0C:09AD    A$hw_reg_access$402
  0C:09AE    A$hw_reg_access$404
  0C:09B1    A$hw_reg_access$405
  0C:09B4    A$hw_reg_access$406
  0C:09B7    A$hw_reg_access$410
  0C:09B7    C$hw_reg_access.c$28$1$1
  0C:09B7    XG$HW_set_32bit_reg_field$0$0
  0C:09B8    A$hw_reg_access$427
  0C:09B8    C$hw_reg_access.c$34$1$1
  0C:09B8    G$HW_get_32bit_reg_field$0$0
  0C:09B8    _HW_get_32bit_reg_field
  0C:09BA    A$hw_reg_access$428
  0C:09BC    A$hw_reg_access$429
  0C:09BF    A$hw_reg_access$430
  0C:09C0    A$hw_reg_access$431
  0C:09C1    A$hw_reg_access$432
  0C:09C2    A$hw_reg_access$433
  0C:09C3    A$hw_reg_access$437
  0C:09C3    C$hw_reg_access.c$42$1$1
  0C:09C6    A$hw_reg_access$438
  0C:09C7    A$hw_reg_access$439
  0C:09C8    A$hw_reg_access$440
  0C:09C9    A$hw_reg_access$441
  0C:09CA    A$hw_reg_access$442
  0C:09CB    A$hw_reg_access$444
  0C:09CD    A$hw_reg_access$445
  0C:09CF    A$hw_reg_access$446
  0C:09D2    A$hw_reg_access$447
  0C:09D4    A$hw_reg_access$448
  0C:09D6    A$hw_reg_access$449
  0C:09D8    A$hw_reg_access$450
  0C:09D9    A$hw_reg_access$452
  0C:09DC    A$hw_reg_access$453
  0C:09DD    A$hw_reg_access$454
  0C:09DE    A$hw_reg_access$455
  0C:09DF    A$hw_reg_access$456
  0C:09E0    A$hw_reg_access$457
  0C:09E1    A$hw_reg_access$458
  0C:09E2    A$hw_reg_access$459
  0C:09E3    A$hw_reg_access$460
  0C:09E4    A$hw_reg_access$461
  0C:09E5    A$hw_reg_access$462
  0C:09E6    A$hw_reg_access$463
  0C:09E7    A$hw_reg_access$465
  0C:09E8    A$hw_reg_access$466
  0C:09EA    A$hw_reg_access$467
  0C:09EB    A$hw_reg_access$468
  0C:09ED    A$hw_reg_access$469
  0C:09EE    A$hw_reg_access$470
  0C:09F0    A$hw_reg_access$471
  0C:09F1    A$hw_reg_access$472
  0C:09F3    A$hw_reg_access$474
  0C:09F6    A$hw_reg_access$475
  0C:09F7    A$hw_reg_access$476
  0C:09F8    A$hw_reg_access$478
  0C:09FA    A$hw_reg_access$479
  0C:09FC    A$hw_reg_access$480
  0C:09FE    A$hw_reg_access$482
  0C:09FF    A$hw_reg_access$483
  0C:0A00    A$hw_reg_access$484
  0C:0A01    A$hw_reg_access$485
  0C:0A02    A$hw_reg_access$486
  0C:0A03    A$hw_reg_access$487
  0C:0A04    A$hw_reg_access$488
  0C:0A05    A$hw_reg_access$489
  0C:0A06    A$hw_reg_access$490
  0C:0A07    A$hw_reg_access$491
  0C:0A08    A$hw_reg_access$492
  0C:0A09    A$hw_reg_access$493
  0C:0A0A    A$hw_reg_access$494
  0C:0A0B    A$hw_reg_access$496
  0C:0A0E    A$hw_reg_access$498
  0C:0A11    A$hw_reg_access$499
  0C:0A12    A$hw_reg_access$500
  0C:0A13    A$hw_reg_access$501
  0C:0A14    A$hw_reg_access$502
  0C:0A15    A$hw_reg_access$503
  0C:0A16    A$hw_reg_access$504
  0C:0A17    A$hw_reg_access$505
  0C:0A18    A$hw_reg_access$506
  0C:0A19    A$hw_reg_access$507
  0C:0A1A    A$hw_reg_access$508
  0C:0A1B    A$hw_reg_access$509
  0C:0A1C    A$hw_reg_access$513
  0C:0A1C    C$hw_reg_access.c$43$1$1
  0C:0A1F    A$hw_reg_access$514
  0C:0A20    A$hw_reg_access$515
  0C:0A21    A$hw_reg_access$516
  0C:0A22    A$hw_reg_access$517
  0C:0A23    A$hw_reg_access$518
  0C:0A24    A$hw_reg_access$519
  0C:0A25    A$hw_reg_access$520
  0C:0A26    A$hw_reg_access$521
  0C:0A27    A$hw_reg_access$522
  0C:0A28    A$hw_reg_access$523
  0C:0A29    A$hw_reg_access$524
  0C:0A2A    A$hw_reg_access$526
  0C:0A2C    A$hw_reg_access$527
  0C:0A2E    A$hw_reg_access$528
  0C:0A30    A$hw_reg_access$529
  0C:0A31    A$hw_reg_access$533
  0C:0A31    C$hw_reg_access.c$44$1$1
  0C:0A31    XG$HW_get_32bit_reg_field$0$0
  0C:0A32    A$hw_reg_access$552
  0C:0A32    C$hw_reg_access.c$49$1$1
  0C:0A32    G$HW_set_16bit_reg_field$0$0
  0C:0A32    _HW_set_16bit_reg_field
  0C:0A34    A$hw_reg_access$553
  0C:0A36    A$hw_reg_access$554
  0C:0A39    A$hw_reg_access$555
  0C:0A3A    A$hw_reg_access$556
  0C:0A3B    A$hw_reg_access$557
  0C:0A3C    A$hw_reg_access$558
  0C:0A3D    A$hw_reg_access$562
  0C:0A3D    C$hw_reg_access.c$58$1$1
  0C:0A40    A$hw_reg_access$563
  0C:0A41    A$hw_reg_access$564
  0C:0A42    A$hw_reg_access$565
  0C:0A43    A$hw_reg_access$566
  0C:0A44    A$hw_reg_access$567
  0C:0A45    A$hw_reg_access$569
  0C:0A47    A$hw_reg_access$570
  0C:0A49    A$hw_reg_access$571
  0C:0A4B    A$hw_reg_access$572
  0C:0A4D    A$hw_reg_access$573
  0C:0A50    A$hw_reg_access$574
  0C:0A52    A$hw_reg_access$575
  0C:0A55    A$hw_reg_access$576
  0C:0A57    A$hw_reg_access$577
  0C:0A59    A$hw_reg_access$579
  0C:0A5C    A$hw_reg_access$580
  0C:0A5D    A$hw_reg_access$581
  0C:0A5E    A$hw_reg_access$582
  0C:0A60    A$hw_reg_access$583
  0C:0A61    A$hw_reg_access$587
  0C:0A61    C$hw_reg_access.c$59$1$1
  0C:0A64    A$hw_reg_access$588
  0C:0A65    A$hw_reg_access$589
  0C:0A66    A$hw_reg_access$590
  0C:0A67    A$hw_reg_access$591
  0C:0A68    A$hw_reg_access$592
  0C:0A69    A$hw_reg_access$594
  0C:0A6A    A$hw_reg_access$595
  0C:0A6B    A$hw_reg_access$596
  0C:0A6C    A$hw_reg_access$597
  0C:0A6D    A$hw_reg_access$598
  0C:0A6E    A$hw_reg_access$599
  0C:0A6F    A$hw_reg_access$601
  0C:0A72    A$hw_reg_access$602
  0C:0A73    A$hw_reg_access$603
  0C:0A74    A$hw_reg_access$604
  0C:0A75    A$hw_reg_access$605
  0C:0A76    A$hw_reg_access$606
  0C:0A77    A$hw_reg_access$608
  0C:0A78    A$hw_reg_access$609
  0C:0A7A    A$hw_reg_access$610
  0C:0A7B    A$hw_reg_access$611
  0C:0A7D    A$hw_reg_access$613
  0C:0A80    A$hw_reg_access$614
  0C:0A81    A$hw_reg_access$615
  0C:0A83    A$hw_reg_access$617
  0C:0A86    A$hw_reg_access$618
  0C:0A87    A$hw_reg_access$619
  0C:0A88    A$hw_reg_access$620
  0C:0A89    A$hw_reg_access$621
  0C:0A8A    A$hw_reg_access$622
  0C:0A8B    A$hw_reg_access$624
  0C:0A8E    A$hw_reg_access$625
  0C:0A90    A$hw_reg_access$626
  0C:0A92    A$hw_reg_access$628
  0C:0A93    A$hw_reg_access$629
  0C:0A95    A$hw_reg_access$630
  0C:0A96    A$hw_reg_access$631
  0C:0A97    A$hw_reg_access$632
  0C:0A98    A$hw_reg_access$633
  0C:0A99    A$hw_reg_access$635
  0C:0A9C    A$hw_reg_access$637
  0C:0A9D    A$hw_reg_access$638
  0C:0A9F    A$hw_reg_access$639
  0C:0AA0    A$hw_reg_access$640
  0C:0AA2    A$hw_reg_access$642
  0C:0AA5    A$hw_reg_access$643
  0C:0AA6    A$hw_reg_access$644
  0C:0AA7    A$hw_reg_access$645
  0C:0AA8    A$hw_reg_access$646
  0C:0AA9    A$hw_reg_access$647
  0C:0AAA    A$hw_reg_access$648
  0C:0AAB    A$hw_reg_access$649
  0C:0AAC    A$hw_reg_access$653
  0C:0AAC    C$hw_reg_access.c$60$1$1
  0C:0AAF    A$hw_reg_access$654
  0C:0AB0    A$hw_reg_access$655
  0C:0AB1    A$hw_reg_access$656
  0C:0AB2    A$hw_reg_access$657
  0C:0AB3    A$hw_reg_access$658
  0C:0AB4    A$hw_reg_access$660
  0C:0AB7    A$hw_reg_access$661
  0C:0AB8    A$hw_reg_access$662
  0C:0AB9    A$hw_reg_access$663
  0C:0ABA    A$hw_reg_access$664
  0C:0ABB    A$hw_reg_access$665
  0C:0ABC    A$hw_reg_access$667
  0C:0ABE    A$hw_reg_access$668
  0C:0AC0    A$hw_reg_access$669
  0C:0AC3    A$hw_reg_access$673
  0C:0AC3    C$hw_reg_access.c$61$1$1
  0C:0AC3    XG$HW_set_16bit_reg_field$0$0
  0C:0AC4    A$hw_reg_access$690
  0C:0AC4    C$hw_reg_access.c$66$1$1
  0C:0AC4    G$HW_get_16bit_reg_field$0$0
  0C:0AC4    _HW_get_16bit_reg_field
  0C:0AC6    A$hw_reg_access$691
  0C:0AC8    A$hw_reg_access$692
  0C:0ACB    A$hw_reg_access$693
  0C:0ACC    A$hw_reg_access$694
  0C:0ACD    A$hw_reg_access$695
  0C:0ACE    A$hw_reg_access$696
  0C:0ACF    A$hw_reg_access$700
  0C:0ACF    C$hw_reg_access.c$74$1$1
  0C:0AD2    A$hw_reg_access$701
  0C:0AD3    A$hw_reg_access$702
  0C:0AD4    A$hw_reg_access$703
  0C:0AD5    A$hw_reg_access$704
  0C:0AD6    A$hw_reg_access$705
  0C:0AD7    A$hw_reg_access$707
  0C:0AD9    A$hw_reg_access$708
  0C:0ADB    A$hw_reg_access$709
  0C:0ADE    A$hw_reg_access$710
  0C:0AE0    A$hw_reg_access$711
  0C:0AE2    A$hw_reg_access$713
  0C:0AE5    A$hw_reg_access$714
  0C:0AE6    A$hw_reg_access$715
  0C:0AE7    A$hw_reg_access$716
  0C:0AE8    A$hw_reg_access$717
  0C:0AE9    A$hw_reg_access$718
  0C:0AEA    A$hw_reg_access$720
  0C:0AEB    A$hw_reg_access$721
  0C:0AED    A$hw_reg_access$722
  0C:0AEE    A$hw_reg_access$723
  0C:0AF0    A$hw_reg_access$725
  0C:0AF3    A$hw_reg_access$726
  0C:0AF4    A$hw_reg_access$727
  0C:0AF5    A$hw_reg_access$729
  0C:0AF7    A$hw_reg_access$730
  0C:0AF9    A$hw_reg_access$731
  0C:0AFB    A$hw_reg_access$733
  0C:0AFC    A$hw_reg_access$734
  0C:0AFD    A$hw_reg_access$735
  0C:0AFE    A$hw_reg_access$736
  0C:0AFF    A$hw_reg_access$737
  0C:0B00    A$hw_reg_access$738
  0C:0B01    A$hw_reg_access$739
  0C:0B02    A$hw_reg_access$741
  0C:0B05    A$hw_reg_access$743
  0C:0B08    A$hw_reg_access$744
  0C:0B09    A$hw_reg_access$745
  0C:0B0A    A$hw_reg_access$746
  0C:0B0B    A$hw_reg_access$747
  0C:0B0C    A$hw_reg_access$748
  0C:0B0D    A$hw_reg_access$752
  0C:0B0D    C$hw_reg_access.c$75$1$1
  0C:0B10    A$hw_reg_access$753
  0C:0B11    A$hw_reg_access$754
  0C:0B12    A$hw_reg_access$755
  0C:0B13    A$hw_reg_access$756
  0C:0B14    A$hw_reg_access$757
  0C:0B15    A$hw_reg_access$759
  0C:0B17    A$hw_reg_access$760
  0C:0B19    A$hw_reg_access$764
  0C:0B19    C$hw_reg_access.c$76$1$1
  0C:0B19    XG$HW_get_16bit_reg_field$0$0
  0C:0B1A    A$hw_reg_access$782
  0C:0B1A    C$hw_reg_access.c$81$1$1
  0C:0B1A    G$HW_set_8bit_reg_field$0$0
  0C:0B1A    _HW_set_8bit_reg_field
  0C:0B1C    A$hw_reg_access$783
  0C:0B1E    A$hw_reg_access$784
  0C:0B21    A$hw_reg_access$785
  0C:0B22    A$hw_reg_access$786
  0C:0B23    A$hw_reg_access$787
  0C:0B24    A$hw_reg_access$788
  0C:0B25    A$hw_reg_access$792
  0C:0B25    C$hw_reg_access.c$90$1$1
  0C:0B28    A$hw_reg_access$793
  0C:0B29    A$hw_reg_access$794
  0C:0B2A    A$hw_reg_access$795
  0C:0B2B    A$hw_reg_access$796
  0C:0B2C    A$hw_reg_access$797
  0C:0B2D    A$hw_reg_access$799
  0C:0B2F    A$hw_reg_access$800
  0C:0B31    A$hw_reg_access$801
  0C:0B33    A$hw_reg_access$802
  0C:0B35    A$hw_reg_access$803
  0C:0B38    A$hw_reg_access$804
  0C:0B3A    A$hw_reg_access$805
  0C:0B3C    A$hw_reg_access$806
  0C:0B3E    A$hw_reg_access$808
  0C:0B41    A$hw_reg_access$809
  0C:0B42    A$hw_reg_access$813
  0C:0B42    C$hw_reg_access.c$91$1$1
  0C:0B45    A$hw_reg_access$814
  0C:0B46    A$hw_reg_access$815
  0C:0B47    A$hw_reg_access$817
  0C:0B48    A$hw_reg_access$818
  0C:0B49    A$hw_reg_access$819
  0C:0B4A    A$hw_reg_access$821
  0C:0B4D    A$hw_reg_access$822
  0C:0B4E    A$hw_reg_access$823
  0C:0B4F    A$hw_reg_access$825
  0C:0B50    A$hw_reg_access$826
  0C:0B52    A$hw_reg_access$828
  0C:0B55    A$hw_reg_access$829
  0C:0B56    A$hw_reg_access$830
  0C:0B57    A$hw_reg_access$832
  0C:0B5A    A$hw_reg_access$833
  0C:0B5B    A$hw_reg_access$834
  0C:0B5C    A$hw_reg_access$836
  0C:0B5E    A$hw_reg_access$837
  0C:0B60    A$hw_reg_access$838
  0C:0B61    A$hw_reg_access$839
  0C:0B63    A$hw_reg_access$841
  0C:0B65    A$hw_reg_access$843
  0C:0B68    A$hw_reg_access$845
  0C:0B69    A$hw_reg_access$847
  0C:0B6C    A$hw_reg_access$848
  0C:0B6D    A$hw_reg_access$849
  0C:0B6E    A$hw_reg_access$853
  0C:0B6E    C$hw_reg_access.c$92$1$1
  0C:0B71    A$hw_reg_access$854
  0C:0B72    A$hw_reg_access$855
  0C:0B73    A$hw_reg_access$857
  0C:0B76    A$hw_reg_access$858
  0C:0B77    A$hw_reg_access$859
  0C:0B78    A$hw_reg_access$861
  0C:0B7A    A$hw_reg_access$862
  0C:0B7C    A$hw_reg_access$863
  0C:0B7F    A$hw_reg_access$867
  0C:0B7F    C$hw_reg_access.c$93$1$1
  0C:0B7F    XG$HW_set_8bit_reg_field$0$0
  0C:0B80    A$hw_reg_access$884
  0C:0B80    C$hw_reg_access.c$98$1$1
  0C:0B80    G$HW_get_8bit_reg_field$0$0
  0C:0B80    _HW_get_8bit_reg_field
  0C:0B82    A$hw_reg_access$885
  0C:0B84    A$hw_reg_access$886
  0C:0B87    A$hw_reg_access$887
  0C:0B88    A$hw_reg_access$888
  0C:0B89    A$hw_reg_access$889
  0C:0B8A    A$hw_reg_access$890
  0C:0B8B    A$hw_reg_access$894
  0C:0B8B    C$hw_reg_access.c$106$1$1
  0C:0B8E    A$hw_reg_access$895
  0C:0B8F    A$hw_reg_access$896
  0C:0B90    A$hw_reg_access$897
  0C:0B91    A$hw_reg_access$898
  0C:0B92    A$hw_reg_access$899
  0C:0B93    A$hw_reg_access$901
  0C:0B95    A$hw_reg_access$902
  0C:0B97    A$hw_reg_access$903
  0C:0B9A    A$hw_reg_access$904
  0C:0B9C    A$hw_reg_access$906
  0C:0B9F    A$hw_reg_access$907
  0C:0BA0    A$hw_reg_access$908
  0C:0BA1    A$hw_reg_access$910
  0C:0BA2    A$hw_reg_access$911
  0C:0BA4    A$hw_reg_access$913
  0C:0BA7    A$hw_reg_access$914
  0C:0BA8    A$hw_reg_access$915
  0C:0BA9    A$hw_reg_access$917
  0C:0BAB    A$hw_reg_access$918
  0C:0BAD    A$hw_reg_access$919
  0C:0BAE    A$hw_reg_access$920
  0C:0BB0    A$hw_reg_access$922
  0C:0BB1    A$hw_reg_access$923
  0C:0BB2    A$hw_reg_access$925
  0C:0BB5    A$hw_reg_access$927
  0C:0BB8    A$hw_reg_access$928
  0C:0BB9    A$hw_reg_access$932
  0C:0BB9    C$hw_reg_access.c$107$1$1
  0C:0BBC    A$hw_reg_access$933
  0C:0BBD    A$hw_reg_access$934
  0C:0BBE    A$hw_reg_access$936
  0C:0BC0    A$hw_reg_access$940
  0C:0BC0    C$hw_reg_access.c$108$1$1
  0C:0BC0    XG$HW_get_8bit_reg_field$0$0
  0C:0BC1    A$core_watchdog$167
  0C:0BC1    C$core_watchdog.c$26$0$0
  0C:0BC1    G$WD_init$0$0
  0C:0BC1    _WD_init
  0C:0BC3    A$core_watchdog$168
  0C:0BC5    A$core_watchdog$169
  0C:0BC7    A$core_watchdog$170
  0C:0BCA    A$core_watchdog$171
  0C:0BCB    A$core_watchdog$172
  0C:0BCC    A$core_watchdog$173
  0C:0BCD    A$core_watchdog$174
  0C:0BCE    A$core_watchdog$175
  0C:0BCF    A$core_watchdog$176
  0C:0BD0    A$core_watchdog$177
  0C:0BD1    A$core_watchdog$181
  0C:0BD1    C$core_watchdog.c$34$2$2
  0C:0BD4    A$core_watchdog$182
  0C:0BD5    A$core_watchdog$183
  0C:0BD6    A$core_watchdog$184
  0C:0BD7    A$core_watchdog$185
  0C:0BD8    A$core_watchdog$186
  0C:0BD9    A$core_watchdog$187
  0C:0BDA    A$core_watchdog$188
  0C:0BDB    A$core_watchdog$189
  0C:0BDC    A$core_watchdog$191
  0C:0BDF    A$core_watchdog$192
  0C:0BE0    A$core_watchdog$193
  0C:0BE1    A$core_watchdog$194
  0C:0BE2    A$core_watchdog$195
  0C:0BE3    A$core_watchdog$196
  0C:0BE4    A$core_watchdog$197
  0C:0BE5    A$core_watchdog$198
  0C:0BE6    A$core_watchdog$199
  0C:0BE7    A$core_watchdog$202
  0C:0BE8    A$core_watchdog$203
  0C:0BEB    A$core_watchdog$204
  0C:0BEC    A$core_watchdog$205
  0C:0BEF    A$core_watchdog$206
  0C:0BF0    A$core_watchdog$207
  0C:0BF3    A$core_watchdog$208
  0C:0BF5    A$core_watchdog$210
  0C:0BF8    A$core_watchdog$214
  0C:0BFB    A$core_watchdog$215
  0C:0BFD    A$core_watchdog$216
  0C:0BFE    A$core_watchdog$219
  0C:0C01    A$core_watchdog$220
  0C:0C03    A$core_watchdog$221
  0C:0C04    A$core_watchdog$224
  0C:0C07    A$core_watchdog$225
  0C:0C09    A$core_watchdog$226
  0C:0C0A    A$core_watchdog$229
  0C:0C0D    A$core_watchdog$230
  0C:0C0F    A$core_watchdog$231
  0C:0C10    A$core_watchdog$234
  0C:0C13    A$core_watchdog$235
  0C:0C15    A$core_watchdog$236
  0C:0C16    A$core_watchdog$239
  0C:0C19    A$core_watchdog$240
  0C:0C1B    A$core_watchdog$241
  0C:0C1C    A$core_watchdog$244
  0C:0C1F    A$core_watchdog$245
  0C:0C21    A$core_watchdog$246
  0C:0C22    A$core_watchdog$249
  0C:0C25    A$core_watchdog$250
  0C:0C27    A$core_watchdog$251
  0C:0C28    A$core_watchdog$254
  0C:0C2B    A$core_watchdog$255
  0C:0C2D    A$core_watchdog$256
  0C:0C2E    A$core_watchdog$259
  0C:0C31    A$core_watchdog$260
  0C:0C33    A$core_watchdog$261
  0C:0C34    A$core_watchdog$264
  0C:0C37    A$core_watchdog$265
  0C:0C39    A$core_watchdog$266
  0C:0C3A    A$core_watchdog$269
  0C:0C3D    A$core_watchdog$270
  0C:0C3F    A$core_watchdog$271
  0C:0C40    A$core_watchdog$274
  0C:0C43    A$core_watchdog$275
  0C:0C45    A$core_watchdog$276
  0C:0C46    A$core_watchdog$279
  0C:0C49    A$core_watchdog$280
  0C:0C4B    A$core_watchdog$281
  0C:0C4C    A$core_watchdog$284
  0C:0C4F    A$core_watchdog$285
  0C:0C51    A$core_watchdog$286
  0C:0C52    A$core_watchdog$289
  0C:0C55    A$core_watchdog$290
  0C:0C57    A$core_watchdog$291
  0C:0C58    A$core_watchdog$294
  0C:0C5B    A$core_watchdog$295
  0C:0C5D    A$core_watchdog$296
  0C:0C5E    A$core_watchdog$299
  0C:0C61    A$core_watchdog$300
  0C:0C63    A$core_watchdog$301
  0C:0C64    A$core_watchdog$304
  0C:0C67    A$core_watchdog$305
  0C:0C69    A$core_watchdog$306
  0C:0C6A    A$core_watchdog$309
  0C:0C6D    A$core_watchdog$310
  0C:0C6F    A$core_watchdog$311
  0C:0C70    A$core_watchdog$314
  0C:0C73    A$core_watchdog$315
  0C:0C75    A$core_watchdog$316
  0C:0C76    A$core_watchdog$319
  0C:0C79    A$core_watchdog$320
  0C:0C7B    A$core_watchdog$321
  0C:0C7C    A$core_watchdog$324
  0C:0C7F    A$core_watchdog$325
  0C:0C81    A$core_watchdog$326
  0C:0C82    A$core_watchdog$329
  0C:0C85    A$core_watchdog$330
  0C:0C87    A$core_watchdog$331
  0C:0C88    A$core_watchdog$334
  0C:0C8B    A$core_watchdog$335
  0C:0C8D    A$core_watchdog$336
  0C:0C8E    A$core_watchdog$339
  0C:0C91    A$core_watchdog$340
  0C:0C93    A$core_watchdog$341
  0C:0C94    A$core_watchdog$344
  0C:0C97    A$core_watchdog$345
  0C:0C99    A$core_watchdog$346
  0C:0C9A    A$core_watchdog$349
  0C:0C9D    A$core_watchdog$350
  0C:0C9F    A$core_watchdog$351
  0C:0CA0    A$core_watchdog$354
  0C:0CA3    A$core_watchdog$355
  0C:0CA5    A$core_watchdog$356
  0C:0CA6    A$core_watchdog$359
  0C:0CA9    A$core_watchdog$360
  0C:0CAB    A$core_watchdog$361
  0C:0CAC    A$core_watchdog$364
  0C:0CAF    A$core_watchdog$365
  0C:0CB1    A$core_watchdog$366
  0C:0CB2    A$core_watchdog$369
  0C:0CB5    A$core_watchdog$370
  0C:0CB7    A$core_watchdog$371
  0C:0CB8    A$core_watchdog$374
  0C:0CBB    A$core_watchdog$375
  0C:0CBD    A$core_watchdog$376
  0C:0CBE    A$core_watchdog$379
  0C:0CC1    A$core_watchdog$380
  0C:0CC3    A$core_watchdog$381
  0C:0CC4    A$core_watchdog$384
  0C:0CC7    A$core_watchdog$385
  0C:0CC9    A$core_watchdog$386
  0C:0CCA    A$core_watchdog$389
  0C:0CCD    A$core_watchdog$390
  0C:0CCF    A$core_watchdog$391
  0C:0CD0    A$core_watchdog$394
  0C:0CD3    A$core_watchdog$395
  0C:0CD5    A$core_watchdog$396
  0C:0CD6    A$core_watchdog$399
  0C:0CD9    A$core_watchdog$400
  0C:0CDB    A$core_watchdog$401
  0C:0CDC    A$core_watchdog$404
  0C:0CDF    A$core_watchdog$405
  0C:0CE1    A$core_watchdog$406
  0C:0CE2    A$core_watchdog$409
  0C:0CE5    A$core_watchdog$410
  0C:0CE7    A$core_watchdog$411
  0C:0CE8    A$core_watchdog$413
  0C:0CEB    A$core_watchdog$414
  0C:0CED    A$core_watchdog$415
  0C:0CEE    A$core_watchdog$416
  0C:0CEF    A$core_watchdog$417
  0C:0CF0    A$core_watchdog$418
  0C:0CF1    A$core_watchdog$419
  0C:0CF2    A$core_watchdog$420
  0C:0CF3    A$core_watchdog$421
  0C:0CF4    A$core_watchdog$422
  0C:0CF5    A$core_watchdog$424
  0C:0CF8    A$core_watchdog$425
  0C:0CFB    A$core_watchdog$426
  0C:0CFE    A$core_watchdog$427
  0C:0D01    A$core_watchdog$432
  0C:0D01    C$core_watchdog.c$35$2$4
  0C:0D04    A$core_watchdog$433
  0C:0D05    A$core_watchdog$434
  0C:0D07    A$core_watchdog$435
  0C:0D08    A$core_watchdog$436
  0C:0D09    A$core_watchdog$437
  0C:0D0B    A$core_watchdog$438
  0C:0D0C    A$core_watchdog$439
  0C:0D0D    A$core_watchdog$440
  0C:0D0F    A$core_watchdog$441
  0C:0D10    A$core_watchdog$442
  0C:0D11    A$core_watchdog$443
  0C:0D13    A$core_watchdog$446
  0C:0D14    A$core_watchdog$447
  0C:0D16    A$core_watchdog$448
  0C:0D18    A$core_watchdog$449
  0C:0D1A    A$core_watchdog$450
  0C:0D1C    A$core_watchdog$451
  0C:0D1E    A$core_watchdog$452
  0C:0D20    A$core_watchdog$453
  0C:0D22    A$core_watchdog$454
  0C:0D24    A$core_watchdog$456
  0C:0D26    A$core_watchdog$457
  0C:0D29    A$core_watchdog$461
  0C:0D2C    A$core_watchdog$462
  0C:0D2E    A$core_watchdog$463
  0C:0D2F    A$core_watchdog$466
  0C:0D32    A$core_watchdog$467
  0C:0D34    A$core_watchdog$468
  0C:0D35    A$core_watchdog$471
  0C:0D38    A$core_watchdog$472
  0C:0D3A    A$core_watchdog$473
  0C:0D3B    A$core_watchdog$476
  0C:0D3E    A$core_watchdog$477
  0C:0D40    A$core_watchdog$478
  0C:0D41    A$core_watchdog$481
  0C:0D44    A$core_watchdog$482
  0C:0D46    A$core_watchdog$483
  0C:0D47    A$core_watchdog$486
  0C:0D4A    A$core_watchdog$487
  0C:0D4C    A$core_watchdog$488
  0C:0D4D    A$core_watchdog$491
  0C:0D50    A$core_watchdog$492
  0C:0D52    A$core_watchdog$493
  0C:0D53    A$core_watchdog$496
  0C:0D56    A$core_watchdog$497
  0C:0D58    A$core_watchdog$498
  0C:0D59    A$core_watchdog$501
  0C:0D5C    A$core_watchdog$502
  0C:0D5E    A$core_watchdog$503
  0C:0D5F    A$core_watchdog$506
  0C:0D62    A$core_watchdog$507
  0C:0D64    A$core_watchdog$508
  0C:0D65    A$core_watchdog$511
  0C:0D68    A$core_watchdog$512
  0C:0D6A    A$core_watchdog$513
  0C:0D6B    A$core_watchdog$516
  0C:0D6E    A$core_watchdog$517
  0C:0D70    A$core_watchdog$518
  0C:0D71    A$core_watchdog$521
  0C:0D74    A$core_watchdog$522
  0C:0D76    A$core_watchdog$523
  0C:0D77    A$core_watchdog$526
  0C:0D7A    A$core_watchdog$527
  0C:0D7C    A$core_watchdog$528
  0C:0D7D    A$core_watchdog$531
  0C:0D80    A$core_watchdog$532
  0C:0D82    A$core_watchdog$533
  0C:0D83    A$core_watchdog$536
  0C:0D86    A$core_watchdog$537
  0C:0D88    A$core_watchdog$538
  0C:0D89    A$core_watchdog$541
  0C:0D8C    A$core_watchdog$542
  0C:0D8E    A$core_watchdog$543
  0C:0D8F    A$core_watchdog$546
  0C:0D92    A$core_watchdog$547
  0C:0D94    A$core_watchdog$548
  0C:0D95    A$core_watchdog$551
  0C:0D98    A$core_watchdog$552
  0C:0D9A    A$core_watchdog$553
  0C:0D9B    A$core_watchdog$556
  0C:0D9E    A$core_watchdog$557
  0C:0DA0    A$core_watchdog$558
  0C:0DA1    A$core_watchdog$561
  0C:0DA4    A$core_watchdog$562
  0C:0DA6    A$core_watchdog$563
  0C:0DA7    A$core_watchdog$566
  0C:0DAA    A$core_watchdog$567
  0C:0DAC    A$core_watchdog$568
  0C:0DAD    A$core_watchdog$571
  0C:0DB0    A$core_watchdog$572
  0C:0DB2    A$core_watchdog$573
  0C:0DB3    A$core_watchdog$576
  0C:0DB6    A$core_watchdog$577
  0C:0DB8    A$core_watchdog$578
  0C:0DB9    A$core_watchdog$581
  0C:0DBC    A$core_watchdog$582
  0C:0DBE    A$core_watchdog$583
  0C:0DBF    A$core_watchdog$586
  0C:0DC2    A$core_watchdog$587
  0C:0DC4    A$core_watchdog$588
  0C:0DC5    A$core_watchdog$591
  0C:0DC8    A$core_watchdog$592
  0C:0DCA    A$core_watchdog$593
  0C:0DCB    A$core_watchdog$596
  0C:0DCE    A$core_watchdog$597
  0C:0DD0    A$core_watchdog$598
  0C:0DD1    A$core_watchdog$601
  0C:0DD4    A$core_watchdog$602
  0C:0DD6    A$core_watchdog$603
  0C:0DD7    A$core_watchdog$606
  0C:0DDA    A$core_watchdog$607
  0C:0DDC    A$core_watchdog$608
  0C:0DDD    A$core_watchdog$611
  0C:0DE0    A$core_watchdog$612
  0C:0DE2    A$core_watchdog$613
  0C:0DE3    A$core_watchdog$616
  0C:0DE6    A$core_watchdog$617
  0C:0DE8    A$core_watchdog$618
  0C:0DE9    A$core_watchdog$621
  0C:0DEC    A$core_watchdog$622
  0C:0DEE    A$core_watchdog$623
  0C:0DEF    A$core_watchdog$626
  0C:0DF2    A$core_watchdog$627
  0C:0DF4    A$core_watchdog$628
  0C:0DF5    A$core_watchdog$631
  0C:0DF8    A$core_watchdog$632
  0C:0DFA    A$core_watchdog$633
  0C:0DFB    A$core_watchdog$636
  0C:0DFE    A$core_watchdog$637
  0C:0E00    A$core_watchdog$638
  0C:0E01    A$core_watchdog$641
  0C:0E04    A$core_watchdog$642
  0C:0E06    A$core_watchdog$643
  0C:0E07    A$core_watchdog$646
  0C:0E0A    A$core_watchdog$647
  0C:0E0C    A$core_watchdog$648
  0C:0E0D    A$core_watchdog$651
  0C:0E10    A$core_watchdog$652
  0C:0E12    A$core_watchdog$653
  0C:0E13    A$core_watchdog$656
  0C:0E16    A$core_watchdog$657
  0C:0E18    A$core_watchdog$658
  0C:0E19    A$core_watchdog$660
  0C:0E1C    A$core_watchdog$661
  0C:0E1E    A$core_watchdog$662
  0C:0E1F    A$core_watchdog$663
  0C:0E20    A$core_watchdog$664
  0C:0E21    A$core_watchdog$665
  0C:0E22    A$core_watchdog$666
  0C:0E23    A$core_watchdog$667
  0C:0E24    A$core_watchdog$668
  0C:0E25    A$core_watchdog$669
  0C:0E26    A$core_watchdog$671
  0C:0E29    A$core_watchdog$672
  0C:0E2C    A$core_watchdog$673
  0C:0E2F    A$core_watchdog$674
  0C:0E32    A$core_watchdog$679
  0C:0E32    C$core_watchdog.c$37$1$1
  0C:0E35    A$core_watchdog$680
  0C:0E36    A$core_watchdog$681
  0C:0E37    A$core_watchdog$682
  0C:0E38    A$core_watchdog$683
  0C:0E39    A$core_watchdog$684
  0C:0E3A    A$core_watchdog$685
  0C:0E3B    A$core_watchdog$686
  0C:0E3C    A$core_watchdog$687
  0C:0E3D    A$core_watchdog$689
  0C:0E40    A$core_watchdog$690
  0C:0E41    A$core_watchdog$691
  0C:0E42    A$core_watchdog$692
  0C:0E43    A$core_watchdog$693
  0C:0E44    A$core_watchdog$694
  0C:0E45    A$core_watchdog$697
  0C:0E47    A$core_watchdog$698
  0C:0E49    A$core_watchdog$699
  0C:0E4B    A$core_watchdog$700
  0C:0E4C    A$core_watchdog$701
  0C:0E4F    A$core_watchdog$702
  0C:0E50    A$core_watchdog$703
  0C:0E51    A$core_watchdog$704
  0C:0E54    A$core_watchdog$709
  0C:0E54    C$core_watchdog.c$40$1$1
  0C:0E56    A$core_watchdog$710
  0C:0E58    A$core_watchdog$711
  0C:0E59    A$core_watchdog$712
  0C:0E5B    A$core_watchdog$713
  0C:0E5D    A$core_watchdog$714
  0C:0E5E    A$core_watchdog$716
  0C:0E61    A$core_watchdog$717
  0C:0E63    A$core_watchdog$718
  0C:0E64    A$core_watchdog$720
  0C:0E67    A$core_watchdog$721
  0C:0E69    A$core_watchdog$722
  0C:0E6A    A$core_watchdog$723
  0C:0E6B    A$core_watchdog$724
  0C:0E6C    A$core_watchdog$725
  0C:0E6D    A$core_watchdog$726
  0C:0E6E    A$core_watchdog$727
  0C:0E6F    A$core_watchdog$728
  0C:0E70    A$core_watchdog$729
  0C:0E71    A$core_watchdog$731
  0C:0E74    A$core_watchdog$732
  0C:0E75    A$core_watchdog$733
  0C:0E76    A$core_watchdog$734
  0C:0E77    A$core_watchdog$735
  0C:0E78    A$core_watchdog$736
  0C:0E79    A$core_watchdog$737
  0C:0E7A    A$core_watchdog$738
  0C:0E7B    A$core_watchdog$739
  0C:0E7C    A$core_watchdog$741
  0C:0E7E    A$core_watchdog$742
  0C:0E80    A$core_watchdog$743
  0C:0E82    A$core_watchdog$744
  0C:0E84    A$core_watchdog$745
  0C:0E86    A$core_watchdog$746
  0C:0E89    A$core_watchdog$747
  0C:0E8B    A$core_watchdog$748
  0C:0E8D    A$core_watchdog$749
  0C:0E8F    A$core_watchdog$754
  0C:0E8F    C$core_watchdog.c$43$1$1
  0C:0E91    A$core_watchdog$755
  0C:0E93    A$core_watchdog$756
  0C:0E95    A$core_watchdog$757
  0C:0E98    A$core_watchdog$758
  0C:0E99    A$core_watchdog$759
  0C:0E9A    A$core_watchdog$760
  0C:0E9D    A$core_watchdog$761
  0C:0E9E    A$core_watchdog$764
  0C:0EA0    A$core_watchdog$765
  0C:0EA2    A$core_watchdog$766
  0C:0EA3    A$core_watchdog$767
  0C:0EA5    A$core_watchdog$768
  0C:0EA7    A$core_watchdog$769
  0C:0EA8    A$core_watchdog$771
  0C:0EAB    A$core_watchdog$772
  0C:0EAD    A$core_watchdog$773
  0C:0EAE    A$core_watchdog$775
  0C:0EB1    A$core_watchdog$776
  0C:0EB3    A$core_watchdog$777
  0C:0EB4    A$core_watchdog$778
  0C:0EB5    A$core_watchdog$779
  0C:0EB6    A$core_watchdog$780
  0C:0EB7    A$core_watchdog$781
  0C:0EB8    A$core_watchdog$782
  0C:0EB9    A$core_watchdog$783
  0C:0EBA    A$core_watchdog$784
  0C:0EBB    A$core_watchdog$786
  0C:0EBE    A$core_watchdog$787
  0C:0EC0    A$core_watchdog$788
  0C:0EC1    A$core_watchdog$789
  0C:0EC2    A$core_watchdog$790
  0C:0EC4    A$core_watchdog$791
  0C:0EC5    A$core_watchdog$792
  0C:0EC6    A$core_watchdog$793
  0C:0EC8    A$core_watchdog$794
  0C:0EC9    A$core_watchdog$795
  0C:0ECA    A$core_watchdog$796
  0C:0ECC    A$core_watchdog$797
  0C:0ECD    A$core_watchdog$799
  0C:0ECF    A$core_watchdog$800
  0C:0ED1    A$core_watchdog$801
  0C:0ED3    A$core_watchdog$802
  0C:0ED5    A$core_watchdog$803
  0C:0ED7    A$core_watchdog$804
  0C:0EDA    A$core_watchdog$805
  0C:0EDC    A$core_watchdog$806
  0C:0EDE    A$core_watchdog$807
  0C:0EE0    A$core_watchdog$812
  0C:0EE0    C$core_watchdog.c$44$1$1
  0C:0EE2    A$core_watchdog$813
  0C:0EE4    A$core_watchdog$814
  0C:0EE6    A$core_watchdog$815
  0C:0EE9    A$core_watchdog$816
  0C:0EEA    A$core_watchdog$817
  0C:0EEB    A$core_watchdog$818
  0C:0EEE    A$core_watchdog$819
  0C:0EEF    A$core_watchdog$821
  0C:0EF2    A$core_watchdog$822
  0C:0EF3    A$core_watchdog$823
  0C:0EF4    A$core_watchdog$824
  0C:0EF5    A$core_watchdog$825
  0C:0EF6    A$core_watchdog$826
  0C:0EF7    A$core_watchdog$827
  0C:0EF8    A$core_watchdog$828
  0C:0EF9    A$core_watchdog$829
  0C:0EFA    A$core_watchdog$830
  0C:0EFB    A$core_watchdog$831
  0C:0EFC    A$core_watchdog$832
  0C:0EFD    A$core_watchdog$834
  0C:0F00    A$core_watchdog$835
  0C:0F01    A$core_watchdog$836
  0C:0F02    A$core_watchdog$837
  0C:0F03    A$core_watchdog$838
  0C:0F04    A$core_watchdog$839
  0C:0F05    A$core_watchdog$840
  0C:0F06    A$core_watchdog$841
  0C:0F07    A$core_watchdog$842
  0C:0F08    A$core_watchdog$843
  0C:0F09    A$core_watchdog$844
  0C:0F0A    A$core_watchdog$845
  0C:0F0B    A$core_watchdog$847
  0C:0F0D    A$core_watchdog$848
  0C:0F0F    A$core_watchdog$849
  0C:0F12    A$core_watchdog$853
  0C:0F12    C$core_watchdog.c$45$1$1
  0C:0F12    XG$WD_init$0$0
  0C:0F13    A$core_watchdog$868
  0C:0F13    C$core_watchdog.c$52$1$1
  0C:0F13    G$WD_enable$0$0
  0C:0F13    _WD_enable
  0C:0F15    A$core_watchdog$869
  0C:0F17    A$core_watchdog$870
  0C:0F19    A$core_watchdog$871
  0C:0F1C    A$core_watchdog$872
  0C:0F1D    A$core_watchdog$873
  0C:0F1E    A$core_watchdog$874
  0C:0F1F    A$core_watchdog$875
  0C:0F20    A$core_watchdog$876
  0C:0F21    A$core_watchdog$877
  0C:0F22    A$core_watchdog$878
  0C:0F23    A$core_watchdog$882
  0C:0F23    C$core_watchdog.c$57$2$2
  0C:0F26    A$core_watchdog$883
  0C:0F27    A$core_watchdog$884
  0C:0F28    A$core_watchdog$885
  0C:0F29    A$core_watchdog$886
  0C:0F2A    A$core_watchdog$887
  0C:0F2B    A$core_watchdog$888
  0C:0F2C    A$core_watchdog$889
  0C:0F2D    A$core_watchdog$890
  0C:0F2E    A$core_watchdog$892
  0C:0F31    A$core_watchdog$893
  0C:0F32    A$core_watchdog$894
  0C:0F33    A$core_watchdog$895
  0C:0F34    A$core_watchdog$896
  0C:0F35    A$core_watchdog$897
  0C:0F36    A$core_watchdog$898
  0C:0F37    A$core_watchdog$899
  0C:0F38    A$core_watchdog$900
  0C:0F39    A$core_watchdog$903
  0C:0F3A    A$core_watchdog$904
  0C:0F3D    A$core_watchdog$905
  0C:0F3E    A$core_watchdog$906
  0C:0F41    A$core_watchdog$907
  0C:0F42    A$core_watchdog$908
  0C:0F45    A$core_watchdog$909
  0C:0F47    A$core_watchdog$911
  0C:0F4A    A$core_watchdog$915
  0C:0F4D    A$core_watchdog$916
  0C:0F4F    A$core_watchdog$917
  0C:0F50    A$core_watchdog$920
  0C:0F53    A$core_watchdog$921
  0C:0F55    A$core_watchdog$922
  0C:0F56    A$core_watchdog$925
  0C:0F59    A$core_watchdog$926
  0C:0F5B    A$core_watchdog$927
  0C:0F5C    A$core_watchdog$930
  0C:0F5F    A$core_watchdog$931
  0C:0F61    A$core_watchdog$932
  0C:0F62    A$core_watchdog$935
  0C:0F65    A$core_watchdog$936
  0C:0F67    A$core_watchdog$937
  0C:0F68    A$core_watchdog$940
  0C:0F6B    A$core_watchdog$941
  0C:0F6D    A$core_watchdog$942
  0C:0F6E    A$core_watchdog$945
  0C:0F71    A$core_watchdog$946
  0C:0F73    A$core_watchdog$947
  0C:0F74    A$core_watchdog$950
  0C:0F77    A$core_watchdog$951
  0C:0F79    A$core_watchdog$952
  0C:0F7A    A$core_watchdog$955
  0C:0F7D    A$core_watchdog$956
  0C:0F7F    A$core_watchdog$957
  0C:0F80    A$core_watchdog$960
  0C:0F83    A$core_watchdog$961
  0C:0F85    A$core_watchdog$962
  0C:0F86    A$core_watchdog$965
  0C:0F89    A$core_watchdog$966
  0C:0F8B    A$core_watchdog$967
  0C:0F8C    A$core_watchdog$970
  0C:0F8F    A$core_watchdog$971
  0C:0F91    A$core_watchdog$972
  0C:0F92    A$core_watchdog$975
  0C:0F95    A$core_watchdog$976
  0C:0F97    A$core_watchdog$977
  0C:0F98    A$core_watchdog$980
  0C:0F9B    A$core_watchdog$981
  0C:0F9D    A$core_watchdog$982
  0C:0F9E    A$core_watchdog$985
  0C:0FA1    A$core_watchdog$986
  0C:0FA3    A$core_watchdog$987
  0C:0FA4    A$core_watchdog$990
  0C:0FA7    A$core_watchdog$991
  0C:0FA9    A$core_watchdog$992
  0C:0FAA    A$core_watchdog$995
  0C:0FAD    A$core_watchdog$996
  0C:0FAF    A$core_watchdog$997
  0C:0FB0    A$core_watchdog$1000
  0C:0FB3    A$core_watchdog$1001
  0C:0FB5    A$core_watchdog$1002
  0C:0FB6    A$core_watchdog$1005
  0C:0FB9    A$core_watchdog$1006
  0C:0FBB    A$core_watchdog$1007
  0C:0FBC    A$core_watchdog$1010
  0C:0FBF    A$core_watchdog$1011
  0C:0FC1    A$core_watchdog$1012
  0C:0FC2    A$core_watchdog$1015
  0C:0FC5    A$core_watchdog$1016
  0C:0FC7    A$core_watchdog$1017
  0C:0FC8    A$core_watchdog$1020
  0C:0FCB    A$core_watchdog$1021
  0C:0FCD    A$core_watchdog$1022
  0C:0FCE    A$core_watchdog$1025
  0C:0FD1    A$core_watchdog$1026
  0C:0FD3    A$core_watchdog$1027
  0C:0FD4    A$core_watchdog$1030
  0C:0FD7    A$core_watchdog$1031
  0C:0FD9    A$core_watchdog$1032
  0C:0FDA    A$core_watchdog$1035
  0C:0FDD    A$core_watchdog$1036
  0C:0FDF    A$core_watchdog$1037
  0C:0FE0    A$core_watchdog$1040
  0C:0FE3    A$core_watchdog$1041
  0C:0FE5    A$core_watchdog$1042
  0C:0FE6    A$core_watchdog$1045
  0C:0FE9    A$core_watchdog$1046
  0C:0FEB    A$core_watchdog$1047
  0C:0FEC    A$core_watchdog$1050
  0C:0FEF    A$core_watchdog$1051
  0C:0FF1    A$core_watchdog$1052
  0C:0FF2    A$core_watchdog$1055
  0C:0FF5    A$core_watchdog$1056
  0C:0FF7    A$core_watchdog$1057
  0C:0FF8    A$core_watchdog$1060
  0C:0FFB    A$core_watchdog$1061
  0C:0FFD    A$core_watchdog$1062
  0C:0FFE    A$core_watchdog$1065
  0C:1001    A$core_watchdog$1066
  0C:1003    A$core_watchdog$1067
  0C:1004    A$core_watchdog$1070
  0C:1007    A$core_watchdog$1071
  0C:1009    A$core_watchdog$1072
  0C:100A    A$core_watchdog$1075
  0C:100D    A$core_watchdog$1076
  0C:100F    A$core_watchdog$1077
  0C:1010    A$core_watchdog$1080
  0C:1013    A$core_watchdog$1081
  0C:1015    A$core_watchdog$1082
  0C:1016    A$core_watchdog$1085
  0C:1019    A$core_watchdog$1086
  0C:101B    A$core_watchdog$1087
  0C:101C    A$core_watchdog$1090
  0C:101F    A$core_watchdog$1091
  0C:1021    A$core_watchdog$1092
  0C:1022    A$core_watchdog$1095
  0C:1025    A$core_watchdog$1096
  0C:1027    A$core_watchdog$1097
  0C:1028    A$core_watchdog$1100
  0C:102B    A$core_watchdog$1101
  0C:102D    A$core_watchdog$1102
  0C:102E    A$core_watchdog$1105
  0C:1031    A$core_watchdog$1106
  0C:1033    A$core_watchdog$1107
  0C:1034    A$core_watchdog$1110
  0C:1037    A$core_watchdog$1111
  0C:1039    A$core_watchdog$1112
  0C:103A    A$core_watchdog$1114
  0C:103D    A$core_watchdog$1115
  0C:103F    A$core_watchdog$1116
  0C:1040    A$core_watchdog$1117
  0C:1041    A$core_watchdog$1118
  0C:1042    A$core_watchdog$1119
  0C:1043    A$core_watchdog$1120
  0C:1044    A$core_watchdog$1121
  0C:1045    A$core_watchdog$1122
  0C:1046    A$core_watchdog$1123
  0C:1047    A$core_watchdog$1125
  0C:104A    A$core_watchdog$1126
  0C:104D    A$core_watchdog$1127
  0C:1050    A$core_watchdog$1128
  0C:1053    A$core_watchdog$1133
  0C:1053    C$core_watchdog.c$59$1$1
  0C:1056    A$core_watchdog$1134
  0C:1057    A$core_watchdog$1135
  0C:1058    A$core_watchdog$1136
  0C:1059    A$core_watchdog$1137
  0C:105A    A$core_watchdog$1138
  0C:105B    A$core_watchdog$1139
  0C:105C    A$core_watchdog$1140
  0C:105D    A$core_watchdog$1141
  0C:105E    A$core_watchdog$1144
  0C:1060    A$core_watchdog$1145
  0C:1062    A$core_watchdog$1146
  0C:1064    A$core_watchdog$1147
  0C:1067    A$core_watchdog$1148
  0C:1068    A$core_watchdog$1149
  0C:1069    A$core_watchdog$1150
  0C:106C    A$core_watchdog$1151
  0C:106D    A$core_watchdog$1154
  0C:106F    A$core_watchdog$1155
  0C:1071    A$core_watchdog$1156
  0C:1072    A$core_watchdog$1157
  0C:1074    A$core_watchdog$1158
  0C:1076    A$core_watchdog$1159
  0C:1077    A$core_watchdog$1161
  0C:107A    A$core_watchdog$1162
  0C:107C    A$core_watchdog$1163
  0C:107D    A$core_watchdog$1165
  0C:1080    A$core_watchdog$1166
  0C:1082    A$core_watchdog$1167
  0C:1083    A$core_watchdog$1168
  0C:1084    A$core_watchdog$1169
  0C:1085    A$core_watchdog$1170
  0C:1086    A$core_watchdog$1171
  0C:1087    A$core_watchdog$1172
  0C:1088    A$core_watchdog$1173
  0C:1089    A$core_watchdog$1174
  0C:108A    A$core_watchdog$1176
  0C:108D    A$core_watchdog$1177
  0C:108F    A$core_watchdog$1178
  0C:1090    A$core_watchdog$1179
  0C:1091    A$core_watchdog$1180
  0C:1092    A$core_watchdog$1181
  0C:1093    A$core_watchdog$1182
  0C:1094    A$core_watchdog$1183
  0C:1095    A$core_watchdog$1184
  0C:1096    A$core_watchdog$1185
  0C:1097    A$core_watchdog$1187
  0C:1099    A$core_watchdog$1188
  0C:109B    A$core_watchdog$1189
  0C:109E    A$core_watchdog$1193
  0C:109E    C$core_watchdog.c$60$1$1
  0C:109E    XG$WD_enable$0$0
  0C:109F    A$core_watchdog$1208
  0C:109F    C$core_watchdog.c$68$1$1
  0C:109F    G$WD_disable$0$0
  0C:109F    _WD_disable
  0C:10A1    A$core_watchdog$1209
  0C:10A3    A$core_watchdog$1210
  0C:10A5    A$core_watchdog$1211
  0C:10A8    A$core_watchdog$1212
  0C:10A9    A$core_watchdog$1213
  0C:10AA    A$core_watchdog$1214
  0C:10AB    A$core_watchdog$1215
  0C:10AC    A$core_watchdog$1216
  0C:10AD    A$core_watchdog$1217
  0C:10AE    A$core_watchdog$1218
  0C:10AF    A$core_watchdog$1222
  0C:10AF    C$core_watchdog.c$73$2$2
  0C:10B2    A$core_watchdog$1223
  0C:10B3    A$core_watchdog$1224
  0C:10B4    A$core_watchdog$1225
  0C:10B5    A$core_watchdog$1226
  0C:10B6    A$core_watchdog$1227
  0C:10B7    A$core_watchdog$1228
  0C:10B8    A$core_watchdog$1229
  0C:10B9    A$core_watchdog$1230
  0C:10BA    A$core_watchdog$1232
  0C:10BD    A$core_watchdog$1233
  0C:10BE    A$core_watchdog$1234
  0C:10BF    A$core_watchdog$1235
  0C:10C0    A$core_watchdog$1236
  0C:10C1    A$core_watchdog$1237
  0C:10C2    A$core_watchdog$1238
  0C:10C3    A$core_watchdog$1239
  0C:10C4    A$core_watchdog$1240
  0C:10C5    A$core_watchdog$1243
  0C:10C6    A$core_watchdog$1244
  0C:10C9    A$core_watchdog$1245
  0C:10CA    A$core_watchdog$1246
  0C:10CD    A$core_watchdog$1247
  0C:10CE    A$core_watchdog$1248
  0C:10D1    A$core_watchdog$1249
  0C:10D3    A$core_watchdog$1251
  0C:10D6    A$core_watchdog$1255
  0C:10D9    A$core_watchdog$1256
  0C:10DB    A$core_watchdog$1257
  0C:10DC    A$core_watchdog$1260
  0C:10DF    A$core_watchdog$1261
  0C:10E1    A$core_watchdog$1262
  0C:10E2    A$core_watchdog$1265
  0C:10E5    A$core_watchdog$1266
  0C:10E7    A$core_watchdog$1267
  0C:10E8    A$core_watchdog$1270
  0C:10EB    A$core_watchdog$1271
  0C:10ED    A$core_watchdog$1272
  0C:10EE    A$core_watchdog$1275
  0C:10F1    A$core_watchdog$1276
  0C:10F3    A$core_watchdog$1277
  0C:10F4    A$core_watchdog$1280
  0C:10F7    A$core_watchdog$1281
  0C:10F9    A$core_watchdog$1282
  0C:10FA    A$core_watchdog$1285
  0C:10FD    A$core_watchdog$1286
  0C:10FF    A$core_watchdog$1287
  0C:1100    A$core_watchdog$1290
  0C:1103    A$core_watchdog$1291
  0C:1105    A$core_watchdog$1292
  0C:1106    A$core_watchdog$1295
  0C:1109    A$core_watchdog$1296
  0C:110B    A$core_watchdog$1297
  0C:110C    A$core_watchdog$1300
  0C:110F    A$core_watchdog$1301
  0C:1111    A$core_watchdog$1302
  0C:1112    A$core_watchdog$1305
  0C:1115    A$core_watchdog$1306
  0C:1117    A$core_watchdog$1307
  0C:1118    A$core_watchdog$1310
  0C:111B    A$core_watchdog$1311
  0C:111D    A$core_watchdog$1312
  0C:111E    A$core_watchdog$1315
  0C:1121    A$core_watchdog$1316
  0C:1123    A$core_watchdog$1317
  0C:1124    A$core_watchdog$1320
  0C:1127    A$core_watchdog$1321
  0C:1129    A$core_watchdog$1322
  0C:112A    A$core_watchdog$1325
  0C:112D    A$core_watchdog$1326
  0C:112F    A$core_watchdog$1327
  0C:1130    A$core_watchdog$1330
  0C:1133    A$core_watchdog$1331
  0C:1135    A$core_watchdog$1332
  0C:1136    A$core_watchdog$1335
  0C:1139    A$core_watchdog$1336
  0C:113B    A$core_watchdog$1337
  0C:113C    A$core_watchdog$1340
  0C:113F    A$core_watchdog$1341
  0C:1141    A$core_watchdog$1342
  0C:1142    A$core_watchdog$1345
  0C:1145    A$core_watchdog$1346
  0C:1147    A$core_watchdog$1347
  0C:1148    A$core_watchdog$1350
  0C:114B    A$core_watchdog$1351
  0C:114D    A$core_watchdog$1352
  0C:114E    A$core_watchdog$1355
  0C:1151    A$core_watchdog$1356
  0C:1153    A$core_watchdog$1357
  0C:1154    A$core_watchdog$1360
  0C:1157    A$core_watchdog$1361
  0C:1159    A$core_watchdog$1362
  0C:115A    A$core_watchdog$1365
  0C:115D    A$core_watchdog$1366
  0C:115F    A$core_watchdog$1367
  0C:1160    A$core_watchdog$1370
  0C:1163    A$core_watchdog$1371
  0C:1165    A$core_watchdog$1372
  0C:1166    A$core_watchdog$1375
  0C:1169    A$core_watchdog$1376
  0C:116B    A$core_watchdog$1377
  0C:116C    A$core_watchdog$1380
  0C:116F    A$core_watchdog$1381
  0C:1171    A$core_watchdog$1382
  0C:1172    A$core_watchdog$1385
  0C:1175    A$core_watchdog$1386
  0C:1177    A$core_watchdog$1387
  0C:1178    A$core_watchdog$1390
  0C:117B    A$core_watchdog$1391
  0C:117D    A$core_watchdog$1392
  0C:117E    A$core_watchdog$1395
  0C:1181    A$core_watchdog$1396
  0C:1183    A$core_watchdog$1397
  0C:1184    A$core_watchdog$1400
  0C:1187    A$core_watchdog$1401
  0C:1189    A$core_watchdog$1402
  0C:118A    A$core_watchdog$1405
  0C:118D    A$core_watchdog$1406
  0C:118F    A$core_watchdog$1407
  0C:1190    A$core_watchdog$1410
  0C:1193    A$core_watchdog$1411
  0C:1195    A$core_watchdog$1412
  0C:1196    A$core_watchdog$1415
  0C:1199    A$core_watchdog$1416
  0C:119B    A$core_watchdog$1417
  0C:119C    A$core_watchdog$1420
  0C:119F    A$core_watchdog$1421
  0C:11A1    A$core_watchdog$1422
  0C:11A2    A$core_watchdog$1425
  0C:11A5    A$core_watchdog$1426
  0C:11A7    A$core_watchdog$1427
  0C:11A8    A$core_watchdog$1430
  0C:11AB    A$core_watchdog$1431
  0C:11AD    A$core_watchdog$1432
  0C:11AE    A$core_watchdog$1435
  0C:11B1    A$core_watchdog$1436
  0C:11B3    A$core_watchdog$1437
  0C:11B4    A$core_watchdog$1440
  0C:11B7    A$core_watchdog$1441
  0C:11B9    A$core_watchdog$1442
  0C:11BA    A$core_watchdog$1445
  0C:11BD    A$core_watchdog$1446
  0C:11BF    A$core_watchdog$1447
  0C:11C0    A$core_watchdog$1450
  0C:11C3    A$core_watchdog$1451
  0C:11C5    A$core_watchdog$1452
  0C:11C6    A$core_watchdog$1454
  0C:11C9    A$core_watchdog$1455
  0C:11CB    A$core_watchdog$1456
  0C:11CC    A$core_watchdog$1457
  0C:11CD    A$core_watchdog$1458
  0C:11CE    A$core_watchdog$1459
  0C:11CF    A$core_watchdog$1460
  0C:11D0    A$core_watchdog$1461
  0C:11D1    A$core_watchdog$1462
  0C:11D2    A$core_watchdog$1463
  0C:11D3    A$core_watchdog$1465
  0C:11D6    A$core_watchdog$1466
  0C:11D9    A$core_watchdog$1467
  0C:11DC    A$core_watchdog$1468
  0C:11DF    A$core_watchdog$1473
  0C:11DF    C$core_watchdog.c$75$1$1
  0C:11E2    A$core_watchdog$1474
  0C:11E3    A$core_watchdog$1475
  0C:11E4    A$core_watchdog$1476
  0C:11E5    A$core_watchdog$1477
  0C:11E6    A$core_watchdog$1478
  0C:11E7    A$core_watchdog$1479
  0C:11E8    A$core_watchdog$1480
  0C:11E9    A$core_watchdog$1481
  0C:11EA    A$core_watchdog$1484
  0C:11EC    A$core_watchdog$1485
  0C:11EE    A$core_watchdog$1486
  0C:11F0    A$core_watchdog$1487
  0C:11F3    A$core_watchdog$1488
  0C:11F4    A$core_watchdog$1489
  0C:11F5    A$core_watchdog$1490
  0C:11F8    A$core_watchdog$1491
  0C:11F9    A$core_watchdog$1494
  0C:11FB    A$core_watchdog$1495
  0C:11FD    A$core_watchdog$1496
  0C:11FE    A$core_watchdog$1497
  0C:1200    A$core_watchdog$1498
  0C:1202    A$core_watchdog$1499
  0C:1203    A$core_watchdog$1501
  0C:1206    A$core_watchdog$1502
  0C:1208    A$core_watchdog$1503
  0C:1209    A$core_watchdog$1505
  0C:120C    A$core_watchdog$1506
  0C:120E    A$core_watchdog$1507
  0C:120F    A$core_watchdog$1508
  0C:1210    A$core_watchdog$1509
  0C:1211    A$core_watchdog$1510
  0C:1212    A$core_watchdog$1511
  0C:1213    A$core_watchdog$1512
  0C:1214    A$core_watchdog$1513
  0C:1215    A$core_watchdog$1514
  0C:1216    A$core_watchdog$1516
  0C:1219    A$core_watchdog$1517
  0C:121A    A$core_watchdog$1518
  0C:121B    A$core_watchdog$1519
  0C:121C    A$core_watchdog$1520
  0C:121D    A$core_watchdog$1521
  0C:121E    A$core_watchdog$1522
  0C:121F    A$core_watchdog$1523
  0C:1220    A$core_watchdog$1524
  0C:1221    A$core_watchdog$1526
  0C:1223    A$core_watchdog$1527
  0C:1225    A$core_watchdog$1528
  0C:1228    A$core_watchdog$1532
  0C:1228    C$core_watchdog.c$76$1$1
  0C:1228    XG$WD_disable$0$0
  0C:1229    A$core_watchdog$1547
  0C:1229    C$core_watchdog.c$84$1$1
  0C:1229    G$WD_reload$0$0
  0C:1229    _WD_reload
  0C:122B    A$core_watchdog$1548
  0C:122D    A$core_watchdog$1549
  0C:122F    A$core_watchdog$1550
  0C:1232    A$core_watchdog$1551
  0C:1233    A$core_watchdog$1552
  0C:1234    A$core_watchdog$1553
  0C:1235    A$core_watchdog$1554
  0C:1236    A$core_watchdog$1555
  0C:1237    A$core_watchdog$1556
  0C:1238    A$core_watchdog$1557
  0C:1239    A$core_watchdog$1561
  0C:1239    C$core_watchdog.c$89$2$2
  0C:123C    A$core_watchdog$1562
  0C:123D    A$core_watchdog$1563
  0C:123E    A$core_watchdog$1564
  0C:123F    A$core_watchdog$1565
  0C:1240    A$core_watchdog$1566
  0C:1241    A$core_watchdog$1567
  0C:1242    A$core_watchdog$1568
  0C:1243    A$core_watchdog$1569
  0C:1244    A$core_watchdog$1571
  0C:1247    A$core_watchdog$1572
  0C:1248    A$core_watchdog$1573
  0C:1249    A$core_watchdog$1574
  0C:124A    A$core_watchdog$1575
  0C:124B    A$core_watchdog$1576
  0C:124C    A$core_watchdog$1577
  0C:124D    A$core_watchdog$1578
  0C:124E    A$core_watchdog$1579
  0C:124F    A$core_watchdog$1582
  0C:1250    A$core_watchdog$1583
  0C:1253    A$core_watchdog$1584
  0C:1254    A$core_watchdog$1585
  0C:1257    A$core_watchdog$1586
  0C:1258    A$core_watchdog$1587
  0C:125B    A$core_watchdog$1588
  0C:125D    A$core_watchdog$1590
  0C:1260    A$core_watchdog$1594
  0C:1263    A$core_watchdog$1595
  0C:1265    A$core_watchdog$1596
  0C:1266    A$core_watchdog$1599
  0C:1269    A$core_watchdog$1600
  0C:126B    A$core_watchdog$1601
  0C:126C    A$core_watchdog$1604
  0C:126F    A$core_watchdog$1605
  0C:1271    A$core_watchdog$1606
  0C:1272    A$core_watchdog$1609
  0C:1275    A$core_watchdog$1610
  0C:1277    A$core_watchdog$1611
  0C:1278    A$core_watchdog$1614
  0C:127B    A$core_watchdog$1615
  0C:127D    A$core_watchdog$1616
  0C:127E    A$core_watchdog$1619
  0C:1281    A$core_watchdog$1620
  0C:1283    A$core_watchdog$1621
  0C:1284    A$core_watchdog$1624
  0C:1287    A$core_watchdog$1625
  0C:1289    A$core_watchdog$1626
  0C:128A    A$core_watchdog$1629
  0C:128D    A$core_watchdog$1630
  0C:128F    A$core_watchdog$1631
  0C:1290    A$core_watchdog$1634
  0C:1293    A$core_watchdog$1635
  0C:1295    A$core_watchdog$1636
  0C:1296    A$core_watchdog$1639
  0C:1299    A$core_watchdog$1640
  0C:129B    A$core_watchdog$1641
  0C:129C    A$core_watchdog$1644
  0C:129F    A$core_watchdog$1645
  0C:12A1    A$core_watchdog$1646
  0C:12A2    A$core_watchdog$1649
  0C:12A5    A$core_watchdog$1650
  0C:12A7    A$core_watchdog$1651
  0C:12A8    A$core_watchdog$1654
  0C:12AB    A$core_watchdog$1655
  0C:12AD    A$core_watchdog$1656
  0C:12AE    A$core_watchdog$1659
  0C:12B1    A$core_watchdog$1660
  0C:12B3    A$core_watchdog$1661
  0C:12B4    A$core_watchdog$1664
  0C:12B7    A$core_watchdog$1665
  0C:12B9    A$core_watchdog$1666
  0C:12BA    A$core_watchdog$1669
  0C:12BD    A$core_watchdog$1670
  0C:12BF    A$core_watchdog$1671
  0C:12C0    A$core_watchdog$1674
  0C:12C3    A$core_watchdog$1675
  0C:12C5    A$core_watchdog$1676
  0C:12C6    A$core_watchdog$1679
  0C:12C9    A$core_watchdog$1680
  0C:12CB    A$core_watchdog$1681
  0C:12CC    A$core_watchdog$1684
  0C:12CF    A$core_watchdog$1685
  0C:12D1    A$core_watchdog$1686
  0C:12D2    A$core_watchdog$1689
  0C:12D5    A$core_watchdog$1690
  0C:12D7    A$core_watchdog$1691
  0C:12D8    A$core_watchdog$1694
  0C:12DB    A$core_watchdog$1695
  0C:12DD    A$core_watchdog$1696
  0C:12DE    A$core_watchdog$1699
  0C:12E1    A$core_watchdog$1700
  0C:12E3    A$core_watchdog$1701
  0C:12E4    A$core_watchdog$1704
  0C:12E7    A$core_watchdog$1705
  0C:12E9    A$core_watchdog$1706
  0C:12EA    A$core_watchdog$1709
  0C:12ED    A$core_watchdog$1710
  0C:12EF    A$core_watchdog$1711
  0C:12F0    A$core_watchdog$1714
  0C:12F3    A$core_watchdog$1715
  0C:12F5    A$core_watchdog$1716
  0C:12F6    A$core_watchdog$1719
  0C:12F9    A$core_watchdog$1720
  0C:12FB    A$core_watchdog$1721
  0C:12FC    A$core_watchdog$1724
  0C:12FF    A$core_watchdog$1725
  0C:1301    A$core_watchdog$1726
  0C:1302    A$core_watchdog$1729
  0C:1305    A$core_watchdog$1730
  0C:1307    A$core_watchdog$1731
  0C:1308    A$core_watchdog$1734
  0C:130B    A$core_watchdog$1735
  0C:130D    A$core_watchdog$1736
  0C:130E    A$core_watchdog$1739
  0C:1311    A$core_watchdog$1740
  0C:1313    A$core_watchdog$1741
  0C:1314    A$core_watchdog$1744
  0C:1317    A$core_watchdog$1745
  0C:1319    A$core_watchdog$1746
  0C:131A    A$core_watchdog$1749
  0C:131D    A$core_watchdog$1750
  0C:131F    A$core_watchdog$1751
  0C:1320    A$core_watchdog$1754
  0C:1323    A$core_watchdog$1755
  0C:1325    A$core_watchdog$1756
  0C:1326    A$core_watchdog$1759
  0C:1329    A$core_watchdog$1760
  0C:132B    A$core_watchdog$1761
  0C:132C    A$core_watchdog$1764
  0C:132F    A$core_watchdog$1765
  0C:1331    A$core_watchdog$1766
  0C:1332    A$core_watchdog$1769
  0C:1335    A$core_watchdog$1770
  0C:1337    A$core_watchdog$1771
  0C:1338    A$core_watchdog$1774
  0C:133B    A$core_watchdog$1775
  0C:133D    A$core_watchdog$1776
  0C:133E    A$core_watchdog$1779
  0C:1341    A$core_watchdog$1780
  0C:1343    A$core_watchdog$1781
  0C:1344    A$core_watchdog$1784
  0C:1347    A$core_watchdog$1785
  0C:1349    A$core_watchdog$1786
  0C:134A    A$core_watchdog$1789
  0C:134D    A$core_watchdog$1790
  0C:134F    A$core_watchdog$1791
  0C:1350    A$core_watchdog$1793
  0C:1353    A$core_watchdog$1794
  0C:1355    A$core_watchdog$1795
  0C:1356    A$core_watchdog$1796
  0C:1357    A$core_watchdog$1797
  0C:1358    A$core_watchdog$1798
  0C:1359    A$core_watchdog$1799
  0C:135A    A$core_watchdog$1800
  0C:135B    A$core_watchdog$1801
  0C:135C    A$core_watchdog$1802
  0C:135D    A$core_watchdog$1804
  0C:1360    A$core_watchdog$1805
  0C:1363    A$core_watchdog$1806
  0C:1366    A$core_watchdog$1807
  0C:1369    A$core_watchdog$1812
  0C:1369    C$core_watchdog.c$91$1$1
  0C:136C    A$core_watchdog$1813
  0C:136D    A$core_watchdog$1814
  0C:136E    A$core_watchdog$1815
  0C:136F    A$core_watchdog$1816
  0C:1370    A$core_watchdog$1817
  0C:1371    A$core_watchdog$1818
  0C:1372    A$core_watchdog$1819
  0C:1373    A$core_watchdog$1820
  0C:1374    A$core_watchdog$1823
  0C:1376    A$core_watchdog$1824
  0C:1378    A$core_watchdog$1825
  0C:137A    A$core_watchdog$1826
  0C:137D    A$core_watchdog$1827
  0C:137E    A$core_watchdog$1828
  0C:137F    A$core_watchdog$1829
  0C:1382    A$core_watchdog$1830
  0C:1383    A$core_watchdog$1833
  0C:1385    A$core_watchdog$1834
  0C:1387    A$core_watchdog$1835
  0C:1388    A$core_watchdog$1836
  0C:138A    A$core_watchdog$1837
  0C:138C    A$core_watchdog$1838
  0C:138D    A$core_watchdog$1840
  0C:1390    A$core_watchdog$1841
  0C:1392    A$core_watchdog$1842
  0C:1393    A$core_watchdog$1843
  0C:1394    A$core_watchdog$1844
  0C:1395    A$core_watchdog$1845
  0C:1396    A$core_watchdog$1846
  0C:1397    A$core_watchdog$1847
  0C:1398    A$core_watchdog$1848
  0C:1399    A$core_watchdog$1849
  0C:139A    A$core_watchdog$1851
  0C:139C    A$core_watchdog$1852
  0C:139E    A$core_watchdog$1853
  0C:13A1    A$core_watchdog$1857
  0C:13A1    C$core_watchdog.c$92$1$1
  0C:13A1    XG$WD_reload$0$0
  0C:13A2    A$core_watchdog$1872
  0C:13A2    C$core_watchdog.c$100$1$1
  0C:13A2    G$WD_current_value$0$0
  0C:13A2    _WD_current_value
  0C:13A4    A$core_watchdog$1873
  0C:13A6    A$core_watchdog$1874
  0C:13A8    A$core_watchdog$1875
  0C:13AB    A$core_watchdog$1876
  0C:13AC    A$core_watchdog$1877
  0C:13AD    A$core_watchdog$1878
  0C:13AE    A$core_watchdog$1879
  0C:13AF    A$core_watchdog$1880
  0C:13B0    A$core_watchdog$1881
  0C:13B1    A$core_watchdog$1882
  0C:13B2    A$core_watchdog$1886
  0C:13B2    C$core_watchdog.c$105$2$2
  0C:13B5    A$core_watchdog$1887
  0C:13B6    A$core_watchdog$1888
  0C:13B7    A$core_watchdog$1889
  0C:13B8    A$core_watchdog$1890
  0C:13B9    A$core_watchdog$1891
  0C:13BA    A$core_watchdog$1892
  0C:13BB    A$core_watchdog$1893
  0C:13BC    A$core_watchdog$1894
  0C:13BD    A$core_watchdog$1896
  0C:13C0    A$core_watchdog$1897
  0C:13C1    A$core_watchdog$1898
  0C:13C2    A$core_watchdog$1899
  0C:13C3    A$core_watchdog$1900
  0C:13C4    A$core_watchdog$1901
  0C:13C5    A$core_watchdog$1902
  0C:13C6    A$core_watchdog$1903
  0C:13C7    A$core_watchdog$1904
  0C:13C8    A$core_watchdog$1907
  0C:13C9    A$core_watchdog$1908
  0C:13CC    A$core_watchdog$1909
  0C:13CD    A$core_watchdog$1910
  0C:13D0    A$core_watchdog$1911
  0C:13D1    A$core_watchdog$1912
  0C:13D4    A$core_watchdog$1913
  0C:13D6    A$core_watchdog$1915
  0C:13D9    A$core_watchdog$1919
  0C:13DC    A$core_watchdog$1920
  0C:13DE    A$core_watchdog$1921
  0C:13DF    A$core_watchdog$1924
  0C:13E2    A$core_watchdog$1925
  0C:13E4    A$core_watchdog$1926
  0C:13E5    A$core_watchdog$1929
  0C:13E8    A$core_watchdog$1930
  0C:13EA    A$core_watchdog$1931
  0C:13EB    A$core_watchdog$1934
  0C:13EE    A$core_watchdog$1935
  0C:13F0    A$core_watchdog$1936
  0C:13F1    A$core_watchdog$1939
  0C:13F4    A$core_watchdog$1940
  0C:13F6    A$core_watchdog$1941
  0C:13F7    A$core_watchdog$1944
  0C:13FA    A$core_watchdog$1945
  0C:13FC    A$core_watchdog$1946
  0C:13FD    A$core_watchdog$1949
  0C:1400    A$core_watchdog$1950
  0C:1402    A$core_watchdog$1951
  0C:1403    A$core_watchdog$1954
  0C:1406    A$core_watchdog$1955
  0C:1408    A$core_watchdog$1956
  0C:1409    A$core_watchdog$1959
  0C:140C    A$core_watchdog$1960
  0C:140E    A$core_watchdog$1961
  0C:140F    A$core_watchdog$1964
  0C:1412    A$core_watchdog$1965
  0C:1414    A$core_watchdog$1966
  0C:1415    A$core_watchdog$1969
  0C:1418    A$core_watchdog$1970
  0C:141A    A$core_watchdog$1971
  0C:141B    A$core_watchdog$1974
  0C:141E    A$core_watchdog$1975
  0C:1420    A$core_watchdog$1976
  0C:1421    A$core_watchdog$1979
  0C:1424    A$core_watchdog$1980
  0C:1426    A$core_watchdog$1981
  0C:1427    A$core_watchdog$1984
  0C:142A    A$core_watchdog$1985
  0C:142C    A$core_watchdog$1986
  0C:142D    A$core_watchdog$1989
  0C:1430    A$core_watchdog$1990
  0C:1432    A$core_watchdog$1991
  0C:1433    A$core_watchdog$1994
  0C:1436    A$core_watchdog$1995
  0C:1438    A$core_watchdog$1996
  0C:1439    A$core_watchdog$1999
  0C:143C    A$core_watchdog$2000
  0C:143E    A$core_watchdog$2001
  0C:143F    A$core_watchdog$2004
  0C:1442    A$core_watchdog$2005
  0C:1444    A$core_watchdog$2006
  0C:1445    A$core_watchdog$2009
  0C:1448    A$core_watchdog$2010
  0C:144A    A$core_watchdog$2011
  0C:144B    A$core_watchdog$2014
  0C:144E    A$core_watchdog$2015
  0C:1450    A$core_watchdog$2016
  0C:1451    A$core_watchdog$2019
  0C:1454    A$core_watchdog$2020
  0C:1456    A$core_watchdog$2021
  0C:1457    A$core_watchdog$2024
  0C:145A    A$core_watchdog$2025
  0C:145C    A$core_watchdog$2026
  0C:145D    A$core_watchdog$2029
  0C:1460    A$core_watchdog$2030
  0C:1462    A$core_watchdog$2031
  0C:1463    A$core_watchdog$2034
  0C:1466    A$core_watchdog$2035
  0C:1468    A$core_watchdog$2036
  0C:1469    A$core_watchdog$2039
  0C:146C    A$core_watchdog$2040
  0C:146E    A$core_watchdog$2041
  0C:146F    A$core_watchdog$2044
  0C:1472    A$core_watchdog$2045
  0C:1474    A$core_watchdog$2046
  0C:1475    A$core_watchdog$2049
  0C:1478    A$core_watchdog$2050
  0C:147A    A$core_watchdog$2051
  0C:147B    A$core_watchdog$2054
  0C:147E    A$core_watchdog$2055
  0C:1480    A$core_watchdog$2056
  0C:1481    A$core_watchdog$2059
  0C:1484    A$core_watchdog$2060
  0C:1486    A$core_watchdog$2061
  0C:1487    A$core_watchdog$2064
  0C:148A    A$core_watchdog$2065
  0C:148C    A$core_watchdog$2066
  0C:148D    A$core_watchdog$2069
  0C:1490    A$core_watchdog$2070
  0C:1492    A$core_watchdog$2071
  0C:1493    A$core_watchdog$2074
  0C:1496    A$core_watchdog$2075
  0C:1498    A$core_watchdog$2076
  0C:1499    A$core_watchdog$2079
  0C:149C    A$core_watchdog$2080
  0C:149E    A$core_watchdog$2081
  0C:149F    A$core_watchdog$2084
  0C:14A2    A$core_watchdog$2085
  0C:14A4    A$core_watchdog$2086
  0C:14A5    A$core_watchdog$2089
  0C:14A8    A$core_watchdog$2090
  0C:14AA    A$core_watchdog$2091
  0C:14AB    A$core_watchdog$2094
  0C:14AE    A$core_watchdog$2095
  0C:14B0    A$core_watchdog$2096
  0C:14B1    A$core_watchdog$2099
  0C:14B4    A$core_watchdog$2100
  0C:14B6    A$core_watchdog$2101
  0C:14B7    A$core_watchdog$2104
  0C:14BA    A$core_watchdog$2105
  0C:14BC    A$core_watchdog$2106
  0C:14BD    A$core_watchdog$2109
  0C:14C0    A$core_watchdog$2110
  0C:14C2    A$core_watchdog$2111
  0C:14C3    A$core_watchdog$2114
  0C:14C6    A$core_watchdog$2115
  0C:14C8    A$core_watchdog$2116
  0C:14C9    A$core_watchdog$2118
  0C:14CC    A$core_watchdog$2119
  0C:14CE    A$core_watchdog$2120
  0C:14CF    A$core_watchdog$2121
  0C:14D0    A$core_watchdog$2122
  0C:14D1    A$core_watchdog$2123
  0C:14D2    A$core_watchdog$2124
  0C:14D3    A$core_watchdog$2125
  0C:14D4    A$core_watchdog$2126
  0C:14D5    A$core_watchdog$2127
  0C:14D6    A$core_watchdog$2129
  0C:14D9    A$core_watchdog$2130
  0C:14DC    A$core_watchdog$2131
  0C:14DF    A$core_watchdog$2132
  0C:14E2    A$core_watchdog$2137
  0C:14E2    C$core_watchdog.c$107$1$1
  0C:14E5    A$core_watchdog$2138
  0C:14E6    A$core_watchdog$2139
  0C:14E7    A$core_watchdog$2140
  0C:14E8    A$core_watchdog$2141
  0C:14E9    A$core_watchdog$2142
  0C:14EA    A$core_watchdog$2143
  0C:14EB    A$core_watchdog$2144
  0C:14EC    A$core_watchdog$2145
  0C:14ED    A$core_watchdog$2148
  0C:14EF    A$core_watchdog$2149
  0C:14F1    A$core_watchdog$2150
  0C:14F3    A$core_watchdog$2151
  0C:14F6    A$core_watchdog$2152
  0C:14F7    A$core_watchdog$2153
  0C:14F8    A$core_watchdog$2154
  0C:14FB    A$core_watchdog$2155
  0C:14FC    A$core_watchdog$2158
  0C:14FE    A$core_watchdog$2159
  0C:1500    A$core_watchdog$2160
  0C:1501    A$core_watchdog$2161
  0C:1503    A$core_watchdog$2162
  0C:1505    A$core_watchdog$2163
  0C:1506    A$core_watchdog$2165
  0C:1508    A$core_watchdog$2166
  0C:150A    A$core_watchdog$2167
  0C:150D    A$core_watchdog$2168
  0C:150F    A$core_watchdog$2169
  0C:1511    A$core_watchdog$2170
  0C:1513    A$core_watchdog$2171
  0C:1514    A$core_watchdog$2173
  0C:1516    A$core_watchdog$2174
  0C:1518    A$core_watchdog$2175
  0C:151A    A$core_watchdog$2176
  0C:151B    A$core_watchdog$2180
  0C:151B    C$core_watchdog.c$108$1$1
  0C:151B    XG$WD_current_value$0$0
  0C:151C    A$core_uart_apb$297
  0C:151C    C$core_uart_apb.c$38$0$0
  0C:151C    G$UART_init$0$0
  0C:151C    _UART_init
  0C:151E    A$core_uart_apb$298
  0C:1520    A$core_uart_apb$299
  0C:1522    A$core_uart_apb$300
  0C:1525    A$core_uart_apb$301
  0C:1526    A$core_uart_apb$302
  0C:1527    A$core_uart_apb$303
  0C:1528    A$core_uart_apb$304
  0C:1529    A$core_uart_apb$305
  0C:152A    A$core_uart_apb$306
  0C:152B    A$core_uart_apb$307
  0C:152C    A$core_uart_apb$311
  0C:152C    C$core_uart_apb.c$48$2$2
  0C:152F    A$core_uart_apb$312
  0C:1530    A$core_uart_apb$313
  0C:1531    A$core_uart_apb$314
  0C:1532    A$core_uart_apb$315
  0C:1533    A$core_uart_apb$316
  0C:1534    A$core_uart_apb$317
  0C:1535    A$core_uart_apb$318
  0C:1536    A$core_uart_apb$319
  0C:1537    A$core_uart_apb$322
  0C:153A    A$core_uart_apb$323
  0C:153D    A$core_uart_apb$324
  0C:1540    A$core_uart_apb$325
  0C:1542    A$core_uart_apb$327
  0C:1545    A$core_uart_apb$331
  0C:1548    A$core_uart_apb$332
  0C:154A    A$core_uart_apb$333
  0C:154B    A$core_uart_apb$336
  0C:154E    A$core_uart_apb$337
  0C:1550    A$core_uart_apb$338
  0C:1551    A$core_uart_apb$341
  0C:1554    A$core_uart_apb$342
  0C:1556    A$core_uart_apb$343
  0C:1557    A$core_uart_apb$346
  0C:155A    A$core_uart_apb$347
  0C:155C    A$core_uart_apb$348
  0C:155D    A$core_uart_apb$351
  0C:1560    A$core_uart_apb$352
  0C:1562    A$core_uart_apb$353
  0C:1563    A$core_uart_apb$356
  0C:1566    A$core_uart_apb$357
  0C:1568    A$core_uart_apb$358
  0C:1569    A$core_uart_apb$361
  0C:156C    A$core_uart_apb$362
  0C:156E    A$core_uart_apb$363
  0C:156F    A$core_uart_apb$366
  0C:1572    A$core_uart_apb$367
  0C:1574    A$core_uart_apb$368
  0C:1575    A$core_uart_apb$371
  0C:1578    A$core_uart_apb$372
  0C:157A    A$core_uart_apb$373
  0C:157B    A$core_uart_apb$376
  0C:157E    A$core_uart_apb$377
  0C:1580    A$core_uart_apb$378
  0C:1581    A$core_uart_apb$381
  0C:1584    A$core_uart_apb$382
  0C:1586    A$core_uart_apb$383
  0C:1587    A$core_uart_apb$386
  0C:158A    A$core_uart_apb$387
  0C:158C    A$core_uart_apb$388
  0C:158D    A$core_uart_apb$391
  0C:1590    A$core_uart_apb$392
  0C:1592    A$core_uart_apb$393
  0C:1593    A$core_uart_apb$396
  0C:1596    A$core_uart_apb$397
  0C:1598    A$core_uart_apb$398
  0C:1599    A$core_uart_apb$401
  0C:159C    A$core_uart_apb$402
  0C:159E    A$core_uart_apb$403
  0C:159F    A$core_uart_apb$406
  0C:15A2    A$core_uart_apb$407
  0C:15A4    A$core_uart_apb$408
  0C:15A5    A$core_uart_apb$411
  0C:15A8    A$core_uart_apb$412
  0C:15AA    A$core_uart_apb$413
  0C:15AB    A$core_uart_apb$416
  0C:15AE    A$core_uart_apb$417
  0C:15B0    A$core_uart_apb$418
  0C:15B1    A$core_uart_apb$421
  0C:15B4    A$core_uart_apb$422
  0C:15B6    A$core_uart_apb$423
  0C:15B7    A$core_uart_apb$426
  0C:15BA    A$core_uart_apb$427
  0C:15BC    A$core_uart_apb$428
  0C:15BD    A$core_uart_apb$431
  0C:15C0    A$core_uart_apb$432
  0C:15C2    A$core_uart_apb$433
  0C:15C3    A$core_uart_apb$436
  0C:15C6    A$core_uart_apb$437
  0C:15C8    A$core_uart_apb$438
  0C:15C9    A$core_uart_apb$441
  0C:15CC    A$core_uart_apb$442
  0C:15CE    A$core_uart_apb$443
  0C:15CF    A$core_uart_apb$446
  0C:15D2    A$core_uart_apb$447
  0C:15D4    A$core_uart_apb$448
  0C:15D5    A$core_uart_apb$451
  0C:15D8    A$core_uart_apb$452
  0C:15DA    A$core_uart_apb$453
  0C:15DB    A$core_uart_apb$456
  0C:15DE    A$core_uart_apb$457
  0C:15E0    A$core_uart_apb$458
  0C:15E1    A$core_uart_apb$461
  0C:15E4    A$core_uart_apb$462
  0C:15E6    A$core_uart_apb$463
  0C:15E7    A$core_uart_apb$466
  0C:15EA    A$core_uart_apb$467
  0C:15EC    A$core_uart_apb$468
  0C:15ED    A$core_uart_apb$471
  0C:15F0    A$core_uart_apb$472
  0C:15F2    A$core_uart_apb$473
  0C:15F3    A$core_uart_apb$476
  0C:15F6    A$core_uart_apb$477
  0C:15F8    A$core_uart_apb$478
  0C:15F9    A$core_uart_apb$481
  0C:15FC    A$core_uart_apb$482
  0C:15FE    A$core_uart_apb$483
  0C:15FF    A$core_uart_apb$486
  0C:1602    A$core_uart_apb$487
  0C:1604    A$core_uart_apb$488
  0C:1605    A$core_uart_apb$491
  0C:1608    A$core_uart_apb$492
  0C:160A    A$core_uart_apb$493
  0C:160B    A$core_uart_apb$496
  0C:160E    A$core_uart_apb$497
  0C:1610    A$core_uart_apb$498
  0C:1611    A$core_uart_apb$501
  0C:1614    A$core_uart_apb$502
  0C:1616    A$core_uart_apb$503
  0C:1617    A$core_uart_apb$506
  0C:161A    A$core_uart_apb$507
  0C:161C    A$core_uart_apb$508
  0C:161D    A$core_uart_apb$511
  0C:1620    A$core_uart_apb$512
  0C:1622    A$core_uart_apb$513
  0C:1623    A$core_uart_apb$516
  0C:1626    A$core_uart_apb$517
  0C:1628    A$core_uart_apb$518
  0C:1629    A$core_uart_apb$521
  0C:162C    A$core_uart_apb$522
  0C:162E    A$core_uart_apb$523
  0C:162F    A$core_uart_apb$525
  0C:1632    A$core_uart_apb$526
  0C:1634    A$core_uart_apb$527
  0C:1635    A$core_uart_apb$528
  0C:1636    A$core_uart_apb$529
  0C:1637    A$core_uart_apb$530
  0C:1638    A$core_uart_apb$531
  0C:1639    A$core_uart_apb$532
  0C:163A    A$core_uart_apb$533
  0C:163B    A$core_uart_apb$534
  0C:163C    A$core_uart_apb$536
  0C:163F    A$core_uart_apb$537
  0C:1642    A$core_uart_apb$538
  0C:1645    A$core_uart_apb$539
  0C:1648    A$core_uart_apb$544
  0C:1648    C$core_uart_apb.c$49$2$4
  0C:164B    A$core_uart_apb$545
  0C:164C    A$core_uart_apb$546
  0C:164E    A$core_uart_apb$549
  0C:164F    A$core_uart_apb$550
  0C:1651    A$core_uart_apb$551
  0C:1653    A$core_uart_apb$552
  0C:1654    A$core_uart_apb$553
  0C:1655    A$core_uart_apb$554
  0C:1656    A$core_uart_apb$556
  0C:1657    A$core_uart_apb$558
  0C:1659    A$core_uart_apb$559
  0C:165C    A$core_uart_apb$563
  0C:165F    A$core_uart_apb$564
  0C:1661    A$core_uart_apb$565
  0C:1662    A$core_uart_apb$568
  0C:1665    A$core_uart_apb$569
  0C:1667    A$core_uart_apb$570
  0C:1668    A$core_uart_apb$573
  0C:166B    A$core_uart_apb$574
  0C:166D    A$core_uart_apb$575
  0C:166E    A$core_uart_apb$578
  0C:1671    A$core_uart_apb$579
  0C:1673    A$core_uart_apb$580
  0C:1674    A$core_uart_apb$583
  0C:1677    A$core_uart_apb$584
  0C:1679    A$core_uart_apb$585
  0C:167A    A$core_uart_apb$588
  0C:167D    A$core_uart_apb$589
  0C:167F    A$core_uart_apb$590
  0C:1680    A$core_uart_apb$593
  0C:1683    A$core_uart_apb$594
  0C:1685    A$core_uart_apb$595
  0C:1686    A$core_uart_apb$598
  0C:1689    A$core_uart_apb$599
  0C:168B    A$core_uart_apb$600
  0C:168C    A$core_uart_apb$603
  0C:168F    A$core_uart_apb$604
  0C:1691    A$core_uart_apb$605
  0C:1692    A$core_uart_apb$608
  0C:1695    A$core_uart_apb$609
  0C:1697    A$core_uart_apb$610
  0C:1698    A$core_uart_apb$613
  0C:169B    A$core_uart_apb$614
  0C:169D    A$core_uart_apb$615
  0C:169E    A$core_uart_apb$618
  0C:16A1    A$core_uart_apb$619
  0C:16A3    A$core_uart_apb$620
  0C:16A4    A$core_uart_apb$623
  0C:16A7    A$core_uart_apb$624
  0C:16A9    A$core_uart_apb$625
  0C:16AA    A$core_uart_apb$628
  0C:16AD    A$core_uart_apb$629
  0C:16AF    A$core_uart_apb$630
  0C:16B0    A$core_uart_apb$633
  0C:16B3    A$core_uart_apb$634
  0C:16B5    A$core_uart_apb$635
  0C:16B6    A$core_uart_apb$638
  0C:16B9    A$core_uart_apb$639
  0C:16BB    A$core_uart_apb$640
  0C:16BC    A$core_uart_apb$643
  0C:16BF    A$core_uart_apb$644
  0C:16C1    A$core_uart_apb$645
  0C:16C2    A$core_uart_apb$648
  0C:16C5    A$core_uart_apb$649
  0C:16C7    A$core_uart_apb$650
  0C:16C8    A$core_uart_apb$653
  0C:16CB    A$core_uart_apb$654
  0C:16CD    A$core_uart_apb$655
  0C:16CE    A$core_uart_apb$658
  0C:16D1    A$core_uart_apb$659
  0C:16D3    A$core_uart_apb$660
  0C:16D4    A$core_uart_apb$663
  0C:16D7    A$core_uart_apb$664
  0C:16D9    A$core_uart_apb$665
  0C:16DA    A$core_uart_apb$668
  0C:16DD    A$core_uart_apb$669
  0C:16DF    A$core_uart_apb$670
  0C:16E0    A$core_uart_apb$673
  0C:16E3    A$core_uart_apb$674
  0C:16E5    A$core_uart_apb$675
  0C:16E6    A$core_uart_apb$678
  0C:16E9    A$core_uart_apb$679
  0C:16EB    A$core_uart_apb$680
  0C:16EC    A$core_uart_apb$683
  0C:16EF    A$core_uart_apb$684
  0C:16F1    A$core_uart_apb$685
  0C:16F2    A$core_uart_apb$688
  0C:16F5    A$core_uart_apb$689
  0C:16F7    A$core_uart_apb$690
  0C:16F8    A$core_uart_apb$693
  0C:16FB    A$core_uart_apb$694
  0C:16FD    A$core_uart_apb$695
  0C:16FE    A$core_uart_apb$698
  0C:1701    A$core_uart_apb$699
  0C:1703    A$core_uart_apb$700
  0C:1704    A$core_uart_apb$703
  0C:1707    A$core_uart_apb$704
  0C:1709    A$core_uart_apb$705
  0C:170A    A$core_uart_apb$708
  0C:170D    A$core_uart_apb$709
  0C:170F    A$core_uart_apb$710
  0C:1710    A$core_uart_apb$713
  0C:1713    A$core_uart_apb$714
  0C:1715    A$core_uart_apb$715
  0C:1716    A$core_uart_apb$718
  0C:1719    A$core_uart_apb$719
  0C:171B    A$core_uart_apb$720
  0C:171C    A$core_uart_apb$723
  0C:171F    A$core_uart_apb$724
  0C:1721    A$core_uart_apb$725
  0C:1722    A$core_uart_apb$728
  0C:1725    A$core_uart_apb$729
  0C:1727    A$core_uart_apb$730
  0C:1728    A$core_uart_apb$733
  0C:172B    A$core_uart_apb$734
  0C:172D    A$core_uart_apb$735
  0C:172E    A$core_uart_apb$738
  0C:1731    A$core_uart_apb$739
  0C:1733    A$core_uart_apb$740
  0C:1734    A$core_uart_apb$743
  0C:1737    A$core_uart_apb$744
  0C:1739    A$core_uart_apb$745
  0C:173A    A$core_uart_apb$748
  0C:173D    A$core_uart_apb$749
  0C:173F    A$core_uart_apb$750
  0C:1740    A$core_uart_apb$753
  0C:1743    A$core_uart_apb$754
  0C:1745    A$core_uart_apb$755
  0C:1746    A$core_uart_apb$757
  0C:1749    A$core_uart_apb$758
  0C:174B    A$core_uart_apb$759
  0C:174C    A$core_uart_apb$760
  0C:174D    A$core_uart_apb$761
  0C:174E    A$core_uart_apb$762
  0C:174F    A$core_uart_apb$763
  0C:1750    A$core_uart_apb$764
  0C:1751    A$core_uart_apb$765
  0C:1752    A$core_uart_apb$766
  0C:1753    A$core_uart_apb$768
  0C:1756    A$core_uart_apb$769
  0C:1759    A$core_uart_apb$770
  0C:175C    A$core_uart_apb$771
  0C:175E    A$core_uart_apb$772
  0C:1761    A$core_uart_apb$773
  0C:1763    A$core_uart_apb$778
  0C:1763    C$core_uart_apb.c$50$2$6
  0C:1766    A$core_uart_apb$779
  0C:1767    A$core_uart_apb$780
  0C:1768    A$core_uart_apb$781
  0C:1769    A$core_uart_apb$782
  0C:176A    A$core_uart_apb$783
  0C:176B    A$core_uart_apb$786
  0C:176C    A$core_uart_apb$787
  0C:176E    A$core_uart_apb$788
  0C:176F    A$core_uart_apb$789
  0C:1771    A$core_uart_apb$790
  0C:1772    A$core_uart_apb$791
  0C:1773    A$core_uart_apb$792
  0C:1774    A$core_uart_apb$793
  0C:1775    A$core_uart_apb$795
  0C:1776    A$core_uart_apb$797
  0C:1778    A$core_uart_apb$798
  0C:177B    A$core_uart_apb$802
  0C:177E    A$core_uart_apb$803
  0C:1780    A$core_uart_apb$804
  0C:1781    A$core_uart_apb$807
  0C:1784    A$core_uart_apb$808
  0C:1786    A$core_uart_apb$809
  0C:1787    A$core_uart_apb$812
  0C:178A    A$core_uart_apb$813
  0C:178C    A$core_uart_apb$814
  0C:178D    A$core_uart_apb$817
  0C:1790    A$core_uart_apb$818
  0C:1792    A$core_uart_apb$819
  0C:1793    A$core_uart_apb$822
  0C:1796    A$core_uart_apb$823
  0C:1798    A$core_uart_apb$824
  0C:1799    A$core_uart_apb$827
  0C:179C    A$core_uart_apb$828
  0C:179E    A$core_uart_apb$829
  0C:179F    A$core_uart_apb$832
  0C:17A2    A$core_uart_apb$833
  0C:17A4    A$core_uart_apb$834
  0C:17A5    A$core_uart_apb$837
  0C:17A8    A$core_uart_apb$838
  0C:17AA    A$core_uart_apb$839
  0C:17AB    A$core_uart_apb$842
  0C:17AE    A$core_uart_apb$843
  0C:17B0    A$core_uart_apb$844
  0C:17B1    A$core_uart_apb$847
  0C:17B4    A$core_uart_apb$848
  0C:17B6    A$core_uart_apb$849
  0C:17B7    A$core_uart_apb$852
  0C:17BA    A$core_uart_apb$853
  0C:17BC    A$core_uart_apb$854
  0C:17BD    A$core_uart_apb$857
  0C:17C0    A$core_uart_apb$858
  0C:17C2    A$core_uart_apb$859
  0C:17C3    A$core_uart_apb$862
  0C:17C6    A$core_uart_apb$863
  0C:17C8    A$core_uart_apb$864
  0C:17C9    A$core_uart_apb$867
  0C:17CC    A$core_uart_apb$868
  0C:17CE    A$core_uart_apb$869
  0C:17CF    A$core_uart_apb$872
  0C:17D2    A$core_uart_apb$873
  0C:17D4    A$core_uart_apb$874
  0C:17D5    A$core_uart_apb$877
  0C:17D8    A$core_uart_apb$878
  0C:17DA    A$core_uart_apb$879
  0C:17DB    A$core_uart_apb$882
  0C:17DE    A$core_uart_apb$883
  0C:17E0    A$core_uart_apb$884
  0C:17E1    A$core_uart_apb$887
  0C:17E4    A$core_uart_apb$888
  0C:17E6    A$core_uart_apb$889
  0C:17E7    A$core_uart_apb$892
  0C:17EA    A$core_uart_apb$893
  0C:17EC    A$core_uart_apb$894
  0C:17ED    A$core_uart_apb$897
  0C:17F0    A$core_uart_apb$898
  0C:17F2    A$core_uart_apb$899
  0C:17F3    A$core_uart_apb$902
  0C:17F6    A$core_uart_apb$903
  0C:17F8    A$core_uart_apb$904
  0C:17F9    A$core_uart_apb$907
  0C:17FC    A$core_uart_apb$908
  0C:17FE    A$core_uart_apb$909
  0C:17FF    A$core_uart_apb$912
  0C:1802    A$core_uart_apb$913
  0C:1804    A$core_uart_apb$914
  0C:1805    A$core_uart_apb$917
  0C:1808    A$core_uart_apb$918
  0C:180A    A$core_uart_apb$919
  0C:180B    A$core_uart_apb$922
  0C:180E    A$core_uart_apb$923
  0C:1810    A$core_uart_apb$924
  0C:1811    A$core_uart_apb$927
  0C:1814    A$core_uart_apb$928
  0C:1816    A$core_uart_apb$929
  0C:1817    A$core_uart_apb$932
  0C:181A    A$core_uart_apb$933
  0C:181C    A$core_uart_apb$934
  0C:181D    A$core_uart_apb$937
  0C:1820    A$core_uart_apb$938
  0C:1822    A$core_uart_apb$939
  0C:1823    A$core_uart_apb$942
  0C:1826    A$core_uart_apb$943
  0C:1828    A$core_uart_apb$944
  0C:1829    A$core_uart_apb$947
  0C:182C    A$core_uart_apb$948
  0C:182E    A$core_uart_apb$949
  0C:182F    A$core_uart_apb$952
  0C:1832    A$core_uart_apb$953
  0C:1834    A$core_uart_apb$954
  0C:1835    A$core_uart_apb$957
  0C:1838    A$core_uart_apb$958
  0C:183A    A$core_uart_apb$959
  0C:183B    A$core_uart_apb$962
  0C:183E    A$core_uart_apb$963
  0C:1840    A$core_uart_apb$964
  0C:1841    A$core_uart_apb$967
  0C:1844    A$core_uart_apb$968
  0C:1846    A$core_uart_apb$969
  0C:1847    A$core_uart_apb$972
  0C:184A    A$core_uart_apb$973
  0C:184C    A$core_uart_apb$974
  0C:184D    A$core_uart_apb$977
  0C:1850    A$core_uart_apb$978
  0C:1852    A$core_uart_apb$979
  0C:1853    A$core_uart_apb$982
  0C:1856    A$core_uart_apb$983
  0C:1858    A$core_uart_apb$984
  0C:1859    A$core_uart_apb$987
  0C:185C    A$core_uart_apb$988
  0C:185E    A$core_uart_apb$989
  0C:185F    A$core_uart_apb$992
  0C:1862    A$core_uart_apb$993
  0C:1864    A$core_uart_apb$994
  0C:1865    A$core_uart_apb$996
  0C:1868    A$core_uart_apb$997
  0C:186A    A$core_uart_apb$998
  0C:186B    A$core_uart_apb$999
  0C:186C    A$core_uart_apb$1000
  0C:186D    A$core_uart_apb$1001
  0C:186E    A$core_uart_apb$1002
  0C:186F    A$core_uart_apb$1003
  0C:1870    A$core_uart_apb$1004
  0C:1871    A$core_uart_apb$1005
  0C:1872    A$core_uart_apb$1007
  0C:1875    A$core_uart_apb$1008
  0C:1878    A$core_uart_apb$1009
  0C:187B    A$core_uart_apb$1010
  0C:187D    A$core_uart_apb$1011
  0C:187F    A$core_uart_apb$1012
  0C:1881    A$core_uart_apb$1013
  0C:1883    A$core_uart_apb$1014
  0C:1886    A$core_uart_apb$1015
  0C:1888    A$core_uart_apb$1016
  0C:188A    A$core_uart_apb$1017
  0C:188C    A$core_uart_apb$1018
  0C:188E    A$core_uart_apb$1023
  0C:188E    C$core_uart_apb.c$52$1$1
  0C:1891    A$core_uart_apb$1024
  0C:1892    A$core_uart_apb$1025
  0C:1893    A$core_uart_apb$1026
  0C:1894    A$core_uart_apb$1027
  0C:1895    A$core_uart_apb$1028
  0C:1896    A$core_uart_apb$1029
  0C:1897    A$core_uart_apb$1030
  0C:1898    A$core_uart_apb$1031
  0C:1899    A$core_uart_apb$1034
  0C:189C    A$core_uart_apb$1035
  0C:189F    A$core_uart_apb$1036
  0C:18A2    A$core_uart_apb$1037
  0C:18A5    A$core_uart_apb$1042
  0C:18A5    C$core_uart_apb.c$53$1$1
  0C:18A6    A$core_uart_apb$1044
  0C:18A8    A$core_uart_apb$1045
  0C:18AB    A$core_uart_apb$1050
  0C:18AB    C$core_uart_apb.c$54$1$1
  0C:18AC    A$core_uart_apb$1052
  0C:18AE    A$core_uart_apb$1053
  0C:18B1    A$core_uart_apb$1058
  0C:18B1    C$core_uart_apb.c$59$2$8
  0C:18B4    A$core_uart_apb$1059
  0C:18B5    A$core_uart_apb$1060
  0C:18B7    A$core_uart_apb$1061
  0C:18B8    A$core_uart_apb$1062
  0C:18B9    A$core_uart_apb$1063
  0C:18BB    A$core_uart_apb$1066
  0C:18BD    A$core_uart_apb$1067
  0C:18BF    A$core_uart_apb$1068
  0C:18C1    A$core_uart_apb$1069
  0C:18C3    A$core_uart_apb$1070
  0C:18C5    A$core_uart_apb$1071
  0C:18C7    A$core_uart_apb$1073
  0C:18C9    A$core_uart_apb$1074
  0C:18CB    A$core_uart_apb$1076
  0C:18CE    A$core_uart_apb$1077
  0C:18CF    A$core_uart_apb$1078
  0C:18D0    A$core_uart_apb$1080
  0C:18D3    A$core_uart_apb$1081
  0C:18D6    A$core_uart_apb$1082
  0C:18D8    A$core_uart_apb$1083
  0C:18DA    A$core_uart_apb$1084
  0C:18DC    A$core_uart_apb$1085
  0C:18DE    A$core_uart_apb$1086
  0C:18E0    A$core_uart_apb$1087
  0C:18E3    A$core_uart_apb$1088
  0C:18E5    A$core_uart_apb$1089
  0C:18E7    A$core_uart_apb$1090
  0C:18E9    A$core_uart_apb$1091
  0C:18EB    A$core_uart_apb$1092
  0C:18ED    A$core_uart_apb$1097
  0C:18ED    C$core_uart_apb.c$66$2$8
  0C:18EF    A$core_uart_apb$1098
  0C:18F1    A$core_uart_apb$1099
  0C:18F3    A$core_uart_apb$1100
  0C:18F5    A$core_uart_apb$1101
  0C:18F7    A$core_uart_apb$1102
  0C:18F9    A$core_uart_apb$1104
  0C:18FB    A$core_uart_apb$1105
  0C:18FD    A$core_uart_apb$1109
  0C:18FE    A$core_uart_apb$1110
  0C:18FF    A$core_uart_apb$1111
  0C:1900    A$core_uart_apb$1112
  0C:1901    A$core_uart_apb$1113
  0C:1902    A$core_uart_apb$1114
  0C:1903    A$core_uart_apb$1115
  0C:1905    A$core_uart_apb$1116
  0C:1906    A$core_uart_apb$1117
  0C:1907    A$core_uart_apb$1118
  0C:1909    A$core_uart_apb$1119
  0C:190A    A$core_uart_apb$1120
  0C:190B    A$core_uart_apb$1121
  0C:190C    A$core_uart_apb$1122
  0C:190D    A$core_uart_apb$1125
  0C:1910    A$core_uart_apb$1126
  0C:1911    A$core_uart_apb$1127
  0C:1913    A$core_uart_apb$1128
  0C:1914    A$core_uart_apb$1130
  0C:1917    A$core_uart_apb$1131
  0C:191A    A$core_uart_apb$1132
  0C:191C    A$core_uart_apb$1133
  0C:191E    A$core_uart_apb$1134
  0C:1920    A$core_uart_apb$1135
  0C:1922    A$core_uart_apb$1136
  0C:1924    A$core_uart_apb$1137
  0C:1927    A$core_uart_apb$1138
  0C:1929    A$core_uart_apb$1139
  0C:192B    A$core_uart_apb$1140
  0C:192D    A$core_uart_apb$1141
  0C:192F    A$core_uart_apb$1142
  0C:1931    A$core_uart_apb$1147
  0C:1931    C$core_uart_apb.c$70$2$8
  0C:1933    A$core_uart_apb$1148
  0C:1935    A$core_uart_apb$1149
  0C:1937    A$core_uart_apb$1150
  0C:1939    A$core_uart_apb$1151
  0C:193C    A$core_uart_apb$1152
  0C:193D    A$core_uart_apb$1153
  0C:193F    A$core_uart_apb$1154
  0C:1942    A$core_uart_apb$1158
  0C:1942    C$core_uart_apb.c$76$3$9
  0C:1945    A$core_uart_apb$1159
  0C:1948    A$core_uart_apb$1160
  0C:194A    A$core_uart_apb$1161
  0C:194C    A$core_uart_apb$1162
  0C:194E    A$core_uart_apb$1163
  0C:1950    A$core_uart_apb$1164
  0C:1952    A$core_uart_apb$1165
  0C:1955    A$core_uart_apb$1166
  0C:1957    A$core_uart_apb$1167
  0C:1959    A$core_uart_apb$1168
  0C:195B    A$core_uart_apb$1169
  0C:195D    A$core_uart_apb$1170
  0C:195F    A$core_uart_apb$1171
  0C:1961    A$core_uart_apb$1173
  0C:1963    A$core_uart_apb$1178
  0C:1963    C$core_uart_apb.c$77$3$9
  0C:1965    A$core_uart_apb$1179
  0C:1967    A$core_uart_apb$1180
  0C:1969    A$core_uart_apb$1181
  0C:196C    A$core_uart_apb$1182
  0C:196D    A$core_uart_apb$1183
  0C:196E    A$core_uart_apb$1184
  0C:1971    A$core_uart_apb$1185
  0C:1972    A$core_uart_apb$1188
  0C:1974    A$core_uart_apb$1189
  0C:1976    A$core_uart_apb$1190
  0C:1977    A$core_uart_apb$1191
  0C:1979    A$core_uart_apb$1192
  0C:197B    A$core_uart_apb$1193
  0C:197C    A$core_uart_apb$1195
  0C:197E    A$core_uart_apb$1196
  0C:1980    A$core_uart_apb$1197
  0C:1982    A$core_uart_apb$1198
  0C:1984    A$core_uart_apb$1199
  0C:1986    A$core_uart_apb$1200
  0C:1988    A$core_uart_apb$1201
  0C:198B    A$core_uart_apb$1202
  0C:198D    A$core_uart_apb$1203
  0C:198F    A$core_uart_apb$1204
  0C:1991    A$core_uart_apb$1205
  0C:1993    A$core_uart_apb$1206
  0C:1995    A$core_uart_apb$1210
  0C:1995    C$core_uart_apb.c$81$3$9
  0C:1997    A$core_uart_apb$1211
  0C:1998    A$core_uart_apb$1212
  0C:1999    A$core_uart_apb$1216
  0C:1999    C$core_uart_apb.c$82$3$9
  0C:199B    A$core_uart_apb$1220
  0C:199C    A$core_uart_apb$1221
  0C:199D    A$core_uart_apb$1222
  0C:199E    A$core_uart_apb$1223
  0C:19A0    A$core_uart_apb$1224
  0C:19A1    A$core_uart_apb$1225
  0C:19A2    A$core_uart_apb$1226
  0C:19A3    A$core_uart_apb$1227
  0C:19A4    A$core_uart_apb$1228
  0C:19A5    A$core_uart_apb$1229
  0C:19A6    A$core_uart_apb$1230
  0C:19A8    A$core_uart_apb$1231
  0C:19A9    A$core_uart_apb$1232
  0C:19AA    A$core_uart_apb$1233
  0C:19AB    A$core_uart_apb$1235
  0C:19AC    A$core_uart_apb$1236
  0C:19AE    A$core_uart_apb$1237
  0C:19AF    A$core_uart_apb$1238
  0C:19B1    A$core_uart_apb$1242
  0C:19B1    C$core_uart_apb.c$83$3$9
  0C:19B4    A$core_uart_apb$1247
  0C:19B4    C$core_uart_apb.c$84$4$10
  0C:19B5    A$core_uart_apb$1248
  0C:19B8    A$core_uart_apb$1249
  0C:19B9    A$core_uart_apb$1250
  0C:19BC    A$core_uart_apb$1251
  0C:19BF    A$core_uart_apb$1255
  0C:19C2    A$core_uart_apb$1256
  0C:19C4    A$core_uart_apb$1257
  0C:19C5    A$core_uart_apb$1260
  0C:19C8    A$core_uart_apb$1261
  0C:19CA    A$core_uart_apb$1262
  0C:19CB    A$core_uart_apb$1265
  0C:19CE    A$core_uart_apb$1266
  0C:19D0    A$core_uart_apb$1267
  0C:19D1    A$core_uart_apb$1270
  0C:19D4    A$core_uart_apb$1271
  0C:19D6    A$core_uart_apb$1272
  0C:19D7    A$core_uart_apb$1275
  0C:19DA    A$core_uart_apb$1276
  0C:19DC    A$core_uart_apb$1277
  0C:19DD    A$core_uart_apb$1280
  0C:19E0    A$core_uart_apb$1281
  0C:19E2    A$core_uart_apb$1282
  0C:19E3    A$core_uart_apb$1285
  0C:19E6    A$core_uart_apb$1286
  0C:19E8    A$core_uart_apb$1287
  0C:19E9    A$core_uart_apb$1290
  0C:19EC    A$core_uart_apb$1291
  0C:19EE    A$core_uart_apb$1292
  0C:19EF    A$core_uart_apb$1295
  0C:19F2    A$core_uart_apb$1296
  0C:19F4    A$core_uart_apb$1297
  0C:19F5    A$core_uart_apb$1300
  0C:19F8    A$core_uart_apb$1301
  0C:19FA    A$core_uart_apb$1302
  0C:19FB    A$core_uart_apb$1305
  0C:19FE    A$core_uart_apb$1306
  0C:1A00    A$core_uart_apb$1307
  0C:1A01    A$core_uart_apb$1310
  0C:1A04    A$core_uart_apb$1311
  0C:1A06    A$core_uart_apb$1312
  0C:1A07    A$core_uart_apb$1315
  0C:1A0A    A$core_uart_apb$1316
  0C:1A0C    A$core_uart_apb$1317
  0C:1A0D    A$core_uart_apb$1320
  0C:1A10    A$core_uart_apb$1321
  0C:1A12    A$core_uart_apb$1322
  0C:1A13    A$core_uart_apb$1325
  0C:1A16    A$core_uart_apb$1326
  0C:1A18    A$core_uart_apb$1327
  0C:1A19    A$core_uart_apb$1330
  0C:1A1C    A$core_uart_apb$1331
  0C:1A1E    A$core_uart_apb$1332
  0C:1A1F    A$core_uart_apb$1335
  0C:1A22    A$core_uart_apb$1336
  0C:1A24    A$core_uart_apb$1337
  0C:1A25    A$core_uart_apb$1340
  0C:1A28    A$core_uart_apb$1341
  0C:1A2A    A$core_uart_apb$1342
  0C:1A2B    A$core_uart_apb$1345
  0C:1A2E    A$core_uart_apb$1346
  0C:1A30    A$core_uart_apb$1347
  0C:1A31    A$core_uart_apb$1350
  0C:1A34    A$core_uart_apb$1351
  0C:1A36    A$core_uart_apb$1352
  0C:1A37    A$core_uart_apb$1355
  0C:1A3A    A$core_uart_apb$1356
  0C:1A3C    A$core_uart_apb$1357
  0C:1A3D    A$core_uart_apb$1360
  0C:1A40    A$core_uart_apb$1361
  0C:1A42    A$core_uart_apb$1362
  0C:1A43    A$core_uart_apb$1365
  0C:1A46    A$core_uart_apb$1366
  0C:1A48    A$core_uart_apb$1367
  0C:1A49    A$core_uart_apb$1370
  0C:1A4C    A$core_uart_apb$1371
  0C:1A4E    A$core_uart_apb$1372
  0C:1A4F    A$core_uart_apb$1375
  0C:1A52    A$core_uart_apb$1376
  0C:1A54    A$core_uart_apb$1377
  0C:1A55    A$core_uart_apb$1380
  0C:1A58    A$core_uart_apb$1381
  0C:1A5A    A$core_uart_apb$1382
  0C:1A5B    A$core_uart_apb$1385
  0C:1A5E    A$core_uart_apb$1386
  0C:1A60    A$core_uart_apb$1387
  0C:1A61    A$core_uart_apb$1390
  0C:1A64    A$core_uart_apb$1391
  0C:1A66    A$core_uart_apb$1392
  0C:1A67    A$core_uart_apb$1395
  0C:1A6A    A$core_uart_apb$1396
  0C:1A6C    A$core_uart_apb$1397
  0C:1A6D    A$core_uart_apb$1400
  0C:1A70    A$core_uart_apb$1401
  0C:1A72    A$core_uart_apb$1402
  0C:1A73    A$core_uart_apb$1405
  0C:1A76    A$core_uart_apb$1406
  0C:1A78    A$core_uart_apb$1407
  0C:1A79    A$core_uart_apb$1410
  0C:1A7C    A$core_uart_apb$1411
  0C:1A7E    A$core_uart_apb$1412
  0C:1A7F    A$core_uart_apb$1415
  0C:1A82    A$core_uart_apb$1416
  0C:1A84    A$core_uart_apb$1417
  0C:1A85    A$core_uart_apb$1420
  0C:1A88    A$core_uart_apb$1421
  0C:1A8A    A$core_uart_apb$1422
  0C:1A8B    A$core_uart_apb$1425
  0C:1A8E    A$core_uart_apb$1426
  0C:1A90    A$core_uart_apb$1427
  0C:1A91    A$core_uart_apb$1430
  0C:1A94    A$core_uart_apb$1431
  0C:1A96    A$core_uart_apb$1432
  0C:1A97    A$core_uart_apb$1435
  0C:1A9A    A$core_uart_apb$1436
  0C:1A9C    A$core_uart_apb$1437
  0C:1A9D    A$core_uart_apb$1440
  0C:1AA0    A$core_uart_apb$1441
  0C:1AA2    A$core_uart_apb$1442
  0C:1AA3    A$core_uart_apb$1445
  0C:1AA6    A$core_uart_apb$1446
  0C:1AA8    A$core_uart_apb$1447
  0C:1AA9    A$core_uart_apb$1449
  0C:1AAC    A$core_uart_apb$1450
  0C:1AAE    A$core_uart_apb$1451
  0C:1AAF    A$core_uart_apb$1452
  0C:1AB0    A$core_uart_apb$1453
  0C:1AB1    A$core_uart_apb$1454
  0C:1AB2    A$core_uart_apb$1455
  0C:1AB3    A$core_uart_apb$1456
  0C:1AB4    A$core_uart_apb$1457
  0C:1AB5    A$core_uart_apb$1458
  0C:1AB6    A$core_uart_apb$1460
  0C:1AB9    A$core_uart_apb$1461
  0C:1ABC    A$core_uart_apb$1462
  0C:1ABF    A$core_uart_apb$1463
  0C:1AC1    A$core_uart_apb$1464
  0C:1AC4    A$core_uart_apb$1465
  0C:1AC6    A$core_uart_apb$1471
  0C:1AC6    C$core_uart_apb.c$85$4$12
  0C:1AC7    A$core_uart_apb$1472
  0C:1ACA    A$core_uart_apb$1473
  0C:1ACD    A$core_uart_apb$1477
  0C:1AD0    A$core_uart_apb$1478
  0C:1AD2    A$core_uart_apb$1479
  0C:1AD3    A$core_uart_apb$1482
  0C:1AD6    A$core_uart_apb$1483
  0C:1AD8    A$core_uart_apb$1484
  0C:1AD9    A$core_uart_apb$1487
  0C:1ADC    A$core_uart_apb$1488
  0C:1ADE    A$core_uart_apb$1489
  0C:1ADF    A$core_uart_apb$1492
  0C:1AE2    A$core_uart_apb$1493
  0C:1AE4    A$core_uart_apb$1494
  0C:1AE5    A$core_uart_apb$1497
  0C:1AE8    A$core_uart_apb$1498
  0C:1AEA    A$core_uart_apb$1499
  0C:1AEB    A$core_uart_apb$1502
  0C:1AEE    A$core_uart_apb$1503
  0C:1AF0    A$core_uart_apb$1504
  0C:1AF1    A$core_uart_apb$1507
  0C:1AF4    A$core_uart_apb$1508
  0C:1AF6    A$core_uart_apb$1509
  0C:1AF7    A$core_uart_apb$1512
  0C:1AFA    A$core_uart_apb$1513
  0C:1AFC    A$core_uart_apb$1514
  0C:1AFD    A$core_uart_apb$1517
  0C:1B00    A$core_uart_apb$1518
  0C:1B02    A$core_uart_apb$1519
  0C:1B03    A$core_uart_apb$1522
  0C:1B06    A$core_uart_apb$1523
  0C:1B08    A$core_uart_apb$1524
  0C:1B09    A$core_uart_apb$1527
  0C:1B0C    A$core_uart_apb$1528
  0C:1B0E    A$core_uart_apb$1529
  0C:1B0F    A$core_uart_apb$1532
  0C:1B12    A$core_uart_apb$1533
  0C:1B14    A$core_uart_apb$1534
  0C:1B15    A$core_uart_apb$1537
  0C:1B18    A$core_uart_apb$1538
  0C:1B1A    A$core_uart_apb$1539
  0C:1B1B    A$core_uart_apb$1542
  0C:1B1E    A$core_uart_apb$1543
  0C:1B20    A$core_uart_apb$1544
  0C:1B21    A$core_uart_apb$1547
  0C:1B24    A$core_uart_apb$1548
  0C:1B26    A$core_uart_apb$1549
  0C:1B27    A$core_uart_apb$1552
  0C:1B2A    A$core_uart_apb$1553
  0C:1B2C    A$core_uart_apb$1554
  0C:1B2D    A$core_uart_apb$1557
  0C:1B30    A$core_uart_apb$1558
  0C:1B32    A$core_uart_apb$1559
  0C:1B33    A$core_uart_apb$1562
  0C:1B36    A$core_uart_apb$1563
  0C:1B38    A$core_uart_apb$1564
  0C:1B39    A$core_uart_apb$1567
  0C:1B3C    A$core_uart_apb$1568
  0C:1B3E    A$core_uart_apb$1569
  0C:1B3F    A$core_uart_apb$1572
  0C:1B42    A$core_uart_apb$1573
  0C:1B44    A$core_uart_apb$1574
  0C:1B45    A$core_uart_apb$1577
  0C:1B48    A$core_uart_apb$1578
  0C:1B4A    A$core_uart_apb$1579
  0C:1B4B    A$core_uart_apb$1582
  0C:1B4E    A$core_uart_apb$1583
  0C:1B50    A$core_uart_apb$1584
  0C:1B51    A$core_uart_apb$1587
  0C:1B54    A$core_uart_apb$1588
  0C:1B56    A$core_uart_apb$1589
  0C:1B57    A$core_uart_apb$1592
  0C:1B5A    A$core_uart_apb$1593
  0C:1B5C    A$core_uart_apb$1594
  0C:1B5D    A$core_uart_apb$1597
  0C:1B60    A$core_uart_apb$1598
  0C:1B62    A$core_uart_apb$1599
  0C:1B63    A$core_uart_apb$1602
  0C:1B66    A$core_uart_apb$1603
  0C:1B68    A$core_uart_apb$1604
  0C:1B69    A$core_uart_apb$1607
  0C:1B6C    A$core_uart_apb$1608
  0C:1B6E    A$core_uart_apb$1609
  0C:1B6F    A$core_uart_apb$1612
  0C:1B72    A$core_uart_apb$1613
  0C:1B74    A$core_uart_apb$1614
  0C:1B75    A$core_uart_apb$1617
  0C:1B78    A$core_uart_apb$1618
  0C:1B7A    A$core_uart_apb$1619
  0C:1B7B    A$core_uart_apb$1622
  0C:1B7E    A$core_uart_apb$1623
  0C:1B80    A$core_uart_apb$1624
  0C:1B81    A$core_uart_apb$1627
  0C:1B84    A$core_uart_apb$1628
  0C:1B86    A$core_uart_apb$1629
  0C:1B87    A$core_uart_apb$1632
  0C:1B8A    A$core_uart_apb$1633
  0C:1B8C    A$core_uart_apb$1634
  0C:1B8D    A$core_uart_apb$1637
  0C:1B90    A$core_uart_apb$1638
  0C:1B92    A$core_uart_apb$1639
  0C:1B93    A$core_uart_apb$1642
  0C:1B96    A$core_uart_apb$1643
  0C:1B98    A$core_uart_apb$1644
  0C:1B99    A$core_uart_apb$1647
  0C:1B9C    A$core_uart_apb$1648
  0C:1B9E    A$core_uart_apb$1649
  0C:1B9F    A$core_uart_apb$1652
  0C:1BA2    A$core_uart_apb$1653
  0C:1BA4    A$core_uart_apb$1654
  0C:1BA5    A$core_uart_apb$1657
  0C:1BA8    A$core_uart_apb$1658
  0C:1BAA    A$core_uart_apb$1659
  0C:1BAB    A$core_uart_apb$1662
  0C:1BAE    A$core_uart_apb$1663
  0C:1BB0    A$core_uart_apb$1664
  0C:1BB1    A$core_uart_apb$1667
  0C:1BB4    A$core_uart_apb$1668
  0C:1BB6    A$core_uart_apb$1669
  0C:1BB7    A$core_uart_apb$1671
  0C:1BBA    A$core_uart_apb$1672
  0C:1BBC    A$core_uart_apb$1673
  0C:1BBD    A$core_uart_apb$1674
  0C:1BBE    A$core_uart_apb$1675
  0C:1BBF    A$core_uart_apb$1676
  0C:1BC0    A$core_uart_apb$1677
  0C:1BC1    A$core_uart_apb$1678
  0C:1BC2    A$core_uart_apb$1679
  0C:1BC3    A$core_uart_apb$1680
  0C:1BC4    A$core_uart_apb$1682
  0C:1BC7    A$core_uart_apb$1683
  0C:1BCA    A$core_uart_apb$1684
  0C:1BCD    A$core_uart_apb$1685
  0C:1BD0    A$core_uart_apb$1690
  0C:1BD0    C$core_uart_apb.c$93$2$8
  0C:1BD3    A$core_uart_apb$1691
  0C:1BD4    A$core_uart_apb$1692
  0C:1BD5    A$core_uart_apb$1693
  0C:1BD6    A$core_uart_apb$1694
  0C:1BD7    A$core_uart_apb$1695
  0C:1BD8    A$core_uart_apb$1696
  0C:1BD9    A$core_uart_apb$1697
  0C:1BDA    A$core_uart_apb$1698
  0C:1BDB    A$core_uart_apb$1701
  0C:1BDD    A$core_uart_apb$1702
  0C:1BDF    A$core_uart_apb$1703
  0C:1BE1    A$core_uart_apb$1704
  0C:1BE4    A$core_uart_apb$1705
  0C:1BE5    A$core_uart_apb$1706
  0C:1BE6    A$core_uart_apb$1707
  0C:1BE9    A$core_uart_apb$1708
  0C:1BEA    A$core_uart_apb$1711
  0C:1BEC    A$core_uart_apb$1712
  0C:1BEE    A$core_uart_apb$1713
  0C:1BEF    A$core_uart_apb$1714
  0C:1BF1    A$core_uart_apb$1715
  0C:1BF3    A$core_uart_apb$1716
  0C:1BF4    A$core_uart_apb$1718
  0C:1BF6    A$core_uart_apb$1719
  0C:1BF8    A$core_uart_apb$1720
  0C:1BFA    A$core_uart_apb$1721
  0C:1BFC    A$core_uart_apb$1722
  0C:1BFE    A$core_uart_apb$1723
  0C:1C01    A$core_uart_apb$1724
  0C:1C03    A$core_uart_apb$1725
  0C:1C05    A$core_uart_apb$1726
  0C:1C07    A$core_uart_apb$1727
  0C:1C09    A$core_uart_apb$1729
  0C:1C0B    A$core_uart_apb$1731
  0C:1C0E    A$core_uart_apb$1732
  0C:1C10    A$core_uart_apb$1734
  0C:1C13    A$core_uart_apb$1735
  0C:1C14    A$core_uart_apb$1736
  0C:1C15    A$core_uart_apb$1742
  0C:1C15    C$core_uart_apb.c$95$3$14
  0C:1C18    A$core_uart_apb$1743
  0C:1C19    A$core_uart_apb$1744
  0C:1C1A    A$core_uart_apb$1746
  0C:1C1B    A$core_uart_apb$1748
  0C:1C1D    A$core_uart_apb$1749
  0C:1C20    A$core_uart_apb$1755
  0C:1C20    C$core_uart_apb.c$98$3$14
  0C:1C22    A$core_uart_apb$1756
  0C:1C24    A$core_uart_apb$1757
  0C:1C26    A$core_uart_apb$1758
  0C:1C29    A$core_uart_apb$1759
  0C:1C2A    A$core_uart_apb$1760
  0C:1C2B    A$core_uart_apb$1761
  0C:1C2E    A$core_uart_apb$1762
  0C:1C2F    A$core_uart_apb$1765
  0C:1C31    A$core_uart_apb$1766
  0C:1C33    A$core_uart_apb$1767
  0C:1C34    A$core_uart_apb$1768
  0C:1C36    A$core_uart_apb$1769
  0C:1C38    A$core_uart_apb$1770
  0C:1C39    A$core_uart_apb$1772
  0C:1C3B    A$core_uart_apb$1773
  0C:1C3D    A$core_uart_apb$1774
  0C:1C3F    A$core_uart_apb$1775
  0C:1C41    A$core_uart_apb$1776
  0C:1C43    A$core_uart_apb$1777
  0C:1C46    A$core_uart_apb$1778
  0C:1C48    A$core_uart_apb$1779
  0C:1C4A    A$core_uart_apb$1780
  0C:1C4C    A$core_uart_apb$1781
  0C:1C4E    A$core_uart_apb$1783
  0C:1C51    A$core_uart_apb$1784
  0C:1C52    A$core_uart_apb$1789
  0C:1C52    C$core_uart_apb.c$99$3$14
  0C:1C54    A$core_uart_apb$1790
  0C:1C56    A$core_uart_apb$1791
  0C:1C58    A$core_uart_apb$1792
  0C:1C5B    A$core_uart_apb$1793
  0C:1C5C    A$core_uart_apb$1794
  0C:1C5D    A$core_uart_apb$1795
  0C:1C60    A$core_uart_apb$1796
  0C:1C61    A$core_uart_apb$1799
  0C:1C63    A$core_uart_apb$1800
  0C:1C65    A$core_uart_apb$1801
  0C:1C66    A$core_uart_apb$1802
  0C:1C68    A$core_uart_apb$1803
  0C:1C6A    A$core_uart_apb$1804
  0C:1C6B    A$core_uart_apb$1806
  0C:1C6D    A$core_uart_apb$1807
  0C:1C6F    A$core_uart_apb$1808
  0C:1C71    A$core_uart_apb$1809
  0C:1C73    A$core_uart_apb$1810
  0C:1C75    A$core_uart_apb$1811
  0C:1C78    A$core_uart_apb$1812
  0C:1C7A    A$core_uart_apb$1813
  0C:1C7C    A$core_uart_apb$1814
  0C:1C7E    A$core_uart_apb$1815
  0C:1C80    A$core_uart_apb$1817
  0C:1C82    A$core_uart_apb$1819
  0C:1C85    A$core_uart_apb$1820
  0C:1C87    A$core_uart_apb$1822
  0C:1C8A    A$core_uart_apb$1823
  0C:1C8B    A$core_uart_apb$1824
  0C:1C8C    A$core_uart_apb$1825
  0C:1C8F    A$core_uart_apb$1830
  0C:1C8F    C$core_uart_apb.c$106$2$8
  0C:1C92    A$core_uart_apb$1831
  0C:1C93    A$core_uart_apb$1832
  0C:1C94    A$core_uart_apb$1833
  0C:1C95    A$core_uart_apb$1834
  0C:1C96    A$core_uart_apb$1835
  0C:1C97    A$core_uart_apb$1836
  0C:1C98    A$core_uart_apb$1837
  0C:1C99    A$core_uart_apb$1838
  0C:1C9A    A$core_uart_apb$1841
  0C:1C9C    A$core_uart_apb$1842
  0C:1C9E    A$core_uart_apb$1843
  0C:1C9F    A$core_uart_apb$1844
  0C:1CA1    A$core_uart_apb$1845
  0C:1CA3    A$core_uart_apb$1846
  0C:1CA4    A$core_uart_apb$1849
  0C:1CA6    A$core_uart_apb$1850
  0C:1CA8    A$core_uart_apb$1851
  0C:1CAA    A$core_uart_apb$1852
  0C:1CAC    A$core_uart_apb$1853
  0C:1CAF    A$core_uart_apb$1857
  0C:1CAF    C$core_uart_apb.c$108$2$1
  0C:1CAF    XG$UART_init$0$0
  0C:1CB0    A$core_uart_apb$1880
  0C:1CB0    C$core_uart_apb.c$115$2$1
  0C:1CB0    G$UART_send$0$0
  0C:1CB0    _UART_send
  0C:1CB2    A$core_uart_apb$1881
  0C:1CB4    A$core_uart_apb$1882
  0C:1CB6    A$core_uart_apb$1883
  0C:1CB9    A$core_uart_apb$1884
  0C:1CBA    A$core_uart_apb$1885
  0C:1CBB    A$core_uart_apb$1886
  0C:1CBC    A$core_uart_apb$1887
  0C:1CBD    A$core_uart_apb$1888
  0C:1CBE    A$core_uart_apb$1889
  0C:1CBF    A$core_uart_apb$1890
  0C:1CC0    A$core_uart_apb$1894
  0C:1CC0    C$core_uart_apb.c$125$2$2
  0C:1CC3    A$core_uart_apb$1895
  0C:1CC4    A$core_uart_apb$1896
  0C:1CC5    A$core_uart_apb$1897
  0C:1CC6    A$core_uart_apb$1898
  0C:1CC7    A$core_uart_apb$1899
  0C:1CC8    A$core_uart_apb$1900
  0C:1CC9    A$core_uart_apb$1901
  0C:1CCA    A$core_uart_apb$1902
  0C:1CCB    A$core_uart_apb$1905
  0C:1CCE    A$core_uart_apb$1906
  0C:1CD1    A$core_uart_apb$1907
  0C:1CD4    A$core_uart_apb$1908
  0C:1CD6    A$core_uart_apb$1910
  0C:1CD9    A$core_uart_apb$1914
  0C:1CDC    A$core_uart_apb$1915
  0C:1CDE    A$core_uart_apb$1916
  0C:1CDF    A$core_uart_apb$1919
  0C:1CE2    A$core_uart_apb$1920
  0C:1CE4    A$core_uart_apb$1921
  0C:1CE5    A$core_uart_apb$1924
  0C:1CE8    A$core_uart_apb$1925
  0C:1CEA    A$core_uart_apb$1926
  0C:1CEB    A$core_uart_apb$1929
  0C:1CEE    A$core_uart_apb$1930
  0C:1CF0    A$core_uart_apb$1931
  0C:1CF1    A$core_uart_apb$1934
  0C:1CF4    A$core_uart_apb$1935
  0C:1CF6    A$core_uart_apb$1936
  0C:1CF7    A$core_uart_apb$1939
  0C:1CFA    A$core_uart_apb$1940
  0C:1CFC    A$core_uart_apb$1941
  0C:1CFD    A$core_uart_apb$1944
  0C:1D00    A$core_uart_apb$1945
  0C:1D02    A$core_uart_apb$1946
  0C:1D03    A$core_uart_apb$1949
  0C:1D06    A$core_uart_apb$1950
  0C:1D08    A$core_uart_apb$1951
  0C:1D09    A$core_uart_apb$1954
  0C:1D0C    A$core_uart_apb$1955
  0C:1D0E    A$core_uart_apb$1956
  0C:1D0F    A$core_uart_apb$1959
  0C:1D12    A$core_uart_apb$1960
  0C:1D14    A$core_uart_apb$1961
  0C:1D15    A$core_uart_apb$1964
  0C:1D18    A$core_uart_apb$1965
  0C:1D1A    A$core_uart_apb$1966
  0C:1D1B    A$core_uart_apb$1969
  0C:1D1E    A$core_uart_apb$1970
  0C:1D20    A$core_uart_apb$1971
  0C:1D21    A$core_uart_apb$1974
  0C:1D24    A$core_uart_apb$1975
  0C:1D26    A$core_uart_apb$1976
  0C:1D27    A$core_uart_apb$1979
  0C:1D2A    A$core_uart_apb$1980
  0C:1D2C    A$core_uart_apb$1981
  0C:1D2D    A$core_uart_apb$1984
  0C:1D30    A$core_uart_apb$1985
  0C:1D32    A$core_uart_apb$1986
  0C:1D33    A$core_uart_apb$1989
  0C:1D36    A$core_uart_apb$1990
  0C:1D38    A$core_uart_apb$1991
  0C:1D39    A$core_uart_apb$1994
  0C:1D3C    A$core_uart_apb$1995
  0C:1D3E    A$core_uart_apb$1996
  0C:1D3F    A$core_uart_apb$1999
  0C:1D42    A$core_uart_apb$2000
  0C:1D44    A$core_uart_apb$2001
  0C:1D45    A$core_uart_apb$2004
  0C:1D48    A$core_uart_apb$2005
  0C:1D4A    A$core_uart_apb$2006
  0C:1D4B    A$core_uart_apb$2009
  0C:1D4E    A$core_uart_apb$2010
  0C:1D50    A$core_uart_apb$2011
  0C:1D51    A$core_uart_apb$2014
  0C:1D54    A$core_uart_apb$2015
  0C:1D56    A$core_uart_apb$2016
  0C:1D57    A$core_uart_apb$2019
  0C:1D5A    A$core_uart_apb$2020
  0C:1D5C    A$core_uart_apb$2021
  0C:1D5D    A$core_uart_apb$2024
  0C:1D60    A$core_uart_apb$2025
  0C:1D62    A$core_uart_apb$2026
  0C:1D63    A$core_uart_apb$2029
  0C:1D66    A$core_uart_apb$2030
  0C:1D68    A$core_uart_apb$2031
  0C:1D69    A$core_uart_apb$2034
  0C:1D6C    A$core_uart_apb$2035
  0C:1D6E    A$core_uart_apb$2036
  0C:1D6F    A$core_uart_apb$2039
  0C:1D72    A$core_uart_apb$2040
  0C:1D74    A$core_uart_apb$2041
  0C:1D75    A$core_uart_apb$2044
  0C:1D78    A$core_uart_apb$2045
  0C:1D7A    A$core_uart_apb$2046
  0C:1D7B    A$core_uart_apb$2049
  0C:1D7E    A$core_uart_apb$2050
  0C:1D80    A$core_uart_apb$2051
  0C:1D81    A$core_uart_apb$2054
  0C:1D84    A$core_uart_apb$2055
  0C:1D86    A$core_uart_apb$2056
  0C:1D87    A$core_uart_apb$2059
  0C:1D8A    A$core_uart_apb$2060
  0C:1D8C    A$core_uart_apb$2061
  0C:1D8D    A$core_uart_apb$2064
  0C:1D90    A$core_uart_apb$2065
  0C:1D92    A$core_uart_apb$2066
  0C:1D93    A$core_uart_apb$2069
  0C:1D96    A$core_uart_apb$2070
  0C:1D98    A$core_uart_apb$2071
  0C:1D99    A$core_uart_apb$2074
  0C:1D9C    A$core_uart_apb$2075
  0C:1D9E    A$core_uart_apb$2076
  0C:1D9F    A$core_uart_apb$2079
  0C:1DA2    A$core_uart_apb$2080
  0C:1DA4    A$core_uart_apb$2081
  0C:1DA5    A$core_uart_apb$2084
  0C:1DA8    A$core_uart_apb$2085
  0C:1DAA    A$core_uart_apb$2086
  0C:1DAB    A$core_uart_apb$2089
  0C:1DAE    A$core_uart_apb$2090
  0C:1DB0    A$core_uart_apb$2091
  0C:1DB1    A$core_uart_apb$2094
  0C:1DB4    A$core_uart_apb$2095
  0C:1DB6    A$core_uart_apb$2096
  0C:1DB7    A$core_uart_apb$2099
  0C:1DBA    A$core_uart_apb$2100
  0C:1DBC    A$core_uart_apb$2101
  0C:1DBD    A$core_uart_apb$2104
  0C:1DC0    A$core_uart_apb$2105
  0C:1DC2    A$core_uart_apb$2106
  0C:1DC3    A$core_uart_apb$2108
  0C:1DC6    A$core_uart_apb$2109
  0C:1DC8    A$core_uart_apb$2110
  0C:1DC9    A$core_uart_apb$2111
  0C:1DCA    A$core_uart_apb$2112
  0C:1DCB    A$core_uart_apb$2113
  0C:1DCC    A$core_uart_apb$2114
  0C:1DCD    A$core_uart_apb$2115
  0C:1DCE    A$core_uart_apb$2116
  0C:1DCF    A$core_uart_apb$2117
  0C:1DD0    A$core_uart_apb$2119
  0C:1DD3    A$core_uart_apb$2120
  0C:1DD6    A$core_uart_apb$2121
  0C:1DD9    A$core_uart_apb$2122
  0C:1DDC    A$core_uart_apb$2127
  0C:1DDC    C$core_uart_apb.c$126$2$4
  0C:1DDF    A$core_uart_apb$2128
  0C:1DE0    A$core_uart_apb$2129
  0C:1DE2    A$core_uart_apb$2130
  0C:1DE3    A$core_uart_apb$2131
  0C:1DE4    A$core_uart_apb$2132
  0C:1DE6    A$core_uart_apb$2133
  0C:1DE7    A$core_uart_apb$2134
  0C:1DE8    A$core_uart_apb$2135
  0C:1DEA    A$core_uart_apb$2139
  0C:1DEC    A$core_uart_apb$2140
  0C:1DEE    A$core_uart_apb$2141
  0C:1DF0    A$core_uart_apb$2142
  0C:1DF2    A$core_uart_apb$2143
  0C:1DF4    A$core_uart_apb$2144
  0C:1DF6    A$core_uart_apb$2145
  0C:1DF8    A$core_uart_apb$2146
  0C:1DFA    A$core_uart_apb$2148
  0C:1DFB    A$core_uart_apb$2150
  0C:1DFC    A$core_uart_apb$2152
  0C:1DFD    A$core_uart_apb$2154
  0C:1DFF    A$core_uart_apb$2155
  0C:1E02    A$core_uart_apb$2159
  0C:1E05    A$core_uart_apb$2160
  0C:1E07    A$core_uart_apb$2161
  0C:1E08    A$core_uart_apb$2164
  0C:1E0B    A$core_uart_apb$2165
  0C:1E0D    A$core_uart_apb$2166
  0C:1E0E    A$core_uart_apb$2169
  0C:1E11    A$core_uart_apb$2170
  0C:1E13    A$core_uart_apb$2171
  0C:1E14    A$core_uart_apb$2174
  0C:1E17    A$core_uart_apb$2175
  0C:1E19    A$core_uart_apb$2176
  0C:1E1A    A$core_uart_apb$2179
  0C:1E1D    A$core_uart_apb$2180
  0C:1E1F    A$core_uart_apb$2181
  0C:1E20    A$core_uart_apb$2184
  0C:1E23    A$core_uart_apb$2185
  0C:1E25    A$core_uart_apb$2186
  0C:1E26    A$core_uart_apb$2189
  0C:1E29    A$core_uart_apb$2190
  0C:1E2B    A$core_uart_apb$2191
  0C:1E2C    A$core_uart_apb$2194
  0C:1E2F    A$core_uart_apb$2195
  0C:1E31    A$core_uart_apb$2196
  0C:1E32    A$core_uart_apb$2199
  0C:1E35    A$core_uart_apb$2200
  0C:1E37    A$core_uart_apb$2201
  0C:1E38    A$core_uart_apb$2204
  0C:1E3B    A$core_uart_apb$2205
  0C:1E3D    A$core_uart_apb$2206
  0C:1E3E    A$core_uart_apb$2209
  0C:1E41    A$core_uart_apb$2210
  0C:1E43    A$core_uart_apb$2211
  0C:1E44    A$core_uart_apb$2214
  0C:1E47    A$core_uart_apb$2215
  0C:1E49    A$core_uart_apb$2216
  0C:1E4A    A$core_uart_apb$2219
  0C:1E4D    A$core_uart_apb$2220
  0C:1E4F    A$core_uart_apb$2221
  0C:1E50    A$core_uart_apb$2224
  0C:1E53    A$core_uart_apb$2225
  0C:1E55    A$core_uart_apb$2226
  0C:1E56    A$core_uart_apb$2229
  0C:1E59    A$core_uart_apb$2230
  0C:1E5B    A$core_uart_apb$2231
  0C:1E5C    A$core_uart_apb$2234
  0C:1E5F    A$core_uart_apb$2235
  0C:1E61    A$core_uart_apb$2236
  0C:1E62    A$core_uart_apb$2239
  0C:1E65    A$core_uart_apb$2240
  0C:1E67    A$core_uart_apb$2241
  0C:1E68    A$core_uart_apb$2244
  0C:1E6B    A$core_uart_apb$2245
  0C:1E6D    A$core_uart_apb$2246
  0C:1E6E    A$core_uart_apb$2249
  0C:1E71    A$core_uart_apb$2250
  0C:1E73    A$core_uart_apb$2251
  0C:1E74    A$core_uart_apb$2254
  0C:1E77    A$core_uart_apb$2255
  0C:1E79    A$core_uart_apb$2256
  0C:1E7A    A$core_uart_apb$2259
  0C:1E7D    A$core_uart_apb$2260
  0C:1E7F    A$core_uart_apb$2261
  0C:1E80    A$core_uart_apb$2264
  0C:1E83    A$core_uart_apb$2265
  0C:1E85    A$core_uart_apb$2266
  0C:1E86    A$core_uart_apb$2269
  0C:1E89    A$core_uart_apb$2270
  0C:1E8B    A$core_uart_apb$2271
  0C:1E8C    A$core_uart_apb$2274
  0C:1E8F    A$core_uart_apb$2275
  0C:1E91    A$core_uart_apb$2276
  0C:1E92    A$core_uart_apb$2279
  0C:1E95    A$core_uart_apb$2280
  0C:1E97    A$core_uart_apb$2281
  0C:1E98    A$core_uart_apb$2284
  0C:1E9B    A$core_uart_apb$2285
  0C:1E9D    A$core_uart_apb$2286
  0C:1E9E    A$core_uart_apb$2289
  0C:1EA1    A$core_uart_apb$2290
  0C:1EA3    A$core_uart_apb$2291
  0C:1EA4    A$core_uart_apb$2294
  0C:1EA7    A$core_uart_apb$2295
  0C:1EA9    A$core_uart_apb$2296
  0C:1EAA    A$core_uart_apb$2299
  0C:1EAD    A$core_uart_apb$2300
  0C:1EAF    A$core_uart_apb$2301
  0C:1EB0    A$core_uart_apb$2304
  0C:1EB3    A$core_uart_apb$2305
  0C:1EB5    A$core_uart_apb$2306
  0C:1EB6    A$core_uart_apb$2309
  0C:1EB9    A$core_uart_apb$2310
  0C:1EBB    A$core_uart_apb$2311
  0C:1EBC    A$core_uart_apb$2314
  0C:1EBF    A$core_uart_apb$2315
  0C:1EC1    A$core_uart_apb$2316
  0C:1EC2    A$core_uart_apb$2319
  0C:1EC5    A$core_uart_apb$2320
  0C:1EC7    A$core_uart_apb$2321
  0C:1EC8    A$core_uart_apb$2324
  0C:1ECB    A$core_uart_apb$2325
  0C:1ECD    A$core_uart_apb$2326
  0C:1ECE    A$core_uart_apb$2329
  0C:1ED1    A$core_uart_apb$2330
  0C:1ED3    A$core_uart_apb$2331
  0C:1ED4    A$core_uart_apb$2334
  0C:1ED7    A$core_uart_apb$2335
  0C:1ED9    A$core_uart_apb$2336
  0C:1EDA    A$core_uart_apb$2339
  0C:1EDD    A$core_uart_apb$2340
  0C:1EDF    A$core_uart_apb$2341
  0C:1EE0    A$core_uart_apb$2344
  0C:1EE3    A$core_uart_apb$2345
  0C:1EE5    A$core_uart_apb$2346
  0C:1EE6    A$core_uart_apb$2349
  0C:1EE9    A$core_uart_apb$2350
  0C:1EEB    A$core_uart_apb$2351
  0C:1EEC    A$core_uart_apb$2353
  0C:1EEF    A$core_uart_apb$2354
  0C:1EF1    A$core_uart_apb$2355
  0C:1EF2    A$core_uart_apb$2356
  0C:1EF3    A$core_uart_apb$2357
  0C:1EF4    A$core_uart_apb$2358
  0C:1EF5    A$core_uart_apb$2359
  0C:1EF6    A$core_uart_apb$2360
  0C:1EF7    A$core_uart_apb$2361
  0C:1EF8    A$core_uart_apb$2362
  0C:1EF9    A$core_uart_apb$2364
  0C:1EFC    A$core_uart_apb$2365
  0C:1EFF    A$core_uart_apb$2366
  0C:1F02    A$core_uart_apb$2367
  0C:1F04    A$core_uart_apb$2368
  0C:1F07    A$core_uart_apb$2369
  0C:1F09    A$core_uart_apb$2374
  0C:1F09    C$core_uart_apb.c$127$2$6
  0C:1F0C    A$core_uart_apb$2375
  0C:1F0D    A$core_uart_apb$2376
  0C:1F0E    A$core_uart_apb$2377
  0C:1F0F    A$core_uart_apb$2378
  0C:1F10    A$core_uart_apb$2379
  0C:1F11    A$core_uart_apb$2381
  0C:1F12    A$core_uart_apb$2382
  0C:1F13    A$core_uart_apb$2384
  0C:1F15    A$core_uart_apb$2385
  0C:1F18    A$core_uart_apb$2389
  0C:1F1B    A$core_uart_apb$2390
  0C:1F1D    A$core_uart_apb$2391
  0C:1F1E    A$core_uart_apb$2394
  0C:1F21    A$core_uart_apb$2395
  0C:1F23    A$core_uart_apb$2396
  0C:1F24    A$core_uart_apb$2399
  0C:1F27    A$core_uart_apb$2400
  0C:1F29    A$core_uart_apb$2401
  0C:1F2A    A$core_uart_apb$2404
  0C:1F2D    A$core_uart_apb$2405
  0C:1F2F    A$core_uart_apb$2406
  0C:1F30    A$core_uart_apb$2409
  0C:1F33    A$core_uart_apb$2410
  0C:1F35    A$core_uart_apb$2411
  0C:1F36    A$core_uart_apb$2414
  0C:1F39    A$core_uart_apb$2415
  0C:1F3B    A$core_uart_apb$2416
  0C:1F3C    A$core_uart_apb$2419
  0C:1F3F    A$core_uart_apb$2420
  0C:1F41    A$core_uart_apb$2421
  0C:1F42    A$core_uart_apb$2424
  0C:1F45    A$core_uart_apb$2425
  0C:1F47    A$core_uart_apb$2426
  0C:1F48    A$core_uart_apb$2429
  0C:1F4B    A$core_uart_apb$2430
  0C:1F4D    A$core_uart_apb$2431
  0C:1F4E    A$core_uart_apb$2434
  0C:1F51    A$core_uart_apb$2435
  0C:1F53    A$core_uart_apb$2436
  0C:1F54    A$core_uart_apb$2439
  0C:1F57    A$core_uart_apb$2440
  0C:1F59    A$core_uart_apb$2441
  0C:1F5A    A$core_uart_apb$2444
  0C:1F5D    A$core_uart_apb$2445
  0C:1F5F    A$core_uart_apb$2446
  0C:1F60    A$core_uart_apb$2449
  0C:1F63    A$core_uart_apb$2450
  0C:1F65    A$core_uart_apb$2451
  0C:1F66    A$core_uart_apb$2454
  0C:1F69    A$core_uart_apb$2455
  0C:1F6B    A$core_uart_apb$2456
  0C:1F6C    A$core_uart_apb$2459
  0C:1F6F    A$core_uart_apb$2460
  0C:1F71    A$core_uart_apb$2461
  0C:1F72    A$core_uart_apb$2464
  0C:1F75    A$core_uart_apb$2465
  0C:1F77    A$core_uart_apb$2466
  0C:1F78    A$core_uart_apb$2469
  0C:1F7B    A$core_uart_apb$2470
  0C:1F7D    A$core_uart_apb$2471
  0C:1F7E    A$core_uart_apb$2474
  0C:1F81    A$core_uart_apb$2475
  0C:1F83    A$core_uart_apb$2476
  0C:1F84    A$core_uart_apb$2479
  0C:1F87    A$core_uart_apb$2480
  0C:1F89    A$core_uart_apb$2481
  0C:1F8A    A$core_uart_apb$2484
  0C:1F8D    A$core_uart_apb$2485
  0C:1F8F    A$core_uart_apb$2486
  0C:1F90    A$core_uart_apb$2489
  0C:1F93    A$core_uart_apb$2490
  0C:1F95    A$core_uart_apb$2491
  0C:1F96    A$core_uart_apb$2494
  0C:1F99    A$core_uart_apb$2495
  0C:1F9B    A$core_uart_apb$2496
  0C:1F9C    A$core_uart_apb$2499
  0C:1F9F    A$core_uart_apb$2500
  0C:1FA1    A$core_uart_apb$2501
  0C:1FA2    A$core_uart_apb$2504
  0C:1FA5    A$core_uart_apb$2505
  0C:1FA7    A$core_uart_apb$2506
  0C:1FA8    A$core_uart_apb$2509
  0C:1FAB    A$core_uart_apb$2510
  0C:1FAD    A$core_uart_apb$2511
  0C:1FAE    A$core_uart_apb$2514
  0C:1FB1    A$core_uart_apb$2515
  0C:1FB3    A$core_uart_apb$2516
  0C:1FB4    A$core_uart_apb$2519
  0C:1FB7    A$core_uart_apb$2520
  0C:1FB9    A$core_uart_apb$2521
  0C:1FBA    A$core_uart_apb$2524
  0C:1FBD    A$core_uart_apb$2525
  0C:1FBF    A$core_uart_apb$2526
  0C:1FC0    A$core_uart_apb$2529
  0C:1FC3    A$core_uart_apb$2530
  0C:1FC5    A$core_uart_apb$2531
  0C:1FC6    A$core_uart_apb$2534
  0C:1FC9    A$core_uart_apb$2535
  0C:1FCB    A$core_uart_apb$2536
  0C:1FCC    A$core_uart_apb$2539
  0C:1FCF    A$core_uart_apb$2540
  0C:1FD1    A$core_uart_apb$2541
  0C:1FD2    A$core_uart_apb$2544
  0C:1FD5    A$core_uart_apb$2545
  0C:1FD7    A$core_uart_apb$2546
  0C:1FD8    A$core_uart_apb$2549
  0C:1FDB    A$core_uart_apb$2550
  0C:1FDD    A$core_uart_apb$2551
  0C:1FDE    A$core_uart_apb$2554
  0C:1FE1    A$core_uart_apb$2555
  0C:1FE3    A$core_uart_apb$2556
  0C:1FE4    A$core_uart_apb$2559
  0C:1FE7    A$core_uart_apb$2560
  0C:1FE9    A$core_uart_apb$2561
  0C:1FEA    A$core_uart_apb$2564
  0C:1FED    A$core_uart_apb$2565
  0C:1FEF    A$core_uart_apb$2566
  0C:1FF0    A$core_uart_apb$2569
  0C:1FF3    A$core_uart_apb$2570
  0C:1FF5    A$core_uart_apb$2571
  0C:1FF6    A$core_uart_apb$2574
  0C:1FF9    A$core_uart_apb$2575
  0C:1FFB    A$core_uart_apb$2576
  0C:1FFC    A$core_uart_apb$2579
  0C:1FFF    A$core_uart_apb$2580
  0C:2001    A$core_uart_apb$2581
  0C:2002    A$core_uart_apb$2583
  0C:2005    A$core_uart_apb$2584
  0C:2007    A$core_uart_apb$2585
  0C:2008    A$core_uart_apb$2586
  0C:2009    A$core_uart_apb$2587
  0C:200A    A$core_uart_apb$2588
  0C:200B    A$core_uart_apb$2589
  0C:200C    A$core_uart_apb$2590
  0C:200D    A$core_uart_apb$2591
  0C:200E    A$core_uart_apb$2592
  0C:200F    A$core_uart_apb$2594
  0C:2012    A$core_uart_apb$2595
  0C:2015    A$core_uart_apb$2596
  0C:2018    A$core_uart_apb$2597
  0C:201A    A$core_uart_apb$2598
  0C:201C    A$core_uart_apb$2599
  0C:201E    A$core_uart_apb$2600
  0C:2021    A$core_uart_apb$2601
  0C:2023    A$core_uart_apb$2602
  0C:2025    A$core_uart_apb$2603
  0C:2027    A$core_uart_apb$2608
  0C:2027    C$core_uart_apb.c$129$1$1
  0C:202A    A$core_uart_apb$2609
  0C:202B    A$core_uart_apb$2610
  0C:202C    A$core_uart_apb$2611
  0C:202D    A$core_uart_apb$2612
  0C:202E    A$core_uart_apb$2613
  0C:202F    A$core_uart_apb$2614
  0C:2030    A$core_uart_apb$2615
  0C:2031    A$core_uart_apb$2616
  0C:2032    A$core_uart_apb$2619
  0C:2035    A$core_uart_apb$2620
  0C:2038    A$core_uart_apb$2621
  0C:203B    A$core_uart_apb$2622
  0C:203E    A$core_uart_apb$2627
  0C:203E    C$core_uart_apb.c$130$1$1
  0C:203F    A$core_uart_apb$2629
  0C:2041    A$core_uart_apb$2630
  0C:2044    A$core_uart_apb$2635
  0C:2044    C$core_uart_apb.c$131$1$1
  0C:2045    A$core_uart_apb$2636
  0C:2046    A$core_uart_apb$2638
  0C:2048    A$core_uart_apb$2639
  0C:204B    A$core_uart_apb$2644
  0C:204E    A$core_uart_apb$2645
  0C:204F    A$core_uart_apb$2646
  0C:2050    A$core_uart_apb$2647
  0C:2051    A$core_uart_apb$2648
  0C:2052    A$core_uart_apb$2650
  0C:2054    A$core_uart_apb$2651
  0C:2056    A$core_uart_apb$2652
  0C:2058    A$core_uart_apb$2656
  0C:205B    A$core_uart_apb$2657
  0C:205C    A$core_uart_apb$2658
  0C:205D    A$core_uart_apb$2659
  0C:205E    A$core_uart_apb$2660
  0C:205F    A$core_uart_apb$2661
  0C:2060    A$core_uart_apb$2664
  0C:2061    A$core_uart_apb$2665
  0C:2062    A$core_uart_apb$2666
  0C:2063    A$core_uart_apb$2667
  0C:2064    A$core_uart_apb$2668
  0C:2065    A$core_uart_apb$2669
  0C:2066    A$core_uart_apb$2670
  0C:2067    A$core_uart_apb$2674
  0C:2069    A$core_uart_apb$2675
  0C:206C    A$core_uart_apb$2685
  0C:206C    C$core_uart_apb.c$136$3$9
  0C:206C    C$core_uart_apb.c$137$2$1
  0C:206E    A$core_uart_apb$2686
  0C:2070    A$core_uart_apb$2687
  0C:2072    A$core_uart_apb$2688
  0C:2075    A$core_uart_apb$2689
  0C:2076    A$core_uart_apb$2690
  0C:2077    A$core_uart_apb$2691
  0C:207A    A$core_uart_apb$2692
  0C:207B    A$core_uart_apb$2695
  0C:207D    A$core_uart_apb$2696
  0C:207F    A$core_uart_apb$2697
  0C:2080    A$core_uart_apb$2698
  0C:2082    A$core_uart_apb$2699
  0C:2084    A$core_uart_apb$2700
  0C:2085    A$core_uart_apb$2702
  0C:2087    A$core_uart_apb$2703
  0C:2089    A$core_uart_apb$2704
  0C:208B    A$core_uart_apb$2705
  0C:208D    A$core_uart_apb$2706
  0C:208F    A$core_uart_apb$2707
  0C:2091    A$core_uart_apb$2708
  0C:2093    A$core_uart_apb$2709
  0C:2096    A$core_uart_apb$2710
  0C:2098    A$core_uart_apb$2711
  0C:209A    A$core_uart_apb$2712
  0C:209C    A$core_uart_apb$2713
  0C:209E    A$core_uart_apb$2714
  0C:20A0    A$core_uart_apb$2715
  0C:20A2    A$core_uart_apb$2717
  0C:20A4    A$core_uart_apb$2719
  0C:20A7    A$core_uart_apb$2720
  0C:20A9    A$core_uart_apb$2725
  0C:20A9    C$core_uart_apb.c$139$2$1
  0C:20AA    A$core_uart_apb$2728
  0C:20AC    A$core_uart_apb$2729
  0C:20AF    A$core_uart_apb$2734
  0C:20AF    C$core_uart_apb.c$141$2$1
  0C:20B1    A$core_uart_apb$2735
  0C:20B3    A$core_uart_apb$2738
  0C:20B5    A$core_uart_apb$2739
  0C:20B7    A$core_uart_apb$2740
  0C:20B9    A$core_uart_apb$2741
  0C:20BC    A$core_uart_apb$2742
  0C:20BE    A$core_uart_apb$2743
  0C:20BF    A$core_uart_apb$2744
  0C:20C2    A$core_uart_apb$2745
  0C:20C4    A$core_uart_apb$2747
  0C:20C7    A$core_uart_apb$2748
  0C:20C8    A$core_uart_apb$2749
  0C:20C9    A$core_uart_apb$2750
  0C:20CA    A$core_uart_apb$2751
  0C:20CB    A$core_uart_apb$2752
  0C:20CC    A$core_uart_apb$2754
  0C:20CE    A$core_uart_apb$2755
  0C:20D0    A$core_uart_apb$2756
  0C:20D1    A$core_uart_apb$2757
  0C:20D3    A$core_uart_apb$2758
  0C:20D5    A$core_uart_apb$2759
  0C:20D6    A$core_uart_apb$2760
  0C:20D8    A$core_uart_apb$2763
  0C:20DA    A$core_uart_apb$2764
  0C:20DC    A$core_uart_apb$2765
  0C:20DE    A$core_uart_apb$2766
  0C:20E1    A$core_uart_apb$2767
  0C:20E2    A$core_uart_apb$2769
  0C:20E5    A$core_uart_apb$2770
  0C:20E6    A$core_uart_apb$2771
  0C:20E7    A$core_uart_apb$2773
  0C:20EA    A$core_uart_apb$2774
  0C:20ED    A$core_uart_apb$2775
  0C:20EF    A$core_uart_apb$2776
  0C:20F1    A$core_uart_apb$2777
  0C:20F3    A$core_uart_apb$2778
  0C:20F5    A$core_uart_apb$2779
  0C:20F7    A$core_uart_apb$2780
  0C:20FA    A$core_uart_apb$2781
  0C:20FC    A$core_uart_apb$2782
  0C:20FE    A$core_uart_apb$2783
  0C:2100    A$core_uart_apb$2784
  0C:2102    A$core_uart_apb$2785
  0C:2104    A$core_uart_apb$2789
  0C:2104    C$core_uart_apb.c$133$2$8
  0C:2107    A$core_uart_apb$2791
  0C:2109    A$core_uart_apb$2792
  0C:210B    A$core_uart_apb$2793
  0C:210C    A$core_uart_apb$2794
  0C:210E    A$core_uart_apb$2795
  0C:2110    A$core_uart_apb$2796
  0C:2111    A$core_uart_apb$2797
  0C:2112    A$core_uart_apb$2799
  0C:2114    A$core_uart_apb$2800
  0C:2116    A$core_uart_apb$2801
  0C:2119    A$core_uart_apb$2805
  0C:2119    C$core_uart_apb.c$145$2$1
  0C:2119    XG$UART_send$0$0
  0C:211A    A$core_uart_apb$2828
  0C:211A    C$core_uart_apb.c$152$2$1
  0C:211A    G$UART_fill_tx_fifo$0$0
  0C:211A    _UART_fill_tx_fifo
  0C:211C    A$core_uart_apb$2829
  0C:211E    A$core_uart_apb$2830
  0C:2120    A$core_uart_apb$2831
  0C:2123    A$core_uart_apb$2832
  0C:2124    A$core_uart_apb$2833
  0C:2125    A$core_uart_apb$2834
  0C:2126    A$core_uart_apb$2835
  0C:2127    A$core_uart_apb$2836
  0C:2128    A$core_uart_apb$2837
  0C:2129    A$core_uart_apb$2838
  0C:212A    A$core_uart_apb$2842
  0C:212A    C$core_uart_apb.c$160$1$1
  0C:212D    A$core_uart_apb$2843
  0C:212E    A$core_uart_apb$2844
  0C:212F    A$core_uart_apb$2845
  0C:2130    A$core_uart_apb$2846
  0C:2131    A$core_uart_apb$2850
  0C:2131    C$core_uart_apb.c$162$2$2
  0C:2134    A$core_uart_apb$2851
  0C:2135    A$core_uart_apb$2852
  0C:2136    A$core_uart_apb$2853
  0C:2137    A$core_uart_apb$2854
  0C:2138    A$core_uart_apb$2855
  0C:2139    A$core_uart_apb$2856
  0C:213A    A$core_uart_apb$2857
  0C:213B    A$core_uart_apb$2858
  0C:213C    A$core_uart_apb$2861
  0C:213F    A$core_uart_apb$2862
  0C:2142    A$core_uart_apb$2863
  0C:2145    A$core_uart_apb$2864
  0C:2147    A$core_uart_apb$2866
  0C:214A    A$core_uart_apb$2870
  0C:214D    A$core_uart_apb$2871
  0C:214F    A$core_uart_apb$2872
  0C:2150    A$core_uart_apb$2875
  0C:2153    A$core_uart_apb$2876
  0C:2155    A$core_uart_apb$2877
  0C:2156    A$core_uart_apb$2880
  0C:2159    A$core_uart_apb$2881
  0C:215B    A$core_uart_apb$2882
  0C:215C    A$core_uart_apb$2885
  0C:215F    A$core_uart_apb$2886
  0C:2161    A$core_uart_apb$2887
  0C:2162    A$core_uart_apb$2890
  0C:2165    A$core_uart_apb$2891
  0C:2167    A$core_uart_apb$2892
  0C:2168    A$core_uart_apb$2895
  0C:216B    A$core_uart_apb$2896
  0C:216D    A$core_uart_apb$2897
  0C:216E    A$core_uart_apb$2900
  0C:2171    A$core_uart_apb$2901
  0C:2173    A$core_uart_apb$2902
  0C:2174    A$core_uart_apb$2905
  0C:2177    A$core_uart_apb$2906
  0C:2179    A$core_uart_apb$2907
  0C:217A    A$core_uart_apb$2910
  0C:217D    A$core_uart_apb$2911
  0C:217F    A$core_uart_apb$2912
  0C:2180    A$core_uart_apb$2915
  0C:2183    A$core_uart_apb$2916
  0C:2185    A$core_uart_apb$2917
  0C:2186    A$core_uart_apb$2920
  0C:2189    A$core_uart_apb$2921
  0C:218B    A$core_uart_apb$2922
  0C:218C    A$core_uart_apb$2925
  0C:218F    A$core_uart_apb$2926
  0C:2191    A$core_uart_apb$2927
  0C:2192    A$core_uart_apb$2930
  0C:2195    A$core_uart_apb$2931
  0C:2197    A$core_uart_apb$2932
  0C:2198    A$core_uart_apb$2935
  0C:219B    A$core_uart_apb$2936
  0C:219D    A$core_uart_apb$2937
  0C:219E    A$core_uart_apb$2940
  0C:21A1    A$core_uart_apb$2941
  0C:21A3    A$core_uart_apb$2942
  0C:21A4    A$core_uart_apb$2945
  0C:21A7    A$core_uart_apb$2946
  0C:21A9    A$core_uart_apb$2947
  0C:21AA    A$core_uart_apb$2950
  0C:21AD    A$core_uart_apb$2951
  0C:21AF    A$core_uart_apb$2952
  0C:21B0    A$core_uart_apb$2955
  0C:21B3    A$core_uart_apb$2956
  0C:21B5    A$core_uart_apb$2957
  0C:21B6    A$core_uart_apb$2960
  0C:21B9    A$core_uart_apb$2961
  0C:21BB    A$core_uart_apb$2962
  0C:21BC    A$core_uart_apb$2965
  0C:21BF    A$core_uart_apb$2966
  0C:21C1    A$core_uart_apb$2967
  0C:21C2    A$core_uart_apb$2970
  0C:21C5    A$core_uart_apb$2971
  0C:21C7    A$core_uart_apb$2972
  0C:21C8    A$core_uart_apb$2975
  0C:21CB    A$core_uart_apb$2976
  0C:21CD    A$core_uart_apb$2977
  0C:21CE    A$core_uart_apb$2980
  0C:21D1    A$core_uart_apb$2981
  0C:21D3    A$core_uart_apb$2982
  0C:21D4    A$core_uart_apb$2985
  0C:21D7    A$core_uart_apb$2986
  0C:21D9    A$core_uart_apb$2987
  0C:21DA    A$core_uart_apb$2990
  0C:21DD    A$core_uart_apb$2991
  0C:21DF    A$core_uart_apb$2992
  0C:21E0    A$core_uart_apb$2995
  0C:21E3    A$core_uart_apb$2996
  0C:21E5    A$core_uart_apb$2997
  0C:21E6    A$core_uart_apb$3000
  0C:21E9    A$core_uart_apb$3001
  0C:21EB    A$core_uart_apb$3002
  0C:21EC    A$core_uart_apb$3005
  0C:21EF    A$core_uart_apb$3006
  0C:21F1    A$core_uart_apb$3007
  0C:21F2    A$core_uart_apb$3010
  0C:21F5    A$core_uart_apb$3011
  0C:21F7    A$core_uart_apb$3012
  0C:21F8    A$core_uart_apb$3015
  0C:21FB    A$core_uart_apb$3016
  0C:21FD    A$core_uart_apb$3017
  0C:21FE    A$core_uart_apb$3020
  0C:2201    A$core_uart_apb$3021
  0C:2203    A$core_uart_apb$3022
  0C:2204    A$core_uart_apb$3025
  0C:2207    A$core_uart_apb$3026
  0C:2209    A$core_uart_apb$3027
  0C:220A    A$core_uart_apb$3030
  0C:220D    A$core_uart_apb$3031
  0C:220F    A$core_uart_apb$3032
  0C:2210    A$core_uart_apb$3035
  0C:2213    A$core_uart_apb$3036
  0C:2215    A$core_uart_apb$3037
  0C:2216    A$core_uart_apb$3040
  0C:2219    A$core_uart_apb$3041
  0C:221B    A$core_uart_apb$3042
  0C:221C    A$core_uart_apb$3045
  0C:221F    A$core_uart_apb$3046
  0C:2221    A$core_uart_apb$3047
  0C:2222    A$core_uart_apb$3050
  0C:2225    A$core_uart_apb$3051
  0C:2227    A$core_uart_apb$3052
  0C:2228    A$core_uart_apb$3055
  0C:222B    A$core_uart_apb$3056
  0C:222D    A$core_uart_apb$3057
  0C:222E    A$core_uart_apb$3060
  0C:2231    A$core_uart_apb$3061
  0C:2233    A$core_uart_apb$3062
  0C:2234    A$core_uart_apb$3064
  0C:2237    A$core_uart_apb$3065
  0C:2239    A$core_uart_apb$3066
  0C:223A    A$core_uart_apb$3067
  0C:223B    A$core_uart_apb$3068
  0C:223C    A$core_uart_apb$3069
  0C:223D    A$core_uart_apb$3070
  0C:223E    A$core_uart_apb$3071
  0C:223F    A$core_uart_apb$3072
  0C:2240    A$core_uart_apb$3073
  0C:2241    A$core_uart_apb$3075
  0C:2244    A$core_uart_apb$3076
  0C:2247    A$core_uart_apb$3077
  0C:224A    A$core_uart_apb$3078
  0C:224D    A$core_uart_apb$3083
  0C:224D    C$core_uart_apb.c$163$2$4
  0C:2250    A$core_uart_apb$3084
  0C:2251    A$core_uart_apb$3085
  0C:2253    A$core_uart_apb$3086
  0C:2254    A$core_uart_apb$3087
  0C:2255    A$core_uart_apb$3088
  0C:2257    A$core_uart_apb$3089
  0C:2258    A$core_uart_apb$3090
  0C:2259    A$core_uart_apb$3091
  0C:225B    A$core_uart_apb$3095
  0C:225D    A$core_uart_apb$3096
  0C:225F    A$core_uart_apb$3097
  0C:2261    A$core_uart_apb$3098
  0C:2263    A$core_uart_apb$3099
  0C:2265    A$core_uart_apb$3100
  0C:2267    A$core_uart_apb$3101
  0C:2269    A$core_uart_apb$3102
  0C:226B    A$core_uart_apb$3104
  0C:226C    A$core_uart_apb$3106
  0C:226D    A$core_uart_apb$3108
  0C:226E    A$core_uart_apb$3110
  0C:2270    A$core_uart_apb$3111
  0C:2273    A$core_uart_apb$3115
  0C:2276    A$core_uart_apb$3116
  0C:2278    A$core_uart_apb$3117
  0C:2279    A$core_uart_apb$3120
  0C:227C    A$core_uart_apb$3121
  0C:227E    A$core_uart_apb$3122
  0C:227F    A$core_uart_apb$3125
  0C:2282    A$core_uart_apb$3126
  0C:2284    A$core_uart_apb$3127
  0C:2285    A$core_uart_apb$3130
  0C:2288    A$core_uart_apb$3131
  0C:228A    A$core_uart_apb$3132
  0C:228B    A$core_uart_apb$3135
  0C:228E    A$core_uart_apb$3136
  0C:2290    A$core_uart_apb$3137
  0C:2291    A$core_uart_apb$3140
  0C:2294    A$core_uart_apb$3141
  0C:2296    A$core_uart_apb$3142
  0C:2297    A$core_uart_apb$3145
  0C:229A    A$core_uart_apb$3146
  0C:229C    A$core_uart_apb$3147
  0C:229D    A$core_uart_apb$3150
  0C:22A0    A$core_uart_apb$3151
  0C:22A2    A$core_uart_apb$3152
  0C:22A3    A$core_uart_apb$3155
  0C:22A6    A$core_uart_apb$3156
  0C:22A8    A$core_uart_apb$3157
  0C:22A9    A$core_uart_apb$3160
  0C:22AC    A$core_uart_apb$3161
  0C:22AE    A$core_uart_apb$3162
  0C:22AF    A$core_uart_apb$3165
  0C:22B2    A$core_uart_apb$3166
  0C:22B4    A$core_uart_apb$3167
  0C:22B5    A$core_uart_apb$3170
  0C:22B8    A$core_uart_apb$3171
  0C:22BA    A$core_uart_apb$3172
  0C:22BB    A$core_uart_apb$3175
  0C:22BE    A$core_uart_apb$3176
  0C:22C0    A$core_uart_apb$3177
  0C:22C1    A$core_uart_apb$3180
  0C:22C4    A$core_uart_apb$3181
  0C:22C6    A$core_uart_apb$3182
  0C:22C7    A$core_uart_apb$3185
  0C:22CA    A$core_uart_apb$3186
  0C:22CC    A$core_uart_apb$3187
  0C:22CD    A$core_uart_apb$3190
  0C:22D0    A$core_uart_apb$3191
  0C:22D2    A$core_uart_apb$3192
  0C:22D3    A$core_uart_apb$3195
  0C:22D6    A$core_uart_apb$3196
  0C:22D8    A$core_uart_apb$3197
  0C:22D9    A$core_uart_apb$3200
  0C:22DC    A$core_uart_apb$3201
  0C:22DE    A$core_uart_apb$3202
  0C:22DF    A$core_uart_apb$3205
  0C:22E2    A$core_uart_apb$3206
  0C:22E4    A$core_uart_apb$3207
  0C:22E5    A$core_uart_apb$3210
  0C:22E8    A$core_uart_apb$3211
  0C:22EA    A$core_uart_apb$3212
  0C:22EB    A$core_uart_apb$3215
  0C:22EE    A$core_uart_apb$3216
  0C:22F0    A$core_uart_apb$3217
  0C:22F1    A$core_uart_apb$3220
  0C:22F4    A$core_uart_apb$3221
  0C:22F6    A$core_uart_apb$3222
  0C:22F7    A$core_uart_apb$3225
  0C:22FA    A$core_uart_apb$3226
  0C:22FC    A$core_uart_apb$3227
  0C:22FD    A$core_uart_apb$3230
  0C:2300    A$core_uart_apb$3231
  0C:2302    A$core_uart_apb$3232
  0C:2303    A$core_uart_apb$3235
  0C:2306    A$core_uart_apb$3236
  0C:2308    A$core_uart_apb$3237
  0C:2309    A$core_uart_apb$3240
  0C:230C    A$core_uart_apb$3241
  0C:230E    A$core_uart_apb$3242
  0C:230F    A$core_uart_apb$3245
  0C:2312    A$core_uart_apb$3246
  0C:2314    A$core_uart_apb$3247
  0C:2315    A$core_uart_apb$3250
  0C:2318    A$core_uart_apb$3251
  0C:231A    A$core_uart_apb$3252
  0C:231B    A$core_uart_apb$3255
  0C:231E    A$core_uart_apb$3256
  0C:2320    A$core_uart_apb$3257
  0C:2321    A$core_uart_apb$3260
  0C:2324    A$core_uart_apb$3261
  0C:2326    A$core_uart_apb$3262
  0C:2327    A$core_uart_apb$3265
  0C:232A    A$core_uart_apb$3266
  0C:232C    A$core_uart_apb$3267
  0C:232D    A$core_uart_apb$3270
  0C:2330    A$core_uart_apb$3271
  0C:2332    A$core_uart_apb$3272
  0C:2333    A$core_uart_apb$3275
  0C:2336    A$core_uart_apb$3276
  0C:2338    A$core_uart_apb$3277
  0C:2339    A$core_uart_apb$3280
  0C:233C    A$core_uart_apb$3281
  0C:233E    A$core_uart_apb$3282
  0C:233F    A$core_uart_apb$3285
  0C:2342    A$core_uart_apb$3286
  0C:2344    A$core_uart_apb$3287
  0C:2345    A$core_uart_apb$3290
  0C:2348    A$core_uart_apb$3291
  0C:234A    A$core_uart_apb$3292
  0C:234B    A$core_uart_apb$3295
  0C:234E    A$core_uart_apb$3296
  0C:2350    A$core_uart_apb$3297
  0C:2351    A$core_uart_apb$3300
  0C:2354    A$core_uart_apb$3301
  0C:2356    A$core_uart_apb$3302
  0C:2357    A$core_uart_apb$3305
  0C:235A    A$core_uart_apb$3306
  0C:235C    A$core_uart_apb$3307
  0C:235D    A$core_uart_apb$3309
  0C:2360    A$core_uart_apb$3310
  0C:2362    A$core_uart_apb$3311
  0C:2363    A$core_uart_apb$3312
  0C:2364    A$core_uart_apb$3313
  0C:2365    A$core_uart_apb$3314
  0C:2366    A$core_uart_apb$3315
  0C:2367    A$core_uart_apb$3316
  0C:2368    A$core_uart_apb$3317
  0C:2369    A$core_uart_apb$3318
  0C:236A    A$core_uart_apb$3320
  0C:236D    A$core_uart_apb$3321
  0C:2370    A$core_uart_apb$3322
  0C:2373    A$core_uart_apb$3323
  0C:2375    A$core_uart_apb$3324
  0C:2378    A$core_uart_apb$3325
  0C:237A    A$core_uart_apb$3330
  0C:237A    C$core_uart_apb.c$164$2$6
  0C:237D    A$core_uart_apb$3331
  0C:237E    A$core_uart_apb$3332
  0C:237F    A$core_uart_apb$3333
  0C:2380    A$core_uart_apb$3334
  0C:2381    A$core_uart_apb$3335
  0C:2382    A$core_uart_apb$3337
  0C:2383    A$core_uart_apb$3338
  0C:2384    A$core_uart_apb$3340
  0C:2386    A$core_uart_apb$3341
  0C:2389    A$core_uart_apb$3345
  0C:238C    A$core_uart_apb$3346
  0C:238E    A$core_uart_apb$3347
  0C:238F    A$core_uart_apb$3350
  0C:2392    A$core_uart_apb$3351
  0C:2394    A$core_uart_apb$3352
  0C:2395    A$core_uart_apb$3355
  0C:2398    A$core_uart_apb$3356
  0C:239A    A$core_uart_apb$3357
  0C:239B    A$core_uart_apb$3360
  0C:239E    A$core_uart_apb$3361
  0C:23A0    A$core_uart_apb$3362
  0C:23A1    A$core_uart_apb$3365
  0C:23A4    A$core_uart_apb$3366
  0C:23A6    A$core_uart_apb$3367
  0C:23A7    A$core_uart_apb$3370
  0C:23AA    A$core_uart_apb$3371
  0C:23AC    A$core_uart_apb$3372
  0C:23AD    A$core_uart_apb$3375
  0C:23B0    A$core_uart_apb$3376
  0C:23B2    A$core_uart_apb$3377
  0C:23B3    A$core_uart_apb$3380
  0C:23B6    A$core_uart_apb$3381
  0C:23B8    A$core_uart_apb$3382
  0C:23B9    A$core_uart_apb$3385
  0C:23BC    A$core_uart_apb$3386
  0C:23BE    A$core_uart_apb$3387
  0C:23BF    A$core_uart_apb$3390
  0C:23C2    A$core_uart_apb$3391
  0C:23C4    A$core_uart_apb$3392
  0C:23C5    A$core_uart_apb$3395
  0C:23C8    A$core_uart_apb$3396
  0C:23CA    A$core_uart_apb$3397
  0C:23CB    A$core_uart_apb$3400
  0C:23CE    A$core_uart_apb$3401
  0C:23D0    A$core_uart_apb$3402
  0C:23D1    A$core_uart_apb$3405
  0C:23D4    A$core_uart_apb$3406
  0C:23D6    A$core_uart_apb$3407
  0C:23D7    A$core_uart_apb$3410
  0C:23DA    A$core_uart_apb$3411
  0C:23DC    A$core_uart_apb$3412
  0C:23DD    A$core_uart_apb$3415
  0C:23E0    A$core_uart_apb$3416
  0C:23E2    A$core_uart_apb$3417
  0C:23E3    A$core_uart_apb$3420
  0C:23E6    A$core_uart_apb$3421
  0C:23E8    A$core_uart_apb$3422
  0C:23E9    A$core_uart_apb$3425
  0C:23EC    A$core_uart_apb$3426
  0C:23EE    A$core_uart_apb$3427
  0C:23EF    A$core_uart_apb$3430
  0C:23F2    A$core_uart_apb$3431
  0C:23F4    A$core_uart_apb$3432
  0C:23F5    A$core_uart_apb$3435
  0C:23F8    A$core_uart_apb$3436
  0C:23FA    A$core_uart_apb$3437
  0C:23FB    A$core_uart_apb$3440
  0C:23FE    A$core_uart_apb$3441
  0C:2400    A$core_uart_apb$3442
  0C:2401    A$core_uart_apb$3445
  0C:2404    A$core_uart_apb$3446
  0C:2406    A$core_uart_apb$3447
  0C:2407    A$core_uart_apb$3450
  0C:240A    A$core_uart_apb$3451
  0C:240C    A$core_uart_apb$3452
  0C:240D    A$core_uart_apb$3455
  0C:2410    A$core_uart_apb$3456
  0C:2412    A$core_uart_apb$3457
  0C:2413    A$core_uart_apb$3460
  0C:2416    A$core_uart_apb$3461
  0C:2418    A$core_uart_apb$3462
  0C:2419    A$core_uart_apb$3465
  0C:241C    A$core_uart_apb$3466
  0C:241E    A$core_uart_apb$3467
  0C:241F    A$core_uart_apb$3470
  0C:2422    A$core_uart_apb$3471
  0C:2424    A$core_uart_apb$3472
  0C:2425    A$core_uart_apb$3475
  0C:2428    A$core_uart_apb$3476
  0C:242A    A$core_uart_apb$3477
  0C:242B    A$core_uart_apb$3480
  0C:242E    A$core_uart_apb$3481
  0C:2430    A$core_uart_apb$3482
  0C:2431    A$core_uart_apb$3485
  0C:2434    A$core_uart_apb$3486
  0C:2436    A$core_uart_apb$3487
  0C:2437    A$core_uart_apb$3490
  0C:243A    A$core_uart_apb$3491
  0C:243C    A$core_uart_apb$3492
  0C:243D    A$core_uart_apb$3495
  0C:2440    A$core_uart_apb$3496
  0C:2442    A$core_uart_apb$3497
  0C:2443    A$core_uart_apb$3500
  0C:2446    A$core_uart_apb$3501
  0C:2448    A$core_uart_apb$3502
  0C:2449    A$core_uart_apb$3505
  0C:244C    A$core_uart_apb$3506
  0C:244E    A$core_uart_apb$3507
  0C:244F    A$core_uart_apb$3510
  0C:2452    A$core_uart_apb$3511
  0C:2454    A$core_uart_apb$3512
  0C:2455    A$core_uart_apb$3515
  0C:2458    A$core_uart_apb$3516
  0C:245A    A$core_uart_apb$3517
  0C:245B    A$core_uart_apb$3520
  0C:245E    A$core_uart_apb$3521
  0C:2460    A$core_uart_apb$3522
  0C:2461    A$core_uart_apb$3525
  0C:2464    A$core_uart_apb$3526
  0C:2466    A$core_uart_apb$3527
  0C:2467    A$core_uart_apb$3530
  0C:246A    A$core_uart_apb$3531
  0C:246C    A$core_uart_apb$3532
  0C:246D    A$core_uart_apb$3535
  0C:2470    A$core_uart_apb$3536
  0C:2472    A$core_uart_apb$3537
  0C:2473    A$core_uart_apb$3539
  0C:2476    A$core_uart_apb$3540
  0C:2478    A$core_uart_apb$3541
  0C:2479    A$core_uart_apb$3542
  0C:247A    A$core_uart_apb$3543
  0C:247B    A$core_uart_apb$3544
  0C:247C    A$core_uart_apb$3545
  0C:247D    A$core_uart_apb$3546
  0C:247E    A$core_uart_apb$3547
  0C:247F    A$core_uart_apb$3548
  0C:2480    A$core_uart_apb$3550
  0C:2483    A$core_uart_apb$3551
  0C:2486    A$core_uart_apb$3552
  0C:2489    A$core_uart_apb$3553
  0C:248B    A$core_uart_apb$3554
  0C:248D    A$core_uart_apb$3555
  0C:248F    A$core_uart_apb$3556
  0C:2492    A$core_uart_apb$3557
  0C:2494    A$core_uart_apb$3558
  0C:2496    A$core_uart_apb$3559
  0C:2498    A$core_uart_apb$3564
  0C:2498    C$core_uart_apb.c$168$1$1
  0C:249B    A$core_uart_apb$3565
  0C:249C    A$core_uart_apb$3566
  0C:249D    A$core_uart_apb$3567
  0C:249E    A$core_uart_apb$3568
  0C:249F    A$core_uart_apb$3569
  0C:24A0    A$core_uart_apb$3570
  0C:24A1    A$core_uart_apb$3571
  0C:24A2    A$core_uart_apb$3572
  0C:24A3    A$core_uart_apb$3575
  0C:24A6    A$core_uart_apb$3576
  0C:24A9    A$core_uart_apb$3577
  0C:24AC    A$core_uart_apb$3578
  0C:24AF    A$core_uart_apb$3583
  0C:24AF    C$core_uart_apb.c$169$1$1
  0C:24B0    A$core_uart_apb$3585
  0C:24B2    A$core_uart_apb$3586
  0C:24B5    A$core_uart_apb$3591
  0C:24B5    C$core_uart_apb.c$170$1$1
  0C:24B6    A$core_uart_apb$3592
  0C:24B7    A$core_uart_apb$3594
  0C:24B9    A$core_uart_apb$3595
  0C:24BC    A$core_uart_apb$3601
  0C:24BC    C$core_uart_apb.c$172$2$8
  0C:24BE    A$core_uart_apb$3602
  0C:24C0    A$core_uart_apb$3603
  0C:24C2    A$core_uart_apb$3604
  0C:24C5    A$core_uart_apb$3605
  0C:24C6    A$core_uart_apb$3606
  0C:24C7    A$core_uart_apb$3607
  0C:24CA    A$core_uart_apb$3608
  0C:24CB    A$core_uart_apb$3611
  0C:24CD    A$core_uart_apb$3612
  0C:24CF    A$core_uart_apb$3613
  0C:24D0    A$core_uart_apb$3614
  0C:24D2    A$core_uart_apb$3615
  0C:24D4    A$core_uart_apb$3616
  0C:24D5    A$core_uart_apb$3618
  0C:24D7    A$core_uart_apb$3619
  0C:24D9    A$core_uart_apb$3620
  0C:24DB    A$core_uart_apb$3621
  0C:24DD    A$core_uart_apb$3622
  0C:24DF    A$core_uart_apb$3623
  0C:24E1    A$core_uart_apb$3624
  0C:24E3    A$core_uart_apb$3625
  0C:24E6    A$core_uart_apb$3626
  0C:24E8    A$core_uart_apb$3627
  0C:24EA    A$core_uart_apb$3628
  0C:24EC    A$core_uart_apb$3629
  0C:24EE    A$core_uart_apb$3630
  0C:24F0    A$core_uart_apb$3631
  0C:24F2    A$core_uart_apb$3633
  0C:24F4    A$core_uart_apb$3635
  0C:24F7    A$core_uart_apb$3636
  0C:24F9    A$core_uart_apb$3641
  0C:24F9    C$core_uart_apb.c$174$2$8
  0C:24FA    A$core_uart_apb$3643
  0C:24FC    A$core_uart_apb$3644
  0C:24FF    A$core_uart_apb$3649
  0C:24FF    C$core_uart_apb.c$176$4$10
  0C:2501    A$core_uart_apb$3650
  0C:2503    A$core_uart_apb$3651
  0C:2505    A$core_uart_apb$3656
  0C:2505    C$core_uart_apb.c$177$1$1
  0C:2507    A$core_uart_apb$3657
  0C:2509    A$core_uart_apb$3660
  0C:250B    A$core_uart_apb$3661
  0C:250D    A$core_uart_apb$3662
  0C:250F    A$core_uart_apb$3663
  0C:2512    A$core_uart_apb$3664
  0C:2514    A$core_uart_apb$3665
  0C:2515    A$core_uart_apb$3666
  0C:2518    A$core_uart_apb$3667
  0C:251A    A$core_uart_apb$3669
  0C:251D    A$core_uart_apb$3670
  0C:251E    A$core_uart_apb$3671
  0C:251F    A$core_uart_apb$3672
  0C:2520    A$core_uart_apb$3673
  0C:2521    A$core_uart_apb$3674
  0C:2522    A$core_uart_apb$3676
  0C:2524    A$core_uart_apb$3677
  0C:2526    A$core_uart_apb$3678
  0C:2527    A$core_uart_apb$3679
  0C:2529    A$core_uart_apb$3680
  0C:252B    A$core_uart_apb$3681
  0C:252C    A$core_uart_apb$3682
  0C:252E    A$core_uart_apb$3685
  0C:2530    A$core_uart_apb$3686
  0C:2532    A$core_uart_apb$3687
  0C:2534    A$core_uart_apb$3688
  0C:2537    A$core_uart_apb$3689
  0C:2538    A$core_uart_apb$3691
  0C:253B    A$core_uart_apb$3692
  0C:253C    A$core_uart_apb$3693
  0C:253D    A$core_uart_apb$3695
  0C:2540    A$core_uart_apb$3696
  0C:2543    A$core_uart_apb$3697
  0C:2545    A$core_uart_apb$3698
  0C:2547    A$core_uart_apb$3699
  0C:2549    A$core_uart_apb$3700
  0C:254B    A$core_uart_apb$3701
  0C:254D    A$core_uart_apb$3702
  0C:2550    A$core_uart_apb$3703
  0C:2552    A$core_uart_apb$3704
  0C:2554    A$core_uart_apb$3705
  0C:2556    A$core_uart_apb$3706
  0C:2558    A$core_uart_apb$3707
  0C:255A    A$core_uart_apb$3711
  0C:255A    C$core_uart_apb.c$179$4$10
  0C:255D    A$core_uart_apb$3713
  0C:255F    A$core_uart_apb$3714
  0C:2561    A$core_uart_apb$3715
  0C:2562    A$core_uart_apb$3716
  0C:2564    A$core_uart_apb$3717
  0C:2566    A$core_uart_apb$3718
  0C:2567    A$core_uart_apb$3719
  0C:2568    A$core_uart_apb$3724
  0C:2568    C$core_uart_apb.c$180$4$10
  0C:256A    A$core_uart_apb$3725
  0C:256C    A$core_uart_apb$3726
  0C:256E    A$core_uart_apb$3727
  0C:2571    A$core_uart_apb$3728
  0C:2572    A$core_uart_apb$3729
  0C:2573    A$core_uart_apb$3730
  0C:2576    A$core_uart_apb$3731
  0C:2577    A$core_uart_apb$3734
  0C:2579    A$core_uart_apb$3735
  0C:257B    A$core_uart_apb$3736
  0C:257C    A$core_uart_apb$3737
  0C:257E    A$core_uart_apb$3738
  0C:2580    A$core_uart_apb$3739
  0C:2581    A$core_uart_apb$3741
  0C:2583    A$core_uart_apb$3742
  0C:2585    A$core_uart_apb$3743
  0C:2587    A$core_uart_apb$3744
  0C:2589    A$core_uart_apb$3745
  0C:258B    A$core_uart_apb$3746
  0C:258D    A$core_uart_apb$3747
  0C:258F    A$core_uart_apb$3748
  0C:2592    A$core_uart_apb$3749
  0C:2594    A$core_uart_apb$3750
  0C:2596    A$core_uart_apb$3751
  0C:2598    A$core_uart_apb$3752
  0C:259A    A$core_uart_apb$3753
  0C:259C    A$core_uart_apb$3754
  0C:259E    A$core_uart_apb$3756
  0C:25A0    A$core_uart_apb$3758
  0C:25A3    A$core_uart_apb$3759
  0C:25A5    A$core_uart_apb$3764
  0C:25A5    C$core_uart_apb.c$182$1$1
  0C:25A7    A$core_uart_apb$3765
  0C:25A9    A$core_uart_apb$3767
  0C:25AA    A$core_uart_apb$3769
  0C:25AC    A$core_uart_apb$3770
  0C:25AF    A$core_uart_apb$3773
  0C:25B2    A$core_uart_apb$3774
  0C:25B3    A$core_uart_apb$3775
  0C:25B4    A$core_uart_apb$3776
  0C:25B5    A$core_uart_apb$3777
  0C:25B6    A$core_uart_apb$3778
  0C:25B7    A$core_uart_apb$3781
  0C:25B8    A$core_uart_apb$3782
  0C:25B9    A$core_uart_apb$3783
  0C:25BA    A$core_uart_apb$3784
  0C:25BB    A$core_uart_apb$3785
  0C:25BC    A$core_uart_apb$3787
  0C:25BE    A$core_uart_apb$3788
  0C:25C1    A$core_uart_apb$3794
  0C:25C1    C$core_uart_apb.c$185$1$1
  0C:25C4    A$core_uart_apb$3795
  0C:25C5    A$core_uart_apb$3796
  0C:25C6    A$core_uart_apb$3797
  0C:25C7    A$core_uart_apb$3798
  0C:25C8    A$core_uart_apb$3799
  0C:25C9    A$core_uart_apb$3801
  0C:25CB    A$core_uart_apb$3802
  0C:25CD    A$core_uart_apb$3806
  0C:25CD    C$core_uart_apb.c$186$1$1
  0C:25CD    XG$UART_fill_tx_fifo$0$0
  0C:25CE    A$core_uart_apb$3830
  0C:25CE    C$core_uart_apb.c$193$1$1
  0C:25CE    G$UART_get_rx$0$0
  0C:25CE    _UART_get_rx
  0C:25D0    A$core_uart_apb$3831
  0C:25D2    A$core_uart_apb$3832
  0C:25D4    A$core_uart_apb$3833
  0C:25D7    A$core_uart_apb$3834
  0C:25D8    A$core_uart_apb$3835
  0C:25D9    A$core_uart_apb$3836
  0C:25DA    A$core_uart_apb$3837
  0C:25DB    A$core_uart_apb$3838
  0C:25DC    A$core_uart_apb$3839
  0C:25DD    A$core_uart_apb$3840
  0C:25DE    A$core_uart_apb$3844
  0C:25DE    C$core_uart_apb.c$202$1$1
  0C:25E1    A$core_uart_apb$3845
  0C:25E2    A$core_uart_apb$3846
  0C:25E3    A$core_uart_apb$3847
  0C:25E4    A$core_uart_apb$3848
  0C:25E5    A$core_uart_apb$3852
  0C:25E5    C$core_uart_apb.c$204$2$2
  0C:25E8    A$core_uart_apb$3853
  0C:25E9    A$core_uart_apb$3854
  0C:25EA    A$core_uart_apb$3855
  0C:25EB    A$core_uart_apb$3856
  0C:25EC    A$core_uart_apb$3857
  0C:25ED    A$core_uart_apb$3858
  0C:25EE    A$core_uart_apb$3859
  0C:25EF    A$core_uart_apb$3860
  0C:25F0    A$core_uart_apb$3863
  0C:25F3    A$core_uart_apb$3864
  0C:25F6    A$core_uart_apb$3865
  0C:25F9    A$core_uart_apb$3866
  0C:25FB    A$core_uart_apb$3868
  0C:25FE    A$core_uart_apb$3872
  0C:2601    A$core_uart_apb$3873
  0C:2603    A$core_uart_apb$3874
  0C:2604    A$core_uart_apb$3877
  0C:2607    A$core_uart_apb$3878
  0C:2609    A$core_uart_apb$3879
  0C:260A    A$core_uart_apb$3882
  0C:260D    A$core_uart_apb$3883
  0C:260F    A$core_uart_apb$3884
  0C:2610    A$core_uart_apb$3887
  0C:2613    A$core_uart_apb$3888
  0C:2615    A$core_uart_apb$3889
  0C:2616    A$core_uart_apb$3892
  0C:2619    A$core_uart_apb$3893
  0C:261B    A$core_uart_apb$3894
  0C:261C    A$core_uart_apb$3897
  0C:261F    A$core_uart_apb$3898
  0C:2621    A$core_uart_apb$3899
  0C:2622    A$core_uart_apb$3902
  0C:2625    A$core_uart_apb$3903
  0C:2627    A$core_uart_apb$3904
  0C:2628    A$core_uart_apb$3907
  0C:262B    A$core_uart_apb$3908
  0C:262D    A$core_uart_apb$3909
  0C:262E    A$core_uart_apb$3912
  0C:2631    A$core_uart_apb$3913
  0C:2633    A$core_uart_apb$3914
  0C:2634    A$core_uart_apb$3917
  0C:2637    A$core_uart_apb$3918
  0C:2639    A$core_uart_apb$3919
  0C:263A    A$core_uart_apb$3922
  0C:263D    A$core_uart_apb$3923
  0C:263F    A$core_uart_apb$3924
  0C:2640    A$core_uart_apb$3927
  0C:2643    A$core_uart_apb$3928
  0C:2645    A$core_uart_apb$3929
  0C:2646    A$core_uart_apb$3932
  0C:2649    A$core_uart_apb$3933
  0C:264B    A$core_uart_apb$3934
  0C:264C    A$core_uart_apb$3937
  0C:264F    A$core_uart_apb$3938
  0C:2651    A$core_uart_apb$3939
  0C:2652    A$core_uart_apb$3942
  0C:2655    A$core_uart_apb$3943
  0C:2657    A$core_uart_apb$3944
  0C:2658    A$core_uart_apb$3947
  0C:265B    A$core_uart_apb$3948
  0C:265D    A$core_uart_apb$3949
  0C:265E    A$core_uart_apb$3952
  0C:2661    A$core_uart_apb$3953
  0C:2663    A$core_uart_apb$3954
  0C:2664    A$core_uart_apb$3957
  0C:2667    A$core_uart_apb$3958
  0C:2669    A$core_uart_apb$3959
  0C:266A    A$core_uart_apb$3962
  0C:266D    A$core_uart_apb$3963
  0C:266F    A$core_uart_apb$3964
  0C:2670    A$core_uart_apb$3967
  0C:2673    A$core_uart_apb$3968
  0C:2675    A$core_uart_apb$3969
  0C:2676    A$core_uart_apb$3972
  0C:2679    A$core_uart_apb$3973
  0C:267B    A$core_uart_apb$3974
  0C:267C    A$core_uart_apb$3977
  0C:267F    A$core_uart_apb$3978
  0C:2681    A$core_uart_apb$3979
  0C:2682    A$core_uart_apb$3982
  0C:2685    A$core_uart_apb$3983
  0C:2687    A$core_uart_apb$3984
  0C:2688    A$core_uart_apb$3987
  0C:268B    A$core_uart_apb$3988
  0C:268D    A$core_uart_apb$3989
  0C:268E    A$core_uart_apb$3992
  0C:2691    A$core_uart_apb$3993
  0C:2693    A$core_uart_apb$3994
  0C:2694    A$core_uart_apb$3997
  0C:2697    A$core_uart_apb$3998
  0C:2699    A$core_uart_apb$3999
  0C:269A    A$core_uart_apb$4002
  0C:269D    A$core_uart_apb$4003
  0C:269F    A$core_uart_apb$4004
  0C:26A0    A$core_uart_apb$4007
  0C:26A3    A$core_uart_apb$4008
  0C:26A5    A$core_uart_apb$4009
  0C:26A6    A$core_uart_apb$4012
  0C:26A9    A$core_uart_apb$4013
  0C:26AB    A$core_uart_apb$4014
  0C:26AC    A$core_uart_apb$4017
  0C:26AF    A$core_uart_apb$4018
  0C:26B1    A$core_uart_apb$4019
  0C:26B2    A$core_uart_apb$4022
  0C:26B5    A$core_uart_apb$4023
  0C:26B7    A$core_uart_apb$4024
  0C:26B8    A$core_uart_apb$4027
  0C:26BB    A$core_uart_apb$4028
  0C:26BD    A$core_uart_apb$4029
  0C:26BE    A$core_uart_apb$4032
  0C:26C1    A$core_uart_apb$4033
  0C:26C3    A$core_uart_apb$4034
  0C:26C4    A$core_uart_apb$4037
  0C:26C7    A$core_uart_apb$4038
  0C:26C9    A$core_uart_apb$4039
  0C:26CA    A$core_uart_apb$4042
  0C:26CD    A$core_uart_apb$4043
  0C:26CF    A$core_uart_apb$4044
  0C:26D0    A$core_uart_apb$4047
  0C:26D3    A$core_uart_apb$4048
  0C:26D5    A$core_uart_apb$4049
  0C:26D6    A$core_uart_apb$4052
  0C:26D9    A$core_uart_apb$4053
  0C:26DB    A$core_uart_apb$4054
  0C:26DC    A$core_uart_apb$4057
  0C:26DF    A$core_uart_apb$4058
  0C:26E1    A$core_uart_apb$4059
  0C:26E2    A$core_uart_apb$4062
  0C:26E5    A$core_uart_apb$4063
  0C:26E7    A$core_uart_apb$4064
  0C:26E8    A$core_uart_apb$4066
  0C:26EB    A$core_uart_apb$4067
  0C:26ED    A$core_uart_apb$4068
  0C:26EE    A$core_uart_apb$4069
  0C:26EF    A$core_uart_apb$4070
  0C:26F0    A$core_uart_apb$4071
  0C:26F1    A$core_uart_apb$4072
  0C:26F2    A$core_uart_apb$4073
  0C:26F3    A$core_uart_apb$4074
  0C:26F4    A$core_uart_apb$4075
  0C:26F5    A$core_uart_apb$4077
  0C:26F8    A$core_uart_apb$4078
  0C:26FB    A$core_uart_apb$4079
  0C:26FE    A$core_uart_apb$4080
  0C:2701    A$core_uart_apb$4085
  0C:2701    C$core_uart_apb.c$205$2$4
  0C:2704    A$core_uart_apb$4086
  0C:2705    A$core_uart_apb$4087
  0C:2707    A$core_uart_apb$4088
  0C:2708    A$core_uart_apb$4089
  0C:2709    A$core_uart_apb$4090
  0C:270B    A$core_uart_apb$4091
  0C:270C    A$core_uart_apb$4092
  0C:270D    A$core_uart_apb$4093
  0C:270F    A$core_uart_apb$4097
  0C:2711    A$core_uart_apb$4098
  0C:2713    A$core_uart_apb$4099
  0C:2715    A$core_uart_apb$4100
  0C:2717    A$core_uart_apb$4101
  0C:2719    A$core_uart_apb$4102
  0C:271B    A$core_uart_apb$4103
  0C:271D    A$core_uart_apb$4104
  0C:271F    A$core_uart_apb$4106
  0C:2720    A$core_uart_apb$4108
  0C:2721    A$core_uart_apb$4110
  0C:2722    A$core_uart_apb$4112
  0C:2724    A$core_uart_apb$4113
  0C:2727    A$core_uart_apb$4117
  0C:272A    A$core_uart_apb$4118
  0C:272C    A$core_uart_apb$4119
  0C:272D    A$core_uart_apb$4122
  0C:2730    A$core_uart_apb$4123
  0C:2732    A$core_uart_apb$4124
  0C:2733    A$core_uart_apb$4127
  0C:2736    A$core_uart_apb$4128
  0C:2738    A$core_uart_apb$4129
  0C:2739    A$core_uart_apb$4132
  0C:273C    A$core_uart_apb$4133
  0C:273E    A$core_uart_apb$4134
  0C:273F    A$core_uart_apb$4137
  0C:2742    A$core_uart_apb$4138
  0C:2744    A$core_uart_apb$4139
  0C:2745    A$core_uart_apb$4142
  0C:2748    A$core_uart_apb$4143
  0C:274A    A$core_uart_apb$4144
  0C:274B    A$core_uart_apb$4147
  0C:274E    A$core_uart_apb$4148
  0C:2750    A$core_uart_apb$4149
  0C:2751    A$core_uart_apb$4152
  0C:2754    A$core_uart_apb$4153
  0C:2756    A$core_uart_apb$4154
  0C:2757    A$core_uart_apb$4157
  0C:275A    A$core_uart_apb$4158
  0C:275C    A$core_uart_apb$4159
  0C:275D    A$core_uart_apb$4162
  0C:2760    A$core_uart_apb$4163
  0C:2762    A$core_uart_apb$4164
  0C:2763    A$core_uart_apb$4167
  0C:2766    A$core_uart_apb$4168
  0C:2768    A$core_uart_apb$4169
  0C:2769    A$core_uart_apb$4172
  0C:276C    A$core_uart_apb$4173
  0C:276E    A$core_uart_apb$4174
  0C:276F    A$core_uart_apb$4177
  0C:2772    A$core_uart_apb$4178
  0C:2774    A$core_uart_apb$4179
  0C:2775    A$core_uart_apb$4182
  0C:2778    A$core_uart_apb$4183
  0C:277A    A$core_uart_apb$4184
  0C:277B    A$core_uart_apb$4187
  0C:277E    A$core_uart_apb$4188
  0C:2780    A$core_uart_apb$4189
  0C:2781    A$core_uart_apb$4192
  0C:2784    A$core_uart_apb$4193
  0C:2786    A$core_uart_apb$4194
  0C:2787    A$core_uart_apb$4197
  0C:278A    A$core_uart_apb$4198
  0C:278C    A$core_uart_apb$4199
  0C:278D    A$core_uart_apb$4202
  0C:2790    A$core_uart_apb$4203
  0C:2792    A$core_uart_apb$4204
  0C:2793    A$core_uart_apb$4207
  0C:2796    A$core_uart_apb$4208
  0C:2798    A$core_uart_apb$4209
  0C:2799    A$core_uart_apb$4212
  0C:279C    A$core_uart_apb$4213
  0C:279E    A$core_uart_apb$4214
  0C:279F    A$core_uart_apb$4217
  0C:27A2    A$core_uart_apb$4218
  0C:27A4    A$core_uart_apb$4219
  0C:27A5    A$core_uart_apb$4222
  0C:27A8    A$core_uart_apb$4223
  0C:27AA    A$core_uart_apb$4224
  0C:27AB    A$core_uart_apb$4227
  0C:27AE    A$core_uart_apb$4228
  0C:27B0    A$core_uart_apb$4229
  0C:27B1    A$core_uart_apb$4232
  0C:27B4    A$core_uart_apb$4233
  0C:27B6    A$core_uart_apb$4234
  0C:27B7    A$core_uart_apb$4237
  0C:27BA    A$core_uart_apb$4238
  0C:27BC    A$core_uart_apb$4239
  0C:27BD    A$core_uart_apb$4242
  0C:27C0    A$core_uart_apb$4243
  0C:27C2    A$core_uart_apb$4244
  0C:27C3    A$core_uart_apb$4247
  0C:27C6    A$core_uart_apb$4248
  0C:27C8    A$core_uart_apb$4249
  0C:27C9    A$core_uart_apb$4252
  0C:27CC    A$core_uart_apb$4253
  0C:27CE    A$core_uart_apb$4254
  0C:27CF    A$core_uart_apb$4257
  0C:27D2    A$core_uart_apb$4258
  0C:27D4    A$core_uart_apb$4259
  0C:27D5    A$core_uart_apb$4262
  0C:27D8    A$core_uart_apb$4263
  0C:27DA    A$core_uart_apb$4264
  0C:27DB    A$core_uart_apb$4267
  0C:27DE    A$core_uart_apb$4268
  0C:27E0    A$core_uart_apb$4269
  0C:27E1    A$core_uart_apb$4272
  0C:27E4    A$core_uart_apb$4273
  0C:27E6    A$core_uart_apb$4274
  0C:27E7    A$core_uart_apb$4277
  0C:27EA    A$core_uart_apb$4278
  0C:27EC    A$core_uart_apb$4279
  0C:27ED    A$core_uart_apb$4282
  0C:27F0    A$core_uart_apb$4283
  0C:27F2    A$core_uart_apb$4284
  0C:27F3    A$core_uart_apb$4287
  0C:27F6    A$core_uart_apb$4288
  0C:27F8    A$core_uart_apb$4289
  0C:27F9    A$core_uart_apb$4292
  0C:27FC    A$core_uart_apb$4293
  0C:27FE    A$core_uart_apb$4294
  0C:27FF    A$core_uart_apb$4297
  0C:2802    A$core_uart_apb$4298
  0C:2804    A$core_uart_apb$4299
  0C:2805    A$core_uart_apb$4302
  0C:2808    A$core_uart_apb$4303
  0C:280A    A$core_uart_apb$4304
  0C:280B    A$core_uart_apb$4307
  0C:280E    A$core_uart_apb$4308
  0C:2810    A$core_uart_apb$4309
  0C:2811    A$core_uart_apb$4311
  0C:2814    A$core_uart_apb$4312
  0C:2816    A$core_uart_apb$4313
  0C:2817    A$core_uart_apb$4314
  0C:2818    A$core_uart_apb$4315
  0C:2819    A$core_uart_apb$4316
  0C:281A    A$core_uart_apb$4317
  0C:281B    A$core_uart_apb$4318
  0C:281C    A$core_uart_apb$4319
  0C:281D    A$core_uart_apb$4320
  0C:281E    A$core_uart_apb$4322
  0C:2821    A$core_uart_apb$4323
  0C:2824    A$core_uart_apb$4324
  0C:2827    A$core_uart_apb$4325
  0C:2829    A$core_uart_apb$4326
  0C:282C    A$core_uart_apb$4327
  0C:282E    A$core_uart_apb$4332
  0C:282E    C$core_uart_apb.c$206$2$6
  0C:2831    A$core_uart_apb$4333
  0C:2832    A$core_uart_apb$4334
  0C:2833    A$core_uart_apb$4335
  0C:2834    A$core_uart_apb$4336
  0C:2835    A$core_uart_apb$4337
  0C:2836    A$core_uart_apb$4339
  0C:2837    A$core_uart_apb$4340
  0C:2838    A$core_uart_apb$4342
  0C:283A    A$core_uart_apb$4343
  0C:283D    A$core_uart_apb$4347
  0C:2840    A$core_uart_apb$4348
  0C:2842    A$core_uart_apb$4349
  0C:2843    A$core_uart_apb$4352
  0C:2846    A$core_uart_apb$4353
  0C:2848    A$core_uart_apb$4354
  0C:2849    A$core_uart_apb$4357
  0C:284C    A$core_uart_apb$4358
  0C:284E    A$core_uart_apb$4359
  0C:284F    A$core_uart_apb$4362
  0C:2852    A$core_uart_apb$4363
  0C:2854    A$core_uart_apb$4364
  0C:2855    A$core_uart_apb$4367
  0C:2858    A$core_uart_apb$4368
  0C:285A    A$core_uart_apb$4369
  0C:285B    A$core_uart_apb$4372
  0C:285E    A$core_uart_apb$4373
  0C:2860    A$core_uart_apb$4374
  0C:2861    A$core_uart_apb$4377
  0C:2864    A$core_uart_apb$4378
  0C:2866    A$core_uart_apb$4379
  0C:2867    A$core_uart_apb$4382
  0C:286A    A$core_uart_apb$4383
  0C:286C    A$core_uart_apb$4384
  0C:286D    A$core_uart_apb$4387
  0C:2870    A$core_uart_apb$4388
  0C:2872    A$core_uart_apb$4389
  0C:2873    A$core_uart_apb$4392
  0C:2876    A$core_uart_apb$4393
  0C:2878    A$core_uart_apb$4394
  0C:2879    A$core_uart_apb$4397
  0C:287C    A$core_uart_apb$4398
  0C:287E    A$core_uart_apb$4399
  0C:287F    A$core_uart_apb$4402
  0C:2882    A$core_uart_apb$4403
  0C:2884    A$core_uart_apb$4404
  0C:2885    A$core_uart_apb$4407
  0C:2888    A$core_uart_apb$4408
  0C:288A    A$core_uart_apb$4409
  0C:288B    A$core_uart_apb$4412
  0C:288E    A$core_uart_apb$4413
  0C:2890    A$core_uart_apb$4414
  0C:2891    A$core_uart_apb$4417
  0C:2894    A$core_uart_apb$4418
  0C:2896    A$core_uart_apb$4419
  0C:2897    A$core_uart_apb$4422
  0C:289A    A$core_uart_apb$4423
  0C:289C    A$core_uart_apb$4424
  0C:289D    A$core_uart_apb$4427
  0C:28A0    A$core_uart_apb$4428
  0C:28A2    A$core_uart_apb$4429
  0C:28A3    A$core_uart_apb$4432
  0C:28A6    A$core_uart_apb$4433
  0C:28A8    A$core_uart_apb$4434
  0C:28A9    A$core_uart_apb$4437
  0C:28AC    A$core_uart_apb$4438
  0C:28AE    A$core_uart_apb$4439
  0C:28AF    A$core_uart_apb$4442
  0C:28B2    A$core_uart_apb$4443
  0C:28B4    A$core_uart_apb$4444
  0C:28B5    A$core_uart_apb$4447
  0C:28B8    A$core_uart_apb$4448
  0C:28BA    A$core_uart_apb$4449
  0C:28BB    A$core_uart_apb$4452
  0C:28BE    A$core_uart_apb$4453
  0C:28C0    A$core_uart_apb$4454
  0C:28C1    A$core_uart_apb$4457
  0C:28C4    A$core_uart_apb$4458
  0C:28C6    A$core_uart_apb$4459
  0C:28C7    A$core_uart_apb$4462
  0C:28CA    A$core_uart_apb$4463
  0C:28CC    A$core_uart_apb$4464
  0C:28CD    A$core_uart_apb$4467
  0C:28D0    A$core_uart_apb$4468
  0C:28D2    A$core_uart_apb$4469
  0C:28D3    A$core_uart_apb$4472
  0C:28D6    A$core_uart_apb$4473
  0C:28D8    A$core_uart_apb$4474
  0C:28D9    A$core_uart_apb$4477
  0C:28DC    A$core_uart_apb$4478
  0C:28DE    A$core_uart_apb$4479
  0C:28DF    A$core_uart_apb$4482
  0C:28E2    A$core_uart_apb$4483
  0C:28E4    A$core_uart_apb$4484
  0C:28E5    A$core_uart_apb$4487
  0C:28E8    A$core_uart_apb$4488
  0C:28EA    A$core_uart_apb$4489
  0C:28EB    A$core_uart_apb$4492
  0C:28EE    A$core_uart_apb$4493
  0C:28F0    A$core_uart_apb$4494
  0C:28F1    A$core_uart_apb$4497
  0C:28F4    A$core_uart_apb$4498
  0C:28F6    A$core_uart_apb$4499
  0C:28F7    A$core_uart_apb$4502
  0C:28FA    A$core_uart_apb$4503
  0C:28FC    A$core_uart_apb$4504
  0C:28FD    A$core_uart_apb$4507
  0C:2900    A$core_uart_apb$4508
  0C:2902    A$core_uart_apb$4509
  0C:2903    A$core_uart_apb$4512
  0C:2906    A$core_uart_apb$4513
  0C:2908    A$core_uart_apb$4514
  0C:2909    A$core_uart_apb$4517
  0C:290C    A$core_uart_apb$4518
  0C:290E    A$core_uart_apb$4519
  0C:290F    A$core_uart_apb$4522
  0C:2912    A$core_uart_apb$4523
  0C:2914    A$core_uart_apb$4524
  0C:2915    A$core_uart_apb$4527
  0C:2918    A$core_uart_apb$4528
  0C:291A    A$core_uart_apb$4529
  0C:291B    A$core_uart_apb$4532
  0C:291E    A$core_uart_apb$4533
  0C:2920    A$core_uart_apb$4534
  0C:2921    A$core_uart_apb$4537
  0C:2924    A$core_uart_apb$4538
  0C:2926    A$core_uart_apb$4539
  0C:2927    A$core_uart_apb$4541
  0C:292A    A$core_uart_apb$4542
  0C:292C    A$core_uart_apb$4543
  0C:292D    A$core_uart_apb$4544
  0C:292E    A$core_uart_apb$4545
  0C:292F    A$core_uart_apb$4546
  0C:2930    A$core_uart_apb$4547
  0C:2931    A$core_uart_apb$4548
  0C:2932    A$core_uart_apb$4549
  0C:2933    A$core_uart_apb$4550
  0C:2934    A$core_uart_apb$4552
  0C:2937    A$core_uart_apb$4553
  0C:293A    A$core_uart_apb$4554
  0C:293D    A$core_uart_apb$4555
  0C:293F    A$core_uart_apb$4556
  0C:2941    A$core_uart_apb$4557
  0C:2943    A$core_uart_apb$4558
  0C:2946    A$core_uart_apb$4559
  0C:2948    A$core_uart_apb$4560
  0C:294A    A$core_uart_apb$4561
  0C:294C    A$core_uart_apb$4566
  0C:294C    C$core_uart_apb.c$208$1$1
  0C:294F    A$core_uart_apb$4567
  0C:2950    A$core_uart_apb$4568
  0C:2952    A$core_uart_apb$4569
  0C:2953    A$core_uart_apb$4570
  0C:2954    A$core_uart_apb$4571
  0C:2956    A$core_uart_apb$4572
  0C:2957    A$core_uart_apb$4573
  0C:2958    A$core_uart_apb$4574
  0C:295A    A$core_uart_apb$4577
  0C:295C    A$core_uart_apb$4578
  0C:295E    A$core_uart_apb$4579
  0C:2960    A$core_uart_apb$4580
  0C:2962    A$core_uart_apb$4581
  0C:2964    A$core_uart_apb$4582
  0C:2966    A$core_uart_apb$4583
  0C:2969    A$core_uart_apb$4588
  0C:2969    C$core_uart_apb.c$209$1$1
  0C:296A    A$core_uart_apb$4590
  0C:296C    A$core_uart_apb$4591
  0C:296F    A$core_uart_apb$4596
  0C:296F    C$core_uart_apb.c$210$1$1
  0C:2970    A$core_uart_apb$4597
  0C:2971    A$core_uart_apb$4599
  0C:2973    A$core_uart_apb$4600
  0C:2976    A$core_uart_apb$4606
  0C:2976    C$core_uart_apb.c$212$1$1
  0C:2979    A$core_uart_apb$4607
  0C:297A    A$core_uart_apb$4608
  0C:297B    A$core_uart_apb$4609
  0C:297C    A$core_uart_apb$4610
  0C:297D    A$core_uart_apb$4615
  0C:297D    C$core_uart_apb.c$213$2$8
  0C:2980    A$core_uart_apb$4616
  0C:2983    A$core_uart_apb$4617
  0C:2986    A$core_uart_apb$4618
  0C:2989    A$core_uart_apb$4619
  0C:298A    A$core_uart_apb$4620
  0C:298B    A$core_uart_apb$4621
  0C:298E    A$core_uart_apb$4622
  0C:298F    A$core_uart_apb$4625
  0C:2991    A$core_uart_apb$4626
  0C:2993    A$core_uart_apb$4627
  0C:2994    A$core_uart_apb$4628
  0C:2996    A$core_uart_apb$4629
  0C:2998    A$core_uart_apb$4630
  0C:2999    A$core_uart_apb$4632
  0C:299B    A$core_uart_apb$4633
  0C:299D    A$core_uart_apb$4634
  0C:299F    A$core_uart_apb$4635
  0C:29A1    A$core_uart_apb$4636
  0C:29A4    A$core_uart_apb$4637
  0C:29A6    A$core_uart_apb$4638
  0C:29A8    A$core_uart_apb$4639
  0C:29AA    A$core_uart_apb$4644
  0C:29AA    C$core_uart_apb.c$214$2$8
  0C:29AC    A$core_uart_apb$4645
  0C:29AE    A$core_uart_apb$4646
  0C:29AF    A$core_uart_apb$4647
  0C:29B1    A$core_uart_apb$4648
  0C:29B3    A$core_uart_apb$4649
  0C:29B4    A$core_uart_apb$4650
  0C:29B6    A$core_uart_apb$4653
  0C:29B8    A$core_uart_apb$4654
  0C:29BA    A$core_uart_apb$4655
  0C:29BC    A$core_uart_apb$4656
  0C:29BF    A$core_uart_apb$4657
  0C:29C0    A$core_uart_apb$4659
  0C:29C1    A$core_uart_apb$4660
  0C:29C3    A$core_uart_apb$4663
  0C:29C5    A$core_uart_apb$4664
  0C:29C7    A$core_uart_apb$4665
  0C:29C9    A$core_uart_apb$4666
  0C:29CA    A$core_uart_apb$4667
  0C:29CD    A$core_uart_apb$4671
  0C:29CD    C$core_uart_apb.c$215$2$8
  0C:29CF    A$core_uart_apb$4673
  0C:29D2    A$core_uart_apb$4674
  0C:29D4    A$core_uart_apb$4676
  0C:29D7    A$core_uart_apb$4677
  0C:29D8    A$core_uart_apb$4678
  0C:29D9    A$core_uart_apb$4685
  0C:29D9    C$core_uart_apb.c$216$3$9
  0C:29DB    A$core_uart_apb$4686
  0C:29DD    A$core_uart_apb$4687
  0C:29DF    A$core_uart_apb$4690
  0C:29E2    A$core_uart_apb$4691
  0C:29E3    A$core_uart_apb$4692
  0C:29E4    A$core_uart_apb$4694
  0C:29E5    A$core_uart_apb$4696
  0C:29E7    A$core_uart_apb$4697
  0C:29EA    A$core_uart_apb$4700
  0C:29ED    A$core_uart_apb$4701
  0C:29EE    A$core_uart_apb$4702
  0C:29EF    A$core_uart_apb$4703
  0C:29F0    A$core_uart_apb$4704
  0C:29F1    A$core_uart_apb$4705
  0C:29F2    A$core_uart_apb$4708
  0C:29F3    A$core_uart_apb$4709
  0C:29F4    A$core_uart_apb$4710
  0C:29F5    A$core_uart_apb$4711
  0C:29F6    A$core_uart_apb$4712
  0C:29F7    A$core_uart_apb$4714
  0C:29F9    A$core_uart_apb$4715
  0C:29FC    A$core_uart_apb$4720
  0C:29FC    C$core_uart_apb.c$218$1$1
  0C:29FE    A$core_uart_apb$4721
  0C:2A00    A$core_uart_apb$4723
  0C:2A02    A$core_uart_apb$4724
  0C:2A04    A$core_uart_apb$4725
  0C:2A06    A$core_uart_apb$4726
  0C:2A08    A$core_uart_apb$4727
  0C:2A0A    A$core_uart_apb$4728
  0C:2A0C    A$core_uart_apb$4729
  0C:2A0F    A$core_uart_apb$4732
  0C:2A11    A$core_uart_apb$4733
  0C:2A13    A$core_uart_apb$4734
  0C:2A15    A$core_uart_apb$4735
  0C:2A18    A$core_uart_apb$4736
  0C:2A19    A$core_uart_apb$4737
  0C:2A1A    A$core_uart_apb$4738
  0C:2A1D    A$core_uart_apb$4739
  0C:2A1E    A$core_uart_apb$4742
  0C:2A20    A$core_uart_apb$4743
  0C:2A22    A$core_uart_apb$4744
  0C:2A23    A$core_uart_apb$4745
  0C:2A25    A$core_uart_apb$4746
  0C:2A27    A$core_uart_apb$4747
  0C:2A28    A$core_uart_apb$4749
  0C:2A2A    A$core_uart_apb$4750
  0C:2A2C    A$core_uart_apb$4751
  0C:2A2E    A$core_uart_apb$4752
  0C:2A30    A$core_uart_apb$4753
  0C:2A32    A$core_uart_apb$4754
  0C:2A34    A$core_uart_apb$4755
  0C:2A36    A$core_uart_apb$4756
  0C:2A38    A$core_uart_apb$4757
  0C:2A3A    A$core_uart_apb$4758
  0C:2A3D    A$core_uart_apb$4759
  0C:2A3F    A$core_uart_apb$4760
  0C:2A41    A$core_uart_apb$4761
  0C:2A43    A$core_uart_apb$4762
  0C:2A45    A$core_uart_apb$4763
  0C:2A47    A$core_uart_apb$4764
  0C:2A49    A$core_uart_apb$4765
  0C:2A4B    A$core_uart_apb$4766
  0C:2A4D    A$core_uart_apb$4769
  0C:2A50    A$core_uart_apb$4770
  0C:2A53    A$core_uart_apb$4771
  0C:2A56    A$core_uart_apb$4772
  0C:2A57    A$core_uart_apb$4773
  0C:2A5A    A$core_uart_apb$4777
  0C:2A5A    C$core_uart_apb.c$220$3$9
  0C:2A5D    A$core_uart_apb$4779
  0C:2A5F    A$core_uart_apb$4780
  0C:2A61    A$core_uart_apb$4781
  0C:2A62    A$core_uart_apb$4782
  0C:2A64    A$core_uart_apb$4783
  0C:2A66    A$core_uart_apb$4784
  0C:2A67    A$core_uart_apb$4785
  0C:2A68    A$core_uart_apb$4790
  0C:2A68    C$core_uart_apb.c$221$3$9
  0C:2A6A    A$core_uart_apb$4791
  0C:2A6C    A$core_uart_apb$4792
  0C:2A6E    A$core_uart_apb$4793
  0C:2A71    A$core_uart_apb$4794
  0C:2A72    A$core_uart_apb$4795
  0C:2A73    A$core_uart_apb$4796
  0C:2A76    A$core_uart_apb$4797
  0C:2A77    A$core_uart_apb$4800
  0C:2A79    A$core_uart_apb$4801
  0C:2A7B    A$core_uart_apb$4802
  0C:2A7C    A$core_uart_apb$4803
  0C:2A7E    A$core_uart_apb$4804
  0C:2A80    A$core_uart_apb$4805
  0C:2A81    A$core_uart_apb$4807
  0C:2A83    A$core_uart_apb$4808
  0C:2A85    A$core_uart_apb$4809
  0C:2A87    A$core_uart_apb$4810
  0C:2A89    A$core_uart_apb$4811
  0C:2A8B    A$core_uart_apb$4812
  0C:2A8D    A$core_uart_apb$4813
  0C:2A8F    A$core_uart_apb$4814
  0C:2A92    A$core_uart_apb$4815
  0C:2A94    A$core_uart_apb$4816
  0C:2A96    A$core_uart_apb$4817
  0C:2A98    A$core_uart_apb$4818
  0C:2A9A    A$core_uart_apb$4819
  0C:2A9C    A$core_uart_apb$4820
  0C:2A9E    A$core_uart_apb$4825
  0C:2A9E    C$core_uart_apb.c$222$3$9
  0C:2AA0    A$core_uart_apb$4826
  0C:2AA2    A$core_uart_apb$4827
  0C:2AA3    A$core_uart_apb$4828
  0C:2AA5    A$core_uart_apb$4829
  0C:2AA7    A$core_uart_apb$4830
  0C:2AA8    A$core_uart_apb$4831
  0C:2AAA    A$core_uart_apb$4834
  0C:2AAC    A$core_uart_apb$4835
  0C:2AAE    A$core_uart_apb$4836
  0C:2AB0    A$core_uart_apb$4837
  0C:2AB3    A$core_uart_apb$4838
  0C:2AB4    A$core_uart_apb$4840
  0C:2AB5    A$core_uart_apb$4841
  0C:2AB7    A$core_uart_apb$4844
  0C:2AB9    A$core_uart_apb$4845
  0C:2ABB    A$core_uart_apb$4846
  0C:2ABD    A$core_uart_apb$4847
  0C:2ABE    A$core_uart_apb$4848
  0C:2AC1    A$core_uart_apb$4852
  0C:2AC1    C$core_uart_apb.c$223$3$9
  0C:2AC3    A$core_uart_apb$4854
  0C:2AC6    A$core_uart_apb$4855
  0C:2AC8    A$core_uart_apb$4857
  0C:2ACB    A$core_uart_apb$4858
  0C:2ACC    A$core_uart_apb$4859
  0C:2ACD    A$core_uart_apb$4861
  0C:2ACF    A$core_uart_apb$4862
  0C:2AD1    A$core_uart_apb$4863
  0C:2AD4    A$core_uart_apb$4868
  0C:2AD4    C$core_uart_apb.c$226$1$1
  0C:2AD7    A$core_uart_apb$4869
  0C:2AD8    A$core_uart_apb$4870
  0C:2AD9    A$core_uart_apb$4871
  0C:2ADA    A$core_uart_apb$4872
  0C:2ADB    A$core_uart_apb$4873
  0C:2ADC    A$core_uart_apb$4875
  0C:2ADE    A$core_uart_apb$4876
  0C:2AE0    A$core_uart_apb$4880
  0C:2AE0    C$core_uart_apb.c$227$1$1
  0C:2AE0    XG$UART_get_rx$0$0
  0C:2AE1    A$core_uart_apb$4901
  0C:2AE1    C$core_uart_apb.c$234$1$1
  0C:2AE1    G$UART_polled_tx_string$0$0
  0C:2AE1    _UART_polled_tx_string
  0C:2AE3    A$core_uart_apb$4902
  0C:2AE5    A$core_uart_apb$4903
  0C:2AE7    A$core_uart_apb$4904
  0C:2AEA    A$core_uart_apb$4905
  0C:2AEB    A$core_uart_apb$4906
  0C:2AEC    A$core_uart_apb$4907
  0C:2AED    A$core_uart_apb$4908
  0C:2AEE    A$core_uart_apb$4909
  0C:2AEF    A$core_uart_apb$4910
  0C:2AF0    A$core_uart_apb$4911
  0C:2AF1    A$core_uart_apb$4915
  0C:2AF1    C$core_uart_apb.c$243$2$2
  0C:2AF4    A$core_uart_apb$4916
  0C:2AF5    A$core_uart_apb$4917
  0C:2AF6    A$core_uart_apb$4918
  0C:2AF7    A$core_uart_apb$4919
  0C:2AF8    A$core_uart_apb$4920
  0C:2AF9    A$core_uart_apb$4921
  0C:2AFA    A$core_uart_apb$4922
  0C:2AFB    A$core_uart_apb$4923
  0C:2AFC    A$core_uart_apb$4926
  0C:2AFF    A$core_uart_apb$4927
  0C:2B02    A$core_uart_apb$4928
  0C:2B05    A$core_uart_apb$4929
  0C:2B07    A$core_uart_apb$4931
  0C:2B0A    A$core_uart_apb$4935
  0C:2B0D    A$core_uart_apb$4936
  0C:2B0F    A$core_uart_apb$4937
  0C:2B10    A$core_uart_apb$4940
  0C:2B13    A$core_uart_apb$4941
  0C:2B15    A$core_uart_apb$4942
  0C:2B16    A$core_uart_apb$4945
  0C:2B19    A$core_uart_apb$4946
  0C:2B1B    A$core_uart_apb$4947
  0C:2B1C    A$core_uart_apb$4950
  0C:2B1F    A$core_uart_apb$4951
  0C:2B21    A$core_uart_apb$4952
  0C:2B22    A$core_uart_apb$4955
  0C:2B25    A$core_uart_apb$4956
  0C:2B27    A$core_uart_apb$4957
  0C:2B28    A$core_uart_apb$4960
  0C:2B2B    A$core_uart_apb$4961
  0C:2B2D    A$core_uart_apb$4962
  0C:2B2E    A$core_uart_apb$4965
  0C:2B31    A$core_uart_apb$4966
  0C:2B33    A$core_uart_apb$4967
  0C:2B34    A$core_uart_apb$4970
  0C:2B37    A$core_uart_apb$4971
  0C:2B39    A$core_uart_apb$4972
  0C:2B3A    A$core_uart_apb$4975
  0C:2B3D    A$core_uart_apb$4976
  0C:2B3F    A$core_uart_apb$4977
  0C:2B40    A$core_uart_apb$4980
  0C:2B43    A$core_uart_apb$4981
  0C:2B45    A$core_uart_apb$4982
  0C:2B46    A$core_uart_apb$4985
  0C:2B49    A$core_uart_apb$4986
  0C:2B4B    A$core_uart_apb$4987
  0C:2B4C    A$core_uart_apb$4990
  0C:2B4F    A$core_uart_apb$4991
  0C:2B51    A$core_uart_apb$4992
  0C:2B52    A$core_uart_apb$4995
  0C:2B55    A$core_uart_apb$4996
  0C:2B57    A$core_uart_apb$4997
  0C:2B58    A$core_uart_apb$5000
  0C:2B5B    A$core_uart_apb$5001
  0C:2B5D    A$core_uart_apb$5002
  0C:2B5E    A$core_uart_apb$5005
  0C:2B61    A$core_uart_apb$5006
  0C:2B63    A$core_uart_apb$5007
  0C:2B64    A$core_uart_apb$5010
  0C:2B67    A$core_uart_apb$5011
  0C:2B69    A$core_uart_apb$5012
  0C:2B6A    A$core_uart_apb$5015
  0C:2B6D    A$core_uart_apb$5016
  0C:2B6F    A$core_uart_apb$5017
  0C:2B70    A$core_uart_apb$5020
  0C:2B73    A$core_uart_apb$5021
  0C:2B75    A$core_uart_apb$5022
  0C:2B76    A$core_uart_apb$5025
  0C:2B79    A$core_uart_apb$5026
  0C:2B7B    A$core_uart_apb$5027
  0C:2B7C    A$core_uart_apb$5030
  0C:2B7F    A$core_uart_apb$5031
  0C:2B81    A$core_uart_apb$5032
  0C:2B82    A$core_uart_apb$5035
  0C:2B85    A$core_uart_apb$5036
  0C:2B87    A$core_uart_apb$5037
  0C:2B88    A$core_uart_apb$5040
  0C:2B8B    A$core_uart_apb$5041
  0C:2B8D    A$core_uart_apb$5042
  0C:2B8E    A$core_uart_apb$5045
  0C:2B91    A$core_uart_apb$5046
  0C:2B93    A$core_uart_apb$5047
  0C:2B94    A$core_uart_apb$5050
  0C:2B97    A$core_uart_apb$5051
  0C:2B99    A$core_uart_apb$5052
  0C:2B9A    A$core_uart_apb$5055
  0C:2B9D    A$core_uart_apb$5056
  0C:2B9F    A$core_uart_apb$5057
  0C:2BA0    A$core_uart_apb$5060
  0C:2BA3    A$core_uart_apb$5061
  0C:2BA5    A$core_uart_apb$5062
  0C:2BA6    A$core_uart_apb$5065
  0C:2BA9    A$core_uart_apb$5066
  0C:2BAB    A$core_uart_apb$5067
  0C:2BAC    A$core_uart_apb$5070
  0C:2BAF    A$core_uart_apb$5071
  0C:2BB1    A$core_uart_apb$5072
  0C:2BB2    A$core_uart_apb$5075
  0C:2BB5    A$core_uart_apb$5076
  0C:2BB7    A$core_uart_apb$5077
  0C:2BB8    A$core_uart_apb$5080
  0C:2BBB    A$core_uart_apb$5081
  0C:2BBD    A$core_uart_apb$5082
  0C:2BBE    A$core_uart_apb$5085
  0C:2BC1    A$core_uart_apb$5086
  0C:2BC3    A$core_uart_apb$5087
  0C:2BC4    A$core_uart_apb$5090
  0C:2BC7    A$core_uart_apb$5091
  0C:2BC9    A$core_uart_apb$5092
  0C:2BCA    A$core_uart_apb$5095
  0C:2BCD    A$core_uart_apb$5096
  0C:2BCF    A$core_uart_apb$5097
  0C:2BD0    A$core_uart_apb$5100
  0C:2BD3    A$core_uart_apb$5101
  0C:2BD5    A$core_uart_apb$5102
  0C:2BD6    A$core_uart_apb$5105
  0C:2BD9    A$core_uart_apb$5106
  0C:2BDB    A$core_uart_apb$5107
  0C:2BDC    A$core_uart_apb$5110
  0C:2BDF    A$core_uart_apb$5111
  0C:2BE1    A$core_uart_apb$5112
  0C:2BE2    A$core_uart_apb$5115
  0C:2BE5    A$core_uart_apb$5116
  0C:2BE7    A$core_uart_apb$5117
  0C:2BE8    A$core_uart_apb$5120
  0C:2BEB    A$core_uart_apb$5121
  0C:2BED    A$core_uart_apb$5122
  0C:2BEE    A$core_uart_apb$5125
  0C:2BF1    A$core_uart_apb$5126
  0C:2BF3    A$core_uart_apb$5127
  0C:2BF4    A$core_uart_apb$5129
  0C:2BF7    A$core_uart_apb$5130
  0C:2BF9    A$core_uart_apb$5131
  0C:2BFA    A$core_uart_apb$5132
  0C:2BFB    A$core_uart_apb$5133
  0C:2BFC    A$core_uart_apb$5134
  0C:2BFD    A$core_uart_apb$5135
  0C:2BFE    A$core_uart_apb$5136
  0C:2BFF    A$core_uart_apb$5137
  0C:2C00    A$core_uart_apb$5138
  0C:2C01    A$core_uart_apb$5140
  0C:2C04    A$core_uart_apb$5141
  0C:2C07    A$core_uart_apb$5142
  0C:2C0A    A$core_uart_apb$5143
  0C:2C0D    A$core_uart_apb$5148
  0C:2C0D    C$core_uart_apb.c$244$2$4
  0C:2C10    A$core_uart_apb$5149
  0C:2C11    A$core_uart_apb$5150
  0C:2C12    A$core_uart_apb$5151
  0C:2C13    A$core_uart_apb$5152
  0C:2C14    A$core_uart_apb$5153
  0C:2C15    A$core_uart_apb$5154
  0C:2C16    A$core_uart_apb$5155
  0C:2C17    A$core_uart_apb$5156
  0C:2C18    A$core_uart_apb$5160
  0C:2C1B    A$core_uart_apb$5161
  0C:2C1E    A$core_uart_apb$5162
  0C:2C21    A$core_uart_apb$5163
  0C:2C23    A$core_uart_apb$5164
  0C:2C25    A$core_uart_apb$5166
  0C:2C26    A$core_uart_apb$5168
  0C:2C27    A$core_uart_apb$5170
  0C:2C28    A$core_uart_apb$5172
  0C:2C2A    A$core_uart_apb$5173
  0C:2C2D    A$core_uart_apb$5177
  0C:2C30    A$core_uart_apb$5178
  0C:2C32    A$core_uart_apb$5179
  0C:2C33    A$core_uart_apb$5182
  0C:2C36    A$core_uart_apb$5183
  0C:2C38    A$core_uart_apb$5184
  0C:2C39    A$core_uart_apb$5187
  0C:2C3C    A$core_uart_apb$5188
  0C:2C3E    A$core_uart_apb$5189
  0C:2C3F    A$core_uart_apb$5192
  0C:2C42    A$core_uart_apb$5193
  0C:2C44    A$core_uart_apb$5194
  0C:2C45    A$core_uart_apb$5197
  0C:2C48    A$core_uart_apb$5198
  0C:2C4A    A$core_uart_apb$5199
  0C:2C4B    A$core_uart_apb$5202
  0C:2C4E    A$core_uart_apb$5203
  0C:2C50    A$core_uart_apb$5204
  0C:2C51    A$core_uart_apb$5207
  0C:2C54    A$core_uart_apb$5208
  0C:2C56    A$core_uart_apb$5209
  0C:2C57    A$core_uart_apb$5212
  0C:2C5A    A$core_uart_apb$5213
  0C:2C5C    A$core_uart_apb$5214
  0C:2C5D    A$core_uart_apb$5217
  0C:2C60    A$core_uart_apb$5218
  0C:2C62    A$core_uart_apb$5219
  0C:2C63    A$core_uart_apb$5222
  0C:2C66    A$core_uart_apb$5223
  0C:2C68    A$core_uart_apb$5224
  0C:2C69    A$core_uart_apb$5227
  0C:2C6C    A$core_uart_apb$5228
  0C:2C6E    A$core_uart_apb$5229
  0C:2C6F    A$core_uart_apb$5232
  0C:2C72    A$core_uart_apb$5233
  0C:2C74    A$core_uart_apb$5234
  0C:2C75    A$core_uart_apb$5237
  0C:2C78    A$core_uart_apb$5238
  0C:2C7A    A$core_uart_apb$5239
  0C:2C7B    A$core_uart_apb$5242
  0C:2C7E    A$core_uart_apb$5243
  0C:2C80    A$core_uart_apb$5244
  0C:2C81    A$core_uart_apb$5247
  0C:2C84    A$core_uart_apb$5248
  0C:2C86    A$core_uart_apb$5249
  0C:2C87    A$core_uart_apb$5252
  0C:2C8A    A$core_uart_apb$5253
  0C:2C8C    A$core_uart_apb$5254
  0C:2C8D    A$core_uart_apb$5257
  0C:2C90    A$core_uart_apb$5258
  0C:2C92    A$core_uart_apb$5259
  0C:2C93    A$core_uart_apb$5262
  0C:2C96    A$core_uart_apb$5263
  0C:2C98    A$core_uart_apb$5264
  0C:2C99    A$core_uart_apb$5267
  0C:2C9C    A$core_uart_apb$5268
  0C:2C9E    A$core_uart_apb$5269
  0C:2C9F    A$core_uart_apb$5272
  0C:2CA2    A$core_uart_apb$5273
  0C:2CA4    A$core_uart_apb$5274
  0C:2CA5    A$core_uart_apb$5277
  0C:2CA8    A$core_uart_apb$5278
  0C:2CAA    A$core_uart_apb$5279
  0C:2CAB    A$core_uart_apb$5282
  0C:2CAE    A$core_uart_apb$5283
  0C:2CB0    A$core_uart_apb$5284
  0C:2CB1    A$core_uart_apb$5287
  0C:2CB4    A$core_uart_apb$5288
  0C:2CB6    A$core_uart_apb$5289
  0C:2CB7    A$core_uart_apb$5292
  0C:2CBA    A$core_uart_apb$5293
  0C:2CBC    A$core_uart_apb$5294
  0C:2CBD    A$core_uart_apb$5297
  0C:2CC0    A$core_uart_apb$5298
  0C:2CC2    A$core_uart_apb$5299
  0C:2CC3    A$core_uart_apb$5302
  0C:2CC6    A$core_uart_apb$5303
  0C:2CC8    A$core_uart_apb$5304
  0C:2CC9    A$core_uart_apb$5307
  0C:2CCC    A$core_uart_apb$5308
  0C:2CCE    A$core_uart_apb$5309
  0C:2CCF    A$core_uart_apb$5312
  0C:2CD2    A$core_uart_apb$5313
  0C:2CD4    A$core_uart_apb$5314
  0C:2CD5    A$core_uart_apb$5317
  0C:2CD8    A$core_uart_apb$5318
  0C:2CDA    A$core_uart_apb$5319
  0C:2CDB    A$core_uart_apb$5322
  0C:2CDE    A$core_uart_apb$5323
  0C:2CE0    A$core_uart_apb$5324
  0C:2CE1    A$core_uart_apb$5327
  0C:2CE4    A$core_uart_apb$5328
  0C:2CE6    A$core_uart_apb$5329
  0C:2CE7    A$core_uart_apb$5332
  0C:2CEA    A$core_uart_apb$5333
  0C:2CEC    A$core_uart_apb$5334
  0C:2CED    A$core_uart_apb$5337
  0C:2CF0    A$core_uart_apb$5338
  0C:2CF2    A$core_uart_apb$5339
  0C:2CF3    A$core_uart_apb$5342
  0C:2CF6    A$core_uart_apb$5343
  0C:2CF8    A$core_uart_apb$5344
  0C:2CF9    A$core_uart_apb$5347
  0C:2CFC    A$core_uart_apb$5348
  0C:2CFE    A$core_uart_apb$5349
  0C:2CFF    A$core_uart_apb$5352
  0C:2D02    A$core_uart_apb$5353
  0C:2D04    A$core_uart_apb$5354
  0C:2D05    A$core_uart_apb$5357
  0C:2D08    A$core_uart_apb$5358
  0C:2D0A    A$core_uart_apb$5359
  0C:2D0B    A$core_uart_apb$5362
  0C:2D0E    A$core_uart_apb$5363
  0C:2D10    A$core_uart_apb$5364
  0C:2D11    A$core_uart_apb$5367
  0C:2D14    A$core_uart_apb$5368
  0C:2D16    A$core_uart_apb$5369
  0C:2D17    A$core_uart_apb$5371
  0C:2D1A    A$core_uart_apb$5372
  0C:2D1C    A$core_uart_apb$5373
  0C:2D1D    A$core_uart_apb$5374
  0C:2D1E    A$core_uart_apb$5375
  0C:2D1F    A$core_uart_apb$5376
  0C:2D20    A$core_uart_apb$5377
  0C:2D21    A$core_uart_apb$5378
  0C:2D22    A$core_uart_apb$5379
  0C:2D23    A$core_uart_apb$5380
  0C:2D24    A$core_uart_apb$5382
  0C:2D27    A$core_uart_apb$5383
  0C:2D2A    A$core_uart_apb$5384
  0C:2D2D    A$core_uart_apb$5385
  0C:2D2F    A$core_uart_apb$5386
  0C:2D31    A$core_uart_apb$5387
  0C:2D33    A$core_uart_apb$5388
  0C:2D35    A$core_uart_apb$5389
  0C:2D38    A$core_uart_apb$5390
  0C:2D3A    A$core_uart_apb$5391
  0C:2D3C    A$core_uart_apb$5392
  0C:2D3E    A$core_uart_apb$5393
  0C:2D40    A$core_uart_apb$5398
  0C:2D40    C$core_uart_apb.c$246$1$1
  0C:2D43    A$core_uart_apb$5399
  0C:2D44    A$core_uart_apb$5400
  0C:2D45    A$core_uart_apb$5401
  0C:2D46    A$core_uart_apb$5402
  0C:2D47    A$core_uart_apb$5403
  0C:2D48    A$core_uart_apb$5404
  0C:2D49    A$core_uart_apb$5405
  0C:2D4A    A$core_uart_apb$5406
  0C:2D4B    A$core_uart_apb$5409
  0C:2D4E    A$core_uart_apb$5410
  0C:2D51    A$core_uart_apb$5411
  0C:2D54    A$core_uart_apb$5412
  0C:2D57    A$core_uart_apb$5415
  0C:2D58    A$core_uart_apb$5417
  0C:2D5A    A$core_uart_apb$5418
  0C:2D5D    A$core_uart_apb$5423
  0C:2D5D    C$core_uart_apb.c$248$2$6
  0C:2D60    A$core_uart_apb$5424
  0C:2D61    A$core_uart_apb$5425
  0C:2D62    A$core_uart_apb$5426
  0C:2D63    A$core_uart_apb$5427
  0C:2D64    A$core_uart_apb$5428
  0C:2D65    A$core_uart_apb$5429
  0C:2D66    A$core_uart_apb$5430
  0C:2D67    A$core_uart_apb$5431
  0C:2D68    A$core_uart_apb$5435
  0C:2D68    C$core_uart_apb.c$249$4$8
  0C:2D6A    A$core_uart_apb$5438
  0C:2D6C    A$core_uart_apb$5439
  0C:2D6E    A$core_uart_apb$5440
  0C:2D70    A$core_uart_apb$5442
  0C:2D73    A$core_uart_apb$5443
  0C:2D74    A$core_uart_apb$5444
  0C:2D75    A$core_uart_apb$5445
  0C:2D76    A$core_uart_apb$5446
  0C:2D77    A$core_uart_apb$5447
  0C:2D78    A$core_uart_apb$5448
  0C:2D79    A$core_uart_apb$5449
  0C:2D7A    A$core_uart_apb$5450
  0C:2D7B    A$core_uart_apb$5451
  0C:2D7C    A$core_uart_apb$5452
  0C:2D7D    A$core_uart_apb$5453
  0C:2D7E    A$core_uart_apb$5455
  0C:2D80    A$core_uart_apb$5456
  0C:2D82    A$core_uart_apb$5457
  0C:2D83    A$core_uart_apb$5458
  0C:2D85    A$core_uart_apb$5459
  0C:2D87    A$core_uart_apb$5460
  0C:2D88    A$core_uart_apb$5461
  0C:2D8A    A$core_uart_apb$5464
  0C:2D8C    A$core_uart_apb$5465
  0C:2D8E    A$core_uart_apb$5466
  0C:2D90    A$core_uart_apb$5467
  0C:2D93    A$core_uart_apb$5468
  0C:2D94    A$core_uart_apb$5470
  0C:2D96    A$core_uart_apb$5474
  0C:2D99    A$core_uart_apb$5475
  0C:2D9C    A$core_uart_apb$5476
  0C:2D9E    A$core_uart_apb$5477
  0C:2DA0    A$core_uart_apb$5479
  0C:2DA1    A$core_uart_apb$5482
  0C:2DA3    A$core_uart_apb$5483
  0C:2DA5    A$core_uart_apb$5484
  0C:2DA7    A$core_uart_apb$5487
  0C:2DA9    A$core_uart_apb$5488
  0C:2DAC    A$core_uart_apb$5497
  0C:2DAC    C$core_uart_apb.c$252$3$7
  0C:2DAC    C$core_uart_apb.c$253$4$8
  0C:2DAE    A$core_uart_apb$5498
  0C:2DB0    A$core_uart_apb$5499
  0C:2DB2    A$core_uart_apb$5500
  0C:2DB5    A$core_uart_apb$5501
  0C:2DB6    A$core_uart_apb$5502
  0C:2DB7    A$core_uart_apb$5503
  0C:2DBA    A$core_uart_apb$5504
  0C:2DBB    A$core_uart_apb$5507
  0C:2DBD    A$core_uart_apb$5508
  0C:2DBF    A$core_uart_apb$5509
  0C:2DC0    A$core_uart_apb$5510
  0C:2DC2    A$core_uart_apb$5511
  0C:2DC4    A$core_uart_apb$5512
  0C:2DC5    A$core_uart_apb$5514
  0C:2DC7    A$core_uart_apb$5515
  0C:2DC9    A$core_uart_apb$5516
  0C:2DCB    A$core_uart_apb$5517
  0C:2DCD    A$core_uart_apb$5518
  0C:2DCF    A$core_uart_apb$5519
  0C:2DD1    A$core_uart_apb$5520
  0C:2DD3    A$core_uart_apb$5521
  0C:2DD5    A$core_uart_apb$5522
  0C:2DD8    A$core_uart_apb$5523
  0C:2DDA    A$core_uart_apb$5524
  0C:2DDC    A$core_uart_apb$5525
  0C:2DDE    A$core_uart_apb$5526
  0C:2DE0    A$core_uart_apb$5527
  0C:2DE2    A$core_uart_apb$5528
  0C:2DE4    A$core_uart_apb$5529
  0C:2DE6    A$core_uart_apb$5531
  0C:2DE8    A$core_uart_apb$5533
  0C:2DEB    A$core_uart_apb$5534
  0C:2DED    A$core_uart_apb$5539
  0C:2DED    C$core_uart_apb.c$255$3$7
  0C:2DEE    A$core_uart_apb$5541
  0C:2DF0    A$core_uart_apb$5542
  0C:2DF3    A$core_uart_apb$5548
  0C:2DF3    C$core_uart_apb.c$257$3$7
  0C:2DF5    A$core_uart_apb$5549
  0C:2DF7    A$core_uart_apb$5550
  0C:2DF9    A$core_uart_apb$5551
  0C:2DFC    A$core_uart_apb$5552
  0C:2DFE    A$core_uart_apb$5553
  0C:2DFF    A$core_uart_apb$5554
  0C:2E02    A$core_uart_apb$5555
  0C:2E04    A$core_uart_apb$5557
  0C:2E06    A$core_uart_apb$5558
  0C:2E08    A$core_uart_apb$5559
  0C:2E0A    A$core_uart_apb$5561
  0C:2E0D    A$core_uart_apb$5562
  0C:2E0E    A$core_uart_apb$5563
  0C:2E10    A$core_uart_apb$5564
  0C:2E11    A$core_uart_apb$5565
  0C:2E12    A$core_uart_apb$5566
  0C:2E14    A$core_uart_apb$5567
  0C:2E15    A$core_uart_apb$5568
  0C:2E16    A$core_uart_apb$5569
  0C:2E18    A$core_uart_apb$5570
  0C:2E19    A$core_uart_apb$5571
  0C:2E1A    A$core_uart_apb$5572
  0C:2E1C    A$core_uart_apb$5574
  0C:2E1E    A$core_uart_apb$5575
  0C:2E20    A$core_uart_apb$5576
  0C:2E21    A$core_uart_apb$5577
  0C:2E23    A$core_uart_apb$5578
  0C:2E25    A$core_uart_apb$5579
  0C:2E26    A$core_uart_apb$5580
  0C:2E28    A$core_uart_apb$5583
  0C:2E2A    A$core_uart_apb$5584
  0C:2E2C    A$core_uart_apb$5585
  0C:2E2E    A$core_uart_apb$5586
  0C:2E31    A$core_uart_apb$5587
  0C:2E32    A$core_uart_apb$5589
  0C:2E35    A$core_uart_apb$5590
  0C:2E36    A$core_uart_apb$5591
  0C:2E37    A$core_uart_apb$5593
  0C:2E3A    A$core_uart_apb$5594
  0C:2E3D    A$core_uart_apb$5595
  0C:2E3F    A$core_uart_apb$5596
  0C:2E41    A$core_uart_apb$5597
  0C:2E43    A$core_uart_apb$5598
  0C:2E45    A$core_uart_apb$5599
  0C:2E47    A$core_uart_apb$5600
  0C:2E49    A$core_uart_apb$5601
  0C:2E4C    A$core_uart_apb$5602
  0C:2E4E    A$core_uart_apb$5603
  0C:2E50    A$core_uart_apb$5604
  0C:2E52    A$core_uart_apb$5605
  0C:2E54    A$core_uart_apb$5606
  0C:2E56    A$core_uart_apb$5607
  0C:2E58    A$core_uart_apb$5611
  0C:2E58    C$core_uart_apb.c$259$3$7
  0C:2E5B    A$core_uart_apb$5613
  0C:2E5D    A$core_uart_apb$5614
  0C:2E5F    A$core_uart_apb$5615
  0C:2E60    A$core_uart_apb$5616
  0C:2E62    A$core_uart_apb$5617
  0C:2E64    A$core_uart_apb$5618
  0C:2E65    A$core_uart_apb$5619
  0C:2E66    A$core_uart_apb$5620
  0C:2E68    A$core_uart_apb$5621
  0C:2E6A    A$core_uart_apb$5622
  0C:2E6B    A$core_uart_apb$5623
  0C:2E6C    A$core_uart_apb$5624
  0C:2E6E    A$core_uart_apb$5625
  0C:2E70    A$core_uart_apb$5626
  0C:2E71    A$core_uart_apb$5627
  0C:2E72    A$core_uart_apb$5629
  0C:2E74    A$core_uart_apb$5630
  0C:2E76    A$core_uart_apb$5631
  0C:2E78    A$core_uart_apb$5632
  0C:2E7B    A$core_uart_apb$5636
  0C:2E7B    C$core_uart_apb.c$262$2$1
  0C:2E7B    XG$UART_polled_tx_string$0$0
  0C:2E7C    A$core_uart_apb$5652
  0C:2E7C    C$core_uart_apb.c$269$2$1
  0C:2E7C    G$UART_get_rx_status$0$0
  0C:2E7C    _UART_get_rx_status
  0C:2E7E    A$core_uart_apb$5653
  0C:2E80    A$core_uart_apb$5654
  0C:2E82    A$core_uart_apb$5655
  0C:2E85    A$core_uart_apb$5656
  0C:2E86    A$core_uart_apb$5657
  0C:2E87    A$core_uart_apb$5658
  0C:2E88    A$core_uart_apb$5659
  0C:2E89    A$core_uart_apb$5660
  0C:2E8A    A$core_uart_apb$5661
  0C:2E8B    A$core_uart_apb$5662
  0C:2E8C    A$core_uart_apb$5666
  0C:2E8C    C$core_uart_apb.c$274$1$1
  0C:2E8F    A$core_uart_apb$5667
  0C:2E91    A$core_uart_apb$5668
  0C:2E92    A$core_uart_apb$5672
  0C:2E92    C$core_uart_apb.c$276$2$2
  0C:2E95    A$core_uart_apb$5673
  0C:2E96    A$core_uart_apb$5674
  0C:2E97    A$core_uart_apb$5675
  0C:2E98    A$core_uart_apb$5676
  0C:2E99    A$core_uart_apb$5677
  0C:2E9A    A$core_uart_apb$5678
  0C:2E9B    A$core_uart_apb$5679
  0C:2E9C    A$core_uart_apb$5680
  0C:2E9D    A$core_uart_apb$5683
  0C:2EA0    A$core_uart_apb$5684
  0C:2EA3    A$core_uart_apb$5685
  0C:2EA6    A$core_uart_apb$5686
  0C:2EA8    A$core_uart_apb$5688
  0C:2EAB    A$core_uart_apb$5692
  0C:2EAE    A$core_uart_apb$5693
  0C:2EB0    A$core_uart_apb$5694
  0C:2EB1    A$core_uart_apb$5697
  0C:2EB4    A$core_uart_apb$5698
  0C:2EB6    A$core_uart_apb$5699
  0C:2EB7    A$core_uart_apb$5702
  0C:2EBA    A$core_uart_apb$5703
  0C:2EBC    A$core_uart_apb$5704
  0C:2EBD    A$core_uart_apb$5707
  0C:2EC0    A$core_uart_apb$5708
  0C:2EC2    A$core_uart_apb$5709
  0C:2EC3    A$core_uart_apb$5712
  0C:2EC6    A$core_uart_apb$5713
  0C:2EC8    A$core_uart_apb$5714
  0C:2EC9    A$core_uart_apb$5717
  0C:2ECC    A$core_uart_apb$5718
  0C:2ECE    A$core_uart_apb$5719
  0C:2ECF    A$core_uart_apb$5722
  0C:2ED2    A$core_uart_apb$5723
  0C:2ED4    A$core_uart_apb$5724
  0C:2ED5    A$core_uart_apb$5727
  0C:2ED8    A$core_uart_apb$5728
  0C:2EDA    A$core_uart_apb$5729
  0C:2EDB    A$core_uart_apb$5732
  0C:2EDE    A$core_uart_apb$5733
  0C:2EE0    A$core_uart_apb$5734
  0C:2EE1    A$core_uart_apb$5737
  0C:2EE4    A$core_uart_apb$5738
  0C:2EE6    A$core_uart_apb$5739
  0C:2EE7    A$core_uart_apb$5742
  0C:2EEA    A$core_uart_apb$5743
  0C:2EEC    A$core_uart_apb$5744
  0C:2EED    A$core_uart_apb$5747
  0C:2EF0    A$core_uart_apb$5748
  0C:2EF2    A$core_uart_apb$5749
  0C:2EF3    A$core_uart_apb$5752
  0C:2EF6    A$core_uart_apb$5753
  0C:2EF8    A$core_uart_apb$5754
  0C:2EF9    A$core_uart_apb$5757
  0C:2EFC    A$core_uart_apb$5758
  0C:2EFE    A$core_uart_apb$5759
  0C:2EFF    A$core_uart_apb$5762
  0C:2F02    A$core_uart_apb$5763
  0C:2F04    A$core_uart_apb$5764
  0C:2F05    A$core_uart_apb$5767
  0C:2F08    A$core_uart_apb$5768
  0C:2F0A    A$core_uart_apb$5769
  0C:2F0B    A$core_uart_apb$5772
  0C:2F0E    A$core_uart_apb$5773
  0C:2F10    A$core_uart_apb$5774
  0C:2F11    A$core_uart_apb$5777
  0C:2F14    A$core_uart_apb$5778
  0C:2F16    A$core_uart_apb$5779
  0C:2F17    A$core_uart_apb$5782
  0C:2F1A    A$core_uart_apb$5783
  0C:2F1C    A$core_uart_apb$5784
  0C:2F1D    A$core_uart_apb$5787
  0C:2F20    A$core_uart_apb$5788
  0C:2F22    A$core_uart_apb$5789
  0C:2F23    A$core_uart_apb$5792
  0C:2F26    A$core_uart_apb$5793
  0C:2F28    A$core_uart_apb$5794
  0C:2F29    A$core_uart_apb$5797
  0C:2F2C    A$core_uart_apb$5798
  0C:2F2E    A$core_uart_apb$5799
  0C:2F2F    A$core_uart_apb$5802
  0C:2F32    A$core_uart_apb$5803
  0C:2F34    A$core_uart_apb$5804
  0C:2F35    A$core_uart_apb$5807
  0C:2F38    A$core_uart_apb$5808
  0C:2F3A    A$core_uart_apb$5809
  0C:2F3B    A$core_uart_apb$5812
  0C:2F3E    A$core_uart_apb$5813
  0C:2F40    A$core_uart_apb$5814
  0C:2F41    A$core_uart_apb$5817
  0C:2F44    A$core_uart_apb$5818
  0C:2F46    A$core_uart_apb$5819
  0C:2F47    A$core_uart_apb$5822
  0C:2F4A    A$core_uart_apb$5823
  0C:2F4C    A$core_uart_apb$5824
  0C:2F4D    A$core_uart_apb$5827
  0C:2F50    A$core_uart_apb$5828
  0C:2F52    A$core_uart_apb$5829
  0C:2F53    A$core_uart_apb$5832
  0C:2F56    A$core_uart_apb$5833
  0C:2F58    A$core_uart_apb$5834
  0C:2F59    A$core_uart_apb$5837
  0C:2F5C    A$core_uart_apb$5838
  0C:2F5E    A$core_uart_apb$5839
  0C:2F5F    A$core_uart_apb$5842
  0C:2F62    A$core_uart_apb$5843
  0C:2F64    A$core_uart_apb$5844
  0C:2F65    A$core_uart_apb$5847
  0C:2F68    A$core_uart_apb$5848
  0C:2F6A    A$core_uart_apb$5849
  0C:2F6B    A$core_uart_apb$5852
  0C:2F6E    A$core_uart_apb$5853
  0C:2F70    A$core_uart_apb$5854
  0C:2F71    A$core_uart_apb$5857
  0C:2F74    A$core_uart_apb$5858
  0C:2F76    A$core_uart_apb$5859
  0C:2F77    A$core_uart_apb$5862
  0C:2F7A    A$core_uart_apb$5863
  0C:2F7C    A$core_uart_apb$5864
  0C:2F7D    A$core_uart_apb$5867
  0C:2F80    A$core_uart_apb$5868
  0C:2F82    A$core_uart_apb$5869
  0C:2F83    A$core_uart_apb$5872
  0C:2F86    A$core_uart_apb$5873
  0C:2F88    A$core_uart_apb$5874
  0C:2F89    A$core_uart_apb$5877
  0C:2F8C    A$core_uart_apb$5878
  0C:2F8E    A$core_uart_apb$5879
  0C:2F8F    A$core_uart_apb$5882
  0C:2F92    A$core_uart_apb$5883
  0C:2F94    A$core_uart_apb$5884
  0C:2F95    A$core_uart_apb$5886
  0C:2F98    A$core_uart_apb$5887
  0C:2F9A    A$core_uart_apb$5888
  0C:2F9B    A$core_uart_apb$5889
  0C:2F9C    A$core_uart_apb$5890
  0C:2F9E    A$core_uart_apb$5891
  0C:2F9F    A$core_uart_apb$5892
  0C:2FA0    A$core_uart_apb$5893
  0C:2FA2    A$core_uart_apb$5894
  0C:2FA3    A$core_uart_apb$5895
  0C:2FA4    A$core_uart_apb$5896
  0C:2FA6    A$core_uart_apb$5897
  0C:2FA7    A$core_uart_apb$5899
  0C:2FAA    A$core_uart_apb$5900
  0C:2FAD    A$core_uart_apb$5901
  0C:2FB0    A$core_uart_apb$5902
  0C:2FB3    A$core_uart_apb$5907
  0C:2FB3    C$core_uart_apb.c$283$1$1
  0C:2FB6    A$core_uart_apb$5908
  0C:2FB7    A$core_uart_apb$5909
  0C:2FB8    A$core_uart_apb$5910
  0C:2FB9    A$core_uart_apb$5911
  0C:2FBA    A$core_uart_apb$5912
  0C:2FBB    A$core_uart_apb$5913
  0C:2FBC    A$core_uart_apb$5914
  0C:2FBD    A$core_uart_apb$5915
  0C:2FBE    A$core_uart_apb$5918
  0C:2FC1    A$core_uart_apb$5919
  0C:2FC4    A$core_uart_apb$5920
  0C:2FC7    A$core_uart_apb$5921
  0C:2FCA    A$core_uart_apb$5927
  0C:2FCA    C$core_uart_apb.c$285$2$4
  0C:2FCC    A$core_uart_apb$5928
  0C:2FCE    A$core_uart_apb$5929
  0C:2FCF    A$core_uart_apb$5930
  0C:2FD1    A$core_uart_apb$5931
  0C:2FD3    A$core_uart_apb$5932
  0C:2FD4    A$core_uart_apb$5935
  0C:2FD6    A$core_uart_apb$5936
  0C:2FD8    A$core_uart_apb$5937
  0C:2FDA    A$core_uart_apb$5938
  0C:2FDD    A$core_uart_apb$5939
  0C:2FDE    A$core_uart_apb$5941
  0C:2FE1    A$core_uart_apb$5945
  0C:2FE2    A$core_uart_apb$5946
  0C:2FE3    A$core_uart_apb$5947
  0C:2FE4    A$core_uart_apb$5948
  0C:2FE6    A$core_uart_apb$5949
  0C:2FE7    A$core_uart_apb$5951
  0C:2FEA    A$core_uart_apb$5952
  0C:2FEB    A$core_uart_apb$5953
  0C:2FEC    A$core_uart_apb$5958
  0C:2FEC    C$core_uart_apb.c$290$2$4
  0C:2FEE    A$core_uart_apb$5959
  0C:2FF0    A$core_uart_apb$5960
  0C:2FF2    A$core_uart_apb$5961
  0C:2FF4    A$core_uart_apb$5962
  0C:2FF7    A$core_uart_apb$5967
  0C:2FF7    C$core_uart_apb.c$292$1$1
  0C:2FFA    A$core_uart_apb$5968
  0C:2FFB    A$core_uart_apb$5969
  0C:2FFC    A$core_uart_apb$5971
  0C:2FFE    A$core_uart_apb$5975
  0C:2FFE    C$core_uart_apb.c$293$1$1
  0C:2FFE    XG$UART_get_rx_status$0$0
  0C:2FFF    A$core_timer$201
  0C:2FFF    C$core_timer.c$24$0$0
  0C:2FFF    G$TMR_init$0$0
  0C:2FFF    _TMR_init
  0C:3001    A$core_timer$202
  0C:3003    A$core_timer$203
  0C:3005    A$core_timer$204
  0C:3008    A$core_timer$205
  0C:3009    A$core_timer$206
  0C:300A    A$core_timer$207
  0C:300B    A$core_timer$208
  0C:300C    A$core_timer$209
  0C:300D    A$core_timer$210
  0C:300E    A$core_timer$211
  0C:300F    A$core_timer$215
  0C:300F    C$core_timer.c$33$2$2
  0C:3012    A$core_timer$216
  0C:3013    A$core_timer$217
  0C:3014    A$core_timer$218
  0C:3015    A$core_timer$219
  0C:3016    A$core_timer$220
  0C:3017    A$core_timer$221
  0C:3018    A$core_timer$222
  0C:3019    A$core_timer$223
  0C:301A    A$core_timer$225
  0C:301D    A$core_timer$226
  0C:301E    A$core_timer$227
  0C:301F    A$core_timer$228
  0C:3020    A$core_timer$229
  0C:3021    A$core_timer$230
  0C:3022    A$core_timer$231
  0C:3023    A$core_timer$232
  0C:3024    A$core_timer$233
  0C:3025    A$core_timer$236
  0C:3026    A$core_timer$237
  0C:3029    A$core_timer$238
  0C:302A    A$core_timer$239
  0C:302D    A$core_timer$240
  0C:302E    A$core_timer$241
  0C:3031    A$core_timer$242
  0C:3033    A$core_timer$244
  0C:3036    A$core_timer$248
  0C:3039    A$core_timer$249
  0C:303B    A$core_timer$250
  0C:303C    A$core_timer$253
  0C:303F    A$core_timer$254
  0C:3041    A$core_timer$255
  0C:3042    A$core_timer$258
  0C:3045    A$core_timer$259
  0C:3047    A$core_timer$260
  0C:3048    A$core_timer$263
  0C:304B    A$core_timer$264
  0C:304D    A$core_timer$265
  0C:304E    A$core_timer$268
  0C:3051    A$core_timer$269
  0C:3053    A$core_timer$270
  0C:3054    A$core_timer$273
  0C:3057    A$core_timer$274
  0C:3059    A$core_timer$275
  0C:305A    A$core_timer$278
  0C:305D    A$core_timer$279
  0C:305F    A$core_timer$280
  0C:3060    A$core_timer$283
  0C:3063    A$core_timer$284
  0C:3065    A$core_timer$285
  0C:3066    A$core_timer$288
  0C:3069    A$core_timer$289
  0C:306B    A$core_timer$290
  0C:306C    A$core_timer$293
  0C:306F    A$core_timer$294
  0C:3071    A$core_timer$295
  0C:3072    A$core_timer$298
  0C:3075    A$core_timer$299
  0C:3077    A$core_timer$300
  0C:3078    A$core_timer$303
  0C:307B    A$core_timer$304
  0C:307D    A$core_timer$305
  0C:307E    A$core_timer$308
  0C:3081    A$core_timer$309
  0C:3083    A$core_timer$310
  0C:3084    A$core_timer$313
  0C:3087    A$core_timer$314
  0C:3089    A$core_timer$315
  0C:308A    A$core_timer$318
  0C:308D    A$core_timer$319
  0C:308F    A$core_timer$320
  0C:3090    A$core_timer$323
  0C:3093    A$core_timer$324
  0C:3095    A$core_timer$325
  0C:3096    A$core_timer$328
  0C:3099    A$core_timer$329
  0C:309B    A$core_timer$330
  0C:309C    A$core_timer$333
  0C:309F    A$core_timer$334
  0C:30A1    A$core_timer$335
  0C:30A2    A$core_timer$338
  0C:30A5    A$core_timer$339
  0C:30A7    A$core_timer$340
  0C:30A8    A$core_timer$343
  0C:30AB    A$core_timer$344
  0C:30AD    A$core_timer$345
  0C:30AE    A$core_timer$348
  0C:30B1    A$core_timer$349
  0C:30B3    A$core_timer$350
  0C:30B4    A$core_timer$353
  0C:30B7    A$core_timer$354
  0C:30B9    A$core_timer$355
  0C:30BA    A$core_timer$358
  0C:30BD    A$core_timer$359
  0C:30BF    A$core_timer$360
  0C:30C0    A$core_timer$363
  0C:30C3    A$core_timer$364
  0C:30C5    A$core_timer$365
  0C:30C6    A$core_timer$368
  0C:30C9    A$core_timer$369
  0C:30CB    A$core_timer$370
  0C:30CC    A$core_timer$373
  0C:30CF    A$core_timer$374
  0C:30D1    A$core_timer$375
  0C:30D2    A$core_timer$378
  0C:30D5    A$core_timer$379
  0C:30D7    A$core_timer$380
  0C:30D8    A$core_timer$383
  0C:30DB    A$core_timer$384
  0C:30DD    A$core_timer$385
  0C:30DE    A$core_timer$388
  0C:30E1    A$core_timer$389
  0C:30E3    A$core_timer$390
  0C:30E4    A$core_timer$393
  0C:30E7    A$core_timer$394
  0C:30E9    A$core_timer$395
  0C:30EA    A$core_timer$398
  0C:30ED    A$core_timer$399
  0C:30EF    A$core_timer$400
  0C:30F0    A$core_timer$403
  0C:30F3    A$core_timer$404
  0C:30F5    A$core_timer$405
  0C:30F6    A$core_timer$408
  0C:30F9    A$core_timer$409
  0C:30FB    A$core_timer$410
  0C:30FC    A$core_timer$413
  0C:30FF    A$core_timer$414
  0C:3101    A$core_timer$415
  0C:3102    A$core_timer$417
  0C:3105    A$core_timer$418
  0C:3107    A$core_timer$419
  0C:3108    A$core_timer$420
  0C:3109    A$core_timer$421
  0C:310A    A$core_timer$422
  0C:310B    A$core_timer$423
  0C:310C    A$core_timer$424
  0C:310D    A$core_timer$425
  0C:310E    A$core_timer$426
  0C:310F    A$core_timer$428
  0C:3112    A$core_timer$429
  0C:3115    A$core_timer$430
  0C:3118    A$core_timer$431
  0C:311B    A$core_timer$436
  0C:311B    C$core_timer.c$34$2$4
  0C:311E    A$core_timer$437
  0C:311F    A$core_timer$438
  0C:3120    A$core_timer$439
  0C:3121    A$core_timer$440
  0C:3122    A$core_timer$441
  0C:3123    A$core_timer$442
  0C:3124    A$core_timer$443
  0C:3125    A$core_timer$444
  0C:3126    A$core_timer$445
  0C:3127    A$core_timer$446
  0C:3128    A$core_timer$447
  0C:3129    A$core_timer$450
  0C:312A    A$core_timer$451
  0C:312C    A$core_timer$452
  0C:312D    A$core_timer$453
  0C:312F    A$core_timer$454
  0C:3130    A$core_timer$455
  0C:3132    A$core_timer$456
  0C:3133    A$core_timer$457
  0C:3135    A$core_timer$458
  0C:3136    A$core_timer$460
  0C:3138    A$core_timer$461
  0C:313B    A$core_timer$465
  0C:313E    A$core_timer$466
  0C:3140    A$core_timer$467
  0C:3141    A$core_timer$470
  0C:3144    A$core_timer$471
  0C:3146    A$core_timer$472
  0C:3147    A$core_timer$475
  0C:314A    A$core_timer$476
  0C:314C    A$core_timer$477
  0C:314D    A$core_timer$480
  0C:3150    A$core_timer$481
  0C:3152    A$core_timer$482
  0C:3153    A$core_timer$485
  0C:3156    A$core_timer$486
  0C:3158    A$core_timer$487
  0C:3159    A$core_timer$490
  0C:315C    A$core_timer$491
  0C:315E    A$core_timer$492
  0C:315F    A$core_timer$495
  0C:3162    A$core_timer$496
  0C:3164    A$core_timer$497
  0C:3165    A$core_timer$500
  0C:3168    A$core_timer$501
  0C:316A    A$core_timer$502
  0C:316B    A$core_timer$505
  0C:316E    A$core_timer$506
  0C:3170    A$core_timer$507
  0C:3171    A$core_timer$510
  0C:3174    A$core_timer$511
  0C:3176    A$core_timer$512
  0C:3177    A$core_timer$515
  0C:317A    A$core_timer$516
  0C:317C    A$core_timer$517
  0C:317D    A$core_timer$520
  0C:3180    A$core_timer$521
  0C:3182    A$core_timer$522
  0C:3183    A$core_timer$525
  0C:3186    A$core_timer$526
  0C:3188    A$core_timer$527
  0C:3189    A$core_timer$530
  0C:318C    A$core_timer$531
  0C:318E    A$core_timer$532
  0C:318F    A$core_timer$535
  0C:3192    A$core_timer$536
  0C:3194    A$core_timer$537
  0C:3195    A$core_timer$540
  0C:3198    A$core_timer$541
  0C:319A    A$core_timer$542
  0C:319B    A$core_timer$545
  0C:319E    A$core_timer$546
  0C:31A0    A$core_timer$547
  0C:31A1    A$core_timer$550
  0C:31A4    A$core_timer$551
  0C:31A6    A$core_timer$552
  0C:31A7    A$core_timer$555
  0C:31AA    A$core_timer$556
  0C:31AC    A$core_timer$557
  0C:31AD    A$core_timer$560
  0C:31B0    A$core_timer$561
  0C:31B2    A$core_timer$562
  0C:31B3    A$core_timer$565
  0C:31B6    A$core_timer$566
  0C:31B8    A$core_timer$567
  0C:31B9    A$core_timer$570
  0C:31BC    A$core_timer$571
  0C:31BE    A$core_timer$572
  0C:31BF    A$core_timer$575
  0C:31C2    A$core_timer$576
  0C:31C4    A$core_timer$577
  0C:31C5    A$core_timer$580
  0C:31C8    A$core_timer$581
  0C:31CA    A$core_timer$582
  0C:31CB    A$core_timer$585
  0C:31CE    A$core_timer$586
  0C:31D0    A$core_timer$587
  0C:31D1    A$core_timer$590
  0C:31D4    A$core_timer$591
  0C:31D6    A$core_timer$592
  0C:31D7    A$core_timer$595
  0C:31DA    A$core_timer$596
  0C:31DC    A$core_timer$597
  0C:31DD    A$core_timer$600
  0C:31E0    A$core_timer$601
  0C:31E2    A$core_timer$602
  0C:31E3    A$core_timer$605
  0C:31E6    A$core_timer$606
  0C:31E8    A$core_timer$607
  0C:31E9    A$core_timer$610
  0C:31EC    A$core_timer$611
  0C:31EE    A$core_timer$612
  0C:31EF    A$core_timer$615
  0C:31F2    A$core_timer$616
  0C:31F4    A$core_timer$617
  0C:31F5    A$core_timer$620
  0C:31F8    A$core_timer$621
  0C:31FA    A$core_timer$622
  0C:31FB    A$core_timer$625
  0C:31FE    A$core_timer$626
  0C:3200    A$core_timer$627
  0C:3201    A$core_timer$630
  0C:3204    A$core_timer$631
  0C:3206    A$core_timer$632
  0C:3207    A$core_timer$634
  0C:320A    A$core_timer$635
  0C:320C    A$core_timer$636
  0C:320D    A$core_timer$637
  0C:320E    A$core_timer$638
  0C:320F    A$core_timer$639
  0C:3210    A$core_timer$640
  0C:3211    A$core_timer$641
  0C:3212    A$core_timer$642
  0C:3213    A$core_timer$643
  0C:3214    A$core_timer$645
  0C:3217    A$core_timer$646
  0C:321A    A$core_timer$647
  0C:321D    A$core_timer$648
  0C:321F    A$core_timer$649
  0C:3221    A$core_timer$650
  0C:3223    A$core_timer$651
  0C:3225    A$core_timer$652
  0C:3228    A$core_timer$653
  0C:322A    A$core_timer$654
  0C:322C    A$core_timer$655
  0C:322E    A$core_timer$656
  0C:3230    A$core_timer$661
  0C:3230    C$core_timer.c$35$2$6
  0C:3233    A$core_timer$662
  0C:3234    A$core_timer$663
  0C:3236    A$core_timer$664
  0C:3237    A$core_timer$665
  0C:3238    A$core_timer$666
  0C:323A    A$core_timer$667
  0C:323B    A$core_timer$668
  0C:323C    A$core_timer$669
  0C:323E    A$core_timer$670
  0C:323F    A$core_timer$671
  0C:3240    A$core_timer$672
  0C:3242    A$core_timer$675
  0C:3244    A$core_timer$676
  0C:3246    A$core_timer$677
  0C:3248    A$core_timer$678
  0C:324A    A$core_timer$679
  0C:324C    A$core_timer$680
  0C:324E    A$core_timer$681
  0C:3250    A$core_timer$682
  0C:3252    A$core_timer$683
  0C:3254    A$core_timer$685
  0C:3257    A$core_timer$689
  0C:325A    A$core_timer$690
  0C:325C    A$core_timer$691
  0C:325D    A$core_timer$694
  0C:3260    A$core_timer$695
  0C:3262    A$core_timer$696
  0C:3263    A$core_timer$699
  0C:3266    A$core_timer$700
  0C:3268    A$core_timer$701
  0C:3269    A$core_timer$704
  0C:326C    A$core_timer$705
  0C:326E    A$core_timer$706
  0C:326F    A$core_timer$709
  0C:3272    A$core_timer$710
  0C:3274    A$core_timer$711
  0C:3275    A$core_timer$714
  0C:3278    A$core_timer$715
  0C:327A    A$core_timer$716
  0C:327B    A$core_timer$719
  0C:327E    A$core_timer$720
  0C:3280    A$core_timer$721
  0C:3281    A$core_timer$724
  0C:3284    A$core_timer$725
  0C:3286    A$core_timer$726
  0C:3287    A$core_timer$729
  0C:328A    A$core_timer$730
  0C:328C    A$core_timer$731
  0C:328D    A$core_timer$734
  0C:3290    A$core_timer$735
  0C:3292    A$core_timer$736
  0C:3293    A$core_timer$739
  0C:3296    A$core_timer$740
  0C:3298    A$core_timer$741
  0C:3299    A$core_timer$744
  0C:329C    A$core_timer$745
  0C:329E    A$core_timer$746
  0C:329F    A$core_timer$749
  0C:32A2    A$core_timer$750
  0C:32A4    A$core_timer$751
  0C:32A5    A$core_timer$754
  0C:32A8    A$core_timer$755
  0C:32AA    A$core_timer$756
  0C:32AB    A$core_timer$759
  0C:32AE    A$core_timer$760
  0C:32B0    A$core_timer$761
  0C:32B1    A$core_timer$764
  0C:32B4    A$core_timer$765
  0C:32B6    A$core_timer$766
  0C:32B7    A$core_timer$769
  0C:32BA    A$core_timer$770
  0C:32BC    A$core_timer$771
  0C:32BD    A$core_timer$774
  0C:32C0    A$core_timer$775
  0C:32C2    A$core_timer$776
  0C:32C3    A$core_timer$779
  0C:32C6    A$core_timer$780
  0C:32C8    A$core_timer$781
  0C:32C9    A$core_timer$784
  0C:32CC    A$core_timer$785
  0C:32CE    A$core_timer$786
  0C:32CF    A$core_timer$789
  0C:32D2    A$core_timer$790
  0C:32D4    A$core_timer$791
  0C:32D5    A$core_timer$794
  0C:32D8    A$core_timer$795
  0C:32DA    A$core_timer$796
  0C:32DB    A$core_timer$799
  0C:32DE    A$core_timer$800
  0C:32E0    A$core_timer$801
  0C:32E1    A$core_timer$804
  0C:32E4    A$core_timer$805
  0C:32E6    A$core_timer$806
  0C:32E7    A$core_timer$809
  0C:32EA    A$core_timer$810
  0C:32EC    A$core_timer$811
  0C:32ED    A$core_timer$814
  0C:32F0    A$core_timer$815
  0C:32F2    A$core_timer$816
  0C:32F3    A$core_timer$819
  0C:32F6    A$core_timer$820
  0C:32F8    A$core_timer$821
  0C:32F9    A$core_timer$824
  0C:32FC    A$core_timer$825
  0C:32FE    A$core_timer$826
  0C:32FF    A$core_timer$829
  0C:3302    A$core_timer$830
  0C:3304    A$core_timer$831
  0C:3305    A$core_timer$834
  0C:3308    A$core_timer$835
  0C:330A    A$core_timer$836
  0C:330B    A$core_timer$839
  0C:330E    A$core_timer$840
  0C:3310    A$core_timer$841
  0C:3311    A$core_timer$844
  0C:3314    A$core_timer$845
  0C:3316    A$core_timer$846
  0C:3317    A$core_timer$849
  0C:331A    A$core_timer$850
  0C:331C    A$core_timer$851
  0C:331D    A$core_timer$854
  0C:3320    A$core_timer$855
  0C:3322    A$core_timer$856
  0C:3323    A$core_timer$858
  0C:3326    A$core_timer$859
  0C:3328    A$core_timer$860
  0C:3329    A$core_timer$861
  0C:332A    A$core_timer$862
  0C:332B    A$core_timer$863
  0C:332C    A$core_timer$864
  0C:332D    A$core_timer$865
  0C:332E    A$core_timer$866
  0C:332F    A$core_timer$867
  0C:3330    A$core_timer$869
  0C:3333    A$core_timer$870
  0C:3336    A$core_timer$871
  0C:3339    A$core_timer$872
  0C:333B    A$core_timer$873
  0C:333D    A$core_timer$874
  0C:333F    A$core_timer$875
  0C:3341    A$core_timer$876
  0C:3344    A$core_timer$877
  0C:3346    A$core_timer$878
  0C:3348    A$core_timer$879
  0C:334A    A$core_timer$880
  0C:334C    A$core_timer$885
  0C:334C    C$core_timer.c$37$1$1
  0C:334F    A$core_timer$886
  0C:3350    A$core_timer$887
  0C:3351    A$core_timer$888
  0C:3352    A$core_timer$889
  0C:3353    A$core_timer$890
  0C:3354    A$core_timer$891
  0C:3355    A$core_timer$892
  0C:3356    A$core_timer$893
  0C:3357    A$core_timer$895
  0C:335A    A$core_timer$896
  0C:335B    A$core_timer$897
  0C:335D    A$core_timer$898
  0C:335E    A$core_timer$899
  0C:335F    A$core_timer$900
  0C:3361    A$core_timer$903
  0C:3363    A$core_timer$904
  0C:3365    A$core_timer$905
  0C:3367    A$core_timer$906
  0C:3369    A$core_timer$907
  0C:336C    A$core_timer$908
  0C:336D    A$core_timer$909
  0C:336F    A$core_timer$910
  0C:3372    A$core_timer$915
  0C:3372    C$core_timer.c$40$1$1
  0C:3374    A$core_timer$916
  0C:3376    A$core_timer$917
  0C:3377    A$core_timer$918
  0C:3379    A$core_timer$919
  0C:337B    A$core_timer$920
  0C:337C    A$core_timer$922
  0C:337F    A$core_timer$923
  0C:3381    A$core_timer$924
  0C:3382    A$core_timer$926
  0C:3385    A$core_timer$927
  0C:3387    A$core_timer$928
  0C:3388    A$core_timer$929
  0C:3389    A$core_timer$930
  0C:338A    A$core_timer$931
  0C:338B    A$core_timer$932
  0C:338C    A$core_timer$933
  0C:338D    A$core_timer$934
  0C:338E    A$core_timer$935
  0C:338F    A$core_timer$937
  0C:3392    A$core_timer$938
  0C:3393    A$core_timer$939
  0C:3394    A$core_timer$940
  0C:3395    A$core_timer$941
  0C:3396    A$core_timer$942
  0C:3397    A$core_timer$943
  0C:3398    A$core_timer$944
  0C:3399    A$core_timer$945
  0C:339A    A$core_timer$947
  0C:339C    A$core_timer$948
  0C:339E    A$core_timer$949
  0C:33A0    A$core_timer$950
  0C:33A2    A$core_timer$951
  0C:33A4    A$core_timer$952
  0C:33A6    A$core_timer$953
  0C:33A8    A$core_timer$954
  0C:33AA    A$core_timer$955
  0C:33AD    A$core_timer$956
  0C:33AF    A$core_timer$957
  0C:33B1    A$core_timer$958
  0C:33B3    A$core_timer$959
  0C:33B5    A$core_timer$960
  0C:33B7    A$core_timer$961
  0C:33B9    A$core_timer$965
  0C:33B9    C$core_timer.c$43$1$1
  0C:33BC    A$core_timer$966
  0C:33BE    A$core_timer$967
  0C:33BF    A$core_timer$969
  0C:33C2    A$core_timer$970
  0C:33C4    A$core_timer$971
  0C:33C5    A$core_timer$972
  0C:33C6    A$core_timer$973
  0C:33C7    A$core_timer$974
  0C:33C8    A$core_timer$975
  0C:33C9    A$core_timer$976
  0C:33CA    A$core_timer$977
  0C:33CB    A$core_timer$978
  0C:33CC    A$core_timer$980
  0C:33CF    A$core_timer$981
  0C:33D0    A$core_timer$982
  0C:33D1    A$core_timer$983
  0C:33D2    A$core_timer$984
  0C:33D3    A$core_timer$985
  0C:33D4    A$core_timer$986
  0C:33D5    A$core_timer$987
  0C:33D6    A$core_timer$988
  0C:33D7    A$core_timer$990
  0C:33D9    A$core_timer$991
  0C:33DB    A$core_timer$992
  0C:33DD    A$core_timer$993
  0C:33DF    A$core_timer$994
  0C:33E1    A$core_timer$995
  0C:33E3    A$core_timer$996
  0C:33E6    A$core_timer$997
  0C:33E8    A$core_timer$998
  0C:33EA    A$core_timer$999
  0C:33EC    A$core_timer$1000
  0C:33EE    A$core_timer$1005
  0C:33EE    C$core_timer.c$46$1$1
  0C:33F0    A$core_timer$1006
  0C:33F2    A$core_timer$1007
  0C:33F3    A$core_timer$1008
  0C:33F5    A$core_timer$1009
  0C:33F7    A$core_timer$1010
  0C:33F8    A$core_timer$1012
  0C:33FB    A$core_timer$1013
  0C:33FD    A$core_timer$1014
  0C:33FE    A$core_timer$1015
  0C:33FF    A$core_timer$1016
  0C:3400    A$core_timer$1017
  0C:3401    A$core_timer$1018
  0C:3402    A$core_timer$1019
  0C:3403    A$core_timer$1020
  0C:3404    A$core_timer$1021
  0C:3405    A$core_timer$1023
  0C:3407    A$core_timer$1024
  0C:3409    A$core_timer$1025
  0C:340B    A$core_timer$1026
  0C:340D    A$core_timer$1027
  0C:340F    A$core_timer$1028
  0C:3411    A$core_timer$1029
  0C:3414    A$core_timer$1030
  0C:3416    A$core_timer$1031
  0C:3418    A$core_timer$1032
  0C:341A    A$core_timer$1033
  0C:341C    A$core_timer$1038
  0C:341C    C$core_timer.c$49$1$1
  0C:341E    A$core_timer$1039
  0C:3420    A$core_timer$1040
  0C:3421    A$core_timer$1041
  0C:3423    A$core_timer$1042
  0C:3425    A$core_timer$1043
  0C:3426    A$core_timer$1045
  0C:3429    A$core_timer$1046
  0C:342A    A$core_timer$1047
  0C:342B    A$core_timer$1048
  0C:342C    A$core_timer$1049
  0C:342D    A$core_timer$1050
  0C:342E    A$core_timer$1051
  0C:342F    A$core_timer$1052
  0C:3430    A$core_timer$1053
  0C:3431    A$core_timer$1054
  0C:3432    A$core_timer$1055
  0C:3433    A$core_timer$1056
  0C:3434    A$core_timer$1058
  0C:3436    A$core_timer$1059
  0C:3438    A$core_timer$1060
  0C:343B    A$core_timer$1064
  0C:343B    C$core_timer.c$50$1$1
  0C:343E    A$core_timer$1065
  0C:3440    A$core_timer$1066
  0C:3441    A$core_timer$1067
  0C:3442    A$core_timer$1068
  0C:3444    A$core_timer$1069
  0C:3445    A$core_timer$1070
  0C:3446    A$core_timer$1071
  0C:3448    A$core_timer$1072
  0C:3449    A$core_timer$1073
  0C:344A    A$core_timer$1074
  0C:344C    A$core_timer$1075
  0C:344D    A$core_timer$1077
  0C:3450    A$core_timer$1078
  0C:3453    A$core_timer$1079
  0C:3456    A$core_timer$1083
  0C:3456    C$core_timer.c$53$1$1
  0C:3459    A$core_timer$1084
  0C:345A    A$core_timer$1085
  0C:345B    A$core_timer$1087
  0C:345C    A$core_timer$1089
  0C:345E    A$core_timer$1090
  0C:3461    A$core_timer$1096
  0C:3461    C$core_timer.c$55$2$8
  0C:3463    A$core_timer$1097
  0C:3465    A$core_timer$1098
  0C:3466    A$core_timer$1099
  0C:3468    A$core_timer$1100
  0C:346A    A$core_timer$1101
  0C:346B    A$core_timer$1103
  0C:346E    A$core_timer$1104
  0C:3470    A$core_timer$1105
  0C:3471    A$core_timer$1107
  0C:3474    A$core_timer$1108
  0C:3476    A$core_timer$1109
  0C:3477    A$core_timer$1110
  0C:3478    A$core_timer$1111
  0C:3479    A$core_timer$1112
  0C:347A    A$core_timer$1113
  0C:347B    A$core_timer$1114
  0C:347C    A$core_timer$1115
  0C:347D    A$core_timer$1116
  0C:347E    A$core_timer$1118
  0C:3481    A$core_timer$1119
  0C:3482    A$core_timer$1120
  0C:3483    A$core_timer$1121
  0C:3484    A$core_timer$1122
  0C:3485    A$core_timer$1123
  0C:3486    A$core_timer$1124
  0C:3487    A$core_timer$1125
  0C:3488    A$core_timer$1126
  0C:3489    A$core_timer$1128
  0C:348B    A$core_timer$1129
  0C:348D    A$core_timer$1130
  0C:3490    A$core_timer$1131
  0C:3493    A$core_timer$1137
  0C:3493    C$core_timer.c$60$2$9
  0C:3495    A$core_timer$1138
  0C:3497    A$core_timer$1139
  0C:3498    A$core_timer$1140
  0C:349A    A$core_timer$1141
  0C:349C    A$core_timer$1142
  0C:349D    A$core_timer$1144
  0C:34A0    A$core_timer$1145
  0C:34A2    A$core_timer$1146
  0C:34A3    A$core_timer$1148
  0C:34A6    A$core_timer$1149
  0C:34A8    A$core_timer$1150
  0C:34A9    A$core_timer$1151
  0C:34AA    A$core_timer$1152
  0C:34AB    A$core_timer$1153
  0C:34AC    A$core_timer$1154
  0C:34AD    A$core_timer$1155
  0C:34AE    A$core_timer$1156
  0C:34AF    A$core_timer$1157
  0C:34B0    A$core_timer$1159
  0C:34B3    A$core_timer$1160
  0C:34B5    A$core_timer$1161
  0C:34B6    A$core_timer$1162
  0C:34B7    A$core_timer$1163
  0C:34B8    A$core_timer$1164
  0C:34B9    A$core_timer$1165
  0C:34BA    A$core_timer$1166
  0C:34BB    A$core_timer$1167
  0C:34BC    A$core_timer$1168
  0C:34BD    A$core_timer$1170
  0C:34BF    A$core_timer$1171
  0C:34C1    A$core_timer$1172
  0C:34C4    A$core_timer$1176
  0C:34C4    C$core_timer.c$62$1$1
  0C:34C4    XG$TMR_init$0$0
  0C:34C5    A$core_timer$1191
  0C:34C5    C$core_timer.c$69$1$1
  0C:34C5    G$TMR_start$0$0
  0C:34C5    _TMR_start
  0C:34C7    A$core_timer$1192
  0C:34C9    A$core_timer$1193
  0C:34CB    A$core_timer$1194
  0C:34CE    A$core_timer$1195
  0C:34CF    A$core_timer$1196
  0C:34D0    A$core_timer$1197
  0C:34D1    A$core_timer$1198
  0C:34D2    A$core_timer$1199
  0C:34D3    A$core_timer$1200
  0C:34D4    A$core_timer$1201
  0C:34D5    A$core_timer$1205
  0C:34D5    C$core_timer.c$74$2$2
  0C:34D8    A$core_timer$1206
  0C:34D9    A$core_timer$1207
  0C:34DA    A$core_timer$1208
  0C:34DB    A$core_timer$1209
  0C:34DC    A$core_timer$1210
  0C:34DD    A$core_timer$1211
  0C:34DE    A$core_timer$1212
  0C:34DF    A$core_timer$1213
  0C:34E0    A$core_timer$1215
  0C:34E3    A$core_timer$1216
  0C:34E4    A$core_timer$1217
  0C:34E5    A$core_timer$1218
  0C:34E6    A$core_timer$1219
  0C:34E7    A$core_timer$1220
  0C:34E8    A$core_timer$1221
  0C:34E9    A$core_timer$1222
  0C:34EA    A$core_timer$1223
  0C:34EB    A$core_timer$1226
  0C:34EC    A$core_timer$1227
  0C:34EF    A$core_timer$1228
  0C:34F0    A$core_timer$1229
  0C:34F3    A$core_timer$1230
  0C:34F4    A$core_timer$1231
  0C:34F7    A$core_timer$1232
  0C:34F9    A$core_timer$1234
  0C:34FC    A$core_timer$1238
  0C:34FF    A$core_timer$1239
  0C:3501    A$core_timer$1240
  0C:3502    A$core_timer$1243
  0C:3505    A$core_timer$1244
  0C:3507    A$core_timer$1245
  0C:3508    A$core_timer$1248
  0C:350B    A$core_timer$1249
  0C:350D    A$core_timer$1250
  0C:350E    A$core_timer$1253
  0C:3511    A$core_timer$1254
  0C:3513    A$core_timer$1255
  0C:3514    A$core_timer$1258
  0C:3517    A$core_timer$1259
  0C:3519    A$core_timer$1260
  0C:351A    A$core_timer$1263
  0C:351D    A$core_timer$1264
  0C:351F    A$core_timer$1265
  0C:3520    A$core_timer$1268
  0C:3523    A$core_timer$1269
  0C:3525    A$core_timer$1270
  0C:3526    A$core_timer$1273
  0C:3529    A$core_timer$1274
  0C:352B    A$core_timer$1275
  0C:352C    A$core_timer$1278
  0C:352F    A$core_timer$1279
  0C:3531    A$core_timer$1280
  0C:3532    A$core_timer$1283
  0C:3535    A$core_timer$1284
  0C:3537    A$core_timer$1285
  0C:3538    A$core_timer$1288
  0C:353B    A$core_timer$1289
  0C:353D    A$core_timer$1290
  0C:353E    A$core_timer$1293
  0C:3541    A$core_timer$1294
  0C:3543    A$core_timer$1295
  0C:3544    A$core_timer$1298
  0C:3547    A$core_timer$1299
  0C:3549    A$core_timer$1300
  0C:354A    A$core_timer$1303
  0C:354D    A$core_timer$1304
  0C:354F    A$core_timer$1305
  0C:3550    A$core_timer$1308
  0C:3553    A$core_timer$1309
  0C:3555    A$core_timer$1310
  0C:3556    A$core_timer$1313
  0C:3559    A$core_timer$1314
  0C:355B    A$core_timer$1315
  0C:355C    A$core_timer$1318
  0C:355F    A$core_timer$1319
  0C:3561    A$core_timer$1320
  0C:3562    A$core_timer$1323
  0C:3565    A$core_timer$1324
  0C:3567    A$core_timer$1325
  0C:3568    A$core_timer$1328
  0C:356B    A$core_timer$1329
  0C:356D    A$core_timer$1330
  0C:356E    A$core_timer$1333
  0C:3571    A$core_timer$1334
  0C:3573    A$core_timer$1335
  0C:3574    A$core_timer$1338
  0C:3577    A$core_timer$1339
  0C:3579    A$core_timer$1340
  0C:357A    A$core_timer$1343
  0C:357D    A$core_timer$1344
  0C:357F    A$core_timer$1345
  0C:3580    A$core_timer$1348
  0C:3583    A$core_timer$1349
  0C:3585    A$core_timer$1350
  0C:3586    A$core_timer$1353
  0C:3589    A$core_timer$1354
  0C:358B    A$core_timer$1355
  0C:358C    A$core_timer$1358
  0C:358F    A$core_timer$1359
  0C:3591    A$core_timer$1360
  0C:3592    A$core_timer$1363
  0C:3595    A$core_timer$1364
  0C:3597    A$core_timer$1365
  0C:3598    A$core_timer$1368
  0C:359B    A$core_timer$1369
  0C:359D    A$core_timer$1370
  0C:359E    A$core_timer$1373
  0C:35A1    A$core_timer$1374
  0C:35A3    A$core_timer$1375
  0C:35A4    A$core_timer$1378
  0C:35A7    A$core_timer$1379
  0C:35A9    A$core_timer$1380
  0C:35AA    A$core_timer$1383
  0C:35AD    A$core_timer$1384
  0C:35AF    A$core_timer$1385
  0C:35B0    A$core_timer$1388
  0C:35B3    A$core_timer$1389
  0C:35B5    A$core_timer$1390
  0C:35B6    A$core_timer$1393
  0C:35B9    A$core_timer$1394
  0C:35BB    A$core_timer$1395
  0C:35BC    A$core_timer$1398
  0C:35BF    A$core_timer$1399
  0C:35C1    A$core_timer$1400
  0C:35C2    A$core_timer$1403
  0C:35C5    A$core_timer$1404
  0C:35C7    A$core_timer$1405
  0C:35C8    A$core_timer$1407
  0C:35CB    A$core_timer$1408
  0C:35CD    A$core_timer$1409
  0C:35CE    A$core_timer$1410
  0C:35CF    A$core_timer$1411
  0C:35D0    A$core_timer$1412
  0C:35D1    A$core_timer$1413
  0C:35D2    A$core_timer$1414
  0C:35D3    A$core_timer$1415
  0C:35D4    A$core_timer$1416
  0C:35D5    A$core_timer$1418
  0C:35D8    A$core_timer$1419
  0C:35DB    A$core_timer$1420
  0C:35DE    A$core_timer$1421
  0C:35E1    A$core_timer$1426
  0C:35E1    C$core_timer.c$76$1$1
  0C:35E4    A$core_timer$1427
  0C:35E5    A$core_timer$1428
  0C:35E6    A$core_timer$1429
  0C:35E7    A$core_timer$1430
  0C:35E8    A$core_timer$1431
  0C:35E9    A$core_timer$1432
  0C:35EA    A$core_timer$1433
  0C:35EB    A$core_timer$1434
  0C:35EC    A$core_timer$1437
  0C:35EE    A$core_timer$1438
  0C:35F0    A$core_timer$1439
  0C:35F2    A$core_timer$1440
  0C:35F5    A$core_timer$1441
  0C:35F6    A$core_timer$1442
  0C:35F7    A$core_timer$1443
  0C:35FA    A$core_timer$1444
  0C:35FB    A$core_timer$1447
  0C:35FD    A$core_timer$1448
  0C:35FF    A$core_timer$1449
  0C:3600    A$core_timer$1450
  0C:3602    A$core_timer$1451
  0C:3604    A$core_timer$1452
  0C:3605    A$core_timer$1454
  0C:3608    A$core_timer$1455
  0C:360A    A$core_timer$1456
  0C:360B    A$core_timer$1458
  0C:360E    A$core_timer$1459
  0C:3610    A$core_timer$1460
  0C:3611    A$core_timer$1461
  0C:3612    A$core_timer$1462
  0C:3613    A$core_timer$1463
  0C:3614    A$core_timer$1464
  0C:3615    A$core_timer$1465
  0C:3616    A$core_timer$1466
  0C:3617    A$core_timer$1467
  0C:3618    A$core_timer$1469
  0C:361B    A$core_timer$1470
  0C:361D    A$core_timer$1471
  0C:361E    A$core_timer$1472
  0C:361F    A$core_timer$1473
  0C:3620    A$core_timer$1474
  0C:3621    A$core_timer$1475
  0C:3622    A$core_timer$1476
  0C:3623    A$core_timer$1477
  0C:3624    A$core_timer$1478
  0C:3625    A$core_timer$1480
  0C:3627    A$core_timer$1481
  0C:3629    A$core_timer$1482
  0C:362C    A$core_timer$1486
  0C:362C    C$core_timer.c$77$1$1
  0C:362C    XG$TMR_start$0$0
  0C:362D    A$core_timer$1501
  0C:362D    C$core_timer.c$84$1$1
  0C:362D    G$TMR_stop$0$0
  0C:362D    _TMR_stop
  0C:362F    A$core_timer$1502
  0C:3631    A$core_timer$1503
  0C:3633    A$core_timer$1504
  0C:3636    A$core_timer$1505
  0C:3637    A$core_timer$1506
  0C:3638    A$core_timer$1507
  0C:3639    A$core_timer$1508
  0C:363A    A$core_timer$1509
  0C:363B    A$core_timer$1510
  0C:363C    A$core_timer$1511
  0C:363D    A$core_timer$1515
  0C:363D    C$core_timer.c$89$2$2
  0C:3640    A$core_timer$1516
  0C:3641    A$core_timer$1517
  0C:3642    A$core_timer$1518
  0C:3643    A$core_timer$1519
  0C:3644    A$core_timer$1520
  0C:3645    A$core_timer$1521
  0C:3646    A$core_timer$1522
  0C:3647    A$core_timer$1523
  0C:3648    A$core_timer$1525
  0C:364B    A$core_timer$1526
  0C:364C    A$core_timer$1527
  0C:364D    A$core_timer$1528
  0C:364E    A$core_timer$1529
  0C:364F    A$core_timer$1530
  0C:3650    A$core_timer$1531
  0C:3651    A$core_timer$1532
  0C:3652    A$core_timer$1533
  0C:3653    A$core_timer$1536
  0C:3654    A$core_timer$1537
  0C:3657    A$core_timer$1538
  0C:3658    A$core_timer$1539
  0C:365B    A$core_timer$1540
  0C:365C    A$core_timer$1541
  0C:365F    A$core_timer$1542
  0C:3661    A$core_timer$1544
  0C:3664    A$core_timer$1548
  0C:3667    A$core_timer$1549
  0C:3669    A$core_timer$1550
  0C:366A    A$core_timer$1553
  0C:366D    A$core_timer$1554
  0C:366F    A$core_timer$1555
  0C:3670    A$core_timer$1558
  0C:3673    A$core_timer$1559
  0C:3675    A$core_timer$1560
  0C:3676    A$core_timer$1563
  0C:3679    A$core_timer$1564
  0C:367B    A$core_timer$1565
  0C:367C    A$core_timer$1568
  0C:367F    A$core_timer$1569
  0C:3681    A$core_timer$1570
  0C:3682    A$core_timer$1573
  0C:3685    A$core_timer$1574
  0C:3687    A$core_timer$1575
  0C:3688    A$core_timer$1578
  0C:368B    A$core_timer$1579
  0C:368D    A$core_timer$1580
  0C:368E    A$core_timer$1583
  0C:3691    A$core_timer$1584
  0C:3693    A$core_timer$1585
  0C:3694    A$core_timer$1588
  0C:3697    A$core_timer$1589
  0C:3699    A$core_timer$1590
  0C:369A    A$core_timer$1593
  0C:369D    A$core_timer$1594
  0C:369F    A$core_timer$1595
  0C:36A0    A$core_timer$1598
  0C:36A3    A$core_timer$1599
  0C:36A5    A$core_timer$1600
  0C:36A6    A$core_timer$1603
  0C:36A9    A$core_timer$1604
  0C:36AB    A$core_timer$1605
  0C:36AC    A$core_timer$1608
  0C:36AF    A$core_timer$1609
  0C:36B1    A$core_timer$1610
  0C:36B2    A$core_timer$1613
  0C:36B5    A$core_timer$1614
  0C:36B7    A$core_timer$1615
  0C:36B8    A$core_timer$1618
  0C:36BB    A$core_timer$1619
  0C:36BD    A$core_timer$1620
  0C:36BE    A$core_timer$1623
  0C:36C1    A$core_timer$1624
  0C:36C3    A$core_timer$1625
  0C:36C4    A$core_timer$1628
  0C:36C7    A$core_timer$1629
  0C:36C9    A$core_timer$1630
  0C:36CA    A$core_timer$1633
  0C:36CD    A$core_timer$1634
  0C:36CF    A$core_timer$1635
  0C:36D0    A$core_timer$1638
  0C:36D3    A$core_timer$1639
  0C:36D5    A$core_timer$1640
  0C:36D6    A$core_timer$1643
  0C:36D9    A$core_timer$1644
  0C:36DB    A$core_timer$1645
  0C:36DC    A$core_timer$1648
  0C:36DF    A$core_timer$1649
  0C:36E1    A$core_timer$1650
  0C:36E2    A$core_timer$1653
  0C:36E5    A$core_timer$1654
  0C:36E7    A$core_timer$1655
  0C:36E8    A$core_timer$1658
  0C:36EB    A$core_timer$1659
  0C:36ED    A$core_timer$1660
  0C:36EE    A$core_timer$1663
  0C:36F1    A$core_timer$1664
  0C:36F3    A$core_timer$1665
  0C:36F4    A$core_timer$1668
  0C:36F7    A$core_timer$1669
  0C:36F9    A$core_timer$1670
  0C:36FA    A$core_timer$1673
  0C:36FD    A$core_timer$1674
  0C:36FF    A$core_timer$1675
  0C:3700    A$core_timer$1678
  0C:3703    A$core_timer$1679
  0C:3705    A$core_timer$1680
  0C:3706    A$core_timer$1683
  0C:3709    A$core_timer$1684
  0C:370B    A$core_timer$1685
  0C:370C    A$core_timer$1688
  0C:370F    A$core_timer$1689
  0C:3711    A$core_timer$1690
  0C:3712    A$core_timer$1693
  0C:3715    A$core_timer$1694
  0C:3717    A$core_timer$1695
  0C:3718    A$core_timer$1698
  0C:371B    A$core_timer$1699
  0C:371D    A$core_timer$1700
  0C:371E    A$core_timer$1703
  0C:3721    A$core_timer$1704
  0C:3723    A$core_timer$1705
  0C:3724    A$core_timer$1708
  0C:3727    A$core_timer$1709
  0C:3729    A$core_timer$1710
  0C:372A    A$core_timer$1713
  0C:372D    A$core_timer$1714
  0C:372F    A$core_timer$1715
  0C:3730    A$core_timer$1717
  0C:3733    A$core_timer$1718
  0C:3735    A$core_timer$1719
  0C:3736    A$core_timer$1720
  0C:3737    A$core_timer$1721
  0C:3738    A$core_timer$1722
  0C:3739    A$core_timer$1723
  0C:373A    A$core_timer$1724
  0C:373B    A$core_timer$1725
  0C:373C    A$core_timer$1726
  0C:373D    A$core_timer$1728
  0C:3740    A$core_timer$1729
  0C:3743    A$core_timer$1730
  0C:3746    A$core_timer$1731
  0C:3749    A$core_timer$1736
  0C:3749    C$core_timer.c$91$1$1
  0C:374C    A$core_timer$1737
  0C:374D    A$core_timer$1738
  0C:374E    A$core_timer$1739
  0C:374F    A$core_timer$1740
  0C:3750    A$core_timer$1741
  0C:3751    A$core_timer$1742
  0C:3752    A$core_timer$1743
  0C:3753    A$core_timer$1744
  0C:3754    A$core_timer$1747
  0C:3756    A$core_timer$1748
  0C:3758    A$core_timer$1749
  0C:375A    A$core_timer$1750
  0C:375D    A$core_timer$1751
  0C:375E    A$core_timer$1752
  0C:375F    A$core_timer$1753
  0C:3762    A$core_timer$1754
  0C:3763    A$core_timer$1757
  0C:3765    A$core_timer$1758
  0C:3767    A$core_timer$1759
  0C:3768    A$core_timer$1760
  0C:376A    A$core_timer$1761
  0C:376C    A$core_timer$1762
  0C:376D    A$core_timer$1764
  0C:3770    A$core_timer$1765
  0C:3772    A$core_timer$1766
  0C:3773    A$core_timer$1768
  0C:3776    A$core_timer$1769
  0C:3778    A$core_timer$1770
  0C:3779    A$core_timer$1771
  0C:377A    A$core_timer$1772
  0C:377B    A$core_timer$1773
  0C:377C    A$core_timer$1774
  0C:377D    A$core_timer$1775
  0C:377E    A$core_timer$1776
  0C:377F    A$core_timer$1777
  0C:3780    A$core_timer$1779
  0C:3783    A$core_timer$1780
  0C:3784    A$core_timer$1781
  0C:3785    A$core_timer$1782
  0C:3786    A$core_timer$1783
  0C:3787    A$core_timer$1784
  0C:3788    A$core_timer$1785
  0C:3789    A$core_timer$1786
  0C:378A    A$core_timer$1787
  0C:378B    A$core_timer$1789
  0C:378D    A$core_timer$1790
  0C:378F    A$core_timer$1791
  0C:3792    A$core_timer$1795
  0C:3792    C$core_timer.c$92$1$1
  0C:3792    XG$TMR_stop$0$0
  0C:3793    A$core_timer$1810
  0C:3793    C$core_timer.c$100$1$1
  0C:3793    G$TMR_enable_int$0$0
  0C:3793    _TMR_enable_int
  0C:3795    A$core_timer$1811
  0C:3797    A$core_timer$1812
  0C:3799    A$core_timer$1813
  0C:379C    A$core_timer$1814
  0C:379D    A$core_timer$1815
  0C:379E    A$core_timer$1816
  0C:379F    A$core_timer$1817
  0C:37A0    A$core_timer$1818
  0C:37A1    A$core_timer$1819
  0C:37A2    A$core_timer$1820
  0C:37A3    A$core_timer$1824
  0C:37A3    C$core_timer.c$105$2$2
  0C:37A6    A$core_timer$1825
  0C:37A7    A$core_timer$1826
  0C:37A8    A$core_timer$1827
  0C:37A9    A$core_timer$1828
  0C:37AA    A$core_timer$1829
  0C:37AB    A$core_timer$1830
  0C:37AC    A$core_timer$1831
  0C:37AD    A$core_timer$1832
  0C:37AE    A$core_timer$1834
  0C:37B1    A$core_timer$1835
  0C:37B2    A$core_timer$1836
  0C:37B3    A$core_timer$1837
  0C:37B4    A$core_timer$1838
  0C:37B5    A$core_timer$1839
  0C:37B6    A$core_timer$1840
  0C:37B7    A$core_timer$1841
  0C:37B8    A$core_timer$1842
  0C:37B9    A$core_timer$1845
  0C:37BA    A$core_timer$1846
  0C:37BD    A$core_timer$1847
  0C:37BE    A$core_timer$1848
  0C:37C1    A$core_timer$1849
  0C:37C2    A$core_timer$1850
  0C:37C5    A$core_timer$1851
  0C:37C7    A$core_timer$1853
  0C:37CA    A$core_timer$1857
  0C:37CD    A$core_timer$1858
  0C:37CF    A$core_timer$1859
  0C:37D0    A$core_timer$1862
  0C:37D3    A$core_timer$1863
  0C:37D5    A$core_timer$1864
  0C:37D6    A$core_timer$1867
  0C:37D9    A$core_timer$1868
  0C:37DB    A$core_timer$1869
  0C:37DC    A$core_timer$1872
  0C:37DF    A$core_timer$1873
  0C:37E1    A$core_timer$1874
  0C:37E2    A$core_timer$1877
  0C:37E5    A$core_timer$1878
  0C:37E7    A$core_timer$1879
  0C:37E8    A$core_timer$1882
  0C:37EB    A$core_timer$1883
  0C:37ED    A$core_timer$1884
  0C:37EE    A$core_timer$1887
  0C:37F1    A$core_timer$1888
  0C:37F3    A$core_timer$1889
  0C:37F4    A$core_timer$1892
  0C:37F7    A$core_timer$1893
  0C:37F9    A$core_timer$1894
  0C:37FA    A$core_timer$1897
  0C:37FD    A$core_timer$1898
  0C:37FF    A$core_timer$1899
  0C:3800    A$core_timer$1902
  0C:3803    A$core_timer$1903
  0C:3805    A$core_timer$1904
  0C:3806    A$core_timer$1907
  0C:3809    A$core_timer$1908
  0C:380B    A$core_timer$1909
  0C:380C    A$core_timer$1912
  0C:380F    A$core_timer$1913
  0C:3811    A$core_timer$1914
  0C:3812    A$core_timer$1917
  0C:3815    A$core_timer$1918
  0C:3817    A$core_timer$1919
  0C:3818    A$core_timer$1922
  0C:381B    A$core_timer$1923
  0C:381D    A$core_timer$1924
  0C:381E    A$core_timer$1927
  0C:3821    A$core_timer$1928
  0C:3823    A$core_timer$1929
  0C:3824    A$core_timer$1932
  0C:3827    A$core_timer$1933
  0C:3829    A$core_timer$1934
  0C:382A    A$core_timer$1937
  0C:382D    A$core_timer$1938
  0C:382F    A$core_timer$1939
  0C:3830    A$core_timer$1942
  0C:3833    A$core_timer$1943
  0C:3835    A$core_timer$1944
  0C:3836    A$core_timer$1947
  0C:3839    A$core_timer$1948
  0C:383B    A$core_timer$1949
  0C:383C    A$core_timer$1952
  0C:383F    A$core_timer$1953
  0C:3841    A$core_timer$1954
  0C:3842    A$core_timer$1957
  0C:3845    A$core_timer$1958
  0C:3847    A$core_timer$1959
  0C:3848    A$core_timer$1962
  0C:384B    A$core_timer$1963
  0C:384D    A$core_timer$1964
  0C:384E    A$core_timer$1967
  0C:3851    A$core_timer$1968
  0C:3853    A$core_timer$1969
  0C:3854    A$core_timer$1972
  0C:3857    A$core_timer$1973
  0C:3859    A$core_timer$1974
  0C:385A    A$core_timer$1977
  0C:385D    A$core_timer$1978
  0C:385F    A$core_timer$1979
  0C:3860    A$core_timer$1982
  0C:3863    A$core_timer$1983
  0C:3865    A$core_timer$1984
  0C:3866    A$core_timer$1987
  0C:3869    A$core_timer$1988
  0C:386B    A$core_timer$1989
  0C:386C    A$core_timer$1992
  0C:386F    A$core_timer$1993
  0C:3871    A$core_timer$1994
  0C:3872    A$core_timer$1997
  0C:3875    A$core_timer$1998
  0C:3877    A$core_timer$1999
  0C:3878    A$core_timer$2002
  0C:387B    A$core_timer$2003
  0C:387D    A$core_timer$2004
  0C:387E    A$core_timer$2007
  0C:3881    A$core_timer$2008
  0C:3883    A$core_timer$2009
  0C:3884    A$core_timer$2012
  0C:3887    A$core_timer$2013
  0C:3889    A$core_timer$2014
  0C:388A    A$core_timer$2017
  0C:388D    A$core_timer$2018
  0C:388F    A$core_timer$2019
  0C:3890    A$core_timer$2022
  0C:3893    A$core_timer$2023
  0C:3895    A$core_timer$2024
  0C:3896    A$core_timer$2026
  0C:3899    A$core_timer$2027
  0C:389B    A$core_timer$2028
  0C:389C    A$core_timer$2029
  0C:389D    A$core_timer$2030
  0C:389E    A$core_timer$2031
  0C:389F    A$core_timer$2032
  0C:38A0    A$core_timer$2033
  0C:38A1    A$core_timer$2034
  0C:38A2    A$core_timer$2035
  0C:38A3    A$core_timer$2037
  0C:38A6    A$core_timer$2038
  0C:38A9    A$core_timer$2039
  0C:38AC    A$core_timer$2040
  0C:38AF    A$core_timer$2045
  0C:38AF    C$core_timer.c$107$1$1
  0C:38B2    A$core_timer$2046
  0C:38B3    A$core_timer$2047
  0C:38B4    A$core_timer$2048
  0C:38B5    A$core_timer$2049
  0C:38B6    A$core_timer$2050
  0C:38B7    A$core_timer$2051
  0C:38B8    A$core_timer$2052
  0C:38B9    A$core_timer$2053
  0C:38BA    A$core_timer$2056
  0C:38BC    A$core_timer$2057
  0C:38BE    A$core_timer$2058
  0C:38C0    A$core_timer$2059
  0C:38C3    A$core_timer$2060
  0C:38C4    A$core_timer$2061
  0C:38C5    A$core_timer$2062
  0C:38C8    A$core_timer$2063
  0C:38C9    A$core_timer$2066
  0C:38CB    A$core_timer$2067
  0C:38CD    A$core_timer$2068
  0C:38CE    A$core_timer$2069
  0C:38D0    A$core_timer$2070
  0C:38D2    A$core_timer$2071
  0C:38D3    A$core_timer$2073
  0C:38D6    A$core_timer$2074
  0C:38D8    A$core_timer$2075
  0C:38D9    A$core_timer$2077
  0C:38DC    A$core_timer$2078
  0C:38DE    A$core_timer$2079
  0C:38DF    A$core_timer$2080
  0C:38E0    A$core_timer$2081
  0C:38E1    A$core_timer$2082
  0C:38E2    A$core_timer$2083
  0C:38E3    A$core_timer$2084
  0C:38E4    A$core_timer$2085
  0C:38E5    A$core_timer$2086
  0C:38E6    A$core_timer$2088
  0C:38E9    A$core_timer$2089
  0C:38EB    A$core_timer$2090
  0C:38EC    A$core_timer$2091
  0C:38ED    A$core_timer$2092
  0C:38EE    A$core_timer$2093
  0C:38EF    A$core_timer$2094
  0C:38F0    A$core_timer$2095
  0C:38F1    A$core_timer$2096
  0C:38F2    A$core_timer$2097
  0C:38F3    A$core_timer$2099
  0C:38F5    A$core_timer$2100
  0C:38F7    A$core_timer$2101
  0C:38FA    A$core_timer$2105
  0C:38FA    C$core_timer.c$108$1$1
  0C:38FA    XG$TMR_enable_int$0$0
  0C:38FB    A$core_timer$2120
  0C:38FB    C$core_timer.c$115$1$1
  0C:38FB    G$TMR_clear_int$0$0
  0C:38FB    _TMR_clear_int
  0C:38FD    A$core_timer$2121
  0C:38FF    A$core_timer$2122
  0C:3901    A$core_timer$2123
  0C:3904    A$core_timer$2124
  0C:3905    A$core_timer$2125
  0C:3906    A$core_timer$2126
  0C:3907    A$core_timer$2127
  0C:3908    A$core_timer$2128
  0C:3909    A$core_timer$2129
  0C:390A    A$core_timer$2130
  0C:390B    A$core_timer$2134
  0C:390B    C$core_timer.c$120$2$2
  0C:390E    A$core_timer$2135
  0C:390F    A$core_timer$2136
  0C:3910    A$core_timer$2137
  0C:3911    A$core_timer$2138
  0C:3912    A$core_timer$2139
  0C:3913    A$core_timer$2140
  0C:3914    A$core_timer$2141
  0C:3915    A$core_timer$2142
  0C:3916    A$core_timer$2144
  0C:3919    A$core_timer$2145
  0C:391A    A$core_timer$2146
  0C:391B    A$core_timer$2147
  0C:391C    A$core_timer$2148
  0C:391D    A$core_timer$2149
  0C:391E    A$core_timer$2150
  0C:391F    A$core_timer$2151
  0C:3920    A$core_timer$2152
  0C:3921    A$core_timer$2155
  0C:3922    A$core_timer$2156
  0C:3925    A$core_timer$2157
  0C:3926    A$core_timer$2158
  0C:3929    A$core_timer$2159
  0C:392A    A$core_timer$2160
  0C:392D    A$core_timer$2161
  0C:392F    A$core_timer$2163
  0C:3932    A$core_timer$2167
  0C:3935    A$core_timer$2168
  0C:3937    A$core_timer$2169
  0C:3938    A$core_timer$2172
  0C:393B    A$core_timer$2173
  0C:393D    A$core_timer$2174
  0C:393E    A$core_timer$2177
  0C:3941    A$core_timer$2178
  0C:3943    A$core_timer$2179
  0C:3944    A$core_timer$2182
  0C:3947    A$core_timer$2183
  0C:3949    A$core_timer$2184
  0C:394A    A$core_timer$2187
  0C:394D    A$core_timer$2188
  0C:394F    A$core_timer$2189
  0C:3950    A$core_timer$2192
  0C:3953    A$core_timer$2193
  0C:3955    A$core_timer$2194
  0C:3956    A$core_timer$2197
  0C:3959    A$core_timer$2198
  0C:395B    A$core_timer$2199
  0C:395C    A$core_timer$2202
  0C:395F    A$core_timer$2203
  0C:3961    A$core_timer$2204
  0C:3962    A$core_timer$2207
  0C:3965    A$core_timer$2208
  0C:3967    A$core_timer$2209
  0C:3968    A$core_timer$2212
  0C:396B    A$core_timer$2213
  0C:396D    A$core_timer$2214
  0C:396E    A$core_timer$2217
  0C:3971    A$core_timer$2218
  0C:3973    A$core_timer$2219
  0C:3974    A$core_timer$2222
  0C:3977    A$core_timer$2223
  0C:3979    A$core_timer$2224
  0C:397A    A$core_timer$2227
  0C:397D    A$core_timer$2228
  0C:397F    A$core_timer$2229
  0C:3980    A$core_timer$2232
  0C:3983    A$core_timer$2233
  0C:3985    A$core_timer$2234
  0C:3986    A$core_timer$2237
  0C:3989    A$core_timer$2238
  0C:398B    A$core_timer$2239
  0C:398C    A$core_timer$2242
  0C:398F    A$core_timer$2243
  0C:3991    A$core_timer$2244
  0C:3992    A$core_timer$2247
  0C:3995    A$core_timer$2248
  0C:3997    A$core_timer$2249
  0C:3998    A$core_timer$2252
  0C:399B    A$core_timer$2253
  0C:399D    A$core_timer$2254
  0C:399E    A$core_timer$2257
  0C:39A1    A$core_timer$2258
  0C:39A3    A$core_timer$2259
  0C:39A4    A$core_timer$2262
  0C:39A7    A$core_timer$2263
  0C:39A9    A$core_timer$2264
  0C:39AA    A$core_timer$2267
  0C:39AD    A$core_timer$2268
  0C:39AF    A$core_timer$2269
  0C:39B0    A$core_timer$2272
  0C:39B3    A$core_timer$2273
  0C:39B5    A$core_timer$2274
  0C:39B6    A$core_timer$2277
  0C:39B9    A$core_timer$2278
  0C:39BB    A$core_timer$2279
  0C:39BC    A$core_timer$2282
  0C:39BF    A$core_timer$2283
  0C:39C1    A$core_timer$2284
  0C:39C2    A$core_timer$2287
  0C:39C5    A$core_timer$2288
  0C:39C7    A$core_timer$2289
  0C:39C8    A$core_timer$2292
  0C:39CB    A$core_timer$2293
  0C:39CD    A$core_timer$2294
  0C:39CE    A$core_timer$2297
  0C:39D1    A$core_timer$2298
  0C:39D3    A$core_timer$2299
  0C:39D4    A$core_timer$2302
  0C:39D7    A$core_timer$2303
  0C:39D9    A$core_timer$2304
  0C:39DA    A$core_timer$2307
  0C:39DD    A$core_timer$2308
  0C:39DF    A$core_timer$2309
  0C:39E0    A$core_timer$2312
  0C:39E3    A$core_timer$2313
  0C:39E5    A$core_timer$2314
  0C:39E6    A$core_timer$2317
  0C:39E9    A$core_timer$2318
  0C:39EB    A$core_timer$2319
  0C:39EC    A$core_timer$2322
  0C:39EF    A$core_timer$2323
  0C:39F1    A$core_timer$2324
  0C:39F2    A$core_timer$2327
  0C:39F5    A$core_timer$2328
  0C:39F7    A$core_timer$2329
  0C:39F8    A$core_timer$2332
  0C:39FB    A$core_timer$2333
  0C:39FD    A$core_timer$2334
  0C:39FE    A$core_timer$2336
  0C:3A01    A$core_timer$2337
  0C:3A03    A$core_timer$2338
  0C:3A04    A$core_timer$2339
  0C:3A05    A$core_timer$2340
  0C:3A06    A$core_timer$2341
  0C:3A07    A$core_timer$2342
  0C:3A08    A$core_timer$2343
  0C:3A09    A$core_timer$2344
  0C:3A0A    A$core_timer$2345
  0C:3A0B    A$core_timer$2347
  0C:3A0E    A$core_timer$2348
  0C:3A11    A$core_timer$2349
  0C:3A14    A$core_timer$2350
  0C:3A17    A$core_timer$2355
  0C:3A17    C$core_timer.c$122$1$1
  0C:3A1A    A$core_timer$2356
  0C:3A1B    A$core_timer$2357
  0C:3A1C    A$core_timer$2358
  0C:3A1D    A$core_timer$2359
  0C:3A1E    A$core_timer$2360
  0C:3A1F    A$core_timer$2361
  0C:3A20    A$core_timer$2362
  0C:3A21    A$core_timer$2363
  0C:3A22    A$core_timer$2366
  0C:3A24    A$core_timer$2367
  0C:3A26    A$core_timer$2368
  0C:3A28    A$core_timer$2369
  0C:3A2B    A$core_timer$2370
  0C:3A2C    A$core_timer$2371
  0C:3A2D    A$core_timer$2372
  0C:3A30    A$core_timer$2373
  0C:3A31    A$core_timer$2376
  0C:3A33    A$core_timer$2377
  0C:3A35    A$core_timer$2378
  0C:3A36    A$core_timer$2379
  0C:3A38    A$core_timer$2380
  0C:3A3A    A$core_timer$2381
  0C:3A3B    A$core_timer$2383
  0C:3A3E    A$core_timer$2384
  0C:3A40    A$core_timer$2385
  0C:3A41    A$core_timer$2386
  0C:3A42    A$core_timer$2387
  0C:3A43    A$core_timer$2388
  0C:3A44    A$core_timer$2389
  0C:3A45    A$core_timer$2390
  0C:3A46    A$core_timer$2391
  0C:3A47    A$core_timer$2392
  0C:3A48    A$core_timer$2394
  0C:3A4A    A$core_timer$2395
  0C:3A4C    A$core_timer$2396
  0C:3A4F    A$core_timer$2400
  0C:3A4F    C$core_timer.c$123$1$1
  0C:3A4F    XG$TMR_clear_int$0$0
  0C:3A50    A$core_timer$2416
  0C:3A50    C$core_timer.c$130$1$1
  0C:3A50    G$TMR_current_value$0$0
  0C:3A50    _TMR_current_value
  0C:3A52    A$core_timer$2417
  0C:3A54    A$core_timer$2418
  0C:3A56    A$core_timer$2419
  0C:3A59    A$core_timer$2420
  0C:3A5A    A$core_timer$2421
  0C:3A5B    A$core_timer$2422
  0C:3A5C    A$core_timer$2423
  0C:3A5D    A$core_timer$2424
  0C:3A5E    A$core_timer$2425
  0C:3A5F    A$core_timer$2426
  0C:3A60    A$core_timer$2430
  0C:3A60    C$core_timer.c$136$2$2
  0C:3A63    A$core_timer$2431
  0C:3A64    A$core_timer$2432
  0C:3A65    A$core_timer$2433
  0C:3A66    A$core_timer$2434
  0C:3A67    A$core_timer$2435
  0C:3A68    A$core_timer$2436
  0C:3A69    A$core_timer$2437
  0C:3A6A    A$core_timer$2438
  0C:3A6B    A$core_timer$2440
  0C:3A6E    A$core_timer$2441
  0C:3A6F    A$core_timer$2442
  0C:3A70    A$core_timer$2443
  0C:3A71    A$core_timer$2444
  0C:3A72    A$core_timer$2445
  0C:3A73    A$core_timer$2446
  0C:3A74    A$core_timer$2447
  0C:3A75    A$core_timer$2448
  0C:3A76    A$core_timer$2451
  0C:3A77    A$core_timer$2452
  0C:3A7A    A$core_timer$2453
  0C:3A7B    A$core_timer$2454
  0C:3A7E    A$core_timer$2455
  0C:3A7F    A$core_timer$2456
  0C:3A82    A$core_timer$2457
  0C:3A84    A$core_timer$2459
  0C:3A87    A$core_timer$2463
  0C:3A8A    A$core_timer$2464
  0C:3A8C    A$core_timer$2465
  0C:3A8D    A$core_timer$2468
  0C:3A90    A$core_timer$2469
  0C:3A92    A$core_timer$2470
  0C:3A93    A$core_timer$2473
  0C:3A96    A$core_timer$2474
  0C:3A98    A$core_timer$2475
  0C:3A99    A$core_timer$2478
  0C:3A9C    A$core_timer$2479
  0C:3A9E    A$core_timer$2480
  0C:3A9F    A$core_timer$2483
  0C:3AA2    A$core_timer$2484
  0C:3AA4    A$core_timer$2485
  0C:3AA5    A$core_timer$2488
  0C:3AA8    A$core_timer$2489
  0C:3AAA    A$core_timer$2490
  0C:3AAB    A$core_timer$2493
  0C:3AAE    A$core_timer$2494
  0C:3AB0    A$core_timer$2495
  0C:3AB1    A$core_timer$2498
  0C:3AB4    A$core_timer$2499
  0C:3AB6    A$core_timer$2500
  0C:3AB7    A$core_timer$2503
  0C:3ABA    A$core_timer$2504
  0C:3ABC    A$core_timer$2505
  0C:3ABD    A$core_timer$2508
  0C:3AC0    A$core_timer$2509
  0C:3AC2    A$core_timer$2510
  0C:3AC3    A$core_timer$2513
  0C:3AC6    A$core_timer$2514
  0C:3AC8    A$core_timer$2515
  0C:3AC9    A$core_timer$2518
  0C:3ACC    A$core_timer$2519
  0C:3ACE    A$core_timer$2520
  0C:3ACF    A$core_timer$2523
  0C:3AD2    A$core_timer$2524
  0C:3AD4    A$core_timer$2525
  0C:3AD5    A$core_timer$2528
  0C:3AD8    A$core_timer$2529
  0C:3ADA    A$core_timer$2530
  0C:3ADB    A$core_timer$2533
  0C:3ADE    A$core_timer$2534
  0C:3AE0    A$core_timer$2535
  0C:3AE1    A$core_timer$2538
  0C:3AE4    A$core_timer$2539
  0C:3AE6    A$core_timer$2540
  0C:3AE7    A$core_timer$2543
  0C:3AEA    A$core_timer$2544
  0C:3AEC    A$core_timer$2545
  0C:3AED    A$core_timer$2548
  0C:3AF0    A$core_timer$2549
  0C:3AF2    A$core_timer$2550
  0C:3AF3    A$core_timer$2553
  0C:3AF6    A$core_timer$2554
  0C:3AF8    A$core_timer$2555
  0C:3AF9    A$core_timer$2558
  0C:3AFC    A$core_timer$2559
  0C:3AFE    A$core_timer$2560
  0C:3AFF    A$core_timer$2563
  0C:3B02    A$core_timer$2564
  0C:3B04    A$core_timer$2565
  0C:3B05    A$core_timer$2568
  0C:3B08    A$core_timer$2569
  0C:3B0A    A$core_timer$2570
  0C:3B0B    A$core_timer$2573
  0C:3B0E    A$core_timer$2574
  0C:3B10    A$core_timer$2575
  0C:3B11    A$core_timer$2578
  0C:3B14    A$core_timer$2579
  0C:3B16    A$core_timer$2580
  0C:3B17    A$core_timer$2583
  0C:3B1A    A$core_timer$2584
  0C:3B1C    A$core_timer$2585
  0C:3B1D    A$core_timer$2588
  0C:3B20    A$core_timer$2589
  0C:3B22    A$core_timer$2590
  0C:3B23    A$core_timer$2593
  0C:3B26    A$core_timer$2594
  0C:3B28    A$core_timer$2595
  0C:3B29    A$core_timer$2598
  0C:3B2C    A$core_timer$2599
  0C:3B2E    A$core_timer$2600
  0C:3B2F    A$core_timer$2603
  0C:3B32    A$core_timer$2604
  0C:3B34    A$core_timer$2605
  0C:3B35    A$core_timer$2608
  0C:3B38    A$core_timer$2609
  0C:3B3A    A$core_timer$2610
  0C:3B3B    A$core_timer$2613
  0C:3B3E    A$core_timer$2614
  0C:3B40    A$core_timer$2615
  0C:3B41    A$core_timer$2618
  0C:3B44    A$core_timer$2619
  0C:3B46    A$core_timer$2620
  0C:3B47    A$core_timer$2623
  0C:3B4A    A$core_timer$2624
  0C:3B4C    A$core_timer$2625
  0C:3B4D    A$core_timer$2628
  0C:3B50    A$core_timer$2629
  0C:3B52    A$core_timer$2630
  0C:3B53    A$core_timer$2632
  0C:3B56    A$core_timer$2633
  0C:3B58    A$core_timer$2634
  0C:3B59    A$core_timer$2635
  0C:3B5A    A$core_timer$2636
  0C:3B5B    A$core_timer$2637
  0C:3B5C    A$core_timer$2638
  0C:3B5D    A$core_timer$2639
  0C:3B5E    A$core_timer$2640
  0C:3B5F    A$core_timer$2641
  0C:3B60    A$core_timer$2643
  0C:3B63    A$core_timer$2644
  0C:3B66    A$core_timer$2645
  0C:3B69    A$core_timer$2646
  0C:3B6C    A$core_timer$2651
  0C:3B6C    C$core_timer.c$138$1$1
  0C:3B6F    A$core_timer$2652
  0C:3B70    A$core_timer$2653
  0C:3B71    A$core_timer$2654
  0C:3B72    A$core_timer$2655
  0C:3B73    A$core_timer$2656
  0C:3B74    A$core_timer$2657
  0C:3B75    A$core_timer$2658
  0C:3B76    A$core_timer$2659
  0C:3B77    A$core_timer$2662
  0C:3B79    A$core_timer$2663
  0C:3B7B    A$core_timer$2664
  0C:3B7D    A$core_timer$2665
  0C:3B80    A$core_timer$2666
  0C:3B81    A$core_timer$2667
  0C:3B82    A$core_timer$2668
  0C:3B85    A$core_timer$2669
  0C:3B86    A$core_timer$2672
  0C:3B88    A$core_timer$2673
  0C:3B8A    A$core_timer$2674
  0C:3B8B    A$core_timer$2675
  0C:3B8D    A$core_timer$2676
  0C:3B8F    A$core_timer$2677
  0C:3B90    A$core_timer$2679
  0C:3B92    A$core_timer$2680
  0C:3B94    A$core_timer$2681
  0C:3B97    A$core_timer$2682
  0C:3B99    A$core_timer$2683
  0C:3B9B    A$core_timer$2684
  0C:3B9D    A$core_timer$2685
  0C:3B9E    A$core_timer$2689
  0C:3B9E    C$core_timer.c$140$1$1
  0C:3BA0    A$core_timer$2690
  0C:3BA2    A$core_timer$2691
  0C:3BA4    A$core_timer$2692
  0C:3BA5    A$core_timer$2696
  0C:3BA5    C$core_timer.c$141$1$1
  0C:3BA5    XG$TMR_current_value$0$0
  0C:3BA6    A$core_timer$2713
  0C:3BA6    C$core_timer.c$147$1$1
  0C:3BA6    G$TMR_reload$0$0
  0C:3BA6    _TMR_reload
  0C:3BA8    A$core_timer$2714
  0C:3BAA    A$core_timer$2715
  0C:3BAC    A$core_timer$2716
  0C:3BAF    A$core_timer$2717
  0C:3BB0    A$core_timer$2718
  0C:3BB1    A$core_timer$2719
  0C:3BB2    A$core_timer$2720
  0C:3BB3    A$core_timer$2721
  0C:3BB4    A$core_timer$2722
  0C:3BB5    A$core_timer$2723
  0C:3BB6    A$core_timer$2727
  0C:3BB6    C$core_timer.c$153$2$2
  0C:3BB9    A$core_timer$2728
  0C:3BBA    A$core_timer$2729
  0C:3BBB    A$core_timer$2730
  0C:3BBC    A$core_timer$2731
  0C:3BBD    A$core_timer$2732
  0C:3BBE    A$core_timer$2733
  0C:3BBF    A$core_timer$2734
  0C:3BC0    A$core_timer$2735
  0C:3BC1    A$core_timer$2737
  0C:3BC4    A$core_timer$2738
  0C:3BC5    A$core_timer$2739
  0C:3BC6    A$core_timer$2740
  0C:3BC7    A$core_timer$2741
  0C:3BC8    A$core_timer$2742
  0C:3BC9    A$core_timer$2743
  0C:3BCA    A$core_timer$2744
  0C:3BCB    A$core_timer$2745
  0C:3BCC    A$core_timer$2748
  0C:3BCD    A$core_timer$2749
  0C:3BD0    A$core_timer$2750
  0C:3BD1    A$core_timer$2751
  0C:3BD4    A$core_timer$2752
  0C:3BD5    A$core_timer$2753
  0C:3BD8    A$core_timer$2754
  0C:3BDA    A$core_timer$2756
  0C:3BDD    A$core_timer$2760
  0C:3BE0    A$core_timer$2761
  0C:3BE2    A$core_timer$2762
  0C:3BE3    A$core_timer$2765
  0C:3BE6    A$core_timer$2766
  0C:3BE8    A$core_timer$2767
  0C:3BE9    A$core_timer$2770
  0C:3BEC    A$core_timer$2771
  0C:3BEE    A$core_timer$2772
  0C:3BEF    A$core_timer$2775
  0C:3BF2    A$core_timer$2776
  0C:3BF4    A$core_timer$2777
  0C:3BF5    A$core_timer$2780
  0C:3BF8    A$core_timer$2781
  0C:3BFA    A$core_timer$2782
  0C:3BFB    A$core_timer$2785
  0C:3BFE    A$core_timer$2786
  0C:3C00    A$core_timer$2787
  0C:3C01    A$core_timer$2790
  0C:3C04    A$core_timer$2791
  0C:3C06    A$core_timer$2792
  0C:3C07    A$core_timer$2795
  0C:3C0A    A$core_timer$2796
  0C:3C0C    A$core_timer$2797
  0C:3C0D    A$core_timer$2800
  0C:3C10    A$core_timer$2801
  0C:3C12    A$core_timer$2802
  0C:3C13    A$core_timer$2805
  0C:3C16    A$core_timer$2806
  0C:3C18    A$core_timer$2807
  0C:3C19    A$core_timer$2810
  0C:3C1C    A$core_timer$2811
  0C:3C1E    A$core_timer$2812
  0C:3C1F    A$core_timer$2815
  0C:3C22    A$core_timer$2816
  0C:3C24    A$core_timer$2817
  0C:3C25    A$core_timer$2820
  0C:3C28    A$core_timer$2821
  0C:3C2A    A$core_timer$2822
  0C:3C2B    A$core_timer$2825
  0C:3C2E    A$core_timer$2826
  0C:3C30    A$core_timer$2827
  0C:3C31    A$core_timer$2830
  0C:3C34    A$core_timer$2831
  0C:3C36    A$core_timer$2832
  0C:3C37    A$core_timer$2835
  0C:3C3A    A$core_timer$2836
  0C:3C3C    A$core_timer$2837
  0C:3C3D    A$core_timer$2840
  0C:3C40    A$core_timer$2841
  0C:3C42    A$core_timer$2842
  0C:3C43    A$core_timer$2845
  0C:3C46    A$core_timer$2846
  0C:3C48    A$core_timer$2847
  0C:3C49    A$core_timer$2850
  0C:3C4C    A$core_timer$2851
  0C:3C4E    A$core_timer$2852
  0C:3C4F    A$core_timer$2855
  0C:3C52    A$core_timer$2856
  0C:3C54    A$core_timer$2857
  0C:3C55    A$core_timer$2860
  0C:3C58    A$core_timer$2861
  0C:3C5A    A$core_timer$2862
  0C:3C5B    A$core_timer$2865
  0C:3C5E    A$core_timer$2866
  0C:3C60    A$core_timer$2867
  0C:3C61    A$core_timer$2870
  0C:3C64    A$core_timer$2871
  0C:3C66    A$core_timer$2872
  0C:3C67    A$core_timer$2875
  0C:3C6A    A$core_timer$2876
  0C:3C6C    A$core_timer$2877
  0C:3C6D    A$core_timer$2880
  0C:3C70    A$core_timer$2881
  0C:3C72    A$core_timer$2882
  0C:3C73    A$core_timer$2885
  0C:3C76    A$core_timer$2886
  0C:3C78    A$core_timer$2887
  0C:3C79    A$core_timer$2890
  0C:3C7C    A$core_timer$2891
  0C:3C7E    A$core_timer$2892
  0C:3C7F    A$core_timer$2895
  0C:3C82    A$core_timer$2896
  0C:3C84    A$core_timer$2897
  0C:3C85    A$core_timer$2900
  0C:3C88    A$core_timer$2901
  0C:3C8A    A$core_timer$2902
  0C:3C8B    A$core_timer$2905
  0C:3C8E    A$core_timer$2906
  0C:3C90    A$core_timer$2907
  0C:3C91    A$core_timer$2910
  0C:3C94    A$core_timer$2911
  0C:3C96    A$core_timer$2912
  0C:3C97    A$core_timer$2915
  0C:3C9A    A$core_timer$2916
  0C:3C9C    A$core_timer$2917
  0C:3C9D    A$core_timer$2920
  0C:3CA0    A$core_timer$2921
  0C:3CA2    A$core_timer$2922
  0C:3CA3    A$core_timer$2925
  0C:3CA6    A$core_timer$2926
  0C:3CA8    A$core_timer$2927
  0C:3CA9    A$core_timer$2929
  0C:3CAC    A$core_timer$2930
  0C:3CAE    A$core_timer$2931
  0C:3CAF    A$core_timer$2932
  0C:3CB0    A$core_timer$2933
  0C:3CB1    A$core_timer$2934
  0C:3CB2    A$core_timer$2935
  0C:3CB3    A$core_timer$2936
  0C:3CB4    A$core_timer$2937
  0C:3CB5    A$core_timer$2938
  0C:3CB6    A$core_timer$2940
  0C:3CB9    A$core_timer$2941
  0C:3CBC    A$core_timer$2942
  0C:3CBF    A$core_timer$2943
  0C:3CC2    A$core_timer$2948
  0C:3CC2    C$core_timer.c$154$2$4
  0C:3CC5    A$core_timer$2949
  0C:3CC6    A$core_timer$2950
  0C:3CC7    A$core_timer$2951
  0C:3CC8    A$core_timer$2952
  0C:3CC9    A$core_timer$2953
  0C:3CCA    A$core_timer$2954
  0C:3CCB    A$core_timer$2955
  0C:3CCC    A$core_timer$2956
  0C:3CCD    A$core_timer$2957
  0C:3CCE    A$core_timer$2958
  0C:3CCF    A$core_timer$2959
  0C:3CD0    A$core_timer$2962
  0C:3CD3    A$core_timer$2963
  0C:3CD6    A$core_timer$2964
  0C:3CD9    A$core_timer$2965
  0C:3CDC    A$core_timer$2966
  0C:3CDE    A$core_timer$2968
  0C:3CE1    A$core_timer$2972
  0C:3CE4    A$core_timer$2973
  0C:3CE6    A$core_timer$2974
  0C:3CE7    A$core_timer$2977
  0C:3CEA    A$core_timer$2978
  0C:3CEC    A$core_timer$2979
  0C:3CED    A$core_timer$2982
  0C:3CF0    A$core_timer$2983
  0C:3CF2    A$core_timer$2984
  0C:3CF3    A$core_timer$2987
  0C:3CF6    A$core_timer$2988
  0C:3CF8    A$core_timer$2989
  0C:3CF9    A$core_timer$2992
  0C:3CFC    A$core_timer$2993
  0C:3CFE    A$core_timer$2994
  0C:3CFF    A$core_timer$2997
  0C:3D02    A$core_timer$2998
  0C:3D04    A$core_timer$2999
  0C:3D05    A$core_timer$3002
  0C:3D08    A$core_timer$3003
  0C:3D0A    A$core_timer$3004
  0C:3D0B    A$core_timer$3007
  0C:3D0E    A$core_timer$3008
  0C:3D10    A$core_timer$3009
  0C:3D11    A$core_timer$3012
  0C:3D14    A$core_timer$3013
  0C:3D16    A$core_timer$3014
  0C:3D17    A$core_timer$3017
  0C:3D1A    A$core_timer$3018
  0C:3D1C    A$core_timer$3019
  0C:3D1D    A$core_timer$3022
  0C:3D20    A$core_timer$3023
  0C:3D22    A$core_timer$3024
  0C:3D23    A$core_timer$3027
  0C:3D26    A$core_timer$3028
  0C:3D28    A$core_timer$3029
  0C:3D29    A$core_timer$3032
  0C:3D2C    A$core_timer$3033
  0C:3D2E    A$core_timer$3034
  0C:3D2F    A$core_timer$3037
  0C:3D32    A$core_timer$3038
  0C:3D34    A$core_timer$3039
  0C:3D35    A$core_timer$3042
  0C:3D38    A$core_timer$3043
  0C:3D3A    A$core_timer$3044
  0C:3D3B    A$core_timer$3047
  0C:3D3E    A$core_timer$3048
  0C:3D40    A$core_timer$3049
  0C:3D41    A$core_timer$3052
  0C:3D44    A$core_timer$3053
  0C:3D46    A$core_timer$3054
  0C:3D47    A$core_timer$3057
  0C:3D4A    A$core_timer$3058
  0C:3D4C    A$core_timer$3059
  0C:3D4D    A$core_timer$3062
  0C:3D50    A$core_timer$3063
  0C:3D52    A$core_timer$3064
  0C:3D53    A$core_timer$3067
  0C:3D56    A$core_timer$3068
  0C:3D58    A$core_timer$3069
  0C:3D59    A$core_timer$3072
  0C:3D5C    A$core_timer$3073
  0C:3D5E    A$core_timer$3074
  0C:3D5F    A$core_timer$3077
  0C:3D62    A$core_timer$3078
  0C:3D64    A$core_timer$3079
  0C:3D65    A$core_timer$3082
  0C:3D68    A$core_timer$3083
  0C:3D6A    A$core_timer$3084
  0C:3D6B    A$core_timer$3087
  0C:3D6E    A$core_timer$3088
  0C:3D70    A$core_timer$3089
  0C:3D71    A$core_timer$3092
  0C:3D74    A$core_timer$3093
  0C:3D76    A$core_timer$3094
  0C:3D77    A$core_timer$3097
  0C:3D7A    A$core_timer$3098
  0C:3D7C    A$core_timer$3099
  0C:3D7D    A$core_timer$3102
  0C:3D80    A$core_timer$3103
  0C:3D82    A$core_timer$3104
  0C:3D83    A$core_timer$3107
  0C:3D86    A$core_timer$3108
  0C:3D88    A$core_timer$3109
  0C:3D89    A$core_timer$3112
  0C:3D8C    A$core_timer$3113
  0C:3D8E    A$core_timer$3114
  0C:3D8F    A$core_timer$3117
  0C:3D92    A$core_timer$3118
  0C:3D94    A$core_timer$3119
  0C:3D95    A$core_timer$3122
  0C:3D98    A$core_timer$3123
  0C:3D9A    A$core_timer$3124
  0C:3D9B    A$core_timer$3127
  0C:3D9E    A$core_timer$3128
  0C:3DA0    A$core_timer$3129
  0C:3DA1    A$core_timer$3132
  0C:3DA4    A$core_timer$3133
  0C:3DA6    A$core_timer$3134
  0C:3DA7    A$core_timer$3137
  0C:3DAA    A$core_timer$3138
  0C:3DAC    A$core_timer$3139
  0C:3DAD    A$core_timer$3141
  0C:3DB0    A$core_timer$3142
  0C:3DB2    A$core_timer$3143
  0C:3DB3    A$core_timer$3144
  0C:3DB4    A$core_timer$3145
  0C:3DB5    A$core_timer$3146
  0C:3DB6    A$core_timer$3147
  0C:3DB7    A$core_timer$3148
  0C:3DB8    A$core_timer$3149
  0C:3DB9    A$core_timer$3150
  0C:3DBA    A$core_timer$3152
  0C:3DBD    A$core_timer$3153
  0C:3DC0    A$core_timer$3154
  0C:3DC3    A$core_timer$3155
  0C:3DC5    A$core_timer$3156
  0C:3DC7    A$core_timer$3157
  0C:3DC9    A$core_timer$3158
  0C:3DCB    A$core_timer$3159
  0C:3DCE    A$core_timer$3160
  0C:3DD0    A$core_timer$3161
  0C:3DD2    A$core_timer$3162
  0C:3DD4    A$core_timer$3163
  0C:3DD6    A$core_timer$3168
  0C:3DD6    C$core_timer.c$156$1$1
  0C:3DD9    A$core_timer$3169
  0C:3DDA    A$core_timer$3170
  0C:3DDB    A$core_timer$3171
  0C:3DDC    A$core_timer$3172
  0C:3DDD    A$core_timer$3173
  0C:3DDE    A$core_timer$3174
  0C:3DDF    A$core_timer$3175
  0C:3DE0    A$core_timer$3176
  0C:3DE1    A$core_timer$3179
  0C:3DE3    A$core_timer$3180
  0C:3DE5    A$core_timer$3181
  0C:3DE7    A$core_timer$3182
  0C:3DEA    A$core_timer$3183
  0C:3DEB    A$core_timer$3184
  0C:3DEC    A$core_timer$3185
  0C:3DEF    A$core_timer$3186
  0C:3DF0    A$core_timer$3188
  0C:3DF3    A$core_timer$3189
  0C:3DF4    A$core_timer$3190
  0C:3DF5    A$core_timer$3191
  0C:3DF6    A$core_timer$3192
  0C:3DF7    A$core_timer$3193
  0C:3DF8    A$core_timer$3194
  0C:3DF9    A$core_timer$3195
  0C:3DFA    A$core_timer$3196
  0C:3DFB    A$core_timer$3197
  0C:3DFC    A$core_timer$3198
  0C:3DFD    A$core_timer$3199
  0C:3DFE    A$core_timer$3201
  0C:3E00    A$core_timer$3202
  0C:3E02    A$core_timer$3203
  0C:3E05    A$core_timer$3207
  0C:3E05    C$core_timer.c$157$1$1
  0C:3E05    XG$TMR_reload$0$0
  0C:3E06    A$core_gpio$285
  0C:3E06    C$core_gpio.c$31$0$0
  0C:3E06    G$GPIO_init$0$0
  0C:3E06    _GPIO_init
  0C:3E08    A$core_gpio$286
  0C:3E0A    A$core_gpio$287
  0C:3E0C    A$core_gpio$288
  0C:3E0F    A$core_gpio$289
  0C:3E10    A$core_gpio$290
  0C:3E11    A$core_gpio$291
  0C:3E12    A$core_gpio$292
  0C:3E13    A$core_gpio$293
  0C:3E14    A$core_gpio$294
  0C:3E15    A$core_gpio$295
  0C:3E16    A$core_gpio$299
  0C:3E16    C$core_gpio.c$39$1$0
  0C:3E19    A$core_gpio$300
  0C:3E1A    A$core_gpio$301
  0C:3E1B    A$core_gpio$302
  0C:3E1C    A$core_gpio$303
  0C:3E1D    A$core_gpio$304
  0C:3E1E    A$core_gpio$308
  0C:3E1E    C$core_gpio.c$41$1$1
  0C:3E21    A$core_gpio$309
  0C:3E22    A$core_gpio$310
  0C:3E23    A$core_gpio$311
  0C:3E24    A$core_gpio$312
  0C:3E25    A$core_gpio$313
  0C:3E26    A$core_gpio$314
  0C:3E27    A$core_gpio$315
  0C:3E28    A$core_gpio$316
  0C:3E29    A$core_gpio$319
  0C:3E2B    A$core_gpio$320
  0C:3E2D    A$core_gpio$321
  0C:3E2F    A$core_gpio$322
  0C:3E30    A$core_gpio$323
  0C:3E33    A$core_gpio$324
  0C:3E34    A$core_gpio$325
  0C:3E35    A$core_gpio$326
  0C:3E38    A$core_gpio$331
  0C:3E38    C$core_gpio.c$42$1$1
  0C:3E3A    A$core_gpio$332
  0C:3E3C    A$core_gpio$333
  0C:3E3D    A$core_gpio$334
  0C:3E3F    A$core_gpio$335
  0C:3E41    A$core_gpio$336
  0C:3E42    A$core_gpio$338
  0C:3E45    A$core_gpio$339
  0C:3E46    A$core_gpio$340
  0C:3E47    A$core_gpio$343
  0C:3E49    A$core_gpio$344
  0C:3E4B    A$core_gpio$345
  0C:3E4D    A$core_gpio$346
  0C:3E4E    A$core_gpio$347
  0C:3E51    A$core_gpio$351
  0C:3E54    A$core_gpio$352
  0C:3E56    A$core_gpio$353
  0C:3E57    A$core_gpio$355
  0C:3E5A    A$core_gpio$356
  0C:3E5B    A$core_gpio$357
  0C:3E5C    A$core_gpio$358
  0C:3E5D    A$core_gpio$359
  0C:3E5E    A$core_gpio$360
  0C:3E5F    A$core_gpio$363
  0C:3E62    A$core_gpio$364
  0C:3E63    A$core_gpio$365
  0C:3E64    A$core_gpio$368
  0C:3E67    A$core_gpio$371
  0C:3E69    A$core_gpio$372
  0C:3E6C    A$core_gpio$377
  0C:3E6C    C$core_gpio.c$47$2$2
  0C:3E6F    A$core_gpio$378
  0C:3E70    A$core_gpio$379
  0C:3E71    A$core_gpio$380
  0C:3E72    A$core_gpio$381
  0C:3E73    A$core_gpio$382
  0C:3E74    A$core_gpio$384
  0C:3E77    A$core_gpio$385
  0C:3E79    A$core_gpio$386
  0C:3E7A    A$core_gpio$388
  0C:3E7C    A$core_gpio$389
  0C:3E7E    A$core_gpio$390
  0C:3E80    A$core_gpio$391
  0C:3E82    A$core_gpio$392
  0C:3E84    A$core_gpio$393
  0C:3E87    A$core_gpio$394
  0C:3E89    A$core_gpio$395
  0C:3E8B    A$core_gpio$396
  0C:3E8D    A$core_gpio$400
  0C:3E8D    C$core_gpio.c$48$2$2
  0C:3E90    A$core_gpio$402
  0C:3E92    A$core_gpio$403
  0C:3E94    A$core_gpio$404
  0C:3E95    A$core_gpio$405
  0C:3E97    A$core_gpio$406
  0C:3E99    A$core_gpio$407
  0C:3E9A    A$core_gpio$408
  0C:3E9B    A$core_gpio$412
  0C:3E9B    C$core_gpio.c$45$1$1
  0C:3E9E    A$core_gpio$414
  0C:3E9F    A$core_gpio$415
  0C:3EA0    A$core_gpio$416
  0C:3EA1    A$core_gpio$417
  0C:3EA4    A$core_gpio$422
  0C:3EA4    C$core_gpio.c$51$1$1
  0C:3EA7    A$core_gpio$423
  0C:3EA8    A$core_gpio$424
  0C:3EA9    A$core_gpio$425
  0C:3EAA    A$core_gpio$426
  0C:3EAB    A$core_gpio$427
  0C:3EAC    A$core_gpio$428
  0C:3EAD    A$core_gpio$429
  0C:3EAE    A$core_gpio$430
  0C:3EAF    A$core_gpio$433
  0C:3EB1    A$core_gpio$434
  0C:3EB3    A$core_gpio$435
  0C:3EB4    A$core_gpio$436
  0C:3EB6    A$core_gpio$437
  0C:3EB8    A$core_gpio$438
  0C:3EB9    A$core_gpio$439
  0C:3EBB    A$core_gpio$442
  0C:3EBD    A$core_gpio$443
  0C:3EBF    A$core_gpio$444
  0C:3EC1    A$core_gpio$445
  0C:3EC4    A$core_gpio$446
  0C:3EC5    A$core_gpio$449
  0C:3EC8    A$core_gpio$450
  0C:3ECB    A$core_gpio$454
  0C:3ECE    A$core_gpio$455
  0C:3ED1    A$core_gpio$459
  0C:3ED4    A$core_gpio$460
  0C:3ED6    A$core_gpio$462
  0C:3ED9    A$core_gpio$468
  0C:3ED9    C$core_gpio.c$54$2$3
  0C:3EDB    A$core_gpio$469
  0C:3EDD    A$core_gpio$470
  0C:3EDF    A$core_gpio$471
  0C:3EE2    A$core_gpio$472
  0C:3EE3    A$core_gpio$473
  0C:3EE4    A$core_gpio$474
  0C:3EE7    A$core_gpio$475
  0C:3EE8    A$core_gpio$478
  0C:3EEA    A$core_gpio$479
  0C:3EEC    A$core_gpio$480
  0C:3EED    A$core_gpio$481
  0C:3EEF    A$core_gpio$482
  0C:3EF1    A$core_gpio$483
  0C:3EF2    A$core_gpio$485
  0C:3EF5    A$core_gpio$486
  0C:3EF7    A$core_gpio$487
  0C:3EF8    A$core_gpio$488
  0C:3EF9    A$core_gpio$489
  0C:3EFB    A$core_gpio$490
  0C:3EFC    A$core_gpio$491
  0C:3EFD    A$core_gpio$492
  0C:3EFF    A$core_gpio$493
  0C:3F00    A$core_gpio$494
  0C:3F01    A$core_gpio$495
  0C:3F03    A$core_gpio$496
  0C:3F04    A$core_gpio$498
  0C:3F06    A$core_gpio$499
  0C:3F08    A$core_gpio$500
  0C:3F0B    A$core_gpio$503
  0C:3F0B    C$core_gpio.c$55$2$3
  0C:3F0E    A$core_gpio$511
  0C:3F0E    C$core_gpio.c$57$2$3
  0C:3F0E    C$core_gpio.c$58$2$3
  0C:3F10    A$core_gpio$512
  0C:3F12    A$core_gpio$513
  0C:3F14    A$core_gpio$514
  0C:3F17    A$core_gpio$515
  0C:3F18    A$core_gpio$516
  0C:3F19    A$core_gpio$517
  0C:3F1C    A$core_gpio$518
  0C:3F1D    A$core_gpio$521
  0C:3F1F    A$core_gpio$522
  0C:3F21    A$core_gpio$523
  0C:3F22    A$core_gpio$524
  0C:3F24    A$core_gpio$525
  0C:3F26    A$core_gpio$526
  0C:3F27    A$core_gpio$528
  0C:3F2A    A$core_gpio$529
  0C:3F2C    A$core_gpio$530
  0C:3F2D    A$core_gpio$531
  0C:3F2E    A$core_gpio$532
  0C:3F30    A$core_gpio$533
  0C:3F31    A$core_gpio$535
  0C:3F33    A$core_gpio$536
  0C:3F35    A$core_gpio$537
  0C:3F37    A$core_gpio$538
  0C:3F39    A$core_gpio$539
  0C:3F3B    A$core_gpio$540
  0C:3F3E    A$core_gpio$541
  0C:3F40    A$core_gpio$542
  0C:3F42    A$core_gpio$543
  0C:3F44    A$core_gpio$548
  0C:3F44    C$core_gpio.c$59$2$3
  0C:3F46    A$core_gpio$549
  0C:3F48    A$core_gpio$550
  0C:3F4A    A$core_gpio$551
  0C:3F4D    A$core_gpio$552
  0C:3F4E    A$core_gpio$553
  0C:3F4F    A$core_gpio$554
  0C:3F52    A$core_gpio$555
  0C:3F53    A$core_gpio$558
  0C:3F55    A$core_gpio$559
  0C:3F57    A$core_gpio$560
  0C:3F58    A$core_gpio$561
  0C:3F5A    A$core_gpio$562
  0C:3F5C    A$core_gpio$563
  0C:3F5D    A$core_gpio$565
  0C:3F60    A$core_gpio$566
  0C:3F62    A$core_gpio$567
  0C:3F63    A$core_gpio$568
  0C:3F64    A$core_gpio$569
  0C:3F66    A$core_gpio$570
  0C:3F67    A$core_gpio$572
  0C:3F69    A$core_gpio$573
  0C:3F6B    A$core_gpio$574
  0C:3F6E    A$core_gpio$577
  0C:3F6E    C$core_gpio.c$60$2$3
  0C:3F71    A$core_gpio$585
  0C:3F71    C$core_gpio.c$62$2$3
  0C:3F71    C$core_gpio.c$63$2$3
  0C:3F73    A$core_gpio$586
  0C:3F75    A$core_gpio$587
  0C:3F77    A$core_gpio$588
  0C:3F7A    A$core_gpio$589
  0C:3F7B    A$core_gpio$590
  0C:3F7C    A$core_gpio$591
  0C:3F7F    A$core_gpio$592
  0C:3F80    A$core_gpio$595
  0C:3F82    A$core_gpio$596
  0C:3F84    A$core_gpio$597
  0C:3F85    A$core_gpio$598
  0C:3F87    A$core_gpio$599
  0C:3F89    A$core_gpio$600
  0C:3F8A    A$core_gpio$602
  0C:3F8D    A$core_gpio$603
  0C:3F8F    A$core_gpio$604
  0C:3F90    A$core_gpio$606
  0C:3F92    A$core_gpio$607
  0C:3F94    A$core_gpio$608
  0C:3F96    A$core_gpio$609
  0C:3F98    A$core_gpio$610
  0C:3F9A    A$core_gpio$611
  0C:3F9D    A$core_gpio$612
  0C:3F9F    A$core_gpio$613
  0C:3FA1    A$core_gpio$614
  0C:3FA3    A$core_gpio$619
  0C:3FA3    C$core_gpio.c$64$2$3
  0C:3FA5    A$core_gpio$620
  0C:3FA7    A$core_gpio$621
  0C:3FA9    A$core_gpio$622
  0C:3FAC    A$core_gpio$623
  0C:3FAD    A$core_gpio$624
  0C:3FAE    A$core_gpio$625
  0C:3FB1    A$core_gpio$626
  0C:3FB2    A$core_gpio$629
  0C:3FB4    A$core_gpio$630
  0C:3FB6    A$core_gpio$631
  0C:3FB7    A$core_gpio$632
  0C:3FB9    A$core_gpio$633
  0C:3FBB    A$core_gpio$634
  0C:3FBC    A$core_gpio$636
  0C:3FBF    A$core_gpio$637
  0C:3FC1    A$core_gpio$638
  0C:3FC2    A$core_gpio$640
  0C:3FC4    A$core_gpio$641
  0C:3FC6    A$core_gpio$642
  0C:3FC8    A$core_gpio$643
  0C:3FCA    A$core_gpio$644
  0C:3FCC    A$core_gpio$645
  0C:3FCF    A$core_gpio$646
  0C:3FD1    A$core_gpio$647
  0C:3FD3    A$core_gpio$648
  0C:3FD5    A$core_gpio$653
  0C:3FD5    C$core_gpio.c$65$2$3
  0C:3FD7    A$core_gpio$654
  0C:3FD9    A$core_gpio$655
  0C:3FDB    A$core_gpio$656
  0C:3FDE    A$core_gpio$657
  0C:3FDF    A$core_gpio$658
  0C:3FE0    A$core_gpio$659
  0C:3FE3    A$core_gpio$660
  0C:3FE4    A$core_gpio$663
  0C:3FE6    A$core_gpio$664
  0C:3FE8    A$core_gpio$665
  0C:3FE9    A$core_gpio$666
  0C:3FEB    A$core_gpio$667
  0C:3FED    A$core_gpio$668
  0C:3FEE    A$core_gpio$670
  0C:3FF1    A$core_gpio$671
  0C:3FF3    A$core_gpio$672
  0C:3FF4    A$core_gpio$674
  0C:3FF6    A$core_gpio$675
  0C:3FF8    A$core_gpio$676
  0C:3FFA    A$core_gpio$677
  0C:3FFC    A$core_gpio$678
  0C:3FFE    A$core_gpio$679
  0C:4001    A$core_gpio$680
  0C:4003    A$core_gpio$681
  0C:4005    A$core_gpio$682
  0C:4007    A$core_gpio$687
  0C:4007    C$core_gpio.c$66$2$3
  0C:4009    A$core_gpio$688
  0C:400B    A$core_gpio$689
  0C:400D    A$core_gpio$690
  0C:4010    A$core_gpio$691
  0C:4011    A$core_gpio$692
  0C:4012    A$core_gpio$693
  0C:4015    A$core_gpio$694
  0C:4016    A$core_gpio$697
  0C:4018    A$core_gpio$698
  0C:401A    A$core_gpio$699
  0C:401B    A$core_gpio$700
  0C:401D    A$core_gpio$701
  0C:401F    A$core_gpio$702
  0C:4020    A$core_gpio$704
  0C:4023    A$core_gpio$705
  0C:4025    A$core_gpio$706
  0C:4026    A$core_gpio$708
  0C:4028    A$core_gpio$709
  0C:402A    A$core_gpio$710
  0C:402D    A$core_gpio$713
  0C:402D    C$core_gpio.c$67$2$3
  0C:4030    A$core_gpio$719
  0C:4030    C$core_gpio.c$70$2$3
  0C:4033    A$core_gpio$720
  0C:4035    A$core_gpio$721
  0C:4036    A$core_gpio$724
  0C:4039    A$core_gpio$725
  0C:403B    A$core_gpio$726
  0C:403C    A$core_gpio$729
  0C:403F    A$core_gpio$730
  0C:4041    A$core_gpio$731
  0C:4042    A$core_gpio$734
  0C:4045    A$core_gpio$735
  0C:4047    A$core_gpio$736
  0C:4048    A$core_gpio$739
  0C:404B    A$core_gpio$740
  0C:404D    A$core_gpio$741
  0C:404E    A$core_gpio$744
  0C:4051    A$core_gpio$745
  0C:4053    A$core_gpio$746
  0C:4054    A$core_gpio$749
  0C:4057    A$core_gpio$750
  0C:4059    A$core_gpio$751
  0C:405A    A$core_gpio$754
  0C:405D    A$core_gpio$755
  0C:405F    A$core_gpio$756
  0C:4060    A$core_gpio$759
  0C:4063    A$core_gpio$760
  0C:4065    A$core_gpio$761
  0C:4066    A$core_gpio$764
  0C:4069    A$core_gpio$765
  0C:406B    A$core_gpio$766
  0C:406C    A$core_gpio$769
  0C:406F    A$core_gpio$770
  0C:4071    A$core_gpio$771
  0C:4072    A$core_gpio$774
  0C:4075    A$core_gpio$775
  0C:4077    A$core_gpio$776
  0C:4078    A$core_gpio$779
  0C:407B    A$core_gpio$780
  0C:407D    A$core_gpio$781
  0C:407E    A$core_gpio$784
  0C:4081    A$core_gpio$785
  0C:4083    A$core_gpio$786
  0C:4084    A$core_gpio$789
  0C:4087    A$core_gpio$790
  0C:4089    A$core_gpio$791
  0C:408A    A$core_gpio$794
  0C:408D    A$core_gpio$795
  0C:408F    A$core_gpio$796
  0C:4090    A$core_gpio$799
  0C:4093    A$core_gpio$800
  0C:4095    A$core_gpio$801
  0C:4096    A$core_gpio$804
  0C:4099    A$core_gpio$805
  0C:409B    A$core_gpio$806
  0C:409C    A$core_gpio$809
  0C:409F    A$core_gpio$810
  0C:40A1    A$core_gpio$811
  0C:40A2    A$core_gpio$814
  0C:40A5    A$core_gpio$815
  0C:40A7    A$core_gpio$816
  0C:40A8    A$core_gpio$819
  0C:40AB    A$core_gpio$820
  0C:40AD    A$core_gpio$821
  0C:40AE    A$core_gpio$824
  0C:40B1    A$core_gpio$825
  0C:40B3    A$core_gpio$826
  0C:40B4    A$core_gpio$829
  0C:40B7    A$core_gpio$830
  0C:40B9    A$core_gpio$831
  0C:40BA    A$core_gpio$834
  0C:40BD    A$core_gpio$835
  0C:40BF    A$core_gpio$836
  0C:40C0    A$core_gpio$839
  0C:40C3    A$core_gpio$840
  0C:40C5    A$core_gpio$841
  0C:40C6    A$core_gpio$844
  0C:40C9    A$core_gpio$845
  0C:40CB    A$core_gpio$846
  0C:40CC    A$core_gpio$849
  0C:40CF    A$core_gpio$850
  0C:40D1    A$core_gpio$851
  0C:40D2    A$core_gpio$854
  0C:40D5    A$core_gpio$855
  0C:40D7    A$core_gpio$856
  0C:40D8    A$core_gpio$859
  0C:40DB    A$core_gpio$860
  0C:40DD    A$core_gpio$861
  0C:40DE    A$core_gpio$864
  0C:40E1    A$core_gpio$865
  0C:40E3    A$core_gpio$866
  0C:40E4    A$core_gpio$869
  0C:40E7    A$core_gpio$870
  0C:40E9    A$core_gpio$871
  0C:40EA    A$core_gpio$874
  0C:40ED    A$core_gpio$875
  0C:40EF    A$core_gpio$876
  0C:40F0    A$core_gpio$878
  0C:40F3    A$core_gpio$879
  0C:40F5    A$core_gpio$880
  0C:40F6    A$core_gpio$881
  0C:40F7    A$core_gpio$882
  0C:40F8    A$core_gpio$883
  0C:40F9    A$core_gpio$884
  0C:40FA    A$core_gpio$885
  0C:40FB    A$core_gpio$886
  0C:40FC    A$core_gpio$887
  0C:40FD    A$core_gpio$889
  0C:4100    A$core_gpio$890
  0C:4103    A$core_gpio$891
  0C:4106    A$core_gpio$892
  0C:4109    A$core_gpio$898
  0C:4109    C$core_gpio.c$72$1$1
  0C:4109    C$core_gpio.c$73$1$1
  0C:4109    XG$GPIO_init$0$0
  0C:410A    A$core_gpio$917
  0C:410A    C$core_gpio.c$79$1$1
  0C:410A    G$GPIO_config$0$0
  0C:410A    _GPIO_config
  0C:410C    A$core_gpio$918
  0C:410E    A$core_gpio$919
  0C:4110    A$core_gpio$920
  0C:4113    A$core_gpio$921
  0C:4114    A$core_gpio$922
  0C:4115    A$core_gpio$923
  0C:4116    A$core_gpio$924
  0C:4117    A$core_gpio$925
  0C:4118    A$core_gpio$926
  0C:4119    A$core_gpio$927
  0C:411A    A$core_gpio$931
  0C:411A    C$core_gpio.c$86$2$2
  0C:411D    A$core_gpio$932
  0C:411E    A$core_gpio$933
  0C:411F    A$core_gpio$936
  0C:4122    A$core_gpio$938
  0C:4123    A$core_gpio$939
  0C:4124    A$core_gpio$940
  0C:4125    A$core_gpio$942
  0C:4126    A$core_gpio$944
  0C:4128    A$core_gpio$945
  0C:412B    A$core_gpio$949
  0C:412E    A$core_gpio$950
  0C:4130    A$core_gpio$951
  0C:4131    A$core_gpio$954
  0C:4134    A$core_gpio$955
  0C:4136    A$core_gpio$956
  0C:4137    A$core_gpio$959
  0C:413A    A$core_gpio$960
  0C:413C    A$core_gpio$961
  0C:413D    A$core_gpio$964
  0C:4140    A$core_gpio$965
  0C:4142    A$core_gpio$966
  0C:4143    A$core_gpio$969
  0C:4146    A$core_gpio$970
  0C:4148    A$core_gpio$971
  0C:4149    A$core_gpio$974
  0C:414C    A$core_gpio$975
  0C:414E    A$core_gpio$976
  0C:414F    A$core_gpio$979
  0C:4152    A$core_gpio$980
  0C:4154    A$core_gpio$981
  0C:4155    A$core_gpio$984
  0C:4158    A$core_gpio$985
  0C:415A    A$core_gpio$986
  0C:415B    A$core_gpio$989
  0C:415E    A$core_gpio$990
  0C:4160    A$core_gpio$991
  0C:4161    A$core_gpio$994
  0C:4164    A$core_gpio$995
  0C:4166    A$core_gpio$996
  0C:4167    A$core_gpio$999
  0C:416A    A$core_gpio$1000
  0C:416C    A$core_gpio$1001
  0C:416D    A$core_gpio$1004
  0C:4170    A$core_gpio$1005
  0C:4172    A$core_gpio$1006
  0C:4173    A$core_gpio$1009
  0C:4176    A$core_gpio$1010
  0C:4178    A$core_gpio$1011
  0C:4179    A$core_gpio$1014
  0C:417C    A$core_gpio$1015
  0C:417E    A$core_gpio$1016
  0C:417F    A$core_gpio$1019
  0C:4182    A$core_gpio$1020
  0C:4184    A$core_gpio$1021
  0C:4185    A$core_gpio$1024
  0C:4188    A$core_gpio$1025
  0C:418A    A$core_gpio$1026
  0C:418B    A$core_gpio$1029
  0C:418E    A$core_gpio$1030
  0C:4190    A$core_gpio$1031
  0C:4191    A$core_gpio$1034
  0C:4194    A$core_gpio$1035
  0C:4196    A$core_gpio$1036
  0C:4197    A$core_gpio$1039
  0C:419A    A$core_gpio$1040
  0C:419C    A$core_gpio$1041
  0C:419D    A$core_gpio$1044
  0C:41A0    A$core_gpio$1045
  0C:41A2    A$core_gpio$1046
  0C:41A3    A$core_gpio$1049
  0C:41A6    A$core_gpio$1050
  0C:41A8    A$core_gpio$1051
  0C:41A9    A$core_gpio$1054
  0C:41AC    A$core_gpio$1055
  0C:41AE    A$core_gpio$1056
  0C:41AF    A$core_gpio$1059
  0C:41B2    A$core_gpio$1060
  0C:41B4    A$core_gpio$1061
  0C:41B5    A$core_gpio$1064
  0C:41B8    A$core_gpio$1065
  0C:41BA    A$core_gpio$1066
  0C:41BB    A$core_gpio$1069
  0C:41BE    A$core_gpio$1070
  0C:41C0    A$core_gpio$1071
  0C:41C1    A$core_gpio$1074
  0C:41C4    A$core_gpio$1075
  0C:41C6    A$core_gpio$1076
  0C:41C7    A$core_gpio$1079
  0C:41CA    A$core_gpio$1080
  0C:41CC    A$core_gpio$1081
  0C:41CD    A$core_gpio$1084
  0C:41D0    A$core_gpio$1085
  0C:41D2    A$core_gpio$1086
  0C:41D3    A$core_gpio$1089
  0C:41D6    A$core_gpio$1090
  0C:41D8    A$core_gpio$1091
  0C:41D9    A$core_gpio$1094
  0C:41DC    A$core_gpio$1095
  0C:41DE    A$core_gpio$1096
  0C:41DF    A$core_gpio$1099
  0C:41E2    A$core_gpio$1100
  0C:41E4    A$core_gpio$1101
  0C:41E5    A$core_gpio$1104
  0C:41E8    A$core_gpio$1105
  0C:41EA    A$core_gpio$1106
  0C:41EB    A$core_gpio$1108
  0C:41EE    A$core_gpio$1109
  0C:41F0    A$core_gpio$1110
  0C:41F1    A$core_gpio$1111
  0C:41F2    A$core_gpio$1112
  0C:41F3    A$core_gpio$1113
  0C:41F4    A$core_gpio$1114
  0C:41F5    A$core_gpio$1115
  0C:41F6    A$core_gpio$1116
  0C:41F7    A$core_gpio$1117
  0C:41F8    A$core_gpio$1119
  0C:41FB    A$core_gpio$1120
  0C:41FE    A$core_gpio$1121
  0C:4201    A$core_gpio$1122
  0C:4203    A$core_gpio$1123
  0C:4205    A$core_gpio$1124
  0C:4208    A$core_gpio$1125
  0C:420A    A$core_gpio$1126
  0C:420C    A$core_gpio$1131
  0C:420C    C$core_gpio.c$88$1$1
  0C:420D    A$core_gpio$1133
  0C:420F    A$core_gpio$1134
  0C:4212    A$core_gpio$1139
  0C:4212    C$core_gpio.c$90$2$4
  0C:4215    A$core_gpio$1140
  0C:4216    A$core_gpio$1141
  0C:4217    A$core_gpio$1142
  0C:4218    A$core_gpio$1143
  0C:4219    A$core_gpio$1144
  0C:421A    A$core_gpio$1145
  0C:421B    A$core_gpio$1146
  0C:421C    A$core_gpio$1147
  0C:421D    A$core_gpio$1150
  0C:421F    A$core_gpio$1151
  0C:4221    A$core_gpio$1152
  0C:4223    A$core_gpio$1153
  0C:4226    A$core_gpio$1154
  0C:4227    A$core_gpio$1155
  0C:4228    A$core_gpio$1156
  0C:422B    A$core_gpio$1157
  0C:422C    A$core_gpio$1159
  0C:422E    A$core_gpio$1160
  0C:4230    A$core_gpio$1165
  0C:4230    C$core_gpio.c$91$2$4
  0C:4231    A$core_gpio$1166
  0C:4234    A$core_gpio$1167
  0C:4235    A$core_gpio$1168
  0C:4236    A$core_gpio$1169
  0C:4238    A$core_gpio$1171
  0C:4239    A$core_gpio$1172
  0C:423A    A$core_gpio$1173
  0C:423C    A$core_gpio$1174
  0C:423D    A$core_gpio$1175
  0C:423E    A$core_gpio$1177
  0C:4240    A$core_gpio$1178
  0C:4242    A$core_gpio$1179
  0C:4243    A$core_gpio$1180
  0C:4245    A$core_gpio$1181
  0C:4247    A$core_gpio$1182
  0C:4248    A$core_gpio$1183
  0C:424A    A$core_gpio$1184
  0C:424C    A$core_gpio$1185
  0C:424D    A$core_gpio$1186
  0C:424F    A$core_gpio$1187
  0C:4251    A$core_gpio$1188
  0C:4252    A$core_gpio$1193
  0C:4252    C$core_gpio.c$92$2$4
  0C:4255    A$core_gpio$1194
  0C:4256    A$core_gpio$1195
  0C:4257    A$core_gpio$1196
  0C:4258    A$core_gpio$1197
  0C:4259    A$core_gpio$1198
  0C:425A    A$core_gpio$1199
  0C:425B    A$core_gpio$1200
  0C:425C    A$core_gpio$1201
  0C:425D    A$core_gpio$1202
  0C:425E    A$core_gpio$1203
  0C:425F    A$core_gpio$1204
  0C:4260    A$core_gpio$1206
  0C:4263    A$core_gpio$1207
  0C:4264    A$core_gpio$1208
  0C:4265    A$core_gpio$1209
  0C:4266    A$core_gpio$1210
  0C:4267    A$core_gpio$1211
  0C:4268    A$core_gpio$1212
  0C:4269    A$core_gpio$1213
  0C:426A    A$core_gpio$1214
  0C:426B    A$core_gpio$1215
  0C:426C    A$core_gpio$1216
  0C:426D    A$core_gpio$1217
  0C:426E    A$core_gpio$1219
  0C:4270    A$core_gpio$1220
  0C:4272    A$core_gpio$1221
  0C:4274    A$core_gpio$1222
  0C:4276    A$core_gpio$1223
  0C:4278    A$core_gpio$1224
  0C:427A    A$core_gpio$1225
  0C:427C    A$core_gpio$1226
  0C:427E    A$core_gpio$1227
  0C:4281    A$core_gpio$1228
  0C:4283    A$core_gpio$1229
  0C:4285    A$core_gpio$1230
  0C:4287    A$core_gpio$1231
  0C:4289    A$core_gpio$1232
  0C:428B    A$core_gpio$1233
  0C:428D    A$core_gpio$1237
  0C:428D    C$core_gpio.c$101$3$5
  0C:428F    A$core_gpio$1238
  0C:4291    A$core_gpio$1239
  0C:4293    A$core_gpio$1240
  0C:4295    A$core_gpio$1241
  0C:4297    A$core_gpio$1242
  0C:4299    A$core_gpio$1243
  0C:429C    A$core_gpio$1244
  0C:429E    A$core_gpio$1245
  0C:42A0    A$core_gpio$1246
  0C:42A2    A$core_gpio$1247
  0C:42A3    A$core_gpio$1248
  0C:42A5    A$core_gpio$1249
  0C:42A7    A$core_gpio$1250
  0C:42A9    A$core_gpio$1251
  0C:42AB    A$core_gpio$1254
  0C:42AC    A$core_gpio$1255
  0C:42AF    A$core_gpio$1256
  0C:42B0    A$core_gpio$1257
  0C:42B3    A$core_gpio$1258
  0C:42B4    A$core_gpio$1259
  0C:42B7    A$core_gpio$1260
  0C:42B8    A$core_gpio$1261
  0C:42BB    A$core_gpio$1262
  0C:42BE    A$core_gpio$1266
  0C:42C1    A$core_gpio$1267
  0C:42C3    A$core_gpio$1268
  0C:42C4    A$core_gpio$1271
  0C:42C7    A$core_gpio$1272
  0C:42C9    A$core_gpio$1273
  0C:42CA    A$core_gpio$1276
  0C:42CD    A$core_gpio$1277
  0C:42CF    A$core_gpio$1278
  0C:42D0    A$core_gpio$1281
  0C:42D3    A$core_gpio$1282
  0C:42D5    A$core_gpio$1283
  0C:42D6    A$core_gpio$1286
  0C:42D9    A$core_gpio$1287
  0C:42DB    A$core_gpio$1288
  0C:42DC    A$core_gpio$1291
  0C:42DF    A$core_gpio$1292
  0C:42E1    A$core_gpio$1293
  0C:42E2    A$core_gpio$1296
  0C:42E5    A$core_gpio$1297
  0C:42E7    A$core_gpio$1298
  0C:42E8    A$core_gpio$1301
  0C:42EB    A$core_gpio$1302
  0C:42ED    A$core_gpio$1303
  0C:42EE    A$core_gpio$1306
  0C:42F1    A$core_gpio$1307
  0C:42F3    A$core_gpio$1308
  0C:42F4    A$core_gpio$1311
  0C:42F7    A$core_gpio$1312
  0C:42F9    A$core_gpio$1313
  0C:42FA    A$core_gpio$1316
  0C:42FD    A$core_gpio$1317
  0C:42FF    A$core_gpio$1318
  0C:4300    A$core_gpio$1321
  0C:4303    A$core_gpio$1322
  0C:4305    A$core_gpio$1323
  0C:4306    A$core_gpio$1326
  0C:4309    A$core_gpio$1327
  0C:430B    A$core_gpio$1328
  0C:430C    A$core_gpio$1331
  0C:430F    A$core_gpio$1332
  0C:4311    A$core_gpio$1333
  0C:4312    A$core_gpio$1336
  0C:4315    A$core_gpio$1337
  0C:4317    A$core_gpio$1338
  0C:4318    A$core_gpio$1341
  0C:431B    A$core_gpio$1342
  0C:431D    A$core_gpio$1343
  0C:431E    A$core_gpio$1346
  0C:4321    A$core_gpio$1347
  0C:4323    A$core_gpio$1348
  0C:4324    A$core_gpio$1351
  0C:4327    A$core_gpio$1352
  0C:4329    A$core_gpio$1353
  0C:432A    A$core_gpio$1356
  0C:432D    A$core_gpio$1357
  0C:432F    A$core_gpio$1358
  0C:4330    A$core_gpio$1361
  0C:4333    A$core_gpio$1362
  0C:4335    A$core_gpio$1363
  0C:4336    A$core_gpio$1366
  0C:4339    A$core_gpio$1367
  0C:433B    A$core_gpio$1368
  0C:433C    A$core_gpio$1371
  0C:433F    A$core_gpio$1372
  0C:4341    A$core_gpio$1373
  0C:4342    A$core_gpio$1376
  0C:4345    A$core_gpio$1377
  0C:4347    A$core_gpio$1378
  0C:4348    A$core_gpio$1381
  0C:434B    A$core_gpio$1382
  0C:434D    A$core_gpio$1383
  0C:434E    A$core_gpio$1386
  0C:4351    A$core_gpio$1387
  0C:4353    A$core_gpio$1388
  0C:4354    A$core_gpio$1391
  0C:4357    A$core_gpio$1392
  0C:4359    A$core_gpio$1393
  0C:435A    A$core_gpio$1396
  0C:435D    A$core_gpio$1397
  0C:435F    A$core_gpio$1398
  0C:4360    A$core_gpio$1401
  0C:4363    A$core_gpio$1402
  0C:4365    A$core_gpio$1403
  0C:4366    A$core_gpio$1406
  0C:4369    A$core_gpio$1407
  0C:436B    A$core_gpio$1408
  0C:436C    A$core_gpio$1411
  0C:436F    A$core_gpio$1412
  0C:4371    A$core_gpio$1413
  0C:4372    A$core_gpio$1416
  0C:4375    A$core_gpio$1417
  0C:4377    A$core_gpio$1418
  0C:4378    A$core_gpio$1421
  0C:437B    A$core_gpio$1422
  0C:437D    A$core_gpio$1423
  0C:437E    A$core_gpio$1425
  0C:4381    A$core_gpio$1426
  0C:4383    A$core_gpio$1427
  0C:4384    A$core_gpio$1428
  0C:4385    A$core_gpio$1429
  0C:4386    A$core_gpio$1430
  0C:4387    A$core_gpio$1431
  0C:4388    A$core_gpio$1432
  0C:4389    A$core_gpio$1433
  0C:438A    A$core_gpio$1434
  0C:438B    A$core_gpio$1436
  0C:438E    A$core_gpio$1437
  0C:4391    A$core_gpio$1438
  0C:4394    A$core_gpio$1439
  0C:4397    A$core_gpio$1443
  0C:4397    C$core_gpio.c$103$2$1
  0C:4397    XG$GPIO_config$0$0
  0C:4398    A$core_gpio$1463
  0C:4398    C$core_gpio.c$109$2$1
  0C:4398    G$GPIO_set_outputs$0$0
  0C:4398    _GPIO_set_outputs
  0C:439A    A$core_gpio$1464
  0C:439C    A$core_gpio$1465
  0C:439E    A$core_gpio$1466
  0C:43A1    A$core_gpio$1467
  0C:43A2    A$core_gpio$1468
  0C:43A3    A$core_gpio$1469
  0C:43A4    A$core_gpio$1470
  0C:43A5    A$core_gpio$1471
  0C:43A6    A$core_gpio$1472
  0C:43A7    A$core_gpio$1473
  0C:43A8    A$core_gpio$1477
  0C:43A8    C$core_gpio.c$115$1$1
  0C:43AB    A$core_gpio$1478
  0C:43AC    A$core_gpio$1479
  0C:43AD    A$core_gpio$1480
  0C:43AE    A$core_gpio$1481
  0C:43AF    A$core_gpio$1482
  0C:43B0    A$core_gpio$1483
  0C:43B1    A$core_gpio$1484
  0C:43B2    A$core_gpio$1485
  0C:43B3    A$core_gpio$1488
  0C:43B5    A$core_gpio$1489
  0C:43B7    A$core_gpio$1490
  0C:43B8    A$core_gpio$1491
  0C:43BA    A$core_gpio$1492
  0C:43BC    A$core_gpio$1493
  0C:43BD    A$core_gpio$1494
  0C:43BF    A$core_gpio$1497
  0C:43C1    A$core_gpio$1498
  0C:43C3    A$core_gpio$1499
  0C:43C5    A$core_gpio$1500
  0C:43C8    A$core_gpio$1501
  0C:43C9    A$core_gpio$1504
  0C:43CC    A$core_gpio$1505
  0C:43CF    A$core_gpio$1509
  0C:43D2    A$core_gpio$1510
  0C:43D5    A$core_gpio$1514
  0C:43D8    A$core_gpio$1515
  0C:43DA    A$core_gpio$1517
  0C:43DD    A$core_gpio$1523
  0C:43DD    C$core_gpio.c$118$2$2
  0C:43DF    A$core_gpio$1524
  0C:43E1    A$core_gpio$1525
  0C:43E3    A$core_gpio$1526
  0C:43E6    A$core_gpio$1527
  0C:43E7    A$core_gpio$1528
  0C:43E8    A$core_gpio$1529
  0C:43EB    A$core_gpio$1530
  0C:43EC    A$core_gpio$1533
  0C:43EE    A$core_gpio$1534
  0C:43F0    A$core_gpio$1535
  0C:43F1    A$core_gpio$1536
  0C:43F3    A$core_gpio$1537
  0C:43F5    A$core_gpio$1538
  0C:43F6    A$core_gpio$1540
  0C:43F9    A$core_gpio$1541
  0C:43FA    A$core_gpio$1542
  0C:43FB    A$core_gpio$1543
  0C:43FC    A$core_gpio$1544
  0C:43FD    A$core_gpio$1545
  0C:43FE    A$core_gpio$1546
  0C:43FF    A$core_gpio$1547
  0C:4400    A$core_gpio$1548
  0C:4401    A$core_gpio$1549
  0C:4402    A$core_gpio$1550
  0C:4403    A$core_gpio$1551
  0C:4404    A$core_gpio$1553
  0C:4407    A$core_gpio$1554
  0C:4408    A$core_gpio$1555
  0C:4409    A$core_gpio$1556
  0C:440A    A$core_gpio$1557
  0C:440B    A$core_gpio$1558
  0C:440C    A$core_gpio$1559
  0C:440D    A$core_gpio$1560
  0C:440E    A$core_gpio$1561
  0C:440F    A$core_gpio$1562
  0C:4410    A$core_gpio$1563
  0C:4411    A$core_gpio$1564
  0C:4412    A$core_gpio$1566
  0C:4414    A$core_gpio$1567
  0C:4416    A$core_gpio$1568
  0C:4419    A$core_gpio$1571
  0C:4419    C$core_gpio.c$119$2$2
  0C:441C    A$core_gpio$1579
  0C:441C    C$core_gpio.c$121$2$2
  0C:441C    C$core_gpio.c$122$2$2
  0C:441E    A$core_gpio$1580
  0C:4420    A$core_gpio$1581
  0C:4422    A$core_gpio$1582
  0C:4425    A$core_gpio$1583
  0C:4426    A$core_gpio$1584
  0C:4427    A$core_gpio$1585
  0C:442A    A$core_gpio$1586
  0C:442B    A$core_gpio$1589
  0C:442D    A$core_gpio$1590
  0C:442F    A$core_gpio$1591
  0C:4430    A$core_gpio$1592
  0C:4432    A$core_gpio$1593
  0C:4434    A$core_gpio$1594
  0C:4435    A$core_gpio$1596
  0C:4438    A$core_gpio$1597
  0C:4439    A$core_gpio$1598
  0C:443B    A$core_gpio$1599
  0C:443C    A$core_gpio$1600
  0C:443D    A$core_gpio$1601
  0C:443F    A$core_gpio$1602
  0C:4440    A$core_gpio$1603
  0C:4441    A$core_gpio$1604
  0C:4443    A$core_gpio$1605
  0C:4444    A$core_gpio$1606
  0C:4445    A$core_gpio$1607
  0C:4447    A$core_gpio$1609
  0C:444A    A$core_gpio$1610
  0C:444C    A$core_gpio$1611
  0C:444D    A$core_gpio$1612
  0C:444E    A$core_gpio$1613
  0C:4450    A$core_gpio$1614
  0C:4451    A$core_gpio$1616
  0C:4453    A$core_gpio$1617
  0C:4455    A$core_gpio$1618
  0C:4457    A$core_gpio$1619
  0C:4459    A$core_gpio$1620
  0C:445B    A$core_gpio$1621
  0C:445E    A$core_gpio$1622
  0C:4460    A$core_gpio$1623
  0C:4462    A$core_gpio$1624
  0C:4464    A$core_gpio$1629
  0C:4464    C$core_gpio.c$123$2$2
  0C:4466    A$core_gpio$1630
  0C:4468    A$core_gpio$1631
  0C:446A    A$core_gpio$1632
  0C:446D    A$core_gpio$1633
  0C:446E    A$core_gpio$1634
  0C:446F    A$core_gpio$1635
  0C:4472    A$core_gpio$1636
  0C:4473    A$core_gpio$1639
  0C:4475    A$core_gpio$1640
  0C:4477    A$core_gpio$1641
  0C:4478    A$core_gpio$1642
  0C:447A    A$core_gpio$1643
  0C:447C    A$core_gpio$1644
  0C:447D    A$core_gpio$1646
  0C:4480    A$core_gpio$1647
  0C:4482    A$core_gpio$1648
  0C:4483    A$core_gpio$1649
  0C:4484    A$core_gpio$1650
  0C:4486    A$core_gpio$1651
  0C:4487    A$core_gpio$1653
  0C:4489    A$core_gpio$1654
  0C:448B    A$core_gpio$1655
  0C:448E    A$core_gpio$1658
  0C:448E    C$core_gpio.c$124$2$2
  0C:4491    A$core_gpio$1666
  0C:4491    C$core_gpio.c$126$2$2
  0C:4491    C$core_gpio.c$127$2$2
  0C:4493    A$core_gpio$1667
  0C:4495    A$core_gpio$1668
  0C:4497    A$core_gpio$1669
  0C:449A    A$core_gpio$1670
  0C:449B    A$core_gpio$1671
  0C:449C    A$core_gpio$1672
  0C:449F    A$core_gpio$1673
  0C:44A0    A$core_gpio$1676
  0C:44A2    A$core_gpio$1677
  0C:44A4    A$core_gpio$1678
  0C:44A5    A$core_gpio$1679
  0C:44A7    A$core_gpio$1680
  0C:44A9    A$core_gpio$1681
  0C:44AA    A$core_gpio$1683
  0C:44AD    A$core_gpio$1684
  0C:44AE    A$core_gpio$1685
  0C:44B0    A$core_gpio$1686
  0C:44B1    A$core_gpio$1687
  0C:44B2    A$core_gpio$1688
  0C:44B4    A$core_gpio$1689
  0C:44B5    A$core_gpio$1690
  0C:44B6    A$core_gpio$1691
  0C:44B8    A$core_gpio$1692
  0C:44B9    A$core_gpio$1693
  0C:44BA    A$core_gpio$1694
  0C:44BC    A$core_gpio$1696
  0C:44BF    A$core_gpio$1697
  0C:44C1    A$core_gpio$1698
  0C:44C2    A$core_gpio$1700
  0C:44C4    A$core_gpio$1701
  0C:44C6    A$core_gpio$1702
  0C:44C8    A$core_gpio$1703
  0C:44CA    A$core_gpio$1704
  0C:44CC    A$core_gpio$1705
  0C:44CF    A$core_gpio$1706
  0C:44D1    A$core_gpio$1707
  0C:44D3    A$core_gpio$1708
  0C:44D5    A$core_gpio$1713
  0C:44D5    C$core_gpio.c$128$2$2
  0C:44D7    A$core_gpio$1714
  0C:44D9    A$core_gpio$1715
  0C:44DB    A$core_gpio$1716
  0C:44DE    A$core_gpio$1717
  0C:44DF    A$core_gpio$1718
  0C:44E0    A$core_gpio$1719
  0C:44E3    A$core_gpio$1720
  0C:44E4    A$core_gpio$1723
  0C:44E6    A$core_gpio$1724
  0C:44E8    A$core_gpio$1725
  0C:44E9    A$core_gpio$1726
  0C:44EB    A$core_gpio$1727
  0C:44ED    A$core_gpio$1728
  0C:44EE    A$core_gpio$1730
  0C:44F1    A$core_gpio$1731
  0C:44F3    A$core_gpio$1732
  0C:44F4    A$core_gpio$1734
  0C:44F6    A$core_gpio$1735
  0C:44F8    A$core_gpio$1736
  0C:44FA    A$core_gpio$1737
  0C:44FC    A$core_gpio$1738
  0C:44FE    A$core_gpio$1739
  0C:4501    A$core_gpio$1740
  0C:4503    A$core_gpio$1741
  0C:4505    A$core_gpio$1742
  0C:4507    A$core_gpio$1747
  0C:4507    C$core_gpio.c$129$2$2
  0C:4509    A$core_gpio$1748
  0C:450B    A$core_gpio$1749
  0C:450D    A$core_gpio$1750
  0C:4510    A$core_gpio$1751
  0C:4511    A$core_gpio$1752
  0C:4512    A$core_gpio$1753
  0C:4515    A$core_gpio$1754
  0C:4516    A$core_gpio$1757
  0C:4518    A$core_gpio$1758
  0C:451A    A$core_gpio$1759
  0C:451B    A$core_gpio$1760
  0C:451D    A$core_gpio$1761
  0C:451F    A$core_gpio$1762
  0C:4520    A$core_gpio$1764
  0C:4523    A$core_gpio$1765
  0C:4525    A$core_gpio$1766
  0C:4526    A$core_gpio$1768
  0C:4528    A$core_gpio$1769
  0C:452A    A$core_gpio$1770
  0C:452C    A$core_gpio$1771
  0C:452E    A$core_gpio$1772
  0C:4530    A$core_gpio$1773
  0C:4533    A$core_gpio$1774
  0C:4535    A$core_gpio$1775
  0C:4537    A$core_gpio$1776
  0C:4539    A$core_gpio$1781
  0C:4539    C$core_gpio.c$130$2$2
  0C:453B    A$core_gpio$1782
  0C:453D    A$core_gpio$1783
  0C:453F    A$core_gpio$1784
  0C:4542    A$core_gpio$1785
  0C:4543    A$core_gpio$1786
  0C:4544    A$core_gpio$1787
  0C:4547    A$core_gpio$1788
  0C:4548    A$core_gpio$1791
  0C:454A    A$core_gpio$1792
  0C:454C    A$core_gpio$1793
  0C:454D    A$core_gpio$1794
  0C:454F    A$core_gpio$1795
  0C:4551    A$core_gpio$1796
  0C:4552    A$core_gpio$1798
  0C:4555    A$core_gpio$1799
  0C:4557    A$core_gpio$1800
  0C:4558    A$core_gpio$1802
  0C:455A    A$core_gpio$1803
  0C:455C    A$core_gpio$1804
  0C:455F    A$core_gpio$1807
  0C:455F    C$core_gpio.c$131$2$2
  0C:4562    A$core_gpio$1813
  0C:4562    C$core_gpio.c$134$2$2
  0C:4565    A$core_gpio$1814
  0C:4567    A$core_gpio$1815
  0C:4568    A$core_gpio$1818
  0C:456B    A$core_gpio$1819
  0C:456D    A$core_gpio$1820
  0C:456E    A$core_gpio$1823
  0C:4571    A$core_gpio$1824
  0C:4573    A$core_gpio$1825
  0C:4574    A$core_gpio$1828
  0C:4577    A$core_gpio$1829
  0C:4579    A$core_gpio$1830
  0C:457A    A$core_gpio$1833
  0C:457D    A$core_gpio$1834
  0C:457F    A$core_gpio$1835
  0C:4580    A$core_gpio$1838
  0C:4583    A$core_gpio$1839
  0C:4585    A$core_gpio$1840
  0C:4586    A$core_gpio$1843
  0C:4589    A$core_gpio$1844
  0C:458B    A$core_gpio$1845
  0C:458C    A$core_gpio$1848
  0C:458F    A$core_gpio$1849
  0C:4591    A$core_gpio$1850
  0C:4592    A$core_gpio$1853
  0C:4595    A$core_gpio$1854
  0C:4597    A$core_gpio$1855
  0C:4598    A$core_gpio$1858
  0C:459B    A$core_gpio$1859
  0C:459D    A$core_gpio$1860
  0C:459E    A$core_gpio$1863
  0C:45A1    A$core_gpio$1864
  0C:45A3    A$core_gpio$1865
  0C:45A4    A$core_gpio$1868
  0C:45A7    A$core_gpio$1869
  0C:45A9    A$core_gpio$1870
  0C:45AA    A$core_gpio$1873
  0C:45AD    A$core_gpio$1874
  0C:45AF    A$core_gpio$1875
  0C:45B0    A$core_gpio$1878
  0C:45B3    A$core_gpio$1879
  0C:45B5    A$core_gpio$1880
  0C:45B6    A$core_gpio$1883
  0C:45B9    A$core_gpio$1884
  0C:45BB    A$core_gpio$1885
  0C:45BC    A$core_gpio$1888
  0C:45BF    A$core_gpio$1889
  0C:45C1    A$core_gpio$1890
  0C:45C2    A$core_gpio$1893
  0C:45C5    A$core_gpio$1894
  0C:45C7    A$core_gpio$1895
  0C:45C8    A$core_gpio$1898
  0C:45CB    A$core_gpio$1899
  0C:45CD    A$core_gpio$1900
  0C:45CE    A$core_gpio$1903
  0C:45D1    A$core_gpio$1904
  0C:45D3    A$core_gpio$1905
  0C:45D4    A$core_gpio$1908
  0C:45D7    A$core_gpio$1909
  0C:45D9    A$core_gpio$1910
  0C:45DA    A$core_gpio$1913
  0C:45DD    A$core_gpio$1914
  0C:45DF    A$core_gpio$1915
  0C:45E0    A$core_gpio$1918
  0C:45E3    A$core_gpio$1919
  0C:45E5    A$core_gpio$1920
  0C:45E6    A$core_gpio$1923
  0C:45E9    A$core_gpio$1924
  0C:45EB    A$core_gpio$1925
  0C:45EC    A$core_gpio$1928
  0C:45EF    A$core_gpio$1929
  0C:45F1    A$core_gpio$1930
  0C:45F2    A$core_gpio$1933
  0C:45F5    A$core_gpio$1934
  0C:45F7    A$core_gpio$1935
  0C:45F8    A$core_gpio$1938
  0C:45FB    A$core_gpio$1939
  0C:45FD    A$core_gpio$1940
  0C:45FE    A$core_gpio$1943
  0C:4601    A$core_gpio$1944
  0C:4603    A$core_gpio$1945
  0C:4604    A$core_gpio$1948
  0C:4607    A$core_gpio$1949
  0C:4609    A$core_gpio$1950
  0C:460A    A$core_gpio$1953
  0C:460D    A$core_gpio$1954
  0C:460F    A$core_gpio$1955
  0C:4610    A$core_gpio$1958
  0C:4613    A$core_gpio$1959
  0C:4615    A$core_gpio$1960
  0C:4616    A$core_gpio$1963
  0C:4619    A$core_gpio$1964
  0C:461B    A$core_gpio$1965
  0C:461C    A$core_gpio$1968
  0C:461F    A$core_gpio$1969
  0C:4621    A$core_gpio$1970
  0C:4622    A$core_gpio$1972
  0C:4625    A$core_gpio$1973
  0C:4627    A$core_gpio$1974
  0C:4628    A$core_gpio$1975
  0C:4629    A$core_gpio$1976
  0C:462A    A$core_gpio$1977
  0C:462B    A$core_gpio$1978
  0C:462C    A$core_gpio$1979
  0C:462D    A$core_gpio$1980
  0C:462E    A$core_gpio$1981
  0C:462F    A$core_gpio$1983
  0C:4632    A$core_gpio$1984
  0C:4635    A$core_gpio$1985
  0C:4638    A$core_gpio$1986
  0C:463B    A$core_gpio$1991
  0C:463B    C$core_gpio.c$145$1$1
  0C:463E    A$core_gpio$1992
  0C:463F    A$core_gpio$1993
  0C:4640    A$core_gpio$1994
  0C:4641    A$core_gpio$1995
  0C:4642    A$core_gpio$1996
  0C:4643    A$core_gpio$1997
  0C:4644    A$core_gpio$1998
  0C:4645    A$core_gpio$1999
  0C:4646    A$core_gpio$2001
  0C:4648    A$core_gpio$2002
  0C:464A    A$core_gpio$2003
  0C:464C    A$core_gpio$2004
  0C:464F    A$core_gpio$2005
  0C:4651    A$core_gpio$2006
  0C:4653    A$core_gpio$2007
  0C:4655    A$core_gpio$2008
  0C:4656    A$core_gpio$2010
  0C:4659    A$core_gpio$2011
  0C:465A    A$core_gpio$2012
  0C:465B    A$core_gpio$2013
  0C:465C    A$core_gpio$2014
  0C:465D    A$core_gpio$2015
  0C:465E    A$core_gpio$2016
  0C:465F    A$core_gpio$2017
  0C:4660    A$core_gpio$2018
  0C:4661    A$core_gpio$2019
  0C:4662    A$core_gpio$2020
  0C:4663    A$core_gpio$2021
  0C:4664    A$core_gpio$2024
  0C:4665    A$core_gpio$2025
  0C:4668    A$core_gpio$2026
  0C:4669    A$core_gpio$2027
  0C:466C    A$core_gpio$2028
  0C:466D    A$core_gpio$2029
  0C:4670    A$core_gpio$2030
  0C:4671    A$core_gpio$2031
  0C:4674    A$core_gpio$2032
  0C:4677    A$core_gpio$2036
  0C:467A    A$core_gpio$2037
  0C:467C    A$core_gpio$2038
  0C:467D    A$core_gpio$2041
  0C:4680    A$core_gpio$2042
  0C:4682    A$core_gpio$2043
  0C:4683    A$core_gpio$2046
  0C:4686    A$core_gpio$2047
  0C:4688    A$core_gpio$2048
  0C:4689    A$core_gpio$2051
  0C:468C    A$core_gpio$2052
  0C:468E    A$core_gpio$2053
  0C:468F    A$core_gpio$2056
  0C:4692    A$core_gpio$2057
  0C:4694    A$core_gpio$2058
  0C:4695    A$core_gpio$2061
  0C:4698    A$core_gpio$2062
  0C:469A    A$core_gpio$2063
  0C:469B    A$core_gpio$2066
  0C:469E    A$core_gpio$2067
  0C:46A0    A$core_gpio$2068
  0C:46A1    A$core_gpio$2071
  0C:46A4    A$core_gpio$2072
  0C:46A6    A$core_gpio$2073
  0C:46A7    A$core_gpio$2076
  0C:46AA    A$core_gpio$2077
  0C:46AC    A$core_gpio$2078
  0C:46AD    A$core_gpio$2081
  0C:46B0    A$core_gpio$2082
  0C:46B2    A$core_gpio$2083
  0C:46B3    A$core_gpio$2086
  0C:46B6    A$core_gpio$2087
  0C:46B8    A$core_gpio$2088
  0C:46B9    A$core_gpio$2091
  0C:46BC    A$core_gpio$2092
  0C:46BE    A$core_gpio$2093
  0C:46BF    A$core_gpio$2096
  0C:46C2    A$core_gpio$2097
  0C:46C4    A$core_gpio$2098
  0C:46C5    A$core_gpio$2101
  0C:46C8    A$core_gpio$2102
  0C:46CA    A$core_gpio$2103
  0C:46CB    A$core_gpio$2106
  0C:46CE    A$core_gpio$2107
  0C:46D0    A$core_gpio$2108
  0C:46D1    A$core_gpio$2111
  0C:46D4    A$core_gpio$2112
  0C:46D6    A$core_gpio$2113
  0C:46D7    A$core_gpio$2116
  0C:46DA    A$core_gpio$2117
  0C:46DC    A$core_gpio$2118
  0C:46DD    A$core_gpio$2121
  0C:46E0    A$core_gpio$2122
  0C:46E2    A$core_gpio$2123
  0C:46E3    A$core_gpio$2126
  0C:46E6    A$core_gpio$2127
  0C:46E8    A$core_gpio$2128
  0C:46E9    A$core_gpio$2131
  0C:46EC    A$core_gpio$2132
  0C:46EE    A$core_gpio$2133
  0C:46EF    A$core_gpio$2136
  0C:46F2    A$core_gpio$2137
  0C:46F4    A$core_gpio$2138
  0C:46F5    A$core_gpio$2141
  0C:46F8    A$core_gpio$2142
  0C:46FA    A$core_gpio$2143
  0C:46FB    A$core_gpio$2146
  0C:46FE    A$core_gpio$2147
  0C:4700    A$core_gpio$2148
  0C:4701    A$core_gpio$2151
  0C:4704    A$core_gpio$2152
  0C:4706    A$core_gpio$2153
  0C:4707    A$core_gpio$2156
  0C:470A    A$core_gpio$2157
  0C:470C    A$core_gpio$2158
  0C:470D    A$core_gpio$2161
  0C:4710    A$core_gpio$2162
  0C:4712    A$core_gpio$2163
  0C:4713    A$core_gpio$2166
  0C:4716    A$core_gpio$2167
  0C:4718    A$core_gpio$2168
  0C:4719    A$core_gpio$2171
  0C:471C    A$core_gpio$2172
  0C:471E    A$core_gpio$2173
  0C:471F    A$core_gpio$2176
  0C:4722    A$core_gpio$2177
  0C:4724    A$core_gpio$2178
  0C:4725    A$core_gpio$2181
  0C:4728    A$core_gpio$2182
  0C:472A    A$core_gpio$2183
  0C:472B    A$core_gpio$2186
  0C:472E    A$core_gpio$2187
  0C:4730    A$core_gpio$2188
  0C:4731    A$core_gpio$2191
  0C:4734    A$core_gpio$2192
  0C:4736    A$core_gpio$2193
  0C:4737    A$core_gpio$2195
  0C:473A    A$core_gpio$2196
  0C:473C    A$core_gpio$2197
  0C:473D    A$core_gpio$2198
  0C:473E    A$core_gpio$2199
  0C:473F    A$core_gpio$2200
  0C:4740    A$core_gpio$2201
  0C:4741    A$core_gpio$2202
  0C:4742    A$core_gpio$2203
  0C:4743    A$core_gpio$2204
  0C:4744    A$core_gpio$2206
  0C:4747    A$core_gpio$2207
  0C:474A    A$core_gpio$2208
  0C:474D    A$core_gpio$2209
  0C:4750    A$core_gpio$2213
  0C:4750    C$core_gpio.c$146$1$1
  0C:4750    XG$GPIO_set_outputs$0$0
  0C:4751    A$core_gpio$2229
  0C:4751    C$core_gpio.c$152$1$1
  0C:4751    G$GPIO_get_inputs$0$0
  0C:4751    _GPIO_get_inputs
  0C:4753    A$core_gpio$2230
  0C:4755    A$core_gpio$2231
  0C:4757    A$core_gpio$2232
  0C:475A    A$core_gpio$2233
  0C:475B    A$core_gpio$2234
  0C:475C    A$core_gpio$2235
  0C:475D    A$core_gpio$2236
  0C:475E    A$core_gpio$2237
  0C:475F    A$core_gpio$2238
  0C:4760    A$core_gpio$2239
  0C:4761    A$core_gpio$2243
  0C:4761    C$core_gpio.c$157$1$1
  0C:4764    A$core_gpio$2244
  0C:4765    A$core_gpio$2245
  0C:4766    A$core_gpio$2246
  0C:4767    A$core_gpio$2247
  0C:4768    A$core_gpio$2248
  0C:4769    A$core_gpio$2249
  0C:476A    A$core_gpio$2250
  0C:476B    A$core_gpio$2251
  0C:476C    A$core_gpio$2255
  0C:476C    C$core_gpio.c$159$1$1
  0C:476F    A$core_gpio$2256
  0C:4770    A$core_gpio$2257
  0C:4771    A$core_gpio$2258
  0C:4772    A$core_gpio$2259
  0C:4773    A$core_gpio$2260
  0C:4774    A$core_gpio$2261
  0C:4775    A$core_gpio$2262
  0C:4776    A$core_gpio$2263
  0C:4777    A$core_gpio$2266
  0C:4779    A$core_gpio$2267
  0C:477B    A$core_gpio$2268
  0C:477C    A$core_gpio$2269
  0C:477E    A$core_gpio$2270
  0C:4780    A$core_gpio$2271
  0C:4781    A$core_gpio$2272
  0C:4783    A$core_gpio$2275
  0C:4785    A$core_gpio$2276
  0C:4787    A$core_gpio$2277
  0C:4789    A$core_gpio$2278
  0C:478C    A$core_gpio$2279
  0C:478D    A$core_gpio$2282
  0C:4790    A$core_gpio$2283
  0C:4793    A$core_gpio$2287
  0C:4796    A$core_gpio$2288
  0C:4799    A$core_gpio$2292
  0C:479C    A$core_gpio$2293
  0C:479E    A$core_gpio$2295
  0C:47A1    A$core_gpio$2301
  0C:47A1    C$core_gpio.c$162$2$2
  0C:47A3    A$core_gpio$2302
  0C:47A5    A$core_gpio$2303
  0C:47A7    A$core_gpio$2304
  0C:47AA    A$core_gpio$2305
  0C:47AB    A$core_gpio$2306
  0C:47AC    A$core_gpio$2307
  0C:47AF    A$core_gpio$2308
  0C:47B0    A$core_gpio$2311
  0C:47B2    A$core_gpio$2312
  0C:47B4    A$core_gpio$2313
  0C:47B5    A$core_gpio$2314
  0C:47B7    A$core_gpio$2315
  0C:47B9    A$core_gpio$2316
  0C:47BA    A$core_gpio$2318
  0C:47BC    A$core_gpio$2319
  0C:47BE    A$core_gpio$2320
  0C:47C1    A$core_gpio$2321
  0C:47C3    A$core_gpio$2322
  0C:47C5    A$core_gpio$2323
  0C:47C7    A$core_gpio$2324
  0C:47C8    A$core_gpio$2326
  0C:47CB    A$core_gpio$2327
  0C:47CC    A$core_gpio$2328
  0C:47CD    A$core_gpio$2329
  0C:47CE    A$core_gpio$2330
  0C:47CF    A$core_gpio$2331
  0C:47D0    A$core_gpio$2332
  0C:47D1    A$core_gpio$2333
  0C:47D2    A$core_gpio$2334
  0C:47D3    A$core_gpio$2335
  0C:47D4    A$core_gpio$2336
  0C:47D5    A$core_gpio$2337
  0C:47D6    A$core_gpio$2340
  0C:47D6    C$core_gpio.c$163$2$2
  0C:47D9    A$core_gpio$2348
  0C:47D9    C$core_gpio.c$165$2$2
  0C:47D9    C$core_gpio.c$166$2$2
  0C:47DB    A$core_gpio$2349
  0C:47DD    A$core_gpio$2350
  0C:47DF    A$core_gpio$2351
  0C:47E2    A$core_gpio$2352
  0C:47E3    A$core_gpio$2353
  0C:47E4    A$core_gpio$2354
  0C:47E7    A$core_gpio$2355
  0C:47E8    A$core_gpio$2358
  0C:47EA    A$core_gpio$2359
  0C:47EC    A$core_gpio$2360
  0C:47ED    A$core_gpio$2361
  0C:47EF    A$core_gpio$2362
  0C:47F1    A$core_gpio$2363
  0C:47F2    A$core_gpio$2365
  0C:47F4    A$core_gpio$2366
  0C:47F6    A$core_gpio$2367
  0C:47F9    A$core_gpio$2368
  0C:47FB    A$core_gpio$2369
  0C:47FD    A$core_gpio$2371
  0C:4800    A$core_gpio$2372
  0C:4801    A$core_gpio$2373
  0C:4802    A$core_gpio$2374
  0C:4803    A$core_gpio$2375
  0C:4804    A$core_gpio$2376
  0C:4805    A$core_gpio$2377
  0C:4806    A$core_gpio$2378
  0C:4808    A$core_gpio$2379
  0C:4809    A$core_gpio$2380
  0C:480A    A$core_gpio$2381
  0C:480C    A$core_gpio$2382
  0C:480D    A$core_gpio$2385
  0C:480D    C$core_gpio.c$168$2$2
  0C:4810    A$core_gpio$2393
  0C:4810    C$core_gpio.c$170$2$2
  0C:4810    C$core_gpio.c$171$2$2
  0C:4812    A$core_gpio$2394
  0C:4814    A$core_gpio$2395
  0C:4816    A$core_gpio$2396
  0C:4819    A$core_gpio$2397
  0C:481A    A$core_gpio$2398
  0C:481B    A$core_gpio$2399
  0C:481E    A$core_gpio$2400
  0C:481F    A$core_gpio$2403
  0C:4821    A$core_gpio$2404
  0C:4823    A$core_gpio$2405
  0C:4824    A$core_gpio$2406
  0C:4826    A$core_gpio$2407
  0C:4828    A$core_gpio$2408
  0C:4829    A$core_gpio$2410
  0C:482B    A$core_gpio$2411
  0C:482D    A$core_gpio$2412
  0C:482F    A$core_gpio$2413
  0C:4831    A$core_gpio$2414
  0C:4833    A$core_gpio$2415
  0C:4836    A$core_gpio$2416
  0C:4838    A$core_gpio$2417
  0C:483A    A$core_gpio$2418
  0C:483C    A$core_gpio$2419
  0C:483E    A$core_gpio$2421
  0C:4840    A$core_gpio$2422
  0C:4842    A$core_gpio$2423
  0C:4844    A$core_gpio$2428
  0C:4844    C$core_gpio.c$172$2$2
  0C:4846    A$core_gpio$2429
  0C:4848    A$core_gpio$2430
  0C:484A    A$core_gpio$2431
  0C:484D    A$core_gpio$2432
  0C:484E    A$core_gpio$2433
  0C:484F    A$core_gpio$2434
  0C:4852    A$core_gpio$2435
  0C:4853    A$core_gpio$2438
  0C:4855    A$core_gpio$2439
  0C:4857    A$core_gpio$2440
  0C:4858    A$core_gpio$2441
  0C:485A    A$core_gpio$2442
  0C:485C    A$core_gpio$2443
  0C:485D    A$core_gpio$2445
  0C:485F    A$core_gpio$2446
  0C:4861    A$core_gpio$2447
  0C:4863    A$core_gpio$2448
  0C:4865    A$core_gpio$2449
  0C:4867    A$core_gpio$2450
  0C:4869    A$core_gpio$2451
  0C:486C    A$core_gpio$2452
  0C:486E    A$core_gpio$2453
  0C:4870    A$core_gpio$2454
  0C:4872    A$core_gpio$2455
  0C:4874    A$core_gpio$2456
  0C:4876    A$core_gpio$2458
  0C:4878    A$core_gpio$2462
  0C:487A    A$core_gpio$2463
  0C:487C    A$core_gpio$2465
  0C:487D    A$core_gpio$2466
  0C:487E    A$core_gpio$2467
  0C:4880    A$core_gpio$2468
  0C:4881    A$core_gpio$2469
  0C:4882    A$core_gpio$2471
  0C:4885    A$core_gpio$2472
  0C:4886    A$core_gpio$2473
  0C:4887    A$core_gpio$2474
  0C:4888    A$core_gpio$2475
  0C:4889    A$core_gpio$2476
  0C:488A    A$core_gpio$2477
  0C:488B    A$core_gpio$2478
  0C:488C    A$core_gpio$2479
  0C:488D    A$core_gpio$2480
  0C:488E    A$core_gpio$2481
  0C:488F    A$core_gpio$2482
  0C:4890    A$core_gpio$2483
  0C:4891    A$core_gpio$2484
  0C:4892    A$core_gpio$2485
  0C:4893    A$core_gpio$2486
  0C:4894    A$core_gpio$2489
  0C:4894    C$core_gpio.c$175$2$2
  0C:4897    A$core_gpio$2495
  0C:4897    C$core_gpio.c$178$2$2
  0C:489A    A$core_gpio$2496
  0C:489C    A$core_gpio$2497
  0C:489D    A$core_gpio$2500
  0C:48A0    A$core_gpio$2501
  0C:48A2    A$core_gpio$2502
  0C:48A3    A$core_gpio$2505
  0C:48A6    A$core_gpio$2506
  0C:48A8    A$core_gpio$2507
  0C:48A9    A$core_gpio$2510
  0C:48AC    A$core_gpio$2511
  0C:48AE    A$core_gpio$2512
  0C:48AF    A$core_gpio$2515
  0C:48B2    A$core_gpio$2516
  0C:48B4    A$core_gpio$2517
  0C:48B5    A$core_gpio$2520
  0C:48B8    A$core_gpio$2521
  0C:48BA    A$core_gpio$2522
  0C:48BB    A$core_gpio$2525
  0C:48BE    A$core_gpio$2526
  0C:48C0    A$core_gpio$2527
  0C:48C1    A$core_gpio$2530
  0C:48C4    A$core_gpio$2531
  0C:48C6    A$core_gpio$2532
  0C:48C7    A$core_gpio$2535
  0C:48CA    A$core_gpio$2536
  0C:48CC    A$core_gpio$2537
  0C:48CD    A$core_gpio$2540
  0C:48D0    A$core_gpio$2541
  0C:48D2    A$core_gpio$2542
  0C:48D3    A$core_gpio$2545
  0C:48D6    A$core_gpio$2546
  0C:48D8    A$core_gpio$2547
  0C:48D9    A$core_gpio$2550
  0C:48DC    A$core_gpio$2551
  0C:48DE    A$core_gpio$2552
  0C:48DF    A$core_gpio$2555
  0C:48E2    A$core_gpio$2556
  0C:48E4    A$core_gpio$2557
  0C:48E5    A$core_gpio$2560
  0C:48E8    A$core_gpio$2561
  0C:48EA    A$core_gpio$2562
  0C:48EB    A$core_gpio$2565
  0C:48EE    A$core_gpio$2566
  0C:48F0    A$core_gpio$2567
  0C:48F1    A$core_gpio$2570
  0C:48F4    A$core_gpio$2571
  0C:48F6    A$core_gpio$2572
  0C:48F7    A$core_gpio$2575
  0C:48FA    A$core_gpio$2576
  0C:48FC    A$core_gpio$2577
  0C:48FD    A$core_gpio$2580
  0C:4900    A$core_gpio$2581
  0C:4902    A$core_gpio$2582
  0C:4903    A$core_gpio$2585
  0C:4906    A$core_gpio$2586
  0C:4908    A$core_gpio$2587
  0C:4909    A$core_gpio$2590
  0C:490C    A$core_gpio$2591
  0C:490E    A$core_gpio$2592
  0C:490F    A$core_gpio$2595
  0C:4912    A$core_gpio$2596
  0C:4914    A$core_gpio$2597
  0C:4915    A$core_gpio$2600
  0C:4918    A$core_gpio$2601
  0C:491A    A$core_gpio$2602
  0C:491B    A$core_gpio$2605
  0C:491E    A$core_gpio$2606
  0C:4920    A$core_gpio$2607
  0C:4921    A$core_gpio$2610
  0C:4924    A$core_gpio$2611
  0C:4926    A$core_gpio$2612
  0C:4927    A$core_gpio$2615
  0C:492A    A$core_gpio$2616
  0C:492C    A$core_gpio$2617
  0C:492D    A$core_gpio$2620
  0C:4930    A$core_gpio$2621
  0C:4932    A$core_gpio$2622
  0C:4933    A$core_gpio$2625
  0C:4936    A$core_gpio$2626
  0C:4938    A$core_gpio$2627
  0C:4939    A$core_gpio$2630
  0C:493C    A$core_gpio$2631
  0C:493E    A$core_gpio$2632
  0C:493F    A$core_gpio$2635
  0C:4942    A$core_gpio$2636
  0C:4944    A$core_gpio$2637
  0C:4945    A$core_gpio$2640
  0C:4948    A$core_gpio$2641
  0C:494A    A$core_gpio$2642
  0C:494B    A$core_gpio$2645
  0C:494E    A$core_gpio$2646
  0C:4950    A$core_gpio$2647
  0C:4951    A$core_gpio$2650
  0C:4954    A$core_gpio$2651
  0C:4956    A$core_gpio$2652
  0C:4957    A$core_gpio$2654
  0C:495A    A$core_gpio$2655
  0C:495C    A$core_gpio$2656
  0C:495D    A$core_gpio$2657
  0C:495E    A$core_gpio$2658
  0C:495F    A$core_gpio$2659
  0C:4960    A$core_gpio$2660
  0C:4961    A$core_gpio$2661
  0C:4962    A$core_gpio$2662
  0C:4963    A$core_gpio$2663
  0C:4964    A$core_gpio$2665
  0C:4967    A$core_gpio$2666
  0C:496A    A$core_gpio$2667
  0C:496D    A$core_gpio$2668
  0C:4970    A$core_gpio$2675
  0C:4970    C$core_gpio.c$180$1$1
  0C:4970    C$core_gpio.c$182$1$1
  0C:4973    A$core_gpio$2676
  0C:4974    A$core_gpio$2677
  0C:4975    A$core_gpio$2678
  0C:4976    A$core_gpio$2679
  0C:4977    A$core_gpio$2680
  0C:4978    A$core_gpio$2681
  0C:4979    A$core_gpio$2682
  0C:497A    A$core_gpio$2683
  0C:497B    A$core_gpio$2684
  0C:497C    A$core_gpio$2685
  0C:497D    A$core_gpio$2686
  0C:497E    A$core_gpio$2688
  0C:4980    A$core_gpio$2689
  0C:4982    A$core_gpio$2690
  0C:4984    A$core_gpio$2691
  0C:4985    A$core_gpio$2695
  0C:4985    C$core_gpio.c$183$1$1
  0C:4985    XG$GPIO_get_inputs$0$0
  0C:4986    A$core_gpio$2711
  0C:4986    C$core_gpio.c$189$1$1
  0C:4986    G$GPIO_get_outputs$0$0
  0C:4986    _GPIO_get_outputs
  0C:4988    A$core_gpio$2712
  0C:498A    A$core_gpio$2713
  0C:498C    A$core_gpio$2714
  0C:498F    A$core_gpio$2715
  0C:4990    A$core_gpio$2716
  0C:4991    A$core_gpio$2717
  0C:4992    A$core_gpio$2718
  0C:4993    A$core_gpio$2719
  0C:4994    A$core_gpio$2720
  0C:4995    A$core_gpio$2721
  0C:4996    A$core_gpio$2725
  0C:4996    C$core_gpio.c$194$1$1
  0C:4999    A$core_gpio$2726
  0C:499A    A$core_gpio$2727
  0C:499B    A$core_gpio$2728
  0C:499C    A$core_gpio$2729
  0C:499D    A$core_gpio$2730
  0C:499E    A$core_gpio$2731
  0C:499F    A$core_gpio$2732
  0C:49A0    A$core_gpio$2733
  0C:49A1    A$core_gpio$2737
  0C:49A1    C$core_gpio.c$196$1$1
  0C:49A4    A$core_gpio$2738
  0C:49A5    A$core_gpio$2739
  0C:49A6    A$core_gpio$2740
  0C:49A7    A$core_gpio$2741
  0C:49A8    A$core_gpio$2742
  0C:49A9    A$core_gpio$2743
  0C:49AA    A$core_gpio$2744
  0C:49AB    A$core_gpio$2745
  0C:49AC    A$core_gpio$2748
  0C:49AE    A$core_gpio$2749
  0C:49B0    A$core_gpio$2750
  0C:49B1    A$core_gpio$2751
  0C:49B3    A$core_gpio$2752
  0C:49B5    A$core_gpio$2753
  0C:49B6    A$core_gpio$2754
  0C:49B8    A$core_gpio$2757
  0C:49BA    A$core_gpio$2758
  0C:49BC    A$core_gpio$2759
  0C:49BE    A$core_gpio$2760
  0C:49C1    A$core_gpio$2761
  0C:49C2    A$core_gpio$2764
  0C:49C5    A$core_gpio$2765
  0C:49C8    A$core_gpio$2769
  0C:49CB    A$core_gpio$2770
  0C:49CE    A$core_gpio$2774
  0C:49D1    A$core_gpio$2775
  0C:49D3    A$core_gpio$2777
  0C:49D6    A$core_gpio$2783
  0C:49D6    C$core_gpio.c$199$2$2
  0C:49D8    A$core_gpio$2784
  0C:49DA    A$core_gpio$2785
  0C:49DC    A$core_gpio$2786
  0C:49DF    A$core_gpio$2787
  0C:49E0    A$core_gpio$2788
  0C:49E1    A$core_gpio$2789
  0C:49E4    A$core_gpio$2790
  0C:49E5    A$core_gpio$2793
  0C:49E7    A$core_gpio$2794
  0C:49E9    A$core_gpio$2795
  0C:49EA    A$core_gpio$2796
  0C:49EC    A$core_gpio$2797
  0C:49EE    A$core_gpio$2798
  0C:49EF    A$core_gpio$2800
  0C:49F1    A$core_gpio$2801
  0C:49F3    A$core_gpio$2802
  0C:49F6    A$core_gpio$2803
  0C:49F8    A$core_gpio$2804
  0C:49FA    A$core_gpio$2805
  0C:49FC    A$core_gpio$2806
  0C:49FD    A$core_gpio$2808
  0C:4A00    A$core_gpio$2809
  0C:4A01    A$core_gpio$2810
  0C:4A02    A$core_gpio$2811
  0C:4A03    A$core_gpio$2812
  0C:4A04    A$core_gpio$2813
  0C:4A05    A$core_gpio$2814
  0C:4A06    A$core_gpio$2815
  0C:4A07    A$core_gpio$2816
  0C:4A08    A$core_gpio$2817
  0C:4A09    A$core_gpio$2818
  0C:4A0A    A$core_gpio$2819
  0C:4A0B    A$core_gpio$2822
  0C:4A0B    C$core_gpio.c$200$2$2
  0C:4A0E    A$core_gpio$2830
  0C:4A0E    C$core_gpio.c$202$2$2
  0C:4A0E    C$core_gpio.c$203$2$2
  0C:4A10    A$core_gpio$2831
  0C:4A12    A$core_gpio$2832
  0C:4A14    A$core_gpio$2833
  0C:4A17    A$core_gpio$2834
  0C:4A18    A$core_gpio$2835
  0C:4A19    A$core_gpio$2836
  0C:4A1C    A$core_gpio$2837
  0C:4A1D    A$core_gpio$2840
  0C:4A1F    A$core_gpio$2841
  0C:4A21    A$core_gpio$2842
  0C:4A22    A$core_gpio$2843
  0C:4A24    A$core_gpio$2844
  0C:4A26    A$core_gpio$2845
  0C:4A27    A$core_gpio$2847
  0C:4A29    A$core_gpio$2848
  0C:4A2B    A$core_gpio$2849
  0C:4A2E    A$core_gpio$2850
  0C:4A30    A$core_gpio$2851
  0C:4A32    A$core_gpio$2853
  0C:4A35    A$core_gpio$2854
  0C:4A36    A$core_gpio$2855
  0C:4A37    A$core_gpio$2856
  0C:4A38    A$core_gpio$2857
  0C:4A39    A$core_gpio$2858
  0C:4A3A    A$core_gpio$2859
  0C:4A3B    A$core_gpio$2860
  0C:4A3D    A$core_gpio$2861
  0C:4A3E    A$core_gpio$2862
  0C:4A3F    A$core_gpio$2863
  0C:4A41    A$core_gpio$2864
  0C:4A42    A$core_gpio$2867
  0C:4A42    C$core_gpio.c$205$2$2
  0C:4A45    A$core_gpio$2875
  0C:4A45    C$core_gpio.c$207$2$2
  0C:4A45    C$core_gpio.c$208$2$2
  0C:4A47    A$core_gpio$2876
  0C:4A49    A$core_gpio$2877
  0C:4A4B    A$core_gpio$2878
  0C:4A4E    A$core_gpio$2879
  0C:4A4F    A$core_gpio$2880
  0C:4A50    A$core_gpio$2881
  0C:4A53    A$core_gpio$2882
  0C:4A54    A$core_gpio$2885
  0C:4A56    A$core_gpio$2886
  0C:4A58    A$core_gpio$2887
  0C:4A59    A$core_gpio$2888
  0C:4A5B    A$core_gpio$2889
  0C:4A5D    A$core_gpio$2890
  0C:4A5E    A$core_gpio$2892
  0C:4A60    A$core_gpio$2893
  0C:4A62    A$core_gpio$2894
  0C:4A64    A$core_gpio$2895
  0C:4A66    A$core_gpio$2896
  0C:4A68    A$core_gpio$2897
  0C:4A6B    A$core_gpio$2898
  0C:4A6D    A$core_gpio$2899
  0C:4A6F    A$core_gpio$2900
  0C:4A71    A$core_gpio$2901
  0C:4A73    A$core_gpio$2902
  0C:4A75    A$core_gpio$2904
  0C:4A77    A$core_gpio$2905
  0C:4A79    A$core_gpio$2910
  0C:4A79    C$core_gpio.c$209$2$2
  0C:4A7B    A$core_gpio$2911
  0C:4A7D    A$core_gpio$2912
  0C:4A7F    A$core_gpio$2913
  0C:4A82    A$core_gpio$2914
  0C:4A83    A$core_gpio$2915
  0C:4A84    A$core_gpio$2916
  0C:4A87    A$core_gpio$2917
  0C:4A88    A$core_gpio$2920
  0C:4A8A    A$core_gpio$2921
  0C:4A8C    A$core_gpio$2922
  0C:4A8D    A$core_gpio$2923
  0C:4A8F    A$core_gpio$2924
  0C:4A91    A$core_gpio$2925
  0C:4A92    A$core_gpio$2927
  0C:4A94    A$core_gpio$2928
  0C:4A96    A$core_gpio$2929
  0C:4A98    A$core_gpio$2930
  0C:4A9A    A$core_gpio$2931
  0C:4A9C    A$core_gpio$2932
  0C:4A9E    A$core_gpio$2933
  0C:4AA1    A$core_gpio$2934
  0C:4AA3    A$core_gpio$2935
  0C:4AA5    A$core_gpio$2936
  0C:4AA7    A$core_gpio$2937
  0C:4AA9    A$core_gpio$2938
  0C:4AAB    A$core_gpio$2939
  0C:4AAD    A$core_gpio$2943
  0C:4AAF    A$core_gpio$2944
  0C:4AB1    A$core_gpio$2946
  0C:4AB3    A$core_gpio$2947
  0C:4AB5    A$core_gpio$2949
  0C:4AB8    A$core_gpio$2950
  0C:4AB9    A$core_gpio$2951
  0C:4ABA    A$core_gpio$2952
  0C:4ABB    A$core_gpio$2953
  0C:4ABC    A$core_gpio$2954
  0C:4ABD    A$core_gpio$2955
  0C:4ABE    A$core_gpio$2956
  0C:4ABF    A$core_gpio$2957
  0C:4AC0    A$core_gpio$2958
  0C:4AC1    A$core_gpio$2959
  0C:4AC2    A$core_gpio$2960
  0C:4AC3    A$core_gpio$2961
  0C:4AC4    A$core_gpio$2962
  0C:4AC5    A$core_gpio$2963
  0C:4AC6    A$core_gpio$2964
  0C:4AC7    A$core_gpio$2967
  0C:4AC7    C$core_gpio.c$212$2$2
  0C:4ACA    A$core_gpio$2973
  0C:4ACA    C$core_gpio.c$215$2$2
  0C:4ACD    A$core_gpio$2974
  0C:4ACF    A$core_gpio$2975
  0C:4AD0    A$core_gpio$2978
  0C:4AD3    A$core_gpio$2979
  0C:4AD5    A$core_gpio$2980
  0C:4AD6    A$core_gpio$2983
  0C:4AD9    A$core_gpio$2984
  0C:4ADB    A$core_gpio$2985
  0C:4ADC    A$core_gpio$2988
  0C:4ADF    A$core_gpio$2989
  0C:4AE1    A$core_gpio$2990
  0C:4AE2    A$core_gpio$2993
  0C:4AE5    A$core_gpio$2994
  0C:4AE7    A$core_gpio$2995
  0C:4AE8    A$core_gpio$2998
  0C:4AEB    A$core_gpio$2999
  0C:4AED    A$core_gpio$3000
  0C:4AEE    A$core_gpio$3003
  0C:4AF1    A$core_gpio$3004
  0C:4AF3    A$core_gpio$3005
  0C:4AF4    A$core_gpio$3008
  0C:4AF7    A$core_gpio$3009
  0C:4AF9    A$core_gpio$3010
  0C:4AFA    A$core_gpio$3013
  0C:4AFD    A$core_gpio$3014
  0C:4AFF    A$core_gpio$3015
  0C:4B00    A$core_gpio$3018
  0C:4B03    A$core_gpio$3019
  0C:4B05    A$core_gpio$3020
  0C:4B06    A$core_gpio$3023
  0C:4B09    A$core_gpio$3024
  0C:4B0B    A$core_gpio$3025
  0C:4B0C    A$core_gpio$3028
  0C:4B0F    A$core_gpio$3029
  0C:4B11    A$core_gpio$3030
  0C:4B12    A$core_gpio$3033
  0C:4B15    A$core_gpio$3034
  0C:4B17    A$core_gpio$3035
  0C:4B18    A$core_gpio$3038
  0C:4B1B    A$core_gpio$3039
  0C:4B1D    A$core_gpio$3040
  0C:4B1E    A$core_gpio$3043
  0C:4B21    A$core_gpio$3044
  0C:4B23    A$core_gpio$3045
  0C:4B24    A$core_gpio$3048
  0C:4B27    A$core_gpio$3049
  0C:4B29    A$core_gpio$3050
  0C:4B2A    A$core_gpio$3053
  0C:4B2D    A$core_gpio$3054
  0C:4B2F    A$core_gpio$3055
  0C:4B30    A$core_gpio$3058
  0C:4B33    A$core_gpio$3059
  0C:4B35    A$core_gpio$3060
  0C:4B36    A$core_gpio$3063
  0C:4B39    A$core_gpio$3064
  0C:4B3B    A$core_gpio$3065
  0C:4B3C    A$core_gpio$3068
  0C:4B3F    A$core_gpio$3069
  0C:4B41    A$core_gpio$3070
  0C:4B42    A$core_gpio$3073
  0C:4B45    A$core_gpio$3074
  0C:4B47    A$core_gpio$3075
  0C:4B48    A$core_gpio$3078
  0C:4B4B    A$core_gpio$3079
  0C:4B4D    A$core_gpio$3080
  0C:4B4E    A$core_gpio$3083
  0C:4B51    A$core_gpio$3084
  0C:4B53    A$core_gpio$3085
  0C:4B54    A$core_gpio$3088
  0C:4B57    A$core_gpio$3089
  0C:4B59    A$core_gpio$3090
  0C:4B5A    A$core_gpio$3093
  0C:4B5D    A$core_gpio$3094
  0C:4B5F    A$core_gpio$3095
  0C:4B60    A$core_gpio$3098
  0C:4B63    A$core_gpio$3099
  0C:4B65    A$core_gpio$3100
  0C:4B66    A$core_gpio$3103
  0C:4B69    A$core_gpio$3104
  0C:4B6B    A$core_gpio$3105
  0C:4B6C    A$core_gpio$3108
  0C:4B6F    A$core_gpio$3109
  0C:4B71    A$core_gpio$3110
  0C:4B72    A$core_gpio$3113
  0C:4B75    A$core_gpio$3114
  0C:4B77    A$core_gpio$3115
  0C:4B78    A$core_gpio$3118
  0C:4B7B    A$core_gpio$3119
  0C:4B7D    A$core_gpio$3120
  0C:4B7E    A$core_gpio$3123
  0C:4B81    A$core_gpio$3124
  0C:4B83    A$core_gpio$3125
  0C:4B84    A$core_gpio$3128
  0C:4B87    A$core_gpio$3129
  0C:4B89    A$core_gpio$3130
  0C:4B8A    A$core_gpio$3132
  0C:4B8D    A$core_gpio$3133
  0C:4B8F    A$core_gpio$3134
  0C:4B90    A$core_gpio$3135
  0C:4B91    A$core_gpio$3136
  0C:4B92    A$core_gpio$3137
  0C:4B93    A$core_gpio$3138
  0C:4B94    A$core_gpio$3139
  0C:4B95    A$core_gpio$3140
  0C:4B96    A$core_gpio$3141
  0C:4B97    A$core_gpio$3143
  0C:4B9A    A$core_gpio$3144
  0C:4B9D    A$core_gpio$3145
  0C:4BA0    A$core_gpio$3146
  0C:4BA3    A$core_gpio$3153
  0C:4BA3    C$core_gpio.c$217$1$1
  0C:4BA3    C$core_gpio.c$219$1$1
  0C:4BA6    A$core_gpio$3154
  0C:4BA7    A$core_gpio$3155
  0C:4BA8    A$core_gpio$3156
  0C:4BA9    A$core_gpio$3157
  0C:4BAA    A$core_gpio$3158
  0C:4BAB    A$core_gpio$3159
  0C:4BAC    A$core_gpio$3160
  0C:4BAD    A$core_gpio$3161
  0C:4BAE    A$core_gpio$3162
  0C:4BAF    A$core_gpio$3163
  0C:4BB0    A$core_gpio$3164
  0C:4BB1    A$core_gpio$3166
  0C:4BB3    A$core_gpio$3167
  0C:4BB5    A$core_gpio$3168
  0C:4BB7    A$core_gpio$3169
  0C:4BB8    A$core_gpio$3173
  0C:4BB8    C$core_gpio.c$220$1$1
  0C:4BB8    XG$GPIO_get_outputs$0$0
  0C:4BB9    A$core_gpio$3202
  0C:4BB9    C$core_gpio.c$226$1$1
  0C:4BB9    G$GPIO_set_output$0$0
  0C:4BB9    _GPIO_set_output
  0C:4BBB    A$core_gpio$3203
  0C:4BBD    A$core_gpio$3204
  0C:4BBF    A$core_gpio$3205
  0C:4BC2    A$core_gpio$3206
  0C:4BC3    A$core_gpio$3207
  0C:4BC4    A$core_gpio$3208
  0C:4BC5    A$core_gpio$3209
  0C:4BC6    A$core_gpio$3210
  0C:4BC7    A$core_gpio$3211
  0C:4BC8    A$core_gpio$3212
  0C:4BC9    A$core_gpio$3216
  0C:4BC9    C$core_gpio.c$233$2$2
  0C:4BCC    A$core_gpio$3217
  0C:4BCD    A$core_gpio$3218
  0C:4BCE    A$core_gpio$3221
  0C:4BD1    A$core_gpio$3224
  0C:4BD3    A$core_gpio$3225
  0C:4BD6    A$core_gpio$3229
  0C:4BD9    A$core_gpio$3230
  0C:4BDB    A$core_gpio$3231
  0C:4BDC    A$core_gpio$3234
  0C:4BDF    A$core_gpio$3235
  0C:4BE1    A$core_gpio$3236
  0C:4BE2    A$core_gpio$3239
  0C:4BE5    A$core_gpio$3240
  0C:4BE7    A$core_gpio$3241
  0C:4BE8    A$core_gpio$3244
  0C:4BEB    A$core_gpio$3245
  0C:4BED    A$core_gpio$3246
  0C:4BEE    A$core_gpio$3249
  0C:4BF1    A$core_gpio$3250
  0C:4BF3    A$core_gpio$3251
  0C:4BF4    A$core_gpio$3254
  0C:4BF7    A$core_gpio$3255
  0C:4BF9    A$core_gpio$3256
  0C:4BFA    A$core_gpio$3259
  0C:4BFD    A$core_gpio$3260
  0C:4BFF    A$core_gpio$3261
  0C:4C00    A$core_gpio$3264
  0C:4C03    A$core_gpio$3265
  0C:4C05    A$core_gpio$3266
  0C:4C06    A$core_gpio$3269
  0C:4C09    A$core_gpio$3270
  0C:4C0B    A$core_gpio$3271
  0C:4C0C    A$core_gpio$3274
  0C:4C0F    A$core_gpio$3275
  0C:4C11    A$core_gpio$3276
  0C:4C12    A$core_gpio$3279
  0C:4C15    A$core_gpio$3280
  0C:4C17    A$core_gpio$3281
  0C:4C18    A$core_gpio$3284
  0C:4C1B    A$core_gpio$3285
  0C:4C1D    A$core_gpio$3286
  0C:4C1E    A$core_gpio$3289
  0C:4C21    A$core_gpio$3290
  0C:4C23    A$core_gpio$3291
  0C:4C24    A$core_gpio$3294
  0C:4C27    A$core_gpio$3295
  0C:4C29    A$core_gpio$3296
  0C:4C2A    A$core_gpio$3299
  0C:4C2D    A$core_gpio$3300
  0C:4C2F    A$core_gpio$3301
  0C:4C30    A$core_gpio$3304
  0C:4C33    A$core_gpio$3305
  0C:4C35    A$core_gpio$3306
  0C:4C36    A$core_gpio$3309
  0C:4C39    A$core_gpio$3310
  0C:4C3B    A$core_gpio$3311
  0C:4C3C    A$core_gpio$3314
  0C:4C3F    A$core_gpio$3315
  0C:4C41    A$core_gpio$3316
  0C:4C42    A$core_gpio$3319
  0C:4C45    A$core_gpio$3320
  0C:4C47    A$core_gpio$3321
  0C:4C48    A$core_gpio$3324
  0C:4C4B    A$core_gpio$3325
  0C:4C4D    A$core_gpio$3326
  0C:4C4E    A$core_gpio$3329
  0C:4C51    A$core_gpio$3330
  0C:4C53    A$core_gpio$3331
  0C:4C54    A$core_gpio$3334
  0C:4C57    A$core_gpio$3335
  0C:4C59    A$core_gpio$3336
  0C:4C5A    A$core_gpio$3339
  0C:4C5D    A$core_gpio$3340
  0C:4C5F    A$core_gpio$3341
  0C:4C60    A$core_gpio$3344
  0C:4C63    A$core_gpio$3345
  0C:4C65    A$core_gpio$3346
  0C:4C66    A$core_gpio$3349
  0C:4C69    A$core_gpio$3350
  0C:4C6B    A$core_gpio$3351
  0C:4C6C    A$core_gpio$3354
  0C:4C6F    A$core_gpio$3355
  0C:4C71    A$core_gpio$3356
  0C:4C72    A$core_gpio$3359
  0C:4C75    A$core_gpio$3360
  0C:4C77    A$core_gpio$3361
  0C:4C78    A$core_gpio$3364
  0C:4C7B    A$core_gpio$3365
  0C:4C7D    A$core_gpio$3366
  0C:4C7E    A$core_gpio$3369
  0C:4C81    A$core_gpio$3370
  0C:4C83    A$core_gpio$3371
  0C:4C84    A$core_gpio$3374
  0C:4C87    A$core_gpio$3375
  0C:4C89    A$core_gpio$3376
  0C:4C8A    A$core_gpio$3379
  0C:4C8D    A$core_gpio$3380
  0C:4C8F    A$core_gpio$3381
  0C:4C90    A$core_gpio$3384
  0C:4C93    A$core_gpio$3385
  0C:4C95    A$core_gpio$3386
  0C:4C96    A$core_gpio$3388
  0C:4C99    A$core_gpio$3389
  0C:4C9B    A$core_gpio$3390
  0C:4C9C    A$core_gpio$3391
  0C:4C9D    A$core_gpio$3392
  0C:4C9E    A$core_gpio$3393
  0C:4C9F    A$core_gpio$3394
  0C:4CA0    A$core_gpio$3395
  0C:4CA1    A$core_gpio$3396
  0C:4CA2    A$core_gpio$3397
  0C:4CA3    A$core_gpio$3399
  0C:4CA6    A$core_gpio$3400
  0C:4CA9    A$core_gpio$3401
  0C:4CAC    A$core_gpio$3402
  0C:4CAE    A$core_gpio$3403
  0C:4CB1    A$core_gpio$3404
  0C:4CB3    A$core_gpio$3409
  0C:4CB3    C$core_gpio.c$236$1$1
  0C:4CB6    A$core_gpio$3410
  0C:4CB7    A$core_gpio$3411
  0C:4CB8    A$core_gpio$3412
  0C:4CB9    A$core_gpio$3413
  0C:4CBA    A$core_gpio$3414
  0C:4CBB    A$core_gpio$3415
  0C:4CBC    A$core_gpio$3416
  0C:4CBD    A$core_gpio$3417
  0C:4CBE    A$core_gpio$3420
  0C:4CC0    A$core_gpio$3421
  0C:4CC2    A$core_gpio$3422
  0C:4CC3    A$core_gpio$3423
  0C:4CC5    A$core_gpio$3424
  0C:4CC7    A$core_gpio$3425
  0C:4CC8    A$core_gpio$3426
  0C:4CCA    A$core_gpio$3429
  0C:4CCC    A$core_gpio$3430
  0C:4CCE    A$core_gpio$3431
  0C:4CD0    A$core_gpio$3432
  0C:4CD3    A$core_gpio$3433
  0C:4CD4    A$core_gpio$3436
  0C:4CD7    A$core_gpio$3437
  0C:4CDA    A$core_gpio$3441
  0C:4CDD    A$core_gpio$3442
  0C:4CE0    A$core_gpio$3446
  0C:4CE3    A$core_gpio$3447
  0C:4CE5    A$core_gpio$3449
  0C:4CE8    A$core_gpio$3454
  0C:4CE8    C$core_gpio.c$242$1$1
  0C:4CEA    A$core_gpio$3457
  0C:4CEC    A$core_gpio$3458
  0C:4CEE    A$core_gpio$3459
  0C:4CF0    A$core_gpio$3460
  0C:4CF3    A$core_gpio$3461
  0C:4CF4    A$core_gpio$3462
  0C:4CF5    A$core_gpio$3463
  0C:4CF8    A$core_gpio$3464
  0C:4CF9    A$core_gpio$3467
  0C:4CFB    A$core_gpio$3468
  0C:4CFD    A$core_gpio$3469
  0C:4CFE    A$core_gpio$3470
  0C:4D00    A$core_gpio$3471
  0C:4D02    A$core_gpio$3472
  0C:4D03    A$core_gpio$3474
  0C:4D05    A$core_gpio$3475
  0C:4D07    A$core_gpio$3476
  0C:4D09    A$core_gpio$3477
  0C:4D0C    A$core_gpio$3478
  0C:4D0F    A$core_gpio$3479
  0C:4D12    A$core_gpio$3480
  0C:4D15    A$core_gpio$3481
  0C:4D17    A$core_gpio$3482
  0C:4D19    A$core_gpio$3486
  0C:4D19    C$core_gpio.c$243$3$5
  0C:4D1C    A$core_gpio$3487
  0C:4D1D    A$core_gpio$3488
  0C:4D1E    A$core_gpio$3492
  0C:4D21    A$core_gpio$3493
  0C:4D23    A$core_gpio$3494
  0C:4D25    A$core_gpio$3496
  0C:4D26    A$core_gpio$3499
  0C:4D28    A$core_gpio$3502
  0C:4D2A    A$core_gpio$3503
  0C:4D2D    A$core_gpio$3508
  0C:4D2D    C$core_gpio.c$245$4$6
  0C:4D2F    A$core_gpio$3509
  0C:4D31    A$core_gpio$3510
  0C:4D33    A$core_gpio$3511
  0C:4D35    A$core_gpio$3512
  0C:4D37    A$core_gpio$3514
  0C:4D38    A$core_gpio$3515
  0C:4D3A    A$core_gpio$3516
  0C:4D3B    A$core_gpio$3517
  0C:4D3C    A$core_gpio$3518
  0C:4D3D    A$core_gpio$3519
  0C:4D3E    A$core_gpio$3521
  0C:4D41    A$core_gpio$3523
  0C:4D42    A$core_gpio$3524
  0C:4D43    A$core_gpio$3525
  0C:4D44    A$core_gpio$3526
  0C:4D45    A$core_gpio$3527
  0C:4D46    A$core_gpio$3528
  0C:4D47    A$core_gpio$3530
  0C:4D48    A$core_gpio$3531
  0C:4D49    A$core_gpio$3532
  0C:4D4B    A$core_gpio$3533
  0C:4D4C    A$core_gpio$3534
  0C:4D4D    A$core_gpio$3536
  0C:4D50    A$core_gpio$3537
  0C:4D51    A$core_gpio$3538
  0C:4D53    A$core_gpio$3539
  0C:4D54    A$core_gpio$3540
  0C:4D55    A$core_gpio$3541
  0C:4D57    A$core_gpio$3542
  0C:4D58    A$core_gpio$3543
  0C:4D59    A$core_gpio$3544
  0C:4D5A    A$core_gpio$3545
  0C:4D5C    A$core_gpio$3546
  0C:4D5D    A$core_gpio$3547
  0C:4D5E    A$core_gpio$3548
  0C:4D5F    A$core_gpio$3549
  0C:4D61    A$core_gpio$3550
  0C:4D62    A$core_gpio$3551
  0C:4D63    A$core_gpio$3552
  0C:4D66    A$core_gpio$3557
  0C:4D66    C$core_gpio.c$249$4$7
  0C:4D68    A$core_gpio$3558
  0C:4D6A    A$core_gpio$3559
  0C:4D6C    A$core_gpio$3560
  0C:4D6E    A$core_gpio$3561
  0C:4D70    A$core_gpio$3563
  0C:4D71    A$core_gpio$3564
  0C:4D73    A$core_gpio$3565
  0C:4D74    A$core_gpio$3566
  0C:4D75    A$core_gpio$3567
  0C:4D76    A$core_gpio$3568
  0C:4D77    A$core_gpio$3570
  0C:4D7A    A$core_gpio$3572
  0C:4D7B    A$core_gpio$3573
  0C:4D7C    A$core_gpio$3574
  0C:4D7E    A$core_gpio$3575
  0C:4D7F    A$core_gpio$3576
  0C:4D80    A$core_gpio$3578
  0C:4D83    A$core_gpio$3579
  0C:4D84    A$core_gpio$3580
  0C:4D86    A$core_gpio$3581
  0C:4D87    A$core_gpio$3582
  0C:4D88    A$core_gpio$3583
  0C:4D8A    A$core_gpio$3584
  0C:4D8B    A$core_gpio$3585
  0C:4D8C    A$core_gpio$3586
  0C:4D8D    A$core_gpio$3587
  0C:4D8F    A$core_gpio$3588
  0C:4D90    A$core_gpio$3589
  0C:4D91    A$core_gpio$3590
  0C:4D92    A$core_gpio$3591
  0C:4D94    A$core_gpio$3592
  0C:4D95    A$core_gpio$3593
  0C:4D96    A$core_gpio$3598
  0C:4D96    C$core_gpio.c$251$3$5
  0C:4D99    A$core_gpio$3599
  0C:4D9A    A$core_gpio$3600
  0C:4D9B    A$core_gpio$3601
  0C:4D9C    A$core_gpio$3602
  0C:4D9D    A$core_gpio$3603
  0C:4D9E    A$core_gpio$3604
  0C:4D9F    A$core_gpio$3605
  0C:4DA0    A$core_gpio$3606
  0C:4DA1    A$core_gpio$3609
  0C:4DA3    A$core_gpio$3610
  0C:4DA5    A$core_gpio$3611
  0C:4DA7    A$core_gpio$3612
  0C:4DAA    A$core_gpio$3613
  0C:4DAB    A$core_gpio$3614
  0C:4DAC    A$core_gpio$3615
  0C:4DAF    A$core_gpio$3616
  0C:4DB0    A$core_gpio$3619
  0C:4DB2    A$core_gpio$3620
  0C:4DB4    A$core_gpio$3621
  0C:4DB5    A$core_gpio$3622
  0C:4DB7    A$core_gpio$3623
  0C:4DB9    A$core_gpio$3624
  0C:4DBA    A$core_gpio$3626
  0C:4DBD    A$core_gpio$3627
  0C:4DBE    A$core_gpio$3628
  0C:4DC0    A$core_gpio$3629
  0C:4DC1    A$core_gpio$3630
  0C:4DC2    A$core_gpio$3631
  0C:4DC4    A$core_gpio$3632
  0C:4DC5    A$core_gpio$3633
  0C:4DC6    A$core_gpio$3634
  0C:4DC8    A$core_gpio$3635
  0C:4DC9    A$core_gpio$3636
  0C:4DCA    A$core_gpio$3637
  0C:4DCC    A$core_gpio$3639
  0C:4DCF    A$core_gpio$3640
  0C:4DD1    A$core_gpio$3641
  0C:4DD2    A$core_gpio$3642
  0C:4DD3    A$core_gpio$3643
  0C:4DD5    A$core_gpio$3644
  0C:4DD6    A$core_gpio$3645
  0C:4DD7    A$core_gpio$3646
  0C:4DD9    A$core_gpio$3647
  0C:4DDA    A$core_gpio$3648
  0C:4DDB    A$core_gpio$3649
  0C:4DDD    A$core_gpio$3650
  0C:4DDE    A$core_gpio$3652
  0C:4DE0    A$core_gpio$3653
  0C:4DE2    A$core_gpio$3654
  0C:4DE4    A$core_gpio$3655
  0C:4DE6    A$core_gpio$3656
  0C:4DE8    A$core_gpio$3657
  0C:4DEB    A$core_gpio$3658
  0C:4DED    A$core_gpio$3659
  0C:4DEF    A$core_gpio$3660
  0C:4DF1    A$core_gpio$3665
  0C:4DF1    C$core_gpio.c$260$4$8
  0C:4DF3    A$core_gpio$3666
  0C:4DF5    A$core_gpio$3667
  0C:4DF7    A$core_gpio$3668
  0C:4DFA    A$core_gpio$3669
  0C:4DFB    A$core_gpio$3670
  0C:4DFC    A$core_gpio$3671
  0C:4DFF    A$core_gpio$3672
  0C:4E00    A$core_gpio$3675
  0C:4E02    A$core_gpio$3676
  0C:4E04    A$core_gpio$3677
  0C:4E05    A$core_gpio$3678
  0C:4E07    A$core_gpio$3679
  0C:4E09    A$core_gpio$3680
  0C:4E0A    A$core_gpio$3682
  0C:4E0C    A$core_gpio$3683
  0C:4E0E    A$core_gpio$3684
  0C:4E11    A$core_gpio$3685
  0C:4E13    A$core_gpio$3686
  0C:4E15    A$core_gpio$3687
  0C:4E17    A$core_gpio$3688
  0C:4E18    A$core_gpio$3691
  0C:4E19    A$core_gpio$3692
  0C:4E1C    A$core_gpio$3693
  0C:4E1D    A$core_gpio$3694
  0C:4E20    A$core_gpio$3695
  0C:4E21    A$core_gpio$3696
  0C:4E24    A$core_gpio$3697
  0C:4E25    A$core_gpio$3698
  0C:4E28    A$core_gpio$3699
  0C:4E2B    A$core_gpio$3703
  0C:4E2E    A$core_gpio$3704
  0C:4E30    A$core_gpio$3705
  0C:4E31    A$core_gpio$3708
  0C:4E34    A$core_gpio$3709
  0C:4E36    A$core_gpio$3710
  0C:4E37    A$core_gpio$3713
  0C:4E3A    A$core_gpio$3714
  0C:4E3C    A$core_gpio$3715
  0C:4E3D    A$core_gpio$3718
  0C:4E40    A$core_gpio$3719
  0C:4E42    A$core_gpio$3720
  0C:4E43    A$core_gpio$3723
  0C:4E46    A$core_gpio$3724
  0C:4E48    A$core_gpio$3725
  0C:4E49    A$core_gpio$3728
  0C:4E4C    A$core_gpio$3729
  0C:4E4E    A$core_gpio$3730
  0C:4E4F    A$core_gpio$3733
  0C:4E52    A$core_gpio$3734
  0C:4E54    A$core_gpio$3735
  0C:4E55    A$core_gpio$3738
  0C:4E58    A$core_gpio$3739
  0C:4E5A    A$core_gpio$3740
  0C:4E5B    A$core_gpio$3743
  0C:4E5E    A$core_gpio$3744
  0C:4E60    A$core_gpio$3745
  0C:4E61    A$core_gpio$3748
  0C:4E64    A$core_gpio$3749
  0C:4E66    A$core_gpio$3750
  0C:4E67    A$core_gpio$3753
  0C:4E6A    A$core_gpio$3754
  0C:4E6C    A$core_gpio$3755
  0C:4E6D    A$core_gpio$3758
  0C:4E70    A$core_gpio$3759
  0C:4E72    A$core_gpio$3760
  0C:4E73    A$core_gpio$3763
  0C:4E76    A$core_gpio$3764
  0C:4E78    A$core_gpio$3765
  0C:4E79    A$core_gpio$3768
  0C:4E7C    A$core_gpio$3769
  0C:4E7E    A$core_gpio$3770
  0C:4E7F    A$core_gpio$3773
  0C:4E82    A$core_gpio$3774
  0C:4E84    A$core_gpio$3775
  0C:4E85    A$core_gpio$3778
  0C:4E88    A$core_gpio$3779
  0C:4E8A    A$core_gpio$3780
  0C:4E8B    A$core_gpio$3783
  0C:4E8E    A$core_gpio$3784
  0C:4E90    A$core_gpio$3785
  0C:4E91    A$core_gpio$3788
  0C:4E94    A$core_gpio$3789
  0C:4E96    A$core_gpio$3790
  0C:4E97    A$core_gpio$3793
  0C:4E9A    A$core_gpio$3794
  0C:4E9C    A$core_gpio$3795
  0C:4E9D    A$core_gpio$3798
  0C:4EA0    A$core_gpio$3799
  0C:4EA2    A$core_gpio$3800
  0C:4EA3    A$core_gpio$3803
  0C:4EA6    A$core_gpio$3804
  0C:4EA8    A$core_gpio$3805
  0C:4EA9    A$core_gpio$3808
  0C:4EAC    A$core_gpio$3809
  0C:4EAE    A$core_gpio$3810
  0C:4EAF    A$core_gpio$3813
  0C:4EB2    A$core_gpio$3814
  0C:4EB4    A$core_gpio$3815
  0C:4EB5    A$core_gpio$3818
  0C:4EB8    A$core_gpio$3819
  0C:4EBA    A$core_gpio$3820
  0C:4EBB    A$core_gpio$3823
  0C:4EBE    A$core_gpio$3824
  0C:4EC0    A$core_gpio$3825
  0C:4EC1    A$core_gpio$3828
  0C:4EC4    A$core_gpio$3829
  0C:4EC6    A$core_gpio$3830
  0C:4EC7    A$core_gpio$3833
  0C:4ECA    A$core_gpio$3834
  0C:4ECC    A$core_gpio$3835
  0C:4ECD    A$core_gpio$3838
  0C:4ED0    A$core_gpio$3839
  0C:4ED2    A$core_gpio$3840
  0C:4ED3    A$core_gpio$3843
  0C:4ED6    A$core_gpio$3844
  0C:4ED8    A$core_gpio$3845
  0C:4ED9    A$core_gpio$3848
  0C:4EDC    A$core_gpio$3849
  0C:4EDE    A$core_gpio$3850
  0C:4EDF    A$core_gpio$3853
  0C:4EE2    A$core_gpio$3854
  0C:4EE4    A$core_gpio$3855
  0C:4EE5    A$core_gpio$3858
  0C:4EE8    A$core_gpio$3859
  0C:4EEA    A$core_gpio$3860
  0C:4EEB    A$core_gpio$3862
  0C:4EEE    A$core_gpio$3863
  0C:4EF0    A$core_gpio$3864
  0C:4EF1    A$core_gpio$3865
  0C:4EF2    A$core_gpio$3866
  0C:4EF4    A$core_gpio$3867
  0C:4EF5    A$core_gpio$3868
  0C:4EF6    A$core_gpio$3869
  0C:4EF8    A$core_gpio$3870
  0C:4EF9    A$core_gpio$3871
  0C:4EFA    A$core_gpio$3872
  0C:4EFC    A$core_gpio$3873
  0C:4EFD    A$core_gpio$3875
  0C:4F00    A$core_gpio$3876
  0C:4F03    A$core_gpio$3877
  0C:4F06    A$core_gpio$3878
  0C:4F09    A$core_gpio$3881
  0C:4F09    C$core_gpio.c$262$2$4
  0C:4F0C    A$core_gpio$3889
  0C:4F0C    C$core_gpio.c$264$2$4
  0C:4F0C    C$core_gpio.c$267$3$10
  0C:4F0E    A$core_gpio$3890
  0C:4F10    A$core_gpio$3891
  0C:4F12    A$core_gpio$3892
  0C:4F15    A$core_gpio$3893
  0C:4F16    A$core_gpio$3894
  0C:4F17    A$core_gpio$3895
  0C:4F1A    A$core_gpio$3896
  0C:4F1B    A$core_gpio$3899
  0C:4F1D    A$core_gpio$3900
  0C:4F1F    A$core_gpio$3901
  0C:4F20    A$core_gpio$3902
  0C:4F22    A$core_gpio$3903
  0C:4F24    A$core_gpio$3904
  0C:4F25    A$core_gpio$3908
  0C:4F26    A$core_gpio$3909
  0C:4F27    A$core_gpio$3910
  0C:4F29    A$core_gpio$3911
  0C:4F2A    A$core_gpio$3914
  0C:4F2B    A$core_gpio$3915
  0C:4F2E    A$core_gpio$3916
  0C:4F2F    A$core_gpio$3918
  0C:4F31    A$core_gpio$3919
  0C:4F32    A$core_gpio$3920
  0C:4F34    A$core_gpio$3921
  0C:4F36    A$core_gpio$3922
  0C:4F37    A$core_gpio$3924
  0C:4F39    A$core_gpio$3925
  0C:4F3B    A$core_gpio$3930
  0C:4F3B    C$core_gpio.c$269$3$10
  0C:4F3D    A$core_gpio$3931
  0C:4F3F    A$core_gpio$3932
  0C:4F41    A$core_gpio$3933
  0C:4F43    A$core_gpio$3934
  0C:4F45    A$core_gpio$3935
  0C:4F48    A$core_gpio$3936
  0C:4F4A    A$core_gpio$3937
  0C:4F4C    A$core_gpio$3938
  0C:4F4E    A$core_gpio$3939
  0C:4F50    A$core_gpio$3940
  0C:4F52    A$core_gpio$3944
  0C:4F52    C$core_gpio.c$270$1$1
  0C:4F54    A$core_gpio$3946
  0C:4F57    A$core_gpio$3947
  0C:4F58    A$core_gpio$3948
  0C:4F59    A$core_gpio$3952
  0C:4F5C    A$core_gpio$3953
  0C:4F5E    A$core_gpio$3954
  0C:4F60    A$core_gpio$3956
  0C:4F61    A$core_gpio$3959
  0C:4F63    A$core_gpio$3962
  0C:4F65    A$core_gpio$3963
  0C:4F68    A$core_gpio$3968
  0C:4F68    C$core_gpio.c$272$1$1
  0C:4F6A    A$core_gpio$3969
  0C:4F6C    A$core_gpio$3971
  0C:4F6E    A$core_gpio$3972
  0C:4F6F    A$core_gpio$3973
  0C:4F70    A$core_gpio$3975
  0C:4F72    A$core_gpio$3976
  0C:4F74    A$core_gpio$3977
  0C:4F76    A$core_gpio$3978
  0C:4F78    A$core_gpio$3979
  0C:4F7A    A$core_gpio$3981
  0C:4F7B    A$core_gpio$3982
  0C:4F7D    A$core_gpio$3983
  0C:4F7E    A$core_gpio$3984
  0C:4F7F    A$core_gpio$3985
  0C:4F80    A$core_gpio$3986
  0C:4F81    A$core_gpio$3988
  0C:4F84    A$core_gpio$3990
  0C:4F85    A$core_gpio$3991
  0C:4F86    A$core_gpio$3992
  0C:4F87    A$core_gpio$3993
  0C:4F88    A$core_gpio$3994
  0C:4F89    A$core_gpio$3995
  0C:4F8A    A$core_gpio$3997
  0C:4F8D    A$core_gpio$3998
  0C:4F8E    A$core_gpio$3999
  0C:4F8F    A$core_gpio$4000
  0C:4F90    A$core_gpio$4001
  0C:4F91    A$core_gpio$4002
  0C:4F92    A$core_gpio$4003
  0C:4F93    A$core_gpio$4004
  0C:4F94    A$core_gpio$4006
  0C:4F96    A$core_gpio$4007
  0C:4F98    A$core_gpio$4008
  0C:4F9B    A$core_gpio$4013
  0C:4F9B    C$core_gpio.c$276$1$1
  0C:4F9D    A$core_gpio$4014
  0C:4F9F    A$core_gpio$4016
  0C:4FA1    A$core_gpio$4017
  0C:4FA2    A$core_gpio$4018
  0C:4FA3    A$core_gpio$4020
  0C:4FA5    A$core_gpio$4021
  0C:4FA7    A$core_gpio$4022
  0C:4FA9    A$core_gpio$4023
  0C:4FAB    A$core_gpio$4024
  0C:4FAD    A$core_gpio$4026
  0C:4FAE    A$core_gpio$4027
  0C:4FB0    A$core_gpio$4028
  0C:4FB1    A$core_gpio$4029
  0C:4FB2    A$core_gpio$4030
  0C:4FB3    A$core_gpio$4031
  0C:4FB4    A$core_gpio$4033
  0C:4FB7    A$core_gpio$4035
  0C:4FBA    A$core_gpio$4036
  0C:4FBB    A$core_gpio$4037
  0C:4FBC    A$core_gpio$4038
  0C:4FBD    A$core_gpio$4039
  0C:4FBE    A$core_gpio$4040
  0C:4FBF    A$core_gpio$4041
  0C:4FC0    A$core_gpio$4042
  0C:4FC1    A$core_gpio$4046
  0C:4FC3    A$core_gpio$4047
  0C:4FC5    A$core_gpio$4054
  0C:4FC5    C$core_gpio.c$276$3$10
  0C:4FC5    C$core_gpio.c$278$3$10
  0C:4FC8    A$core_gpio$4055
  0C:4FC9    A$core_gpio$4056
  0C:4FCA    A$core_gpio$4057
  0C:4FCB    A$core_gpio$4058
  0C:4FCC    A$core_gpio$4059
  0C:4FCD    A$core_gpio$4061
  0C:4FD0    A$core_gpio$4062
  0C:4FD1    A$core_gpio$4063
  0C:4FD2    A$core_gpio$4064
  0C:4FD3    A$core_gpio$4065
  0C:4FD4    A$core_gpio$4066
  0C:4FD5    A$core_gpio$4068
  0C:4FD7    A$core_gpio$4069
  0C:4FD9    A$core_gpio$4070
  0C:4FDB    A$core_gpio$4071
  0C:4FDD    A$core_gpio$4072
  0C:4FDF    A$core_gpio$4073
  0C:4FE1    A$core_gpio$4074
  0C:4FE4    A$core_gpio$4075
  0C:4FE6    A$core_gpio$4076
  0C:4FE8    A$core_gpio$4077
  0C:4FEA    A$core_gpio$4078
  0C:4FEC    A$core_gpio$4082
  0C:4FEC    C$core_gpio.c$287$4$13
  0C:4FEE    A$core_gpio$4083
  0C:4FF0    A$core_gpio$4084
  0C:4FF2    A$core_gpio$4085
  0C:4FF4    A$core_gpio$4086
  0C:4FF7    A$core_gpio$4087
  0C:4FF9    A$core_gpio$4088
  0C:4FFB    A$core_gpio$4089
  0C:4FFD    A$core_gpio$4090
  0C:4FFF    A$core_gpio$4093
  0C:5000    A$core_gpio$4094
  0C:5003    A$core_gpio$4095
  0C:5004    A$core_gpio$4096
  0C:5007    A$core_gpio$4097
  0C:500A    A$core_gpio$4101
  0C:500D    A$core_gpio$4102
  0C:500F    A$core_gpio$4103
  0C:5010    A$core_gpio$4106
  0C:5013    A$core_gpio$4107
  0C:5015    A$core_gpio$4108
  0C:5016    A$core_gpio$4111
  0C:5019    A$core_gpio$4112
  0C:501B    A$core_gpio$4113
  0C:501C    A$core_gpio$4116
  0C:501F    A$core_gpio$4117
  0C:5021    A$core_gpio$4118
  0C:5022    A$core_gpio$4121
  0C:5025    A$core_gpio$4122
  0C:5027    A$core_gpio$4123
  0C:5028    A$core_gpio$4126
  0C:502B    A$core_gpio$4127
  0C:502D    A$core_gpio$4128
  0C:502E    A$core_gpio$4131
  0C:5031    A$core_gpio$4132
  0C:5033    A$core_gpio$4133
  0C:5034    A$core_gpio$4136
  0C:5037    A$core_gpio$4137
  0C:5039    A$core_gpio$4138
  0C:503A    A$core_gpio$4141
  0C:503D    A$core_gpio$4142
  0C:503F    A$core_gpio$4143
  0C:5040    A$core_gpio$4146
  0C:5043    A$core_gpio$4147
  0C:5045    A$core_gpio$4148
  0C:5046    A$core_gpio$4151
  0C:5049    A$core_gpio$4152
  0C:504B    A$core_gpio$4153
  0C:504C    A$core_gpio$4156
  0C:504F    A$core_gpio$4157
  0C:5051    A$core_gpio$4158
  0C:5052    A$core_gpio$4161
  0C:5055    A$core_gpio$4162
  0C:5057    A$core_gpio$4163
  0C:5058    A$core_gpio$4166
  0C:505B    A$core_gpio$4167
  0C:505D    A$core_gpio$4168
  0C:505E    A$core_gpio$4171
  0C:5061    A$core_gpio$4172
  0C:5063    A$core_gpio$4173
  0C:5064    A$core_gpio$4176
  0C:5067    A$core_gpio$4177
  0C:5069    A$core_gpio$4178
  0C:506A    A$core_gpio$4181
  0C:506D    A$core_gpio$4182
  0C:506F    A$core_gpio$4183
  0C:5070    A$core_gpio$4186
  0C:5073    A$core_gpio$4187
  0C:5075    A$core_gpio$4188
  0C:5076    A$core_gpio$4191
  0C:5079    A$core_gpio$4192
  0C:507B    A$core_gpio$4193
  0C:507C    A$core_gpio$4196
  0C:507F    A$core_gpio$4197
  0C:5081    A$core_gpio$4198
  0C:5082    A$core_gpio$4201
  0C:5085    A$core_gpio$4202
  0C:5087    A$core_gpio$4203
  0C:5088    A$core_gpio$4206
  0C:508B    A$core_gpio$4207
  0C:508D    A$core_gpio$4208
  0C:508E    A$core_gpio$4211
  0C:5091    A$core_gpio$4212
  0C:5093    A$core_gpio$4213
  0C:5094    A$core_gpio$4216
  0C:5097    A$core_gpio$4217
  0C:5099    A$core_gpio$4218
  0C:509A    A$core_gpio$4221
  0C:509D    A$core_gpio$4222
  0C:509F    A$core_gpio$4223
  0C:50A0    A$core_gpio$4226
  0C:50A3    A$core_gpio$4227
  0C:50A5    A$core_gpio$4228
  0C:50A6    A$core_gpio$4231
  0C:50A9    A$core_gpio$4232
  0C:50AB    A$core_gpio$4233
  0C:50AC    A$core_gpio$4236
  0C:50AF    A$core_gpio$4237
  0C:50B1    A$core_gpio$4238
  0C:50B2    A$core_gpio$4241
  0C:50B5    A$core_gpio$4242
  0C:50B7    A$core_gpio$4243
  0C:50B8    A$core_gpio$4246
  0C:50BB    A$core_gpio$4247
  0C:50BD    A$core_gpio$4248
  0C:50BE    A$core_gpio$4251
  0C:50C1    A$core_gpio$4252
  0C:50C3    A$core_gpio$4253
  0C:50C4    A$core_gpio$4256
  0C:50C7    A$core_gpio$4257
  0C:50C9    A$core_gpio$4258
  0C:50CA    A$core_gpio$4260
  0C:50CD    A$core_gpio$4261
  0C:50CF    A$core_gpio$4262
  0C:50D0    A$core_gpio$4263
  0C:50D1    A$core_gpio$4264
  0C:50D3    A$core_gpio$4265
  0C:50D4    A$core_gpio$4266
  0C:50D5    A$core_gpio$4267
  0C:50D7    A$core_gpio$4268
  0C:50D8    A$core_gpio$4269
  0C:50D9    A$core_gpio$4270
  0C:50DB    A$core_gpio$4271
  0C:50DC    A$core_gpio$4273
  0C:50DF    A$core_gpio$4274
  0C:50E2    A$core_gpio$4275
  0C:50E5    A$core_gpio$4276
  0C:50E8    A$core_gpio$4279
  0C:50E8    C$core_gpio.c$289$2$4
  0C:50EB    A$core_gpio$4287
  0C:50EB    C$core_gpio.c$291$2$4
  0C:50EB    C$core_gpio.c$294$3$15
  0C:50ED    A$core_gpio$4288
  0C:50EF    A$core_gpio$4289
  0C:50F1    A$core_gpio$4290
  0C:50F4    A$core_gpio$4291
  0C:50F5    A$core_gpio$4292
  0C:50F6    A$core_gpio$4293
  0C:50F9    A$core_gpio$4294
  0C:50FA    A$core_gpio$4297
  0C:50FC    A$core_gpio$4298
  0C:50FE    A$core_gpio$4299
  0C:50FF    A$core_gpio$4300
  0C:5101    A$core_gpio$4301
  0C:5103    A$core_gpio$4302
  0C:5104    A$core_gpio$4306
  0C:5105    A$core_gpio$4307
  0C:5106    A$core_gpio$4308
  0C:5107    A$core_gpio$4309
  0C:5109    A$core_gpio$4310
  0C:510A    A$core_gpio$4313
  0C:510B    A$core_gpio$4314
  0C:510E    A$core_gpio$4315
  0C:510F    A$core_gpio$4317
  0C:5111    A$core_gpio$4318
  0C:5112    A$core_gpio$4319
  0C:5114    A$core_gpio$4320
  0C:5116    A$core_gpio$4321
  0C:5117    A$core_gpio$4323
  0C:5119    A$core_gpio$4324
  0C:511B    A$core_gpio$4329
  0C:511B    C$core_gpio.c$296$3$15
  0C:511D    A$core_gpio$4330
  0C:511F    A$core_gpio$4331
  0C:5121    A$core_gpio$4332
  0C:5123    A$core_gpio$4333
  0C:5125    A$core_gpio$4334
  0C:5128    A$core_gpio$4335
  0C:512A    A$core_gpio$4336
  0C:512C    A$core_gpio$4337
  0C:512E    A$core_gpio$4338
  0C:5130    A$core_gpio$4342
  0C:5130    C$core_gpio.c$297$3$15
  0C:5133    A$core_gpio$4343
  0C:5134    A$core_gpio$4344
  0C:5135    A$core_gpio$4347
  0C:5138    A$core_gpio$4348
  0C:513A    A$core_gpio$4350
  0C:513D    A$core_gpio$4355
  0C:513D    C$core_gpio.c$299$4$16
  0C:513F    A$core_gpio$4356
  0C:5140    A$core_gpio$4358
  0C:5142    A$core_gpio$4359
  0C:5144    A$core_gpio$4360
  0C:5146    A$core_gpio$4361
  0C:5148    A$core_gpio$4363
  0C:514A    A$core_gpio$4365
  0C:514D    A$core_gpio$4366
  0C:514E    A$core_gpio$4368
  0C:514F    A$core_gpio$4369
  0C:5150    A$core_gpio$4370
  0C:5151    A$core_gpio$4372
  0C:5154    A$core_gpio$4373
  0C:5155    A$core_gpio$4374
  0C:5156    A$core_gpio$4375
  0C:5157    A$core_gpio$4376
  0C:515A    A$core_gpio$4381
  0C:515A    C$core_gpio.c$303$4$17
  0C:515C    A$core_gpio$4382
  0C:515D    A$core_gpio$4384
  0C:515F    A$core_gpio$4385
  0C:5161    A$core_gpio$4386
  0C:5163    A$core_gpio$4387
  0C:5165    A$core_gpio$4389
  0C:5167    A$core_gpio$4391
  0C:516A    A$core_gpio$4392
  0C:516B    A$core_gpio$4394
  0C:516E    A$core_gpio$4395
  0C:516F    A$core_gpio$4396
  0C:5170    A$core_gpio$4397
  0C:5171    A$core_gpio$4402
  0C:5171    C$core_gpio.c$305$3$15
  0C:5174    A$core_gpio$4403
  0C:5175    A$core_gpio$4404
  0C:5176    A$core_gpio$4406
  0C:5179    A$core_gpio$4407
  0C:517A    A$core_gpio$4408
  0C:517B    A$core_gpio$4410
  0C:517D    A$core_gpio$4411
  0C:517F    A$core_gpio$4412
  0C:5181    A$core_gpio$4413
  0C:5183    A$core_gpio$4414
  0C:5185    A$core_gpio$4415
  0C:5188    A$core_gpio$4416
  0C:518A    A$core_gpio$4417
  0C:518C    A$core_gpio$4418
  0C:518E    A$core_gpio$4422
  0C:518E    C$core_gpio.c$314$4$18
  0C:5190    A$core_gpio$4423
  0C:5192    A$core_gpio$4424
  0C:5194    A$core_gpio$4425
  0C:5197    A$core_gpio$4426
  0C:5199    A$core_gpio$4427
  0C:519B    A$core_gpio$4430
  0C:519C    A$core_gpio$4431
  0C:519F    A$core_gpio$4432
  0C:51A2    A$core_gpio$4436
  0C:51A5    A$core_gpio$4437
  0C:51A7    A$core_gpio$4438
  0C:51A8    A$core_gpio$4441
  0C:51AB    A$core_gpio$4442
  0C:51AD    A$core_gpio$4443
  0C:51AE    A$core_gpio$4446
  0C:51B1    A$core_gpio$4447
  0C:51B3    A$core_gpio$4448
  0C:51B4    A$core_gpio$4451
  0C:51B7    A$core_gpio$4452
  0C:51B9    A$core_gpio$4453
  0C:51BA    A$core_gpio$4456
  0C:51BD    A$core_gpio$4457
  0C:51BF    A$core_gpio$4458
  0C:51C0    A$core_gpio$4461
  0C:51C3    A$core_gpio$4462
  0C:51C5    A$core_gpio$4463
  0C:51C6    A$core_gpio$4466
  0C:51C9    A$core_gpio$4467
  0C:51CB    A$core_gpio$4468
  0C:51CC    A$core_gpio$4471
  0C:51CF    A$core_gpio$4472
  0C:51D1    A$core_gpio$4473
  0C:51D2    A$core_gpio$4476
  0C:51D5    A$core_gpio$4477
  0C:51D7    A$core_gpio$4478
  0C:51D8    A$core_gpio$4481
  0C:51DB    A$core_gpio$4482
  0C:51DD    A$core_gpio$4483
  0C:51DE    A$core_gpio$4486
  0C:51E1    A$core_gpio$4487
  0C:51E3    A$core_gpio$4488
  0C:51E4    A$core_gpio$4491
  0C:51E7    A$core_gpio$4492
  0C:51E9    A$core_gpio$4493
  0C:51EA    A$core_gpio$4496
  0C:51ED    A$core_gpio$4497
  0C:51EF    A$core_gpio$4498
  0C:51F0    A$core_gpio$4501
  0C:51F3    A$core_gpio$4502
  0C:51F5    A$core_gpio$4503
  0C:51F6    A$core_gpio$4506
  0C:51F9    A$core_gpio$4507
  0C:51FB    A$core_gpio$4508
  0C:51FC    A$core_gpio$4511
  0C:51FF    A$core_gpio$4512
  0C:5201    A$core_gpio$4513
  0C:5202    A$core_gpio$4516
  0C:5205    A$core_gpio$4517
  0C:5207    A$core_gpio$4518
  0C:5208    A$core_gpio$4521
  0C:520B    A$core_gpio$4522
  0C:520D    A$core_gpio$4523
  0C:520E    A$core_gpio$4526
  0C:5211    A$core_gpio$4527
  0C:5213    A$core_gpio$4528
  0C:5214    A$core_gpio$4531
  0C:5217    A$core_gpio$4532
  0C:5219    A$core_gpio$4533
  0C:521A    A$core_gpio$4536
  0C:521D    A$core_gpio$4537
  0C:521F    A$core_gpio$4538
  0C:5220    A$core_gpio$4541
  0C:5223    A$core_gpio$4542
  0C:5225    A$core_gpio$4543
  0C:5226    A$core_gpio$4546
  0C:5229    A$core_gpio$4547
  0C:522B    A$core_gpio$4548
  0C:522C    A$core_gpio$4551
  0C:522F    A$core_gpio$4552
  0C:5231    A$core_gpio$4553
  0C:5232    A$core_gpio$4556
  0C:5235    A$core_gpio$4557
  0C:5237    A$core_gpio$4558
  0C:5238    A$core_gpio$4561
  0C:523B    A$core_gpio$4562
  0C:523D    A$core_gpio$4563
  0C:523E    A$core_gpio$4566
  0C:5241    A$core_gpio$4567
  0C:5243    A$core_gpio$4568
  0C:5244    A$core_gpio$4571
  0C:5247    A$core_gpio$4572
  0C:5249    A$core_gpio$4573
  0C:524A    A$core_gpio$4576
  0C:524D    A$core_gpio$4577
  0C:524F    A$core_gpio$4578
  0C:5250    A$core_gpio$4581
  0C:5253    A$core_gpio$4582
  0C:5255    A$core_gpio$4583
  0C:5256    A$core_gpio$4586
  0C:5259    A$core_gpio$4587
  0C:525B    A$core_gpio$4588
  0C:525C    A$core_gpio$4591
  0C:525F    A$core_gpio$4592
  0C:5261    A$core_gpio$4593
  0C:5262    A$core_gpio$4595
  0C:5265    A$core_gpio$4596
  0C:5267    A$core_gpio$4597
  0C:5268    A$core_gpio$4598
  0C:5269    A$core_gpio$4599
  0C:526B    A$core_gpio$4600
  0C:526C    A$core_gpio$4601
  0C:526D    A$core_gpio$4602
  0C:526F    A$core_gpio$4603
  0C:5270    A$core_gpio$4604
  0C:5271    A$core_gpio$4605
  0C:5273    A$core_gpio$4606
  0C:5274    A$core_gpio$4608
  0C:5277    A$core_gpio$4609
  0C:527A    A$core_gpio$4610
  0C:527D    A$core_gpio$4611
  0C:5280    A$core_gpio$4614
  0C:5280    C$core_gpio.c$316$2$4
  0C:5283    A$core_gpio$4620
  0C:5283    C$core_gpio.c$319$2$4
  0C:5286    A$core_gpio$4621
  0C:5288    A$core_gpio$4622
  0C:5289    A$core_gpio$4625
  0C:528C    A$core_gpio$4626
  0C:528E    A$core_gpio$4627
  0C:528F    A$core_gpio$4630
  0C:5292    A$core_gpio$4631
  0C:5294    A$core_gpio$4632
  0C:5295    A$core_gpio$4635
  0C:5298    A$core_gpio$4636
  0C:529A    A$core_gpio$4637
  0C:529B    A$core_gpio$4640
  0C:529E    A$core_gpio$4641
  0C:52A0    A$core_gpio$4642
  0C:52A1    A$core_gpio$4645
  0C:52A4    A$core_gpio$4646
  0C:52A6    A$core_gpio$4647
  0C:52A7    A$core_gpio$4650
  0C:52AA    A$core_gpio$4651
  0C:52AC    A$core_gpio$4652
  0C:52AD    A$core_gpio$4655
  0C:52B0    A$core_gpio$4656
  0C:52B2    A$core_gpio$4657
  0C:52B3    A$core_gpio$4660
  0C:52B6    A$core_gpio$4661
  0C:52B8    A$core_gpio$4662
  0C:52B9    A$core_gpio$4665
  0C:52BC    A$core_gpio$4666
  0C:52BE    A$core_gpio$4667
  0C:52BF    A$core_gpio$4670
  0C:52C2    A$core_gpio$4671
  0C:52C4    A$core_gpio$4672
  0C:52C5    A$core_gpio$4675
  0C:52C8    A$core_gpio$4676
  0C:52CA    A$core_gpio$4677
  0C:52CB    A$core_gpio$4680
  0C:52CE    A$core_gpio$4681
  0C:52D0    A$core_gpio$4682
  0C:52D1    A$core_gpio$4685
  0C:52D4    A$core_gpio$4686
  0C:52D6    A$core_gpio$4687
  0C:52D7    A$core_gpio$4690
  0C:52DA    A$core_gpio$4691
  0C:52DC    A$core_gpio$4692
  0C:52DD    A$core_gpio$4695
  0C:52E0    A$core_gpio$4696
  0C:52E2    A$core_gpio$4697
  0C:52E3    A$core_gpio$4700
  0C:52E6    A$core_gpio$4701
  0C:52E8    A$core_gpio$4702
  0C:52E9    A$core_gpio$4705
  0C:52EC    A$core_gpio$4706
  0C:52EE    A$core_gpio$4707
  0C:52EF    A$core_gpio$4710
  0C:52F2    A$core_gpio$4711
  0C:52F4    A$core_gpio$4712
  0C:52F5    A$core_gpio$4715
  0C:52F8    A$core_gpio$4716
  0C:52FA    A$core_gpio$4717
  0C:52FB    A$core_gpio$4720
  0C:52FE    A$core_gpio$4721
  0C:5300    A$core_gpio$4722
  0C:5301    A$core_gpio$4725
  0C:5304    A$core_gpio$4726
  0C:5306    A$core_gpio$4727
  0C:5307    A$core_gpio$4730
  0C:530A    A$core_gpio$4731
  0C:530C    A$core_gpio$4732
  0C:530D    A$core_gpio$4735
  0C:5310    A$core_gpio$4736
  0C:5312    A$core_gpio$4737
  0C:5313    A$core_gpio$4740
  0C:5316    A$core_gpio$4741
  0C:5318    A$core_gpio$4742
  0C:5319    A$core_gpio$4745
  0C:531C    A$core_gpio$4746
  0C:531E    A$core_gpio$4747
  0C:531F    A$core_gpio$4750
  0C:5322    A$core_gpio$4751
  0C:5324    A$core_gpio$4752
  0C:5325    A$core_gpio$4755
  0C:5328    A$core_gpio$4756
  0C:532A    A$core_gpio$4757
  0C:532B    A$core_gpio$4760
  0C:532E    A$core_gpio$4761
  0C:5330    A$core_gpio$4762
  0C:5331    A$core_gpio$4765
  0C:5334    A$core_gpio$4766
  0C:5336    A$core_gpio$4767
  0C:5337    A$core_gpio$4770
  0C:533A    A$core_gpio$4771
  0C:533C    A$core_gpio$4772
  0C:533D    A$core_gpio$4775
  0C:5340    A$core_gpio$4776
  0C:5342    A$core_gpio$4777
  0C:5343    A$core_gpio$4779
  0C:5346    A$core_gpio$4780
  0C:5348    A$core_gpio$4781
  0C:5349    A$core_gpio$4782
  0C:534A    A$core_gpio$4783
  0C:534C    A$core_gpio$4784
  0C:534D    A$core_gpio$4785
  0C:534E    A$core_gpio$4786
  0C:5350    A$core_gpio$4787
  0C:5351    A$core_gpio$4788
  0C:5352    A$core_gpio$4789
  0C:5354    A$core_gpio$4790
  0C:5355    A$core_gpio$4792
  0C:5358    A$core_gpio$4793
  0C:535B    A$core_gpio$4794
  0C:535E    A$core_gpio$4795
  0C:5361    A$core_gpio$4801
  0C:5361    C$core_gpio.c$321$1$1
  0C:5361    C$core_gpio.c$322$1$1
  0C:5361    XG$GPIO_set_output$0$0
  0C:5362    A$core_gpio$4821
  0C:5362    C$core_gpio.c$328$1$1
  0C:5362    G$GPIO_drive_inout$0$0
  0C:5362    _GPIO_drive_inout
  0C:5364    A$core_gpio$4822
  0C:5366    A$core_gpio$4823
  0C:5368    A$core_gpio$4824
  0C:536B    A$core_gpio$4825
  0C:536C    A$core_gpio$4826
  0C:536D    A$core_gpio$4827
  0C:536E    A$core_gpio$4828
  0C:536F    A$core_gpio$4829
  0C:5370    A$core_gpio$4830
  0C:5371    A$core_gpio$4831
  0C:5372    A$core_gpio$4835
  0C:5372    C$core_gpio.c$338$2$2
  0C:5375    A$core_gpio$4836
  0C:5376    A$core_gpio$4837
  0C:5377    A$core_gpio$4840
  0C:537A    A$core_gpio$4843
  0C:537C    A$core_gpio$4844
  0C:537F    A$core_gpio$4848
  0C:5382    A$core_gpio$4849
  0C:5384    A$core_gpio$4850
  0C:5385    A$core_gpio$4853
  0C:5388    A$core_gpio$4854
  0C:538A    A$core_gpio$4855
  0C:538B    A$core_gpio$4858
  0C:538E    A$core_gpio$4859
  0C:5390    A$core_gpio$4860
  0C:5391    A$core_gpio$4863
  0C:5394    A$core_gpio$4864
  0C:5396    A$core_gpio$4865
  0C:5397    A$core_gpio$4868
  0C:539A    A$core_gpio$4869
  0C:539C    A$core_gpio$4870
  0C:539D    A$core_gpio$4873
  0C:53A0    A$core_gpio$4874
  0C:53A2    A$core_gpio$4875
  0C:53A3    A$core_gpio$4878
  0C:53A6    A$core_gpio$4879
  0C:53A8    A$core_gpio$4880
  0C:53A9    A$core_gpio$4883
  0C:53AC    A$core_gpio$4884
  0C:53AE    A$core_gpio$4885
  0C:53AF    A$core_gpio$4888
  0C:53B2    A$core_gpio$4889
  0C:53B4    A$core_gpio$4890
  0C:53B5    A$core_gpio$4893
  0C:53B8    A$core_gpio$4894
  0C:53BA    A$core_gpio$4895
  0C:53BB    A$core_gpio$4898
  0C:53BE    A$core_gpio$4899
  0C:53C0    A$core_gpio$4900
  0C:53C1    A$core_gpio$4903
  0C:53C4    A$core_gpio$4904
  0C:53C6    A$core_gpio$4905
  0C:53C7    A$core_gpio$4908
  0C:53CA    A$core_gpio$4909
  0C:53CC    A$core_gpio$4910
  0C:53CD    A$core_gpio$4913
  0C:53D0    A$core_gpio$4914
  0C:53D2    A$core_gpio$4915
  0C:53D3    A$core_gpio$4918
  0C:53D6    A$core_gpio$4919
  0C:53D8    A$core_gpio$4920
  0C:53D9    A$core_gpio$4923
  0C:53DC    A$core_gpio$4924
  0C:53DE    A$core_gpio$4925
  0C:53DF    A$core_gpio$4928
  0C:53E2    A$core_gpio$4929
  0C:53E4    A$core_gpio$4930
  0C:53E5    A$core_gpio$4933
  0C:53E8    A$core_gpio$4934
  0C:53EA    A$core_gpio$4935
  0C:53EB    A$core_gpio$4938
  0C:53EE    A$core_gpio$4939
  0C:53F0    A$core_gpio$4940
  0C:53F1    A$core_gpio$4943
  0C:53F4    A$core_gpio$4944
  0C:53F6    A$core_gpio$4945
  0C:53F7    A$core_gpio$4948
  0C:53FA    A$core_gpio$4949
  0C:53FC    A$core_gpio$4950
  0C:53FD    A$core_gpio$4953
  0C:5400    A$core_gpio$4954
  0C:5402    A$core_gpio$4955
  0C:5403    A$core_gpio$4958
  0C:5406    A$core_gpio$4959
  0C:5408    A$core_gpio$4960
  0C:5409    A$core_gpio$4963
  0C:540C    A$core_gpio$4964
  0C:540E    A$core_gpio$4965
  0C:540F    A$core_gpio$4968
  0C:5412    A$core_gpio$4969
  0C:5414    A$core_gpio$4970
  0C:5415    A$core_gpio$4973
  0C:5418    A$core_gpio$4974
  0C:541A    A$core_gpio$4975
  0C:541B    A$core_gpio$4978
  0C:541E    A$core_gpio$4979
  0C:5420    A$core_gpio$4980
  0C:5421    A$core_gpio$4983
  0C:5424    A$core_gpio$4984
  0C:5426    A$core_gpio$4985
  0C:5427    A$core_gpio$4988
  0C:542A    A$core_gpio$4989
  0C:542C    A$core_gpio$4990
  0C:542D    A$core_gpio$4993
  0C:5430    A$core_gpio$4994
  0C:5432    A$core_gpio$4995
  0C:5433    A$core_gpio$4998
  0C:5436    A$core_gpio$4999
  0C:5438    A$core_gpio$5000
  0C:5439    A$core_gpio$5003
  0C:543C    A$core_gpio$5004
  0C:543E    A$core_gpio$5005
  0C:543F    A$core_gpio$5007
  0C:5442    A$core_gpio$5008
  0C:5444    A$core_gpio$5009
  0C:5445    A$core_gpio$5010
  0C:5446    A$core_gpio$5011
  0C:5448    A$core_gpio$5012
  0C:5449    A$core_gpio$5013
  0C:544A    A$core_gpio$5014
  0C:544C    A$core_gpio$5015
  0C:544D    A$core_gpio$5016
  0C:544E    A$core_gpio$5017
  0C:5450    A$core_gpio$5018
  0C:5451    A$core_gpio$5020
  0C:5454    A$core_gpio$5021
  0C:5457    A$core_gpio$5022
  0C:545A    A$core_gpio$5023
  0C:545C    A$core_gpio$5024
  0C:545F    A$core_gpio$5025
  0C:5461    A$core_gpio$5030
  0C:5461    C$core_gpio.c$340$1$1
  0C:5464    A$core_gpio$5031
  0C:5465    A$core_gpio$5032
  0C:5466    A$core_gpio$5035
  0C:5469    A$core_gpio$5036
  0C:546C    A$core_gpio$5040
  0C:546F    A$core_gpio$5041
  0C:5472    A$core_gpio$5045
  0C:5475    A$core_gpio$5046
  0C:5478    A$core_gpio$5048
  0C:547B    A$core_gpio$5055
  0C:547B    C$core_gpio.c$342$2$4
  0C:547B    C$core_gpio.c$344$2$4
  0C:547E    A$core_gpio$5056
  0C:547F    A$core_gpio$5057
  0C:5480    A$core_gpio$5058
  0C:5481    A$core_gpio$5059
  0C:5482    A$core_gpio$5060
  0C:5483    A$core_gpio$5061
  0C:5484    A$core_gpio$5062
  0C:5485    A$core_gpio$5063
  0C:5486    A$core_gpio$5065
  0C:5489    A$core_gpio$5066
  0C:548A    A$core_gpio$5067
  0C:548B    A$core_gpio$5069
  0C:548E    A$core_gpio$5070
  0C:5490    A$core_gpio$5071
  0C:5491    A$core_gpio$5073
  0C:5493    A$core_gpio$5074
  0C:5495    A$core_gpio$5075
  0C:5497    A$core_gpio$5076
  0C:5499    A$core_gpio$5077
  0C:549C    A$core_gpio$5078
  0C:549E    A$core_gpio$5082
  0C:549E    C$core_gpio.c$347$2$4
  0C:54A1    A$core_gpio$5083
  0C:54A2    A$core_gpio$5084
  0C:54A3    A$core_gpio$5085
  0C:54A4    A$core_gpio$5086
  0C:54A5    A$core_gpio$5087
  0C:54A6    A$core_gpio$5088
  0C:54A7    A$core_gpio$5089
  0C:54A8    A$core_gpio$5090
  0C:54A9    A$core_gpio$5093
  0C:54AB    A$core_gpio$5094
  0C:54AD    A$core_gpio$5095
  0C:54AF    A$core_gpio$5096
  0C:54B2    A$core_gpio$5097
  0C:54B3    A$core_gpio$5098
  0C:54B4    A$core_gpio$5099
  0C:54B7    A$core_gpio$5100
  0C:54B8    A$core_gpio$5103
  0C:54B9    A$core_gpio$5104
  0C:54BC    A$core_gpio$5105
  0C:54BD    A$core_gpio$5107
  0C:54BF    A$core_gpio$5108
  0C:54C0    A$core_gpio$5109
  0C:54C2    A$core_gpio$5110
  0C:54C4    A$core_gpio$5111
  0C:54C5    A$core_gpio$5113
  0C:54C7    A$core_gpio$5114
  0C:54C9    A$core_gpio$5119
  0C:54C9    C$core_gpio.c$348$2$4
  0C:54CB    A$core_gpio$5120
  0C:54CD    A$core_gpio$5121
  0C:54CF    A$core_gpio$5122
  0C:54D1    A$core_gpio$5123
  0C:54D4    A$core_gpio$5124
  0C:54D6    A$core_gpio$5125
  0C:54D8    A$core_gpio$5126
  0C:54DA    A$core_gpio$5128
  0C:54DC    A$core_gpio$5129
  0C:54DE    A$core_gpio$5130
  0C:54E0    A$core_gpio$5134
  0C:54E0    C$core_gpio.c$349$2$4
  0C:54E3    A$core_gpio$5138
  0C:54E3    C$core_gpio.c$350$2$4
  0C:54E6    A$core_gpio$5139
  0C:54E7    A$core_gpio$5140
  0C:54E8    A$core_gpio$5142
  0C:54EA    A$core_gpio$5143
  0C:54EC    A$core_gpio$5144
  0C:54EF    A$core_gpio$5147
  0C:54EF    C$core_gpio.c$351$2$4
  0C:54F2    A$core_gpio$5154
  0C:54F2    C$core_gpio.c$353$2$4
  0C:54F2    C$core_gpio.c$355$2$4
  0C:54F5    A$core_gpio$5155
  0C:54F6    A$core_gpio$5156
  0C:54F7    A$core_gpio$5157
  0C:54F8    A$core_gpio$5158
  0C:54F9    A$core_gpio$5159
  0C:54FA    A$core_gpio$5160
  0C:54FB    A$core_gpio$5161
  0C:54FC    A$core_gpio$5162
  0C:54FD    A$core_gpio$5164
  0C:5500    A$core_gpio$5165
  0C:5501    A$core_gpio$5166
  0C:5502    A$core_gpio$5168
  0C:5505    A$core_gpio$5169
  0C:5507    A$core_gpio$5170
  0C:5508    A$core_gpio$5172
  0C:550A    A$core_gpio$5173
  0C:550C    A$core_gpio$5174
  0C:550E    A$core_gpio$5175
  0C:5510    A$core_gpio$5176
  0C:5513    A$core_gpio$5177
  0C:5515    A$core_gpio$5181
  0C:5515    C$core_gpio.c$358$2$4
  0C:5518    A$core_gpio$5182
  0C:5519    A$core_gpio$5183
  0C:551A    A$core_gpio$5184
  0C:551B    A$core_gpio$5185
  0C:551C    A$core_gpio$5186
  0C:551D    A$core_gpio$5187
  0C:551E    A$core_gpio$5188
  0C:551F    A$core_gpio$5189
  0C:5520    A$core_gpio$5192
  0C:5522    A$core_gpio$5193
  0C:5524    A$core_gpio$5194
  0C:5526    A$core_gpio$5195
  0C:5529    A$core_gpio$5196
  0C:552A    A$core_gpio$5197
  0C:552B    A$core_gpio$5198
  0C:552E    A$core_gpio$5199
  0C:552F    A$core_gpio$5202
  0C:5530    A$core_gpio$5203
  0C:5533    A$core_gpio$5204
  0C:5534    A$core_gpio$5206
  0C:5536    A$core_gpio$5207
  0C:5537    A$core_gpio$5208
  0C:5539    A$core_gpio$5209
  0C:553B    A$core_gpio$5210
  0C:553C    A$core_gpio$5212
  0C:553E    A$core_gpio$5213
  0C:5540    A$core_gpio$5218
  0C:5540    C$core_gpio.c$359$2$4
  0C:5542    A$core_gpio$5219
  0C:5544    A$core_gpio$5220
  0C:5546    A$core_gpio$5221
  0C:5548    A$core_gpio$5222
  0C:554B    A$core_gpio$5223
  0C:554D    A$core_gpio$5224
  0C:554F    A$core_gpio$5225
  0C:5551    A$core_gpio$5227
  0C:5553    A$core_gpio$5228
  0C:5555    A$core_gpio$5229
  0C:5557    A$core_gpio$5233
  0C:5557    C$core_gpio.c$360$2$4
  0C:555A    A$core_gpio$5237
  0C:555A    C$core_gpio.c$361$2$4
  0C:555D    A$core_gpio$5238
  0C:555E    A$core_gpio$5239
  0C:555F    A$core_gpio$5241
  0C:5561    A$core_gpio$5242
  0C:5563    A$core_gpio$5243
  0C:5566    A$core_gpio$5246
  0C:5566    C$core_gpio.c$362$2$4
  0C:5569    A$core_gpio$5253
  0C:5569    C$core_gpio.c$364$2$4
  0C:5569    C$core_gpio.c$366$2$4
  0C:556C    A$core_gpio$5254
  0C:556D    A$core_gpio$5255
  0C:556E    A$core_gpio$5256
  0C:556F    A$core_gpio$5257
  0C:5570    A$core_gpio$5258
  0C:5571    A$core_gpio$5259
  0C:5572    A$core_gpio$5260
  0C:5573    A$core_gpio$5261
  0C:5574    A$core_gpio$5264
  0C:5576    A$core_gpio$5265
  0C:5578    A$core_gpio$5266
  0C:557A    A$core_gpio$5267
  0C:557D    A$core_gpio$5268
  0C:557E    A$core_gpio$5269
  0C:557F    A$core_gpio$5270
  0C:5582    A$core_gpio$5271
  0C:5583    A$core_gpio$5274
  0C:5584    A$core_gpio$5275
  0C:5587    A$core_gpio$5276
  0C:5588    A$core_gpio$5278
  0C:558A    A$core_gpio$5279
  0C:558B    A$core_gpio$5280
  0C:558D    A$core_gpio$5281
  0C:558F    A$core_gpio$5282
  0C:5590    A$core_gpio$5284
  0C:5592    A$core_gpio$5285
  0C:5594    A$core_gpio$5290
  0C:5594    C$core_gpio.c$367$2$4
  0C:5596    A$core_gpio$5291
  0C:5598    A$core_gpio$5292
  0C:559A    A$core_gpio$5293
  0C:559C    A$core_gpio$5294
  0C:559F    A$core_gpio$5295
  0C:55A1    A$core_gpio$5296
  0C:55A3    A$core_gpio$5297
  0C:55A5    A$core_gpio$5299
  0C:55A7    A$core_gpio$5300
  0C:55A9    A$core_gpio$5301
  0C:55AB    A$core_gpio$5305
  0C:55AB    C$core_gpio.c$368$2$4
  0C:55AE    A$core_gpio$5309
  0C:55AE    C$core_gpio.c$369$2$4
  0C:55B1    A$core_gpio$5310
  0C:55B2    A$core_gpio$5311
  0C:55B3    A$core_gpio$5313
  0C:55B5    A$core_gpio$5314
  0C:55B7    A$core_gpio$5315
  0C:55BA    A$core_gpio$5318
  0C:55BA    C$core_gpio.c$370$2$4
  0C:55BD    A$core_gpio$5324
  0C:55BD    C$core_gpio.c$373$2$4
  0C:55C0    A$core_gpio$5325
  0C:55C2    A$core_gpio$5326
  0C:55C3    A$core_gpio$5329
  0C:55C6    A$core_gpio$5330
  0C:55C8    A$core_gpio$5331
  0C:55C9    A$core_gpio$5334
  0C:55CC    A$core_gpio$5335
  0C:55CE    A$core_gpio$5336
  0C:55CF    A$core_gpio$5339
  0C:55D2    A$core_gpio$5340
  0C:55D4    A$core_gpio$5341
  0C:55D5    A$core_gpio$5344
  0C:55D8    A$core_gpio$5345
  0C:55DA    A$core_gpio$5346
  0C:55DB    A$core_gpio$5349
  0C:55DE    A$core_gpio$5350
  0C:55E0    A$core_gpio$5351
  0C:55E1    A$core_gpio$5354
  0C:55E4    A$core_gpio$5355
  0C:55E6    A$core_gpio$5356
  0C:55E7    A$core_gpio$5359
  0C:55EA    A$core_gpio$5360
  0C:55EC    A$core_gpio$5361
  0C:55ED    A$core_gpio$5364
  0C:55F0    A$core_gpio$5365
  0C:55F2    A$core_gpio$5366
  0C:55F3    A$core_gpio$5369
  0C:55F6    A$core_gpio$5370
  0C:55F8    A$core_gpio$5371
  0C:55F9    A$core_gpio$5374
  0C:55FC    A$core_gpio$5375
  0C:55FE    A$core_gpio$5376
  0C:55FF    A$core_gpio$5379
  0C:5602    A$core_gpio$5380
  0C:5604    A$core_gpio$5381
  0C:5605    A$core_gpio$5384
  0C:5608    A$core_gpio$5385
  0C:560A    A$core_gpio$5386
  0C:560B    A$core_gpio$5389
  0C:560E    A$core_gpio$5390
  0C:5610    A$core_gpio$5391
  0C:5611    A$core_gpio$5394
  0C:5614    A$core_gpio$5395
  0C:5616    A$core_gpio$5396
  0C:5617    A$core_gpio$5399
  0C:561A    A$core_gpio$5400
  0C:561C    A$core_gpio$5401
  0C:561D    A$core_gpio$5404
  0C:5620    A$core_gpio$5405
  0C:5622    A$core_gpio$5406
  0C:5623    A$core_gpio$5409
  0C:5626    A$core_gpio$5410
  0C:5628    A$core_gpio$5411
  0C:5629    A$core_gpio$5414
  0C:562C    A$core_gpio$5415
  0C:562E    A$core_gpio$5416
  0C:562F    A$core_gpio$5419
  0C:5632    A$core_gpio$5420
  0C:5634    A$core_gpio$5421
  0C:5635    A$core_gpio$5424
  0C:5638    A$core_gpio$5425
  0C:563A    A$core_gpio$5426
  0C:563B    A$core_gpio$5429
  0C:563E    A$core_gpio$5430
  0C:5640    A$core_gpio$5431
  0C:5641    A$core_gpio$5434
  0C:5644    A$core_gpio$5435
  0C:5646    A$core_gpio$5436
  0C:5647    A$core_gpio$5439
  0C:564A    A$core_gpio$5440
  0C:564C    A$core_gpio$5441
  0C:564D    A$core_gpio$5444
  0C:5650    A$core_gpio$5445
  0C:5652    A$core_gpio$5446
  0C:5653    A$core_gpio$5449
  0C:5656    A$core_gpio$5450
  0C:5658    A$core_gpio$5451
  0C:5659    A$core_gpio$5454
  0C:565C    A$core_gpio$5455
  0C:565E    A$core_gpio$5456
  0C:565F    A$core_gpio$5459
  0C:5662    A$core_gpio$5460
  0C:5664    A$core_gpio$5461
  0C:5665    A$core_gpio$5464
  0C:5668    A$core_gpio$5465
  0C:566A    A$core_gpio$5466
  0C:566B    A$core_gpio$5469
  0C:566E    A$core_gpio$5470
  0C:5670    A$core_gpio$5471
  0C:5671    A$core_gpio$5474
  0C:5674    A$core_gpio$5475
  0C:5676    A$core_gpio$5476
  0C:5677    A$core_gpio$5479
  0C:567A    A$core_gpio$5480
  0C:567C    A$core_gpio$5481
  0C:567D    A$core_gpio$5483
  0C:5680    A$core_gpio$5484
  0C:5682    A$core_gpio$5485
  0C:5683    A$core_gpio$5486
  0C:5684    A$core_gpio$5487
  0C:5686    A$core_gpio$5488
  0C:5687    A$core_gpio$5489
  0C:5688    A$core_gpio$5490
  0C:568A    A$core_gpio$5491
  0C:568B    A$core_gpio$5492
  0C:568C    A$core_gpio$5493
  0C:568E    A$core_gpio$5494
  0C:568F    A$core_gpio$5496
  0C:5692    A$core_gpio$5497
  0C:5695    A$core_gpio$5498
  0C:5698    A$core_gpio$5499
  0C:569B    A$core_gpio$5505
  0C:569B    C$core_gpio.c$375$1$1
  0C:569B    C$core_gpio.c$376$1$1
  0C:569B    XG$GPIO_drive_inout$0$0
  0C:569C    A$core_gpio$5523
  0C:569C    C$core_gpio.c$382$1$1
  0C:569C    G$GPIO_enable_irq$0$0
  0C:569C    _GPIO_enable_irq
  0C:569E    A$core_gpio$5524
  0C:56A0    A$core_gpio$5525
  0C:56A2    A$core_gpio$5526
  0C:56A5    A$core_gpio$5527
  0C:56A6    A$core_gpio$5528
  0C:56A7    A$core_gpio$5529
  0C:56A8    A$core_gpio$5530
  0C:56A9    A$core_gpio$5531
  0C:56AA    A$core_gpio$5532
  0C:56AB    A$core_gpio$5533
  0C:56AC    A$core_gpio$5537
  0C:56AC    C$core_gpio.c$389$1$1
  0C:56AF    A$core_gpio$5538
  0C:56B0    A$core_gpio$5539
  0C:56B1    A$core_gpio$5540
  0C:56B2    A$core_gpio$5541
  0C:56B3    A$core_gpio$5542
  0C:56B4    A$core_gpio$5543
  0C:56B5    A$core_gpio$5544
  0C:56B6    A$core_gpio$5545
  0C:56B7    A$core_gpio$5548
  0C:56B9    A$core_gpio$5549
  0C:56BB    A$core_gpio$5550
  0C:56BD    A$core_gpio$5551
  0C:56C0    A$core_gpio$5552
  0C:56C1    A$core_gpio$5553
  0C:56C2    A$core_gpio$5554
  0C:56C5    A$core_gpio$5555
  0C:56C6    A$core_gpio$5557
  0C:56C8    A$core_gpio$5558
  0C:56CA    A$core_gpio$5562
  0C:56CA    C$core_gpio.c$391$2$2
  0C:56CD    A$core_gpio$5563
  0C:56CE    A$core_gpio$5564
  0C:56CF    A$core_gpio$5567
  0C:56D2    A$core_gpio$5569
  0C:56D3    A$core_gpio$5570
  0C:56D4    A$core_gpio$5571
  0C:56D5    A$core_gpio$5573
  0C:56D6    A$core_gpio$5575
  0C:56D8    A$core_gpio$5576
  0C:56DB    A$core_gpio$5580
  0C:56DE    A$core_gpio$5581
  0C:56E0    A$core_gpio$5582
  0C:56E1    A$core_gpio$5585
  0C:56E4    A$core_gpio$5586
  0C:56E6    A$core_gpio$5587
  0C:56E7    A$core_gpio$5590
  0C:56EA    A$core_gpio$5591
  0C:56EC    A$core_gpio$5592
  0C:56ED    A$core_gpio$5595
  0C:56F0    A$core_gpio$5596
  0C:56F2    A$core_gpio$5597
  0C:56F3    A$core_gpio$5600
  0C:56F6    A$core_gpio$5601
  0C:56F8    A$core_gpio$5602
  0C:56F9    A$core_gpio$5605
  0C:56FC    A$core_gpio$5606
  0C:56FE    A$core_gpio$5607
  0C:56FF    A$core_gpio$5610
  0C:5702    A$core_gpio$5611
  0C:5704    A$core_gpio$5612
  0C:5705    A$core_gpio$5615
  0C:5708    A$core_gpio$5616
  0C:570A    A$core_gpio$5617
  0C:570B    A$core_gpio$5620
  0C:570E    A$core_gpio$5621
  0C:5710    A$core_gpio$5622
  0C:5711    A$core_gpio$5625
  0C:5714    A$core_gpio$5626
  0C:5716    A$core_gpio$5627
  0C:5717    A$core_gpio$5630
  0C:571A    A$core_gpio$5631
  0C:571C    A$core_gpio$5632
  0C:571D    A$core_gpio$5635
  0C:5720    A$core_gpio$5636
  0C:5722    A$core_gpio$5637
  0C:5723    A$core_gpio$5640
  0C:5726    A$core_gpio$5641
  0C:5728    A$core_gpio$5642
  0C:5729    A$core_gpio$5645
  0C:572C    A$core_gpio$5646
  0C:572E    A$core_gpio$5647
  0C:572F    A$core_gpio$5650
  0C:5732    A$core_gpio$5651
  0C:5734    A$core_gpio$5652
  0C:5735    A$core_gpio$5655
  0C:5738    A$core_gpio$5656
  0C:573A    A$core_gpio$5657
  0C:573B    A$core_gpio$5660
  0C:573E    A$core_gpio$5661
  0C:5740    A$core_gpio$5662
  0C:5741    A$core_gpio$5665
  0C:5744    A$core_gpio$5666
  0C:5746    A$core_gpio$5667
  0C:5747    A$core_gpio$5670
  0C:574A    A$core_gpio$5671
  0C:574C    A$core_gpio$5672
  0C:574D    A$core_gpio$5675
  0C:5750    A$core_gpio$5676
  0C:5752    A$core_gpio$5677
  0C:5753    A$core_gpio$5680
  0C:5756    A$core_gpio$5681
  0C:5758    A$core_gpio$5682
  0C:5759    A$core_gpio$5685
  0C:575C    A$core_gpio$5686
  0C:575E    A$core_gpio$5687
  0C:575F    A$core_gpio$5690
  0C:5762    A$core_gpio$5691
  0C:5764    A$core_gpio$5692
  0C:5765    A$core_gpio$5695
  0C:5768    A$core_gpio$5696
  0C:576A    A$core_gpio$5697
  0C:576B    A$core_gpio$5700
  0C:576E    A$core_gpio$5701
  0C:5770    A$core_gpio$5702
  0C:5771    A$core_gpio$5705
  0C:5774    A$core_gpio$5706
  0C:5776    A$core_gpio$5707
  0C:5777    A$core_gpio$5710
  0C:577A    A$core_gpio$5711
  0C:577C    A$core_gpio$5712
  0C:577D    A$core_gpio$5715
  0C:5780    A$core_gpio$5716
  0C:5782    A$core_gpio$5717
  0C:5783    A$core_gpio$5720
  0C:5786    A$core_gpio$5721
  0C:5788    A$core_gpio$5722
  0C:5789    A$core_gpio$5725
  0C:578C    A$core_gpio$5726
  0C:578E    A$core_gpio$5727
  0C:578F    A$core_gpio$5730
  0C:5792    A$core_gpio$5731
  0C:5794    A$core_gpio$5732
  0C:5795    A$core_gpio$5735
  0C:5798    A$core_gpio$5736
  0C:579A    A$core_gpio$5737
  0C:579B    A$core_gpio$5739
  0C:579E    A$core_gpio$5740
  0C:57A0    A$core_gpio$5741
  0C:57A1    A$core_gpio$5742
  0C:57A2    A$core_gpio$5743
  0C:57A4    A$core_gpio$5744
  0C:57A5    A$core_gpio$5745
  0C:57A6    A$core_gpio$5746
  0C:57A8    A$core_gpio$5747
  0C:57A9    A$core_gpio$5748
  0C:57AA    A$core_gpio$5749
  0C:57AC    A$core_gpio$5750
  0C:57AD    A$core_gpio$5752
  0C:57B0    A$core_gpio$5753
  0C:57B3    A$core_gpio$5754
  0C:57B6    A$core_gpio$5755
  0C:57B8    A$core_gpio$5756
  0C:57BA    A$core_gpio$5757
  0C:57BC    A$core_gpio$5758
  0C:57BE    A$core_gpio$5759
  0C:57C0    A$core_gpio$5760
  0C:57C2    A$core_gpio$5761
  0C:57C5    A$core_gpio$5762
  0C:57C7    A$core_gpio$5763
  0C:57C9    A$core_gpio$5764
  0C:57CB    A$core_gpio$5765
  0C:57CD    A$core_gpio$5766
  0C:57CF    A$core_gpio$5767
  0C:57D1    A$core_gpio$5772
  0C:57D1    C$core_gpio.c$393$1$1
  0C:57D2    A$core_gpio$5774
  0C:57D4    A$core_gpio$5775
  0C:57D7    A$core_gpio$5781
  0C:57D7    C$core_gpio.c$395$2$4
  0C:57D8    A$core_gpio$5782
  0C:57DB    A$core_gpio$5783
  0C:57DC    A$core_gpio$5784
  0C:57DD    A$core_gpio$5785
  0C:57DF    A$core_gpio$5787
  0C:57E0    A$core_gpio$5788
  0C:57E1    A$core_gpio$5789
  0C:57E3    A$core_gpio$5790
  0C:57E4    A$core_gpio$5791
  0C:57E5    A$core_gpio$5793
  0C:57E7    A$core_gpio$5794
  0C:57E9    A$core_gpio$5795
  0C:57EA    A$core_gpio$5796
  0C:57EC    A$core_gpio$5797
  0C:57EE    A$core_gpio$5798
  0C:57EF    A$core_gpio$5799
  0C:57F1    A$core_gpio$5800
  0C:57F3    A$core_gpio$5801
  0C:57F4    A$core_gpio$5802
  0C:57F6    A$core_gpio$5803
  0C:57F8    A$core_gpio$5804
  0C:57F9    A$core_gpio$5809
  0C:57F9    C$core_gpio.c$396$2$4
  0C:57FB    A$core_gpio$5810
  0C:57FD    A$core_gpio$5811
  0C:57FF    A$core_gpio$5812
  0C:5801    A$core_gpio$5813
  0C:5804    A$core_gpio$5814
  0C:5806    A$core_gpio$5815
  0C:5808    A$core_gpio$5816
  0C:580A    A$core_gpio$5818
  0C:580C    A$core_gpio$5819
  0C:580E    A$core_gpio$5820
  0C:5810    A$core_gpio$5824
  0C:5810    C$core_gpio.c$397$2$4
  0C:5813    A$core_gpio$5828
  0C:5813    C$core_gpio.c$398$2$4
  0C:5816    A$core_gpio$5829
  0C:5817    A$core_gpio$5830
  0C:5818    A$core_gpio$5832
  0C:581A    A$core_gpio$5833
  0C:581C    A$core_gpio$5834
  0C:581F    A$core_gpio$5838
  0C:581F    C$core_gpio.c$400$2$1
  0C:581F    XG$GPIO_enable_irq$0$0
  0C:5820    A$core_gpio$5856
  0C:5820    C$core_gpio.c$406$2$1
  0C:5820    G$GPIO_disable_irq$0$0
  0C:5820    _GPIO_disable_irq
  0C:5822    A$core_gpio$5857
  0C:5824    A$core_gpio$5858
  0C:5826    A$core_gpio$5859
  0C:5829    A$core_gpio$5860
  0C:582A    A$core_gpio$5861
  0C:582B    A$core_gpio$5862
  0C:582C    A$core_gpio$5863
  0C:582D    A$core_gpio$5864
  0C:582E    A$core_gpio$5865
  0C:582F    A$core_gpio$5866
  0C:5830    A$core_gpio$5870
  0C:5830    C$core_gpio.c$413$1$1
  0C:5833    A$core_gpio$5871
  0C:5834    A$core_gpio$5872
  0C:5835    A$core_gpio$5873
  0C:5836    A$core_gpio$5874
  0C:5837    A$core_gpio$5875
  0C:5838    A$core_gpio$5876
  0C:5839    A$core_gpio$5877
  0C:583A    A$core_gpio$5878
  0C:583B    A$core_gpio$5881
  0C:583D    A$core_gpio$5882
  0C:583F    A$core_gpio$5883
  0C:5841    A$core_gpio$5884
  0C:5844    A$core_gpio$5885
  0C:5845    A$core_gpio$5886
  0C:5846    A$core_gpio$5887
  0C:5849    A$core_gpio$5888
  0C:584A    A$core_gpio$5890
  0C:584C    A$core_gpio$5891
  0C:584E    A$core_gpio$5895
  0C:584E    C$core_gpio.c$415$2$2
  0C:5851    A$core_gpio$5896
  0C:5852    A$core_gpio$5897
  0C:5853    A$core_gpio$5900
  0C:5856    A$core_gpio$5902
  0C:5857    A$core_gpio$5903
  0C:5858    A$core_gpio$5904
  0C:5859    A$core_gpio$5906
  0C:585A    A$core_gpio$5908
  0C:585C    A$core_gpio$5909
  0C:585F    A$core_gpio$5913
  0C:5862    A$core_gpio$5914
  0C:5864    A$core_gpio$5915
  0C:5865    A$core_gpio$5918
  0C:5868    A$core_gpio$5919
  0C:586A    A$core_gpio$5920
  0C:586B    A$core_gpio$5923
  0C:586E    A$core_gpio$5924
  0C:5870    A$core_gpio$5925
  0C:5871    A$core_gpio$5928
  0C:5874    A$core_gpio$5929
  0C:5876    A$core_gpio$5930
  0C:5877    A$core_gpio$5933
  0C:587A    A$core_gpio$5934
  0C:587C    A$core_gpio$5935
  0C:587D    A$core_gpio$5938
  0C:5880    A$core_gpio$5939
  0C:5882    A$core_gpio$5940
  0C:5883    A$core_gpio$5943
  0C:5886    A$core_gpio$5944
  0C:5888    A$core_gpio$5945
  0C:5889    A$core_gpio$5948
  0C:588C    A$core_gpio$5949
  0C:588E    A$core_gpio$5950
  0C:588F    A$core_gpio$5953
  0C:5892    A$core_gpio$5954
  0C:5894    A$core_gpio$5955
  0C:5895    A$core_gpio$5958
  0C:5898    A$core_gpio$5959
  0C:589A    A$core_gpio$5960
  0C:589B    A$core_gpio$5963
  0C:589E    A$core_gpio$5964
  0C:58A0    A$core_gpio$5965
  0C:58A1    A$core_gpio$5968
  0C:58A4    A$core_gpio$5969
  0C:58A6    A$core_gpio$5970
  0C:58A7    A$core_gpio$5973
  0C:58AA    A$core_gpio$5974
  0C:58AC    A$core_gpio$5975
  0C:58AD    A$core_gpio$5978
  0C:58B0    A$core_gpio$5979
  0C:58B2    A$core_gpio$5980
  0C:58B3    A$core_gpio$5983
  0C:58B6    A$core_gpio$5984
  0C:58B8    A$core_gpio$5985
  0C:58B9    A$core_gpio$5988
  0C:58BC    A$core_gpio$5989
  0C:58BE    A$core_gpio$5990
  0C:58BF    A$core_gpio$5993
  0C:58C2    A$core_gpio$5994
  0C:58C4    A$core_gpio$5995
  0C:58C5    A$core_gpio$5998
  0C:58C8    A$core_gpio$5999
  0C:58CA    A$core_gpio$6000
  0C:58CB    A$core_gpio$6003
  0C:58CE    A$core_gpio$6004
  0C:58D0    A$core_gpio$6005
  0C:58D1    A$core_gpio$6008
  0C:58D4    A$core_gpio$6009
  0C:58D6    A$core_gpio$6010
  0C:58D7    A$core_gpio$6013
  0C:58DA    A$core_gpio$6014
  0C:58DC    A$core_gpio$6015
  0C:58DD    A$core_gpio$6018
  0C:58E0    A$core_gpio$6019
  0C:58E2    A$core_gpio$6020
  0C:58E3    A$core_gpio$6023
  0C:58E6    A$core_gpio$6024
  0C:58E8    A$core_gpio$6025
  0C:58E9    A$core_gpio$6028
  0C:58EC    A$core_gpio$6029
  0C:58EE    A$core_gpio$6030
  0C:58EF    A$core_gpio$6033
  0C:58F2    A$core_gpio$6034
  0C:58F4    A$core_gpio$6035
  0C:58F5    A$core_gpio$6038
  0C:58F8    A$core_gpio$6039
  0C:58FA    A$core_gpio$6040
  0C:58FB    A$core_gpio$6043
  0C:58FE    A$core_gpio$6044
  0C:5900    A$core_gpio$6045
  0C:5901    A$core_gpio$6048
  0C:5904    A$core_gpio$6049
  0C:5906    A$core_gpio$6050
  0C:5907    A$core_gpio$6053
  0C:590A    A$core_gpio$6054
  0C:590C    A$core_gpio$6055
  0C:590D    A$core_gpio$6058
  0C:5910    A$core_gpio$6059
  0C:5912    A$core_gpio$6060
  0C:5913    A$core_gpio$6063
  0C:5916    A$core_gpio$6064
  0C:5918    A$core_gpio$6065
  0C:5919    A$core_gpio$6068
  0C:591C    A$core_gpio$6069
  0C:591E    A$core_gpio$6070
  0C:591F    A$core_gpio$6072
  0C:5922    A$core_gpio$6073
  0C:5924    A$core_gpio$6074
  0C:5925    A$core_gpio$6075
  0C:5926    A$core_gpio$6076
  0C:5928    A$core_gpio$6077
  0C:5929    A$core_gpio$6078
  0C:592A    A$core_gpio$6079
  0C:592C    A$core_gpio$6080
  0C:592D    A$core_gpio$6081
  0C:592E    A$core_gpio$6082
  0C:5930    A$core_gpio$6083
  0C:5931    A$core_gpio$6085
  0C:5934    A$core_gpio$6086
  0C:5937    A$core_gpio$6087
  0C:593A    A$core_gpio$6088
  0C:593C    A$core_gpio$6089
  0C:593E    A$core_gpio$6090
  0C:5940    A$core_gpio$6091
  0C:5942    A$core_gpio$6092
  0C:5944    A$core_gpio$6093
  0C:5946    A$core_gpio$6094
  0C:5949    A$core_gpio$6095
  0C:594B    A$core_gpio$6096
  0C:594D    A$core_gpio$6097
  0C:594F    A$core_gpio$6098
  0C:5951    A$core_gpio$6099
  0C:5953    A$core_gpio$6100
  0C:5955    A$core_gpio$6105
  0C:5955    C$core_gpio.c$417$1$1
  0C:5956    A$core_gpio$6107
  0C:5958    A$core_gpio$6108
  0C:595B    A$core_gpio$6114
  0C:595B    C$core_gpio.c$419$2$4
  0C:595C    A$core_gpio$6115
  0C:595F    A$core_gpio$6116
  0C:5960    A$core_gpio$6117
  0C:5961    A$core_gpio$6118
  0C:5963    A$core_gpio$6120
  0C:5964    A$core_gpio$6121
  0C:5965    A$core_gpio$6122
  0C:5967    A$core_gpio$6123
  0C:5968    A$core_gpio$6124
  0C:5969    A$core_gpio$6126
  0C:596B    A$core_gpio$6127
  0C:596D    A$core_gpio$6128
  0C:596E    A$core_gpio$6129
  0C:5970    A$core_gpio$6130
  0C:5972    A$core_gpio$6131
  0C:5973    A$core_gpio$6132
  0C:5975    A$core_gpio$6133
  0C:5977    A$core_gpio$6134
  0C:5978    A$core_gpio$6135
  0C:597A    A$core_gpio$6136
  0C:597C    A$core_gpio$6137
  0C:597D    A$core_gpio$6142
  0C:597D    C$core_gpio.c$420$2$4
  0C:597F    A$core_gpio$6143
  0C:5981    A$core_gpio$6144
  0C:5983    A$core_gpio$6145
  0C:5985    A$core_gpio$6146
  0C:5988    A$core_gpio$6147
  0C:598A    A$core_gpio$6148
  0C:598C    A$core_gpio$6149
  0C:598E    A$core_gpio$6151
  0C:5990    A$core_gpio$6152
  0C:5992    A$core_gpio$6153
  0C:5994    A$core_gpio$6157
  0C:5994    C$core_gpio.c$421$2$4
  0C:5997    A$core_gpio$6161
  0C:5997    C$core_gpio.c$422$2$4
  0C:599A    A$core_gpio$6162
  0C:599B    A$core_gpio$6163
  0C:599C    A$core_gpio$6165
  0C:599E    A$core_gpio$6166
  0C:59A0    A$core_gpio$6167
  0C:59A3    A$core_gpio$6171
  0C:59A3    C$core_gpio.c$424$2$1
  0C:59A3    XG$GPIO_disable_irq$0$0
  0C:59A4    A$core_gpio$6189
  0C:59A4    C$core_gpio.c$430$2$1
  0C:59A4    G$GPIO_clear_irq$0$0
  0C:59A4    _GPIO_clear_irq
  0C:59A6    A$core_gpio$6190
  0C:59A8    A$core_gpio$6191
  0C:59AA    A$core_gpio$6192
  0C:59AD    A$core_gpio$6193
  0C:59AE    A$core_gpio$6194
  0C:59AF    A$core_gpio$6195
  0C:59B0    A$core_gpio$6196
  0C:59B1    A$core_gpio$6197
  0C:59B2    A$core_gpio$6198
  0C:59B3    A$core_gpio$6199
  0C:59B4    A$core_gpio$6203
  0C:59B4    C$core_gpio.c$436$1$1
  0C:59B7    A$core_gpio$6204
  0C:59B8    A$core_gpio$6205
  0C:59B9    A$core_gpio$6207
  0C:59BB    A$core_gpio$6208
  0C:59BD    A$core_gpio$6209
  0C:59BF    A$core_gpio$6211
  0C:59C1    A$core_gpio$6212
  0C:59C3    A$core_gpio$6213
  0C:59C6    A$core_gpio$6214
  0C:59C9    A$core_gpio$6215
  0C:59CC    A$core_gpio$6216
  0C:59CF    A$core_gpio$6217
  0C:59D1    A$core_gpio$6219
  0C:59D3    A$core_gpio$6220
  0C:59D5    A$core_gpio$6221
  0C:59D7    A$core_gpio$6222
  0C:59D9    A$core_gpio$6223
  0C:59DA    A$core_gpio$6224
  0C:59DC    A$core_gpio$6225
  0C:59DE    A$core_gpio$6226
  0C:59DF    A$core_gpio$6227
  0C:59E1    A$core_gpio$6228
  0C:59E3    A$core_gpio$6229
  0C:59E4    A$core_gpio$6230
  0C:59E6    A$core_gpio$6232
  0C:59E9    A$core_gpio$6236
  0C:59E9    C$core_gpio.c$438$1$1
  0C:59EC    A$core_gpio$6237
  0C:59ED    A$core_gpio$6238
  0C:59EE    A$core_gpio$6239
  0C:59EF    A$core_gpio$6240
  0C:59F0    A$core_gpio$6241
  0C:59F1    A$core_gpio$6242
  0C:59F2    A$core_gpio$6243
  0C:59F3    A$core_gpio$6244
  0C:59F4    A$core_gpio$6247
  0C:59F6    A$core_gpio$6248
  0C:59F8    A$core_gpio$6249
  0C:59F9    A$core_gpio$6250
  0C:59FB    A$core_gpio$6251
  0C:59FD    A$core_gpio$6252
  0C:59FE    A$core_gpio$6253
  0C:5A00    A$core_gpio$6256
  0C:5A02    A$core_gpio$6257
  0C:5A04    A$core_gpio$6258
  0C:5A06    A$core_gpio$6259
  0C:5A09    A$core_gpio$6260
  0C:5A0A    A$core_gpio$6263
  0C:5A0D    A$core_gpio$6264
  0C:5A10    A$core_gpio$6268
  0C:5A13    A$core_gpio$6269
  0C:5A16    A$core_gpio$6273
  0C:5A19    A$core_gpio$6274
  0C:5A1B    A$core_gpio$6276
  0C:5A1E    A$core_gpio$6282
  0C:5A1E    C$core_gpio.c$441$2$2
  0C:5A20    A$core_gpio$6283
  0C:5A22    A$core_gpio$6284
  0C:5A24    A$core_gpio$6285
  0C:5A27    A$core_gpio$6286
  0C:5A28    A$core_gpio$6287
  0C:5A29    A$core_gpio$6288
  0C:5A2C    A$core_gpio$6289
  0C:5A2D    A$core_gpio$6292
  0C:5A2F    A$core_gpio$6293
  0C:5A31    A$core_gpio$6294
  0C:5A32    A$core_gpio$6295
  0C:5A34    A$core_gpio$6296
  0C:5A36    A$core_gpio$6297
  0C:5A37    A$core_gpio$6299
  0C:5A3A    A$core_gpio$6300
  0C:5A3C    A$core_gpio$6301
  0C:5A3D    A$core_gpio$6302
  0C:5A3E    A$core_gpio$6303
  0C:5A40    A$core_gpio$6304
  0C:5A41    A$core_gpio$6305
  0C:5A42    A$core_gpio$6306
  0C:5A44    A$core_gpio$6307
  0C:5A45    A$core_gpio$6308
  0C:5A46    A$core_gpio$6309
  0C:5A48    A$core_gpio$6310
  0C:5A49    A$core_gpio$6312
  0C:5A4B    A$core_gpio$6313
  0C:5A4D    A$core_gpio$6314
  0C:5A50    A$core_gpio$6317
  0C:5A50    C$core_gpio.c$442$2$2
  0C:5A53    A$core_gpio$6325
  0C:5A53    C$core_gpio.c$444$2$2
  0C:5A53    C$core_gpio.c$445$2$2
  0C:5A55    A$core_gpio$6326
  0C:5A57    A$core_gpio$6327
  0C:5A59    A$core_gpio$6328
  0C:5A5C    A$core_gpio$6329
  0C:5A5D    A$core_gpio$6330
  0C:5A5E    A$core_gpio$6331
  0C:5A61    A$core_gpio$6332
  0C:5A62    A$core_gpio$6335
  0C:5A64    A$core_gpio$6336
  0C:5A66    A$core_gpio$6337
  0C:5A67    A$core_gpio$6338
  0C:5A69    A$core_gpio$6339
  0C:5A6B    A$core_gpio$6340
  0C:5A6C    A$core_gpio$6342
  0C:5A6F    A$core_gpio$6343
  0C:5A71    A$core_gpio$6344
  0C:5A72    A$core_gpio$6345
  0C:5A73    A$core_gpio$6346
  0C:5A75    A$core_gpio$6347
  0C:5A76    A$core_gpio$6349
  0C:5A78    A$core_gpio$6350
  0C:5A7A    A$core_gpio$6351
  0C:5A7C    A$core_gpio$6352
  0C:5A7E    A$core_gpio$6353
  0C:5A80    A$core_gpio$6354
  0C:5A83    A$core_gpio$6355
  0C:5A85    A$core_gpio$6356
  0C:5A87    A$core_gpio$6357
  0C:5A89    A$core_gpio$6362
  0C:5A89    C$core_gpio.c$446$2$2
  0C:5A8B    A$core_gpio$6363
  0C:5A8D    A$core_gpio$6364
  0C:5A8F    A$core_gpio$6365
  0C:5A92    A$core_gpio$6366
  0C:5A93    A$core_gpio$6367
  0C:5A94    A$core_gpio$6368
  0C:5A97    A$core_gpio$6369
  0C:5A98    A$core_gpio$6372
  0C:5A9A    A$core_gpio$6373
  0C:5A9C    A$core_gpio$6374
  0C:5A9D    A$core_gpio$6375
  0C:5A9F    A$core_gpio$6376
  0C:5AA1    A$core_gpio$6377
  0C:5AA2    A$core_gpio$6379
  0C:5AA5    A$core_gpio$6380
  0C:5AA7    A$core_gpio$6381
  0C:5AA8    A$core_gpio$6382
  0C:5AA9    A$core_gpio$6383
  0C:5AAB    A$core_gpio$6384
  0C:5AAC    A$core_gpio$6386
  0C:5AAE    A$core_gpio$6387
  0C:5AB0    A$core_gpio$6388
  0C:5AB3    A$core_gpio$6391
  0C:5AB3    C$core_gpio.c$447$2$2
  0C:5AB6    A$core_gpio$6399
  0C:5AB6    C$core_gpio.c$449$2$2
  0C:5AB6    C$core_gpio.c$450$2$2
  0C:5AB8    A$core_gpio$6400
  0C:5ABA    A$core_gpio$6401
  0C:5ABC    A$core_gpio$6402
  0C:5ABF    A$core_gpio$6403
  0C:5AC0    A$core_gpio$6404
  0C:5AC1    A$core_gpio$6405
  0C:5AC4    A$core_gpio$6406
  0C:5AC5    A$core_gpio$6409
  0C:5AC7    A$core_gpio$6410
  0C:5AC9    A$core_gpio$6411
  0C:5ACA    A$core_gpio$6412
  0C:5ACC    A$core_gpio$6413
  0C:5ACE    A$core_gpio$6414
  0C:5ACF    A$core_gpio$6416
  0C:5AD2    A$core_gpio$6417
  0C:5AD4    A$core_gpio$6418
  0C:5AD5    A$core_gpio$6420
  0C:5AD7    A$core_gpio$6421
  0C:5AD9    A$core_gpio$6422
  0C:5ADB    A$core_gpio$6423
  0C:5ADD    A$core_gpio$6424
  0C:5ADF    A$core_gpio$6425
  0C:5AE2    A$core_gpio$6426
  0C:5AE4    A$core_gpio$6427
  0C:5AE6    A$core_gpio$6428
  0C:5AE8    A$core_gpio$6433
  0C:5AE8    C$core_gpio.c$451$2$2
  0C:5AEA    A$core_gpio$6434
  0C:5AEC    A$core_gpio$6435
  0C:5AEE    A$core_gpio$6436
  0C:5AF1    A$core_gpio$6437
  0C:5AF2    A$core_gpio$6438
  0C:5AF3    A$core_gpio$6439
  0C:5AF6    A$core_gpio$6440
  0C:5AF7    A$core_gpio$6443
  0C:5AF9    A$core_gpio$6444
  0C:5AFB    A$core_gpio$6445
  0C:5AFC    A$core_gpio$6446
  0C:5AFE    A$core_gpio$6447
  0C:5B00    A$core_gpio$6448
  0C:5B01    A$core_gpio$6450
  0C:5B04    A$core_gpio$6451
  0C:5B06    A$core_gpio$6452
  0C:5B07    A$core_gpio$6454
  0C:5B09    A$core_gpio$6455
  0C:5B0B    A$core_gpio$6456
  0C:5B0D    A$core_gpio$6457
  0C:5B0F    A$core_gpio$6458
  0C:5B11    A$core_gpio$6459
  0C:5B14    A$core_gpio$6460
  0C:5B16    A$core_gpio$6461
  0C:5B18    A$core_gpio$6462
  0C:5B1A    A$core_gpio$6467
  0C:5B1A    C$core_gpio.c$452$2$2
  0C:5B1C    A$core_gpio$6468
  0C:5B1E    A$core_gpio$6469
  0C:5B20    A$core_gpio$6470
  0C:5B23    A$core_gpio$6471
  0C:5B24    A$core_gpio$6472
  0C:5B25    A$core_gpio$6473
  0C:5B28    A$core_gpio$6474
  0C:5B29    A$core_gpio$6477
  0C:5B2B    A$core_gpio$6478
  0C:5B2D    A$core_gpio$6479
  0C:5B2E    A$core_gpio$6480
  0C:5B30    A$core_gpio$6481
  0C:5B32    A$core_gpio$6482
  0C:5B33    A$core_gpio$6484
  0C:5B36    A$core_gpio$6485
  0C:5B38    A$core_gpio$6486
  0C:5B39    A$core_gpio$6488
  0C:5B3B    A$core_gpio$6489
  0C:5B3D    A$core_gpio$6490
  0C:5B3F    A$core_gpio$6491
  0C:5B41    A$core_gpio$6492
  0C:5B43    A$core_gpio$6493
  0C:5B46    A$core_gpio$6494
  0C:5B48    A$core_gpio$6495
  0C:5B4A    A$core_gpio$6496
  0C:5B4C    A$core_gpio$6501
  0C:5B4C    C$core_gpio.c$453$2$2
  0C:5B4E    A$core_gpio$6502
  0C:5B50    A$core_gpio$6503
  0C:5B52    A$core_gpio$6504
  0C:5B55    A$core_gpio$6505
  0C:5B56    A$core_gpio$6506
  0C:5B57    A$core_gpio$6507
  0C:5B5A    A$core_gpio$6508
  0C:5B5B    A$core_gpio$6511
  0C:5B5D    A$core_gpio$6512
  0C:5B5F    A$core_gpio$6513
  0C:5B60    A$core_gpio$6514
  0C:5B62    A$core_gpio$6515
  0C:5B64    A$core_gpio$6516
  0C:5B65    A$core_gpio$6518
  0C:5B68    A$core_gpio$6519
  0C:5B6A    A$core_gpio$6520
  0C:5B6B    A$core_gpio$6522
  0C:5B6D    A$core_gpio$6523
  0C:5B6F    A$core_gpio$6524
  0C:5B72    A$core_gpio$6527
  0C:5B72    C$core_gpio.c$454$2$2
  0C:5B75    A$core_gpio$6533
  0C:5B75    C$core_gpio.c$457$2$2
  0C:5B78    A$core_gpio$6534
  0C:5B7A    A$core_gpio$6535
  0C:5B7B    A$core_gpio$6538
  0C:5B7E    A$core_gpio$6539
  0C:5B80    A$core_gpio$6540
  0C:5B81    A$core_gpio$6543
  0C:5B84    A$core_gpio$6544
  0C:5B86    A$core_gpio$6545
  0C:5B87    A$core_gpio$6548
  0C:5B8A    A$core_gpio$6549
  0C:5B8C    A$core_gpio$6550
  0C:5B8D    A$core_gpio$6553
  0C:5B90    A$core_gpio$6554
  0C:5B92    A$core_gpio$6555
  0C:5B93    A$core_gpio$6558
  0C:5B96    A$core_gpio$6559
  0C:5B98    A$core_gpio$6560
  0C:5B99    A$core_gpio$6563
  0C:5B9C    A$core_gpio$6564
  0C:5B9E    A$core_gpio$6565
  0C:5B9F    A$core_gpio$6568
  0C:5BA2    A$core_gpio$6569
  0C:5BA4    A$core_gpio$6570
  0C:5BA5    A$core_gpio$6573
  0C:5BA8    A$core_gpio$6574
  0C:5BAA    A$core_gpio$6575
  0C:5BAB    A$core_gpio$6578
  0C:5BAE    A$core_gpio$6579
  0C:5BB0    A$core_gpio$6580
  0C:5BB1    A$core_gpio$6583
  0C:5BB4    A$core_gpio$6584
  0C:5BB6    A$core_gpio$6585
  0C:5BB7    A$core_gpio$6588
  0C:5BBA    A$core_gpio$6589
  0C:5BBC    A$core_gpio$6590
  0C:5BBD    A$core_gpio$6593
  0C:5BC0    A$core_gpio$6594
  0C:5BC2    A$core_gpio$6595
  0C:5BC3    A$core_gpio$6598
  0C:5BC6    A$core_gpio$6599
  0C:5BC8    A$core_gpio$6600
  0C:5BC9    A$core_gpio$6603
  0C:5BCC    A$core_gpio$6604
  0C:5BCE    A$core_gpio$6605
  0C:5BCF    A$core_gpio$6608
  0C:5BD2    A$core_gpio$6609
  0C:5BD4    A$core_gpio$6610
  0C:5BD5    A$core_gpio$6613
  0C:5BD8    A$core_gpio$6614
  0C:5BDA    A$core_gpio$6615
  0C:5BDB    A$core_gpio$6618
  0C:5BDE    A$core_gpio$6619
  0C:5BE0    A$core_gpio$6620
  0C:5BE1    A$core_gpio$6623
  0C:5BE4    A$core_gpio$6624
  0C:5BE6    A$core_gpio$6625
  0C:5BE7    A$core_gpio$6628
  0C:5BEA    A$core_gpio$6629
  0C:5BEC    A$core_gpio$6630
  0C:5BED    A$core_gpio$6633
  0C:5BF0    A$core_gpio$6634
  0C:5BF2    A$core_gpio$6635
  0C:5BF3    A$core_gpio$6638
  0C:5BF6    A$core_gpio$6639
  0C:5BF8    A$core_gpio$6640
  0C:5BF9    A$core_gpio$6643
  0C:5BFC    A$core_gpio$6644
  0C:5BFE    A$core_gpio$6645
  0C:5BFF    A$core_gpio$6648
  0C:5C02    A$core_gpio$6649
  0C:5C04    A$core_gpio$6650
  0C:5C05    A$core_gpio$6653
  0C:5C08    A$core_gpio$6654
  0C:5C0A    A$core_gpio$6655
  0C:5C0B    A$core_gpio$6658
  0C:5C0E    A$core_gpio$6659
  0C:5C10    A$core_gpio$6660
  0C:5C11    A$core_gpio$6663
  0C:5C14    A$core_gpio$6664
  0C:5C16    A$core_gpio$6665
  0C:5C17    A$core_gpio$6668
  0C:5C1A    A$core_gpio$6669
  0C:5C1C    A$core_gpio$6670
  0C:5C1D    A$core_gpio$6673
  0C:5C20    A$core_gpio$6674
  0C:5C22    A$core_gpio$6675
  0C:5C23    A$core_gpio$6678
  0C:5C26    A$core_gpio$6679
  0C:5C28    A$core_gpio$6680
  0C:5C29    A$core_gpio$6683
  0C:5C2C    A$core_gpio$6684
  0C:5C2E    A$core_gpio$6685
  0C:5C2F    A$core_gpio$6688
  0C:5C32    A$core_gpio$6689
  0C:5C34    A$core_gpio$6690
  0C:5C35    A$core_gpio$6692
  0C:5C38    A$core_gpio$6693
  0C:5C3A    A$core_gpio$6694
  0C:5C3B    A$core_gpio$6695
  0C:5C3C    A$core_gpio$6696
  0C:5C3E    A$core_gpio$6697
  0C:5C3F    A$core_gpio$6698
  0C:5C40    A$core_gpio$6699
  0C:5C42    A$core_gpio$6700
  0C:5C43    A$core_gpio$6701
  0C:5C44    A$core_gpio$6702
  0C:5C46    A$core_gpio$6703
  0C:5C47    A$core_gpio$6705
  0C:5C4A    A$core_gpio$6706
  0C:5C4D    A$core_gpio$6707
  0C:5C50    A$core_gpio$6708
  0C:5C53    A$core_gpio$6714
  0C:5C53    C$core_gpio.c$459$1$1
  0C:5C53    C$core_gpio.c$460$1$1
  0C:5C53    XG$GPIO_clear_irq$0$0
  0C:5C54    __gptrput
  0C:5C6D    __mulint
  0C:5C8D    __gptrget
  0C:5CA9    __sdcc_external_startup

Hexadecimal

Area                               Addr   Size   Decimal Bytes (Attributes)
--------------------------------   ----   ----   ------- ----- ------------
CONST                              5CAD   0000 =      0. bytes (REL,CON,CODE)

Hexadecimal

Area                               Addr   Size   Decimal Bytes (Attributes)
--------------------------------   ----   ----   ------- ----- ------------
XINIT                              5CAD   0000 =      0. bytes (REL,CON,CODE)
ASxxxx Linker V01.75 + NoICE + SDCC Feb 1999,  page 1.

Files Linked      [ module(s) ]

./main.rel      
./hal/Core8051s/SDCC/hal_assert.rel
./hal/Core8051s/SDCC/hal_large.rel
./hal/Core8051s/SDCC/hw_reg_access.rel
./drivers/CoreWatchdog/core_watchdog.rel
./drivers/CoreUARTapb/core_uart_apb.rel
./drivers/CoreTimer/core_timer.rel
./drivers/CoreGPIO/core_gpio.rel

Libraries Linked            [   object  file   ]

C:\Program Files (x86)\Microsemi\SoftConsole v3.4\Sourcery-G++\bin\..\lib\large/mcs51.lib    [     crtclear.rel ]
C:\Program Files (x86)\Microsemi\SoftConsole v3.4\Sourcery-G++\bin\..\lib\large/mcs51.lib    [     crtxinit.rel ]
C:\Program Files (x86)\Microsemi\SoftConsole v3.4\Sourcery-G++\bin\..\lib\large/libsdcc.lib    [         _gptrput ]
C:\Program Files (x86)\Microsemi\SoftConsole v3.4\Sourcery-G++\bin\..\lib\large/libint.lib    [          _mulint ]
C:\Program Files (x86)\Microsemi\SoftConsole v3.4\Sourcery-G++\bin\..\lib\large/mcs51.lib    [    crtxclear.rel ]
C:\Program Files (x86)\Microsemi\SoftConsole v3.4\Sourcery-G++\bin\..\lib\large/mcs51.lib    [   crtpagesfr.rel ]
C:\Program Files (x86)\Microsemi\SoftConsole v3.4\Sourcery-G++\bin\..\lib\large/mcs51.lib    [     crtstart.rel ]
C:\Program Files (x86)\Microsemi\SoftConsole v3.4\Sourcery-G++\bin\..\lib\large/libsdcc.lib    [         _gptrget ]
C:\Program Files (x86)\Microsemi\SoftConsole v3.4\Sourcery-G++\bin\..\lib\large/libsdcc.lib    [         _startup ]

ASxxxx Linker V01.75 + NoICE + SDCC Feb 1999,  page 2.

User Base Address Definitions

HOME = 0x0000
ISEG = 0x0000
BSEG = 0x0000

