                              1 ;--------------------------------------------------------
                              2 ; File Created by SDCC : FreeWare ANSI-C Compiler
                              3 ; Version 2.6.3 #4543 (Dec 31 2006)
                              4 ; This file generated Mon May 02 12:51:54 2016
                              5 ;--------------------------------------------------------
                              6 	.module ___drivers_CoreUARTapb_core_uart_apb
                              7 	.optsdcc -mmcs51 --model-large
                              8 	
                              9 ;--------------------------------------------------------
                             10 ; Public variables in this module
                             11 ;--------------------------------------------------------
                             12 	.globl _UART_polled_tx_string_PARM_2
                             13 	.globl _UART_get_rx_PARM_3
                             14 	.globl _UART_get_rx_PARM_2
                             15 	.globl _UART_fill_tx_fifo_PARM_3
                             16 	.globl _UART_fill_tx_fifo_PARM_2
                             17 	.globl _UART_send_PARM_3
                             18 	.globl _UART_send_PARM_2
                             19 	.globl _UART_init_PARM_4
                             20 	.globl _UART_init_PARM_3
                             21 	.globl _UART_init_PARM_2
                             22 	.globl _UART_init
                             23 	.globl _UART_send
                             24 	.globl _UART_fill_tx_fifo
                             25 	.globl _UART_get_rx
                             26 	.globl _UART_polled_tx_string
                             27 	.globl _UART_get_rx_status
                             28 ;--------------------------------------------------------
                             29 ; special function registers
                             30 ;--------------------------------------------------------
                             31 	.area RSEG    (DATA)
                             32 ;--------------------------------------------------------
                             33 ; special function bits
                             34 ;--------------------------------------------------------
                             35 	.area RSEG    (DATA)
                             36 ;--------------------------------------------------------
                             37 ; overlayable register banks
                             38 ;--------------------------------------------------------
                             39 	.area REG_BANK_0	(REL,OVR,DATA)
   0000                      40 	.ds 8
                             41 ;--------------------------------------------------------
                             42 ; internal ram data
                             43 ;--------------------------------------------------------
                             44 	.area DSEG    (DATA)
                    0000     45 LUART_init$sloc0$1$0==.
   0024                      46 _UART_init_sloc0_1_0:
   0024                      47 	.ds 1
                    0001     48 LUART_init$sloc1$1$0==.
   0025                      49 _UART_init_sloc1_1_0:
   0025                      50 	.ds 2
                    0003     51 LUART_init$sloc2$1$0==.
   0027                      52 _UART_init_sloc2_1_0:
   0027                      53 	.ds 2
                    0005     54 LUART_init$sloc3$1$0==.
   0029                      55 _UART_init_sloc3_1_0:
   0029                      56 	.ds 2
                    0007     57 LUART_send$sloc0$1$0==.
   002B                      58 _UART_send_sloc0_1_0:
   002B                      59 	.ds 3
                    000A     60 LUART_send$sloc1$1$0==.
   002E                      61 _UART_send_sloc1_1_0:
   002E                      62 	.ds 3
                    000D     63 LUART_fill_tx_fifo$sloc0$1$0==.
   0031                      64 _UART_fill_tx_fifo_sloc0_1_0:
   0031                      65 	.ds 3
                    0010     66 LUART_fill_tx_fifo$sloc1$1$0==.
   0034                      67 _UART_fill_tx_fifo_sloc1_1_0:
   0034                      68 	.ds 3
                    0013     69 LUART_get_rx$sloc0$1$0==.
   0037                      70 _UART_get_rx_sloc0_1_0:
   0037                      71 	.ds 3
                    0016     72 LUART_get_rx$sloc1$1$0==.
   003A                      73 _UART_get_rx_sloc1_1_0:
   003A                      74 	.ds 3
                    0019     75 LUART_polled_tx_string$sloc0$1$0==.
   003D                      76 _UART_polled_tx_string_sloc0_1_0:
   003D                      77 	.ds 2
                    001B     78 LUART_polled_tx_string$sloc1$1$0==.
   003F                      79 _UART_polled_tx_string_sloc1_1_0:
   003F                      80 	.ds 4
                             81 ;--------------------------------------------------------
                             82 ; overlayable items in internal ram 
                             83 ;--------------------------------------------------------
                             84 	.area OSEG    (OVR,DATA)
                             85 ;--------------------------------------------------------
                             86 ; indirectly addressable internal ram data
                             87 ;--------------------------------------------------------
                             88 	.area ISEG    (DATA)
                             89 ;--------------------------------------------------------
                             90 ; absolute internal ram data
                             91 ;--------------------------------------------------------
                             92 	.area IABS    (ABS,DATA)
                             93 	.area IABS    (ABS,DATA)
                             94 ;--------------------------------------------------------
                             95 ; bit data
                             96 ;--------------------------------------------------------
                             97 	.area BSEG    (BIT)
                             98 ;--------------------------------------------------------
                             99 ; paged external ram data
                            100 ;--------------------------------------------------------
                            101 	.area PSEG    (PAG,XDATA)
                            102 ;--------------------------------------------------------
                            103 ; external ram data
                            104 ;--------------------------------------------------------
                            105 	.area XSEG    (XDATA)
                    0000    106 LUART_init$base_addr$1$1==.
   0191                     107 _UART_init_PARM_2:
   0191                     108 	.ds 2
                    0002    109 LUART_init$baud_value$1$1==.
   0193                     110 _UART_init_PARM_3:
   0193                     111 	.ds 2
                    0004    112 LUART_init$line_config$1$1==.
   0195                     113 _UART_init_PARM_4:
   0195                     114 	.ds 1
                    0005    115 LUART_init$this_uart$1$1==.
   0196                     116 _UART_init_this_uart_1_1:
   0196                     117 	.ds 3
                    0008    118 LUART_init$rx_full$1$1==.
   0199                     119 _UART_init_rx_full_1_1:
   0199                     120 	.ds 1
                    0009    121 LUART_init$file_name$3$3==.
   019A                     122 _UART_init_file_name_3_3:
   019A                     123 	.ds 39
                    0030    124 LUART_init$file_name$3$5==.
   01C1                     125 _UART_init_file_name_3_5:
   01C1                     126 	.ds 39
                    0057    127 LUART_init$file_name$3$7==.
   01E8                     128 _UART_init_file_name_3_7:
   01E8                     129 	.ds 39
                    007E    130 LUART_init$file_name$5$11==.
   020F                     131 _UART_init_file_name_5_11:
   020F                     132 	.ds 39
                    00A5    133 LUART_init$file_name$5$13==.
   0236                     134 _UART_init_file_name_5_13:
   0236                     135 	.ds 39
                    00CC    136 LUART_init$rx_byte$3$14==.
   025D                     137 _UART_init_rx_byte_3_14:
   025D                     138 	.ds 1
                    00CD    139 LUART_send$tx_buffer$1$1==.
   025E                     140 _UART_send_PARM_2:
   025E                     141 	.ds 3
                    00D0    142 LUART_send$tx_size$1$1==.
   0261                     143 _UART_send_PARM_3:
   0261                     144 	.ds 2
                    00D2    145 LUART_send$this_uart$1$1==.
   0263                     146 _UART_send_this_uart_1_1:
   0263                     147 	.ds 3
                    00D5    148 LUART_send$char_idx$1$1==.
   0266                     149 _UART_send_char_idx_1_1:
   0266                     150 	.ds 2
                    00D7    151 LUART_send$file_name$3$3==.
   0268                     152 _UART_send_file_name_3_3:
   0268                     153 	.ds 39
                    00FE    154 LUART_send$file_name$3$5==.
   028F                     155 _UART_send_file_name_3_5:
   028F                     156 	.ds 39
                    0125    157 LUART_send$file_name$3$7==.
   02B6                     158 _UART_send_file_name_3_7:
   02B6                     159 	.ds 39
                    014C    160 LUART_fill_tx_fifo$tx_buffer$1$1==.
   02DD                     161 _UART_fill_tx_fifo_PARM_2:
   02DD                     162 	.ds 3
                    014F    163 LUART_fill_tx_fifo$tx_size$1$1==.
   02E0                     164 _UART_fill_tx_fifo_PARM_3:
   02E0                     165 	.ds 2
                    0151    166 LUART_fill_tx_fifo$this_uart$1$1==.
   02E2                     167 _UART_fill_tx_fifo_this_uart_1_1:
   02E2                     168 	.ds 3
                    0154    169 LUART_fill_tx_fifo$size_sent$1$1==.
   02E5                     170 _UART_fill_tx_fifo_size_sent_1_1:
   02E5                     171 	.ds 2
                    0156    172 LUART_fill_tx_fifo$file_name$3$3==.
   02E7                     173 _UART_fill_tx_fifo_file_name_3_3:
   02E7                     174 	.ds 39
                    017D    175 LUART_fill_tx_fifo$file_name$3$5==.
   030E                     176 _UART_fill_tx_fifo_file_name_3_5:
   030E                     177 	.ds 39
                    01A4    178 LUART_fill_tx_fifo$file_name$3$7==.
   0335                     179 _UART_fill_tx_fifo_file_name_3_7:
   0335                     180 	.ds 39
                    01CB    181 LUART_get_rx$rx_buffer$1$1==.
   035C                     182 _UART_get_rx_PARM_2:
   035C                     183 	.ds 3
                    01CE    184 LUART_get_rx$buff_size$1$1==.
   035F                     185 _UART_get_rx_PARM_3:
   035F                     186 	.ds 2
                    01D0    187 LUART_get_rx$this_uart$1$1==.
   0361                     188 _UART_get_rx_this_uart_1_1:
   0361                     189 	.ds 3
                    01D3    190 LUART_get_rx$rx_full$1$1==.
   0364                     191 _UART_get_rx_rx_full_1_1:
   0364                     192 	.ds 1
                    01D4    193 LUART_get_rx$rx_idx$1$1==.
   0365                     194 _UART_get_rx_rx_idx_1_1:
   0365                     195 	.ds 2
                    01D6    196 LUART_get_rx$file_name$3$3==.
   0367                     197 _UART_get_rx_file_name_3_3:
   0367                     198 	.ds 39
                    01FD    199 LUART_get_rx$file_name$3$5==.
   038E                     200 _UART_get_rx_file_name_3_5:
   038E                     201 	.ds 39
                    0224    202 LUART_get_rx$file_name$3$7==.
   03B5                     203 _UART_get_rx_file_name_3_7:
   03B5                     204 	.ds 39
                    024B    205 LUART_polled_tx_string$p_sz_string$1$1==.
   03DC                     206 _UART_polled_tx_string_PARM_2:
   03DC                     207 	.ds 3
                    024E    208 LUART_polled_tx_string$this_uart$1$1==.
   03DF                     209 _UART_polled_tx_string_this_uart_1_1:
   03DF                     210 	.ds 3
                    0251    211 LUART_polled_tx_string$char_idx$1$1==.
   03E2                     212 _UART_polled_tx_string_char_idx_1_1:
   03E2                     213 	.ds 4
                    0255    214 LUART_polled_tx_string$file_name$3$3==.
   03E6                     215 _UART_polled_tx_string_file_name_3_3:
   03E6                     216 	.ds 39
                    027C    217 LUART_polled_tx_string$file_name$3$5==.
   040D                     218 _UART_polled_tx_string_file_name_3_5:
   040D                     219 	.ds 39
                    02A3    220 LUART_get_rx_status$this_uart$1$1==.
   0434                     221 _UART_get_rx_status_this_uart_1_1:
   0434                     222 	.ds 3
                    02A6    223 LUART_get_rx_status$status$1$1==.
   0437                     224 _UART_get_rx_status_status_1_1:
   0437                     225 	.ds 1
                    02A7    226 LUART_get_rx_status$file_name$3$3==.
   0438                     227 _UART_get_rx_status_file_name_3_3:
   0438                     228 	.ds 39
                            229 ;--------------------------------------------------------
                            230 ; external initialized ram data
                            231 ;--------------------------------------------------------
                            232 	.area XISEG   (XDATA)
                            233 	.area HOME    (CODE)
                            234 	.area GSINIT0 (CODE)
                            235 	.area GSINIT1 (CODE)
                            236 	.area GSINIT2 (CODE)
                            237 	.area GSINIT3 (CODE)
                            238 	.area GSINIT4 (CODE)
                            239 	.area GSINIT5 (CODE)
                            240 	.area GSINIT  (CODE)
                            241 	.area GSFINAL (CODE)
                            242 	.area CSEG    (CODE)
                            243 ;--------------------------------------------------------
                            244 ; global & static initialisations
                            245 ;--------------------------------------------------------
                            246 	.area HOME    (CODE)
                            247 	.area GSINIT  (CODE)
                            248 	.area GSFINAL (CODE)
                            249 	.area GSINIT  (CODE)
                            250 ;--------------------------------------------------------
                            251 ; Home
                            252 ;--------------------------------------------------------
                            253 	.area HOME    (CODE)
                            254 	.area HOME    (CODE)
                            255 ;--------------------------------------------------------
                            256 ; code
                            257 ;--------------------------------------------------------
                            258 	.area CSEG    (CODE)
                            259 ;------------------------------------------------------------
                            260 ;Allocation info for local variables in function 'UART_init'
                            261 ;------------------------------------------------------------
                            262 ;sloc0                     Allocated with name '_UART_init_sloc0_1_0'
                            263 ;sloc1                     Allocated with name '_UART_init_sloc1_1_0'
                            264 ;sloc2                     Allocated with name '_UART_init_sloc2_1_0'
                            265 ;sloc3                     Allocated with name '_UART_init_sloc3_1_0'
                            266 ;base_addr                 Allocated with name '_UART_init_PARM_2'
                            267 ;baud_value                Allocated with name '_UART_init_PARM_3'
                            268 ;line_config               Allocated with name '_UART_init_PARM_4'
                            269 ;this_uart                 Allocated with name '_UART_init_this_uart_1_1'
                            270 ;rx_full                   Allocated with name '_UART_init_rx_full_1_1'
                            271 ;file_name                 Allocated with name '_UART_init_file_name_3_3'
                            272 ;file_name                 Allocated with name '_UART_init_file_name_3_5'
                            273 ;file_name                 Allocated with name '_UART_init_file_name_3_7'
                            274 ;config                    Allocated with name '_UART_init_config_3_9'
                            275 ;temp                      Allocated with name '_UART_init_temp_3_9'
                            276 ;baud_val                  Allocated with name '_UART_init_baud_val_3_9'
                            277 ;file_name                 Allocated with name '_UART_init_file_name_5_11'
                            278 ;file_name                 Allocated with name '_UART_init_file_name_5_13'
                            279 ;rx_byte                   Allocated with name '_UART_init_rx_byte_3_14'
                            280 ;------------------------------------------------------------
                    0000    281 	G$UART_init$0$0 ==.
                    0000    282 	C$core_uart_apb.c$38$0$0 ==.
                            283 ;	../drivers/CoreUARTapb/core_uart_apb.c:38: UART_init
                            284 ;	-----------------------------------------
                            285 ;	 function UART_init
                            286 ;	-----------------------------------------
   151C                     287 _UART_init:
                    0002    288 	ar2 = 0x02
                    0003    289 	ar3 = 0x03
                    0004    290 	ar4 = 0x04
                    0005    291 	ar5 = 0x05
                    0006    292 	ar6 = 0x06
                    0007    293 	ar7 = 0x07
                    0000    294 	ar0 = 0x00
                    0001    295 	ar1 = 0x01
                            296 ;	genReceive
   151C AA F0               297 	mov	r2,b
   151E AB 83               298 	mov	r3,dph
   1520 E5 82               299 	mov	a,dpl
   1522 90 01 96            300 	mov	dptr,#_UART_init_this_uart_1_1
   1525 F0                  301 	movx	@dptr,a
   1526 A3                  302 	inc	dptr
   1527 EB                  303 	mov	a,r3
   1528 F0                  304 	movx	@dptr,a
   1529 A3                  305 	inc	dptr
   152A EA                  306 	mov	a,r2
   152B F0                  307 	movx	@dptr,a
                    0010    308 	C$core_uart_apb.c$48$2$2 ==.
                            309 ;	../drivers/CoreUARTapb/core_uart_apb.c:48: HAL_ASSERT( this_uart != NULL_INSTANCE )
                            310 ;	genAssign
   152C 90 01 96            311 	mov	dptr,#_UART_init_this_uart_1_1
   152F E0                  312 	movx	a,@dptr
   1530 FA                  313 	mov	r2,a
   1531 A3                  314 	inc	dptr
   1532 E0                  315 	movx	a,@dptr
   1533 FB                  316 	mov	r3,a
   1534 A3                  317 	inc	dptr
   1535 E0                  318 	movx	a,@dptr
   1536 FC                  319 	mov	r4,a
                            320 ;	genCmpEq
                            321 ;	gencjneshort
   1537 BA 00 08            322 	cjne	r2,#0x00,00145$
   153A BB 00 05            323 	cjne	r3,#0x00,00145$
   153D BC 00 02            324 	cjne	r4,#0x00,00145$
   1540 80 03               325 	sjmp	00146$
   1542                     326 00145$:
   1542 02 16 48            327 	ljmp	00104$
   1545                     328 00146$:
                            329 ;	genPointerSet
                            330 ;     genFarPointerSet
   1545 90 01 9A            331 	mov	dptr,#_UART_init_file_name_3_3
   1548 74 2E               332 	mov	a,#0x2E
   154A F0                  333 	movx	@dptr,a
                            334 ;	genPointerSet
                            335 ;     genFarPointerSet
   154B 90 01 9B            336 	mov	dptr,#(_UART_init_file_name_3_3 + 0x0001)
   154E 74 2E               337 	mov	a,#0x2E
   1550 F0                  338 	movx	@dptr,a
                            339 ;	genPointerSet
                            340 ;     genFarPointerSet
   1551 90 01 9C            341 	mov	dptr,#(_UART_init_file_name_3_3 + 0x0002)
   1554 74 2F               342 	mov	a,#0x2F
   1556 F0                  343 	movx	@dptr,a
                            344 ;	genPointerSet
                            345 ;     genFarPointerSet
   1557 90 01 9D            346 	mov	dptr,#(_UART_init_file_name_3_3 + 0x0003)
   155A 74 64               347 	mov	a,#0x64
   155C F0                  348 	movx	@dptr,a
                            349 ;	genPointerSet
                            350 ;     genFarPointerSet
   155D 90 01 9E            351 	mov	dptr,#(_UART_init_file_name_3_3 + 0x0004)
   1560 74 72               352 	mov	a,#0x72
   1562 F0                  353 	movx	@dptr,a
                            354 ;	genPointerSet
                            355 ;     genFarPointerSet
   1563 90 01 9F            356 	mov	dptr,#(_UART_init_file_name_3_3 + 0x0005)
   1566 74 69               357 	mov	a,#0x69
   1568 F0                  358 	movx	@dptr,a
                            359 ;	genPointerSet
                            360 ;     genFarPointerSet
   1569 90 01 A0            361 	mov	dptr,#(_UART_init_file_name_3_3 + 0x0006)
   156C 74 76               362 	mov	a,#0x76
   156E F0                  363 	movx	@dptr,a
                            364 ;	genPointerSet
                            365 ;     genFarPointerSet
   156F 90 01 A1            366 	mov	dptr,#(_UART_init_file_name_3_3 + 0x0007)
   1572 74 65               367 	mov	a,#0x65
   1574 F0                  368 	movx	@dptr,a
                            369 ;	genPointerSet
                            370 ;     genFarPointerSet
   1575 90 01 A2            371 	mov	dptr,#(_UART_init_file_name_3_3 + 0x0008)
   1578 74 72               372 	mov	a,#0x72
   157A F0                  373 	movx	@dptr,a
                            374 ;	genPointerSet
                            375 ;     genFarPointerSet
   157B 90 01 A3            376 	mov	dptr,#(_UART_init_file_name_3_3 + 0x0009)
   157E 74 73               377 	mov	a,#0x73
   1580 F0                  378 	movx	@dptr,a
                            379 ;	genPointerSet
                            380 ;     genFarPointerSet
   1581 90 01 A4            381 	mov	dptr,#(_UART_init_file_name_3_3 + 0x000a)
   1584 74 2F               382 	mov	a,#0x2F
   1586 F0                  383 	movx	@dptr,a
                            384 ;	genPointerSet
                            385 ;     genFarPointerSet
   1587 90 01 A5            386 	mov	dptr,#(_UART_init_file_name_3_3 + 0x000b)
   158A 74 43               387 	mov	a,#0x43
   158C F0                  388 	movx	@dptr,a
                            389 ;	genPointerSet
                            390 ;     genFarPointerSet
   158D 90 01 A6            391 	mov	dptr,#(_UART_init_file_name_3_3 + 0x000c)
   1590 74 6F               392 	mov	a,#0x6F
   1592 F0                  393 	movx	@dptr,a
                            394 ;	genPointerSet
                            395 ;     genFarPointerSet
   1593 90 01 A7            396 	mov	dptr,#(_UART_init_file_name_3_3 + 0x000d)
   1596 74 72               397 	mov	a,#0x72
   1598 F0                  398 	movx	@dptr,a
                            399 ;	genPointerSet
                            400 ;     genFarPointerSet
   1599 90 01 A8            401 	mov	dptr,#(_UART_init_file_name_3_3 + 0x000e)
   159C 74 65               402 	mov	a,#0x65
   159E F0                  403 	movx	@dptr,a
                            404 ;	genPointerSet
                            405 ;     genFarPointerSet
   159F 90 01 A9            406 	mov	dptr,#(_UART_init_file_name_3_3 + 0x000f)
   15A2 74 55               407 	mov	a,#0x55
   15A4 F0                  408 	movx	@dptr,a
                            409 ;	genPointerSet
                            410 ;     genFarPointerSet
   15A5 90 01 AA            411 	mov	dptr,#(_UART_init_file_name_3_3 + 0x0010)
   15A8 74 41               412 	mov	a,#0x41
   15AA F0                  413 	movx	@dptr,a
                            414 ;	genPointerSet
                            415 ;     genFarPointerSet
   15AB 90 01 AB            416 	mov	dptr,#(_UART_init_file_name_3_3 + 0x0011)
   15AE 74 52               417 	mov	a,#0x52
   15B0 F0                  418 	movx	@dptr,a
                            419 ;	genPointerSet
                            420 ;     genFarPointerSet
   15B1 90 01 AC            421 	mov	dptr,#(_UART_init_file_name_3_3 + 0x0012)
   15B4 74 54               422 	mov	a,#0x54
   15B6 F0                  423 	movx	@dptr,a
                            424 ;	genPointerSet
                            425 ;     genFarPointerSet
   15B7 90 01 AD            426 	mov	dptr,#(_UART_init_file_name_3_3 + 0x0013)
   15BA 74 61               427 	mov	a,#0x61
   15BC F0                  428 	movx	@dptr,a
                            429 ;	genPointerSet
                            430 ;     genFarPointerSet
   15BD 90 01 AE            431 	mov	dptr,#(_UART_init_file_name_3_3 + 0x0014)
   15C0 74 70               432 	mov	a,#0x70
   15C2 F0                  433 	movx	@dptr,a
                            434 ;	genPointerSet
                            435 ;     genFarPointerSet
   15C3 90 01 AF            436 	mov	dptr,#(_UART_init_file_name_3_3 + 0x0015)
   15C6 74 62               437 	mov	a,#0x62
   15C8 F0                  438 	movx	@dptr,a
                            439 ;	genPointerSet
                            440 ;     genFarPointerSet
   15C9 90 01 B0            441 	mov	dptr,#(_UART_init_file_name_3_3 + 0x0016)
   15CC 74 2F               442 	mov	a,#0x2F
   15CE F0                  443 	movx	@dptr,a
                            444 ;	genPointerSet
                            445 ;     genFarPointerSet
   15CF 90 01 B1            446 	mov	dptr,#(_UART_init_file_name_3_3 + 0x0017)
   15D2 74 63               447 	mov	a,#0x63
   15D4 F0                  448 	movx	@dptr,a
                            449 ;	genPointerSet
                            450 ;     genFarPointerSet
   15D5 90 01 B2            451 	mov	dptr,#(_UART_init_file_name_3_3 + 0x0018)
   15D8 74 6F               452 	mov	a,#0x6F
   15DA F0                  453 	movx	@dptr,a
                            454 ;	genPointerSet
                            455 ;     genFarPointerSet
   15DB 90 01 B3            456 	mov	dptr,#(_UART_init_file_name_3_3 + 0x0019)
   15DE 74 72               457 	mov	a,#0x72
   15E0 F0                  458 	movx	@dptr,a
                            459 ;	genPointerSet
                            460 ;     genFarPointerSet
   15E1 90 01 B4            461 	mov	dptr,#(_UART_init_file_name_3_3 + 0x001a)
   15E4 74 65               462 	mov	a,#0x65
   15E6 F0                  463 	movx	@dptr,a
                            464 ;	genPointerSet
                            465 ;     genFarPointerSet
   15E7 90 01 B5            466 	mov	dptr,#(_UART_init_file_name_3_3 + 0x001b)
   15EA 74 5F               467 	mov	a,#0x5F
   15EC F0                  468 	movx	@dptr,a
                            469 ;	genPointerSet
                            470 ;     genFarPointerSet
   15ED 90 01 B6            471 	mov	dptr,#(_UART_init_file_name_3_3 + 0x001c)
   15F0 74 75               472 	mov	a,#0x75
   15F2 F0                  473 	movx	@dptr,a
                            474 ;	genPointerSet
                            475 ;     genFarPointerSet
   15F3 90 01 B7            476 	mov	dptr,#(_UART_init_file_name_3_3 + 0x001d)
   15F6 74 61               477 	mov	a,#0x61
   15F8 F0                  478 	movx	@dptr,a
                            479 ;	genPointerSet
                            480 ;     genFarPointerSet
   15F9 90 01 B8            481 	mov	dptr,#(_UART_init_file_name_3_3 + 0x001e)
   15FC 74 72               482 	mov	a,#0x72
   15FE F0                  483 	movx	@dptr,a
                            484 ;	genPointerSet
                            485 ;     genFarPointerSet
   15FF 90 01 B9            486 	mov	dptr,#(_UART_init_file_name_3_3 + 0x001f)
   1602 74 74               487 	mov	a,#0x74
   1604 F0                  488 	movx	@dptr,a
                            489 ;	genPointerSet
                            490 ;     genFarPointerSet
   1605 90 01 BA            491 	mov	dptr,#(_UART_init_file_name_3_3 + 0x0020)
   1608 74 5F               492 	mov	a,#0x5F
   160A F0                  493 	movx	@dptr,a
                            494 ;	genPointerSet
                            495 ;     genFarPointerSet
   160B 90 01 BB            496 	mov	dptr,#(_UART_init_file_name_3_3 + 0x0021)
   160E 74 61               497 	mov	a,#0x61
   1610 F0                  498 	movx	@dptr,a
                            499 ;	genPointerSet
                            500 ;     genFarPointerSet
   1611 90 01 BC            501 	mov	dptr,#(_UART_init_file_name_3_3 + 0x0022)
   1614 74 70               502 	mov	a,#0x70
   1616 F0                  503 	movx	@dptr,a
                            504 ;	genPointerSet
                            505 ;     genFarPointerSet
   1617 90 01 BD            506 	mov	dptr,#(_UART_init_file_name_3_3 + 0x0023)
   161A 74 62               507 	mov	a,#0x62
   161C F0                  508 	movx	@dptr,a
                            509 ;	genPointerSet
                            510 ;     genFarPointerSet
   161D 90 01 BE            511 	mov	dptr,#(_UART_init_file_name_3_3 + 0x0024)
   1620 74 2E               512 	mov	a,#0x2E
   1622 F0                  513 	movx	@dptr,a
                            514 ;	genPointerSet
                            515 ;     genFarPointerSet
   1623 90 01 BF            516 	mov	dptr,#(_UART_init_file_name_3_3 + 0x0025)
   1626 74 63               517 	mov	a,#0x63
   1628 F0                  518 	movx	@dptr,a
                            519 ;	genPointerSet
                            520 ;     genFarPointerSet
   1629 90 01 C0            521 	mov	dptr,#(_UART_init_file_name_3_3 + 0x0026)
   162C 74 00               522 	mov	a,#0x00
   162E F0                  523 	movx	@dptr,a
                            524 ;	genAssign
   162F 90 00 2E            525 	mov	dptr,#_HAL_assert_fail_PARM_2
   1632 74 30               526 	mov	a,#0x30
   1634 F0                  527 	movx	@dptr,a
   1635 E4                  528 	clr	a
   1636 A3                  529 	inc	dptr
   1637 F0                  530 	movx	@dptr,a
   1638 A3                  531 	inc	dptr
   1639 F0                  532 	movx	@dptr,a
   163A A3                  533 	inc	dptr
   163B F0                  534 	movx	@dptr,a
                            535 ;	genCall
   163C 75 82 9A            536 	mov	dpl,#_UART_init_file_name_3_3
   163F 75 83 01            537 	mov	dph,#(_UART_init_file_name_3_3 >> 8)
   1642 75 F0 00            538 	mov	b,#0x00
   1645 12 08 16            539 	lcall	_HAL_assert_fail
   1648                     540 00104$:
                    012C    541 	C$core_uart_apb.c$49$2$4 ==.
                            542 ;	../drivers/CoreUARTapb/core_uart_apb.c:49: HAL_ASSERT( line_config <= MAX_LINE_CONFIG )
                            543 ;	genAssign
   1648 90 01 95            544 	mov	dptr,#_UART_init_PARM_4
   164B E0                  545 	movx	a,@dptr
   164C F5 24               546 	mov	_UART_init_sloc0_1_0,a
                            547 ;	genCmpGt
                            548 ;	genCmp
   164E C3                  549 	clr	c
   164F 74 07               550 	mov	a,#0x07
   1651 95 24               551 	subb	a,_UART_init_sloc0_1_0
   1653 E4                  552 	clr	a
   1654 33                  553 	rlc	a
   1655 FB                  554 	mov	r3,a
                            555 ;	genIfx
   1656 EB                  556 	mov	a,r3
                            557 ;	genIfxJump
   1657 70 03               558 	jnz	00147$
   1659 02 17 63            559 	ljmp	00109$
   165C                     560 00147$:
                            561 ;	genPointerSet
                            562 ;     genFarPointerSet
   165C 90 01 C1            563 	mov	dptr,#_UART_init_file_name_3_5
   165F 74 2E               564 	mov	a,#0x2E
   1661 F0                  565 	movx	@dptr,a
                            566 ;	genPointerSet
                            567 ;     genFarPointerSet
   1662 90 01 C2            568 	mov	dptr,#(_UART_init_file_name_3_5 + 0x0001)
   1665 74 2E               569 	mov	a,#0x2E
   1667 F0                  570 	movx	@dptr,a
                            571 ;	genPointerSet
                            572 ;     genFarPointerSet
   1668 90 01 C3            573 	mov	dptr,#(_UART_init_file_name_3_5 + 0x0002)
   166B 74 2F               574 	mov	a,#0x2F
   166D F0                  575 	movx	@dptr,a
                            576 ;	genPointerSet
                            577 ;     genFarPointerSet
   166E 90 01 C4            578 	mov	dptr,#(_UART_init_file_name_3_5 + 0x0003)
   1671 74 64               579 	mov	a,#0x64
   1673 F0                  580 	movx	@dptr,a
                            581 ;	genPointerSet
                            582 ;     genFarPointerSet
   1674 90 01 C5            583 	mov	dptr,#(_UART_init_file_name_3_5 + 0x0004)
   1677 74 72               584 	mov	a,#0x72
   1679 F0                  585 	movx	@dptr,a
                            586 ;	genPointerSet
                            587 ;     genFarPointerSet
   167A 90 01 C6            588 	mov	dptr,#(_UART_init_file_name_3_5 + 0x0005)
   167D 74 69               589 	mov	a,#0x69
   167F F0                  590 	movx	@dptr,a
                            591 ;	genPointerSet
                            592 ;     genFarPointerSet
   1680 90 01 C7            593 	mov	dptr,#(_UART_init_file_name_3_5 + 0x0006)
   1683 74 76               594 	mov	a,#0x76
   1685 F0                  595 	movx	@dptr,a
                            596 ;	genPointerSet
                            597 ;     genFarPointerSet
   1686 90 01 C8            598 	mov	dptr,#(_UART_init_file_name_3_5 + 0x0007)
   1689 74 65               599 	mov	a,#0x65
   168B F0                  600 	movx	@dptr,a
                            601 ;	genPointerSet
                            602 ;     genFarPointerSet
   168C 90 01 C9            603 	mov	dptr,#(_UART_init_file_name_3_5 + 0x0008)
   168F 74 72               604 	mov	a,#0x72
   1691 F0                  605 	movx	@dptr,a
                            606 ;	genPointerSet
                            607 ;     genFarPointerSet
   1692 90 01 CA            608 	mov	dptr,#(_UART_init_file_name_3_5 + 0x0009)
   1695 74 73               609 	mov	a,#0x73
   1697 F0                  610 	movx	@dptr,a
                            611 ;	genPointerSet
                            612 ;     genFarPointerSet
   1698 90 01 CB            613 	mov	dptr,#(_UART_init_file_name_3_5 + 0x000a)
   169B 74 2F               614 	mov	a,#0x2F
   169D F0                  615 	movx	@dptr,a
                            616 ;	genPointerSet
                            617 ;     genFarPointerSet
   169E 90 01 CC            618 	mov	dptr,#(_UART_init_file_name_3_5 + 0x000b)
   16A1 74 43               619 	mov	a,#0x43
   16A3 F0                  620 	movx	@dptr,a
                            621 ;	genPointerSet
                            622 ;     genFarPointerSet
   16A4 90 01 CD            623 	mov	dptr,#(_UART_init_file_name_3_5 + 0x000c)
   16A7 74 6F               624 	mov	a,#0x6F
   16A9 F0                  625 	movx	@dptr,a
                            626 ;	genPointerSet
                            627 ;     genFarPointerSet
   16AA 90 01 CE            628 	mov	dptr,#(_UART_init_file_name_3_5 + 0x000d)
   16AD 74 72               629 	mov	a,#0x72
   16AF F0                  630 	movx	@dptr,a
                            631 ;	genPointerSet
                            632 ;     genFarPointerSet
   16B0 90 01 CF            633 	mov	dptr,#(_UART_init_file_name_3_5 + 0x000e)
   16B3 74 65               634 	mov	a,#0x65
   16B5 F0                  635 	movx	@dptr,a
                            636 ;	genPointerSet
                            637 ;     genFarPointerSet
   16B6 90 01 D0            638 	mov	dptr,#(_UART_init_file_name_3_5 + 0x000f)
   16B9 74 55               639 	mov	a,#0x55
   16BB F0                  640 	movx	@dptr,a
                            641 ;	genPointerSet
                            642 ;     genFarPointerSet
   16BC 90 01 D1            643 	mov	dptr,#(_UART_init_file_name_3_5 + 0x0010)
   16BF 74 41               644 	mov	a,#0x41
   16C1 F0                  645 	movx	@dptr,a
                            646 ;	genPointerSet
                            647 ;     genFarPointerSet
   16C2 90 01 D2            648 	mov	dptr,#(_UART_init_file_name_3_5 + 0x0011)
   16C5 74 52               649 	mov	a,#0x52
   16C7 F0                  650 	movx	@dptr,a
                            651 ;	genPointerSet
                            652 ;     genFarPointerSet
   16C8 90 01 D3            653 	mov	dptr,#(_UART_init_file_name_3_5 + 0x0012)
   16CB 74 54               654 	mov	a,#0x54
   16CD F0                  655 	movx	@dptr,a
                            656 ;	genPointerSet
                            657 ;     genFarPointerSet
   16CE 90 01 D4            658 	mov	dptr,#(_UART_init_file_name_3_5 + 0x0013)
   16D1 74 61               659 	mov	a,#0x61
   16D3 F0                  660 	movx	@dptr,a
                            661 ;	genPointerSet
                            662 ;     genFarPointerSet
   16D4 90 01 D5            663 	mov	dptr,#(_UART_init_file_name_3_5 + 0x0014)
   16D7 74 70               664 	mov	a,#0x70
   16D9 F0                  665 	movx	@dptr,a
                            666 ;	genPointerSet
                            667 ;     genFarPointerSet
   16DA 90 01 D6            668 	mov	dptr,#(_UART_init_file_name_3_5 + 0x0015)
   16DD 74 62               669 	mov	a,#0x62
   16DF F0                  670 	movx	@dptr,a
                            671 ;	genPointerSet
                            672 ;     genFarPointerSet
   16E0 90 01 D7            673 	mov	dptr,#(_UART_init_file_name_3_5 + 0x0016)
   16E3 74 2F               674 	mov	a,#0x2F
   16E5 F0                  675 	movx	@dptr,a
                            676 ;	genPointerSet
                            677 ;     genFarPointerSet
   16E6 90 01 D8            678 	mov	dptr,#(_UART_init_file_name_3_5 + 0x0017)
   16E9 74 63               679 	mov	a,#0x63
   16EB F0                  680 	movx	@dptr,a
                            681 ;	genPointerSet
                            682 ;     genFarPointerSet
   16EC 90 01 D9            683 	mov	dptr,#(_UART_init_file_name_3_5 + 0x0018)
   16EF 74 6F               684 	mov	a,#0x6F
   16F1 F0                  685 	movx	@dptr,a
                            686 ;	genPointerSet
                            687 ;     genFarPointerSet
   16F2 90 01 DA            688 	mov	dptr,#(_UART_init_file_name_3_5 + 0x0019)
   16F5 74 72               689 	mov	a,#0x72
   16F7 F0                  690 	movx	@dptr,a
                            691 ;	genPointerSet
                            692 ;     genFarPointerSet
   16F8 90 01 DB            693 	mov	dptr,#(_UART_init_file_name_3_5 + 0x001a)
   16FB 74 65               694 	mov	a,#0x65
   16FD F0                  695 	movx	@dptr,a
                            696 ;	genPointerSet
                            697 ;     genFarPointerSet
   16FE 90 01 DC            698 	mov	dptr,#(_UART_init_file_name_3_5 + 0x001b)
   1701 74 5F               699 	mov	a,#0x5F
   1703 F0                  700 	movx	@dptr,a
                            701 ;	genPointerSet
                            702 ;     genFarPointerSet
   1704 90 01 DD            703 	mov	dptr,#(_UART_init_file_name_3_5 + 0x001c)
   1707 74 75               704 	mov	a,#0x75
   1709 F0                  705 	movx	@dptr,a
                            706 ;	genPointerSet
                            707 ;     genFarPointerSet
   170A 90 01 DE            708 	mov	dptr,#(_UART_init_file_name_3_5 + 0x001d)
   170D 74 61               709 	mov	a,#0x61
   170F F0                  710 	movx	@dptr,a
                            711 ;	genPointerSet
                            712 ;     genFarPointerSet
   1710 90 01 DF            713 	mov	dptr,#(_UART_init_file_name_3_5 + 0x001e)
   1713 74 72               714 	mov	a,#0x72
   1715 F0                  715 	movx	@dptr,a
                            716 ;	genPointerSet
                            717 ;     genFarPointerSet
   1716 90 01 E0            718 	mov	dptr,#(_UART_init_file_name_3_5 + 0x001f)
   1719 74 74               719 	mov	a,#0x74
   171B F0                  720 	movx	@dptr,a
                            721 ;	genPointerSet
                            722 ;     genFarPointerSet
   171C 90 01 E1            723 	mov	dptr,#(_UART_init_file_name_3_5 + 0x0020)
   171F 74 5F               724 	mov	a,#0x5F
   1721 F0                  725 	movx	@dptr,a
                            726 ;	genPointerSet
                            727 ;     genFarPointerSet
   1722 90 01 E2            728 	mov	dptr,#(_UART_init_file_name_3_5 + 0x0021)
   1725 74 61               729 	mov	a,#0x61
   1727 F0                  730 	movx	@dptr,a
                            731 ;	genPointerSet
                            732 ;     genFarPointerSet
   1728 90 01 E3            733 	mov	dptr,#(_UART_init_file_name_3_5 + 0x0022)
   172B 74 70               734 	mov	a,#0x70
   172D F0                  735 	movx	@dptr,a
                            736 ;	genPointerSet
                            737 ;     genFarPointerSet
   172E 90 01 E4            738 	mov	dptr,#(_UART_init_file_name_3_5 + 0x0023)
   1731 74 62               739 	mov	a,#0x62
   1733 F0                  740 	movx	@dptr,a
                            741 ;	genPointerSet
                            742 ;     genFarPointerSet
   1734 90 01 E5            743 	mov	dptr,#(_UART_init_file_name_3_5 + 0x0024)
   1737 74 2E               744 	mov	a,#0x2E
   1739 F0                  745 	movx	@dptr,a
                            746 ;	genPointerSet
                            747 ;     genFarPointerSet
   173A 90 01 E6            748 	mov	dptr,#(_UART_init_file_name_3_5 + 0x0025)
   173D 74 63               749 	mov	a,#0x63
   173F F0                  750 	movx	@dptr,a
                            751 ;	genPointerSet
                            752 ;     genFarPointerSet
   1740 90 01 E7            753 	mov	dptr,#(_UART_init_file_name_3_5 + 0x0026)
   1743 74 00               754 	mov	a,#0x00
   1745 F0                  755 	movx	@dptr,a
                            756 ;	genAssign
   1746 90 00 2E            757 	mov	dptr,#_HAL_assert_fail_PARM_2
   1749 74 31               758 	mov	a,#0x31
   174B F0                  759 	movx	@dptr,a
   174C E4                  760 	clr	a
   174D A3                  761 	inc	dptr
   174E F0                  762 	movx	@dptr,a
   174F A3                  763 	inc	dptr
   1750 F0                  764 	movx	@dptr,a
   1751 A3                  765 	inc	dptr
   1752 F0                  766 	movx	@dptr,a
                            767 ;	genCall
   1753 75 82 C1            768 	mov	dpl,#_UART_init_file_name_3_5
   1756 75 83 01            769 	mov	dph,#(_UART_init_file_name_3_5 >> 8)
   1759 75 F0 00            770 	mov	b,#0x00
   175C C0 03               771 	push	ar3
   175E 12 08 16            772 	lcall	_HAL_assert_fail
   1761 D0 03               773 	pop	ar3
   1763                     774 00109$:
                    0247    775 	C$core_uart_apb.c$50$2$6 ==.
                            776 ;	../drivers/CoreUARTapb/core_uart_apb.c:50: HAL_ASSERT( baud_value <= MAX_BAUD_VALUE )
                            777 ;	genAssign
   1763 90 01 93            778 	mov	dptr,#_UART_init_PARM_3
   1766 E0                  779 	movx	a,@dptr
   1767 FC                  780 	mov	r4,a
   1768 A3                  781 	inc	dptr
   1769 E0                  782 	movx	a,@dptr
   176A FD                  783 	mov	r5,a
                            784 ;	genCmpGt
                            785 ;	genCmp
   176B C3                  786 	clr	c
   176C 74 FF               787 	mov	a,#0xFF
   176E 9C                  788 	subb	a,r4
   176F 74 1F               789 	mov	a,#0x1F
   1771 9D                  790 	subb	a,r5
   1772 E4                  791 	clr	a
   1773 33                  792 	rlc	a
   1774 FE                  793 	mov	r6,a
                            794 ;	genIfx
   1775 EE                  795 	mov	a,r6
                            796 ;	genIfxJump
   1776 70 03               797 	jnz	00148$
   1778 02 18 8E            798 	ljmp	00114$
   177B                     799 00148$:
                            800 ;	genPointerSet
                            801 ;     genFarPointerSet
   177B 90 01 E8            802 	mov	dptr,#_UART_init_file_name_3_7
   177E 74 2E               803 	mov	a,#0x2E
   1780 F0                  804 	movx	@dptr,a
                            805 ;	genPointerSet
                            806 ;     genFarPointerSet
   1781 90 01 E9            807 	mov	dptr,#(_UART_init_file_name_3_7 + 0x0001)
   1784 74 2E               808 	mov	a,#0x2E
   1786 F0                  809 	movx	@dptr,a
                            810 ;	genPointerSet
                            811 ;     genFarPointerSet
   1787 90 01 EA            812 	mov	dptr,#(_UART_init_file_name_3_7 + 0x0002)
   178A 74 2F               813 	mov	a,#0x2F
   178C F0                  814 	movx	@dptr,a
                            815 ;	genPointerSet
                            816 ;     genFarPointerSet
   178D 90 01 EB            817 	mov	dptr,#(_UART_init_file_name_3_7 + 0x0003)
   1790 74 64               818 	mov	a,#0x64
   1792 F0                  819 	movx	@dptr,a
                            820 ;	genPointerSet
                            821 ;     genFarPointerSet
   1793 90 01 EC            822 	mov	dptr,#(_UART_init_file_name_3_7 + 0x0004)
   1796 74 72               823 	mov	a,#0x72
   1798 F0                  824 	movx	@dptr,a
                            825 ;	genPointerSet
                            826 ;     genFarPointerSet
   1799 90 01 ED            827 	mov	dptr,#(_UART_init_file_name_3_7 + 0x0005)
   179C 74 69               828 	mov	a,#0x69
   179E F0                  829 	movx	@dptr,a
                            830 ;	genPointerSet
                            831 ;     genFarPointerSet
   179F 90 01 EE            832 	mov	dptr,#(_UART_init_file_name_3_7 + 0x0006)
   17A2 74 76               833 	mov	a,#0x76
   17A4 F0                  834 	movx	@dptr,a
                            835 ;	genPointerSet
                            836 ;     genFarPointerSet
   17A5 90 01 EF            837 	mov	dptr,#(_UART_init_file_name_3_7 + 0x0007)
   17A8 74 65               838 	mov	a,#0x65
   17AA F0                  839 	movx	@dptr,a
                            840 ;	genPointerSet
                            841 ;     genFarPointerSet
   17AB 90 01 F0            842 	mov	dptr,#(_UART_init_file_name_3_7 + 0x0008)
   17AE 74 72               843 	mov	a,#0x72
   17B0 F0                  844 	movx	@dptr,a
                            845 ;	genPointerSet
                            846 ;     genFarPointerSet
   17B1 90 01 F1            847 	mov	dptr,#(_UART_init_file_name_3_7 + 0x0009)
   17B4 74 73               848 	mov	a,#0x73
   17B6 F0                  849 	movx	@dptr,a
                            850 ;	genPointerSet
                            851 ;     genFarPointerSet
   17B7 90 01 F2            852 	mov	dptr,#(_UART_init_file_name_3_7 + 0x000a)
   17BA 74 2F               853 	mov	a,#0x2F
   17BC F0                  854 	movx	@dptr,a
                            855 ;	genPointerSet
                            856 ;     genFarPointerSet
   17BD 90 01 F3            857 	mov	dptr,#(_UART_init_file_name_3_7 + 0x000b)
   17C0 74 43               858 	mov	a,#0x43
   17C2 F0                  859 	movx	@dptr,a
                            860 ;	genPointerSet
                            861 ;     genFarPointerSet
   17C3 90 01 F4            862 	mov	dptr,#(_UART_init_file_name_3_7 + 0x000c)
   17C6 74 6F               863 	mov	a,#0x6F
   17C8 F0                  864 	movx	@dptr,a
                            865 ;	genPointerSet
                            866 ;     genFarPointerSet
   17C9 90 01 F5            867 	mov	dptr,#(_UART_init_file_name_3_7 + 0x000d)
   17CC 74 72               868 	mov	a,#0x72
   17CE F0                  869 	movx	@dptr,a
                            870 ;	genPointerSet
                            871 ;     genFarPointerSet
   17CF 90 01 F6            872 	mov	dptr,#(_UART_init_file_name_3_7 + 0x000e)
   17D2 74 65               873 	mov	a,#0x65
   17D4 F0                  874 	movx	@dptr,a
                            875 ;	genPointerSet
                            876 ;     genFarPointerSet
   17D5 90 01 F7            877 	mov	dptr,#(_UART_init_file_name_3_7 + 0x000f)
   17D8 74 55               878 	mov	a,#0x55
   17DA F0                  879 	movx	@dptr,a
                            880 ;	genPointerSet
                            881 ;     genFarPointerSet
   17DB 90 01 F8            882 	mov	dptr,#(_UART_init_file_name_3_7 + 0x0010)
   17DE 74 41               883 	mov	a,#0x41
   17E0 F0                  884 	movx	@dptr,a
                            885 ;	genPointerSet
                            886 ;     genFarPointerSet
   17E1 90 01 F9            887 	mov	dptr,#(_UART_init_file_name_3_7 + 0x0011)
   17E4 74 52               888 	mov	a,#0x52
   17E6 F0                  889 	movx	@dptr,a
                            890 ;	genPointerSet
                            891 ;     genFarPointerSet
   17E7 90 01 FA            892 	mov	dptr,#(_UART_init_file_name_3_7 + 0x0012)
   17EA 74 54               893 	mov	a,#0x54
   17EC F0                  894 	movx	@dptr,a
                            895 ;	genPointerSet
                            896 ;     genFarPointerSet
   17ED 90 01 FB            897 	mov	dptr,#(_UART_init_file_name_3_7 + 0x0013)
   17F0 74 61               898 	mov	a,#0x61
   17F2 F0                  899 	movx	@dptr,a
                            900 ;	genPointerSet
                            901 ;     genFarPointerSet
   17F3 90 01 FC            902 	mov	dptr,#(_UART_init_file_name_3_7 + 0x0014)
   17F6 74 70               903 	mov	a,#0x70
   17F8 F0                  904 	movx	@dptr,a
                            905 ;	genPointerSet
                            906 ;     genFarPointerSet
   17F9 90 01 FD            907 	mov	dptr,#(_UART_init_file_name_3_7 + 0x0015)
   17FC 74 62               908 	mov	a,#0x62
   17FE F0                  909 	movx	@dptr,a
                            910 ;	genPointerSet
                            911 ;     genFarPointerSet
   17FF 90 01 FE            912 	mov	dptr,#(_UART_init_file_name_3_7 + 0x0016)
   1802 74 2F               913 	mov	a,#0x2F
   1804 F0                  914 	movx	@dptr,a
                            915 ;	genPointerSet
                            916 ;     genFarPointerSet
   1805 90 01 FF            917 	mov	dptr,#(_UART_init_file_name_3_7 + 0x0017)
   1808 74 63               918 	mov	a,#0x63
   180A F0                  919 	movx	@dptr,a
                            920 ;	genPointerSet
                            921 ;     genFarPointerSet
   180B 90 02 00            922 	mov	dptr,#(_UART_init_file_name_3_7 + 0x0018)
   180E 74 6F               923 	mov	a,#0x6F
   1810 F0                  924 	movx	@dptr,a
                            925 ;	genPointerSet
                            926 ;     genFarPointerSet
   1811 90 02 01            927 	mov	dptr,#(_UART_init_file_name_3_7 + 0x0019)
   1814 74 72               928 	mov	a,#0x72
   1816 F0                  929 	movx	@dptr,a
                            930 ;	genPointerSet
                            931 ;     genFarPointerSet
   1817 90 02 02            932 	mov	dptr,#(_UART_init_file_name_3_7 + 0x001a)
   181A 74 65               933 	mov	a,#0x65
   181C F0                  934 	movx	@dptr,a
                            935 ;	genPointerSet
                            936 ;     genFarPointerSet
   181D 90 02 03            937 	mov	dptr,#(_UART_init_file_name_3_7 + 0x001b)
   1820 74 5F               938 	mov	a,#0x5F
   1822 F0                  939 	movx	@dptr,a
                            940 ;	genPointerSet
                            941 ;     genFarPointerSet
   1823 90 02 04            942 	mov	dptr,#(_UART_init_file_name_3_7 + 0x001c)
   1826 74 75               943 	mov	a,#0x75
   1828 F0                  944 	movx	@dptr,a
                            945 ;	genPointerSet
                            946 ;     genFarPointerSet
   1829 90 02 05            947 	mov	dptr,#(_UART_init_file_name_3_7 + 0x001d)
   182C 74 61               948 	mov	a,#0x61
   182E F0                  949 	movx	@dptr,a
                            950 ;	genPointerSet
                            951 ;     genFarPointerSet
   182F 90 02 06            952 	mov	dptr,#(_UART_init_file_name_3_7 + 0x001e)
   1832 74 72               953 	mov	a,#0x72
   1834 F0                  954 	movx	@dptr,a
                            955 ;	genPointerSet
                            956 ;     genFarPointerSet
   1835 90 02 07            957 	mov	dptr,#(_UART_init_file_name_3_7 + 0x001f)
   1838 74 74               958 	mov	a,#0x74
   183A F0                  959 	movx	@dptr,a
                            960 ;	genPointerSet
                            961 ;     genFarPointerSet
   183B 90 02 08            962 	mov	dptr,#(_UART_init_file_name_3_7 + 0x0020)
   183E 74 5F               963 	mov	a,#0x5F
   1840 F0                  964 	movx	@dptr,a
                            965 ;	genPointerSet
                            966 ;     genFarPointerSet
   1841 90 02 09            967 	mov	dptr,#(_UART_init_file_name_3_7 + 0x0021)
   1844 74 61               968 	mov	a,#0x61
   1846 F0                  969 	movx	@dptr,a
                            970 ;	genPointerSet
                            971 ;     genFarPointerSet
   1847 90 02 0A            972 	mov	dptr,#(_UART_init_file_name_3_7 + 0x0022)
   184A 74 70               973 	mov	a,#0x70
   184C F0                  974 	movx	@dptr,a
                            975 ;	genPointerSet
                            976 ;     genFarPointerSet
   184D 90 02 0B            977 	mov	dptr,#(_UART_init_file_name_3_7 + 0x0023)
   1850 74 62               978 	mov	a,#0x62
   1852 F0                  979 	movx	@dptr,a
                            980 ;	genPointerSet
                            981 ;     genFarPointerSet
   1853 90 02 0C            982 	mov	dptr,#(_UART_init_file_name_3_7 + 0x0024)
   1856 74 2E               983 	mov	a,#0x2E
   1858 F0                  984 	movx	@dptr,a
                            985 ;	genPointerSet
                            986 ;     genFarPointerSet
   1859 90 02 0D            987 	mov	dptr,#(_UART_init_file_name_3_7 + 0x0025)
   185C 74 63               988 	mov	a,#0x63
   185E F0                  989 	movx	@dptr,a
                            990 ;	genPointerSet
                            991 ;     genFarPointerSet
   185F 90 02 0E            992 	mov	dptr,#(_UART_init_file_name_3_7 + 0x0026)
   1862 74 00               993 	mov	a,#0x00
   1864 F0                  994 	movx	@dptr,a
                            995 ;	genAssign
   1865 90 00 2E            996 	mov	dptr,#_HAL_assert_fail_PARM_2
   1868 74 32               997 	mov	a,#0x32
   186A F0                  998 	movx	@dptr,a
   186B E4                  999 	clr	a
   186C A3                 1000 	inc	dptr
   186D F0                 1001 	movx	@dptr,a
   186E A3                 1002 	inc	dptr
   186F F0                 1003 	movx	@dptr,a
   1870 A3                 1004 	inc	dptr
   1871 F0                 1005 	movx	@dptr,a
                           1006 ;	genCall
   1872 75 82 E8           1007 	mov	dpl,#_UART_init_file_name_3_7
   1875 75 83 01           1008 	mov	dph,#(_UART_init_file_name_3_7 >> 8)
   1878 75 F0 00           1009 	mov	b,#0x00
   187B C0 03              1010 	push	ar3
   187D C0 04              1011 	push	ar4
   187F C0 05              1012 	push	ar5
   1881 C0 06              1013 	push	ar6
   1883 12 08 16           1014 	lcall	_HAL_assert_fail
   1886 D0 06              1015 	pop	ar6
   1888 D0 05              1016 	pop	ar5
   188A D0 04              1017 	pop	ar4
   188C D0 03              1018 	pop	ar3
   188E                    1019 00114$:
                    0372   1020 	C$core_uart_apb.c$52$1$1 ==.
                           1021 ;	../drivers/CoreUARTapb/core_uart_apb.c:52: if( ( this_uart != NULL_INSTANCE ) &&
                           1022 ;	genAssign
   188E 90 01 96           1023 	mov	dptr,#_UART_init_this_uart_1_1
   1891 E0                 1024 	movx	a,@dptr
   1892 FF                 1025 	mov	r7,a
   1893 A3                 1026 	inc	dptr
   1894 E0                 1027 	movx	a,@dptr
   1895 F8                 1028 	mov	r0,a
   1896 A3                 1029 	inc	dptr
   1897 E0                 1030 	movx	a,@dptr
   1898 F9                 1031 	mov	r1,a
                           1032 ;	genCmpEq
                           1033 ;	gencjneshort
   1899 BF 00 09           1034 	cjne	r7,#0x00,00149$
   189C B8 00 06           1035 	cjne	r0,#0x00,00149$
   189F B9 00 03           1036 	cjne	r1,#0x00,00149$
   18A2 02 1C AF           1037 	ljmp	00133$
   18A5                    1038 00149$:
                    0389   1039 	C$core_uart_apb.c$53$1$1 ==.
                           1040 ;	../drivers/CoreUARTapb/core_uart_apb.c:53: ( line_config <= MAX_LINE_CONFIG ) &&
                           1041 ;	genIfx
   18A5 EB                 1042 	mov	a,r3
                           1043 ;	genIfxJump
   18A6 60 03              1044 	jz	00150$
   18A8 02 1C AF           1045 	ljmp	00133$
   18AB                    1046 00150$:
                    038F   1047 	C$core_uart_apb.c$54$1$1 ==.
                           1048 ;	../drivers/CoreUARTapb/core_uart_apb.c:54: ( baud_value <= MAX_BAUD_VALUE ) )
                           1049 ;	genIfx
   18AB EE                 1050 	mov	a,r6
                           1051 ;	genIfxJump
   18AC 60 03              1052 	jz	00151$
   18AE 02 1C AF           1053 	ljmp	00133$
   18B1                    1054 00151$:
                    0395   1055 	C$core_uart_apb.c$59$2$8 ==.
                           1056 ;	../drivers/CoreUARTapb/core_uart_apb.c:59: HAL_set_8bit_reg( base_addr, CTRL1, (uint_fast8_t)(baud_value &
                           1057 ;	genAssign
   18B1 90 01 91           1058 	mov	dptr,#_UART_init_PARM_2
   18B4 E0                 1059 	movx	a,@dptr
   18B5 F5 25              1060 	mov	_UART_init_sloc1_1_0,a
   18B7 A3                 1061 	inc	dptr
   18B8 E0                 1062 	movx	a,@dptr
   18B9 F5 26              1063 	mov	(_UART_init_sloc1_1_0 + 1),a
                           1064 ;	genPlus
                           1065 ;	genPlusIncr
   18BB 74 08              1066 	mov	a,#0x08
   18BD 25 25              1067 	add	a,_UART_init_sloc1_1_0
   18BF F5 27              1068 	mov	_UART_init_sloc2_1_0,a
   18C1 74 00              1069 	mov	a,#0x00
   18C3 35 26              1070 	addc	a,(_UART_init_sloc1_1_0 + 1)
   18C5 F5 28              1071 	mov	(_UART_init_sloc2_1_0 + 1),a
                           1072 ;	genAnd
   18C7 8C 06              1073 	mov	ar6,r4
   18C9 7A 00              1074 	mov	r2,#0x00
                           1075 ;	genCast
   18CB 90 00 4B           1076 	mov	dptr,#_HW_set_8bit_reg_PARM_2
   18CE EE                 1077 	mov	a,r6
   18CF F0                 1078 	movx	@dptr,a
                           1079 ;	genCall
   18D0 85 27 82           1080 	mov	dpl,_UART_init_sloc2_1_0
   18D3 85 28 83           1081 	mov	dph,(_UART_init_sloc2_1_0 + 1)
   18D6 C0 04              1082 	push	ar4
   18D8 C0 05              1083 	push	ar5
   18DA C0 07              1084 	push	ar7
   18DC C0 00              1085 	push	ar0
   18DE C0 01              1086 	push	ar1
   18E0 12 08 B9           1087 	lcall	_HW_set_8bit_reg
   18E3 D0 01              1088 	pop	ar1
   18E5 D0 00              1089 	pop	ar0
   18E7 D0 07              1090 	pop	ar7
   18E9 D0 05              1091 	pop	ar5
   18EB D0 04              1092 	pop	ar4
                    03D1   1093 	C$core_uart_apb.c$66$2$8 ==.
                           1094 ;	../drivers/CoreUARTapb/core_uart_apb.c:66: HAL_set_8bit_reg( base_addr, CTRL2, (uint_fast8_t)line_config | 
                           1095 ;	genPlus
                           1096 ;	genPlusIncr
   18ED 74 0C              1097 	mov	a,#0x0C
   18EF 25 25              1098 	add	a,_UART_init_sloc1_1_0
   18F1 F5 29              1099 	mov	_UART_init_sloc3_1_0,a
   18F3 74 00              1100 	mov	a,#0x00
   18F5 35 26              1101 	addc	a,(_UART_init_sloc1_1_0 + 1)
   18F7 F5 2A              1102 	mov	(_UART_init_sloc3_1_0 + 1),a
                           1103 ;	genAnd
   18F9 7E 00              1104 	mov	r6,#0x00
   18FB 8D 02              1105 	mov	ar2,r5
                           1106 ;	genRightShift
                           1107 ;	genRightShiftLiteral
                           1108 ;	genrshTwo
   18FD EA                 1109 	mov	a,r2
   18FE C4                 1110 	swap	a
   18FF 03                 1111 	rr	a
   1900 CE                 1112 	xch	a,r6
   1901 C4                 1113 	swap	a
   1902 03                 1114 	rr	a
   1903 54 07              1115 	anl	a,#0x07
   1905 6E                 1116 	xrl	a,r6
   1906 CE                 1117 	xch	a,r6
   1907 54 07              1118 	anl	a,#0x07
   1909 CE                 1119 	xch	a,r6
   190A 6E                 1120 	xrl	a,r6
   190B CE                 1121 	xch	a,r6
   190C FA                 1122 	mov	r2,a
                           1123 ;	genCast
                           1124 ;	genOr
   190D 90 00 4B           1125 	mov	dptr,#_HW_set_8bit_reg_PARM_2
   1910 EE                 1126 	mov	a,r6
   1911 45 24              1127 	orl	a,_UART_init_sloc0_1_0
   1913 F0                 1128 	movx	@dptr,a
                           1129 ;	genCall
   1914 85 29 82           1130 	mov	dpl,_UART_init_sloc3_1_0
   1917 85 2A 83           1131 	mov	dph,(_UART_init_sloc3_1_0 + 1)
   191A C0 04              1132 	push	ar4
   191C C0 05              1133 	push	ar5
   191E C0 07              1134 	push	ar7
   1920 C0 00              1135 	push	ar0
   1922 C0 01              1136 	push	ar1
   1924 12 08 B9           1137 	lcall	_HW_set_8bit_reg
   1927 D0 01              1138 	pop	ar1
   1929 D0 00              1139 	pop	ar0
   192B D0 07              1140 	pop	ar7
   192D D0 05              1141 	pop	ar5
   192F D0 04              1142 	pop	ar4
                    0415   1143 	C$core_uart_apb.c$70$2$8 ==.
                           1144 ;	../drivers/CoreUARTapb/core_uart_apb.c:70: this_uart->base_address = base_addr;
                           1145 ;	genPointerSet
                           1146 ;	genGenPointerSet
   1931 8F 82              1147 	mov	dpl,r7
   1933 88 83              1148 	mov	dph,r0
   1935 89 F0              1149 	mov	b,r1
   1937 E5 25              1150 	mov	a,_UART_init_sloc1_1_0
   1939 12 5C 54           1151 	lcall	__gptrput
   193C A3                 1152 	inc	dptr
   193D E5 26              1153 	mov	a,(_UART_init_sloc1_1_0 + 1)
   193F 12 5C 54           1154 	lcall	__gptrput
                    0426   1155 	C$core_uart_apb.c$76$3$9 ==.
                           1156 ;	../drivers/CoreUARTapb/core_uart_apb.c:76: baud_val = HAL_get_8bit_reg( this_uart->base_address, CTRL1 );
                           1157 ;	genCall
   1942 85 27 82           1158 	mov	dpl,_UART_init_sloc2_1_0
   1945 85 28 83           1159 	mov	dph,(_UART_init_sloc2_1_0 + 1)
   1948 C0 04              1160 	push	ar4
   194A C0 05              1161 	push	ar5
   194C C0 07              1162 	push	ar7
   194E C0 00              1163 	push	ar0
   1950 C0 01              1164 	push	ar1
   1952 12 08 C7           1165 	lcall	_HW_get_8bit_reg
   1955 AA 82              1166 	mov	r2,dpl
   1957 D0 01              1167 	pop	ar1
   1959 D0 00              1168 	pop	ar0
   195B D0 07              1169 	pop	ar7
   195D D0 05              1170 	pop	ar5
   195F D0 04              1171 	pop	ar4
                           1172 ;	genCast
   1961 7B 00              1173 	mov	r3,#0x00
                    0447   1174 	C$core_uart_apb.c$77$3$9 ==.
                           1175 ;	../drivers/CoreUARTapb/core_uart_apb.c:77: config =  HAL_get_8bit_reg( this_uart->base_address, CTRL2 );
                           1176 ;	genPointerGet
                           1177 ;	genGenPointerGet
   1963 8F 82              1178 	mov	dpl,r7
   1965 88 83              1179 	mov	dph,r0
   1967 89 F0              1180 	mov	b,r1
   1969 12 5C 8D           1181 	lcall	__gptrget
   196C FF                 1182 	mov	r7,a
   196D A3                 1183 	inc	dptr
   196E 12 5C 8D           1184 	lcall	__gptrget
   1971 F8                 1185 	mov	r0,a
                           1186 ;	genPlus
                           1187 ;	genPlusIncr
   1972 74 0C              1188 	mov	a,#0x0C
   1974 25 07              1189 	add	a,ar7
   1976 FF                 1190 	mov	r7,a
   1977 74 00              1191 	mov	a,#0x00
   1979 35 00              1192 	addc	a,ar0
   197B F8                 1193 	mov	r0,a
                           1194 ;	genCall
   197C 8F 82              1195 	mov	dpl,r7
   197E 88 83              1196 	mov	dph,r0
   1980 C0 02              1197 	push	ar2
   1982 C0 03              1198 	push	ar3
   1984 C0 04              1199 	push	ar4
   1986 C0 05              1200 	push	ar5
   1988 12 08 C7           1201 	lcall	_HW_get_8bit_reg
   198B AE 82              1202 	mov	r6,dpl
   198D D0 05              1203 	pop	ar5
   198F D0 04              1204 	pop	ar4
   1991 D0 03              1205 	pop	ar3
   1993 D0 02              1206 	pop	ar2
                    0479   1207 	C$core_uart_apb.c$81$3$9 ==.
                           1208 ;	../drivers/CoreUARTapb/core_uart_apb.c:81: temp =  ( config  &  (uint8_t)(CTRL2_BAUDVALUE_MASK ) );
                           1209 ;	genAnd
   1995 74 F8              1210 	mov	a,#0xF8
   1997 5E                 1211 	anl	a,r6
   1998 FF                 1212 	mov	r7,a
                    047D   1213 	C$core_uart_apb.c$82$3$9 ==.
                           1214 ;	../drivers/CoreUARTapb/core_uart_apb.c:82: baud_val |= (uint16_t)( (uint16_t)(temp) << BAUDVALUE_SHIFT );
                           1215 ;	genCast
   1999 78 00              1216 	mov	r0,#0x00
                           1217 ;	genLeftShift
                           1218 ;	genLeftShiftLiteral
                           1219 ;	genlshTwo
   199B E8                 1220 	mov	a,r0
   199C C4                 1221 	swap	a
   199D 23                 1222 	rl	a
   199E 54 E0              1223 	anl	a,#0xe0
   19A0 CF                 1224 	xch	a,r7
   19A1 C4                 1225 	swap	a
   19A2 23                 1226 	rl	a
   19A3 CF                 1227 	xch	a,r7
   19A4 6F                 1228 	xrl	a,r7
   19A5 CF                 1229 	xch	a,r7
   19A6 54 E0              1230 	anl	a,#0xe0
   19A8 CF                 1231 	xch	a,r7
   19A9 6F                 1232 	xrl	a,r7
   19AA F8                 1233 	mov	r0,a
                           1234 ;	genOr
   19AB EF                 1235 	mov	a,r7
   19AC 42 02              1236 	orl	ar2,a
   19AE E8                 1237 	mov	a,r0
   19AF 42 03              1238 	orl	ar3,a
                    0495   1239 	C$core_uart_apb.c$83$3$9 ==.
                           1240 ;	../drivers/CoreUARTapb/core_uart_apb.c:83: config &= (uint8_t)(~CTRL2_BAUDVALUE_MASK);
                           1241 ;	genAnd
   19B1 53 06 07           1242 	anl	ar6,#0x07
                    0498   1243 	C$core_uart_apb.c$84$4$10 ==.
                           1244 ;	../drivers/CoreUARTapb/core_uart_apb.c:84: HAL_ASSERT( baud_val == baud_value );
                           1245 ;	genCmpEq
                           1246 ;	gencjneshort
   19B4 EA                 1247 	mov	a,r2
   19B5 B5 04 07           1248 	cjne	a,ar4,00152$
   19B8 EB                 1249 	mov	a,r3
   19B9 B5 05 03           1250 	cjne	a,ar5,00152$
   19BC 02 1A C6           1251 	ljmp	00119$
   19BF                    1252 00152$:
                           1253 ;	genPointerSet
                           1254 ;     genFarPointerSet
   19BF 90 02 0F           1255 	mov	dptr,#_UART_init_file_name_5_11
   19C2 74 2E              1256 	mov	a,#0x2E
   19C4 F0                 1257 	movx	@dptr,a
                           1258 ;	genPointerSet
                           1259 ;     genFarPointerSet
   19C5 90 02 10           1260 	mov	dptr,#(_UART_init_file_name_5_11 + 0x0001)
   19C8 74 2E              1261 	mov	a,#0x2E
   19CA F0                 1262 	movx	@dptr,a
                           1263 ;	genPointerSet
                           1264 ;     genFarPointerSet
   19CB 90 02 11           1265 	mov	dptr,#(_UART_init_file_name_5_11 + 0x0002)
   19CE 74 2F              1266 	mov	a,#0x2F
   19D0 F0                 1267 	movx	@dptr,a
                           1268 ;	genPointerSet
                           1269 ;     genFarPointerSet
   19D1 90 02 12           1270 	mov	dptr,#(_UART_init_file_name_5_11 + 0x0003)
   19D4 74 64              1271 	mov	a,#0x64
   19D6 F0                 1272 	movx	@dptr,a
                           1273 ;	genPointerSet
                           1274 ;     genFarPointerSet
   19D7 90 02 13           1275 	mov	dptr,#(_UART_init_file_name_5_11 + 0x0004)
   19DA 74 72              1276 	mov	a,#0x72
   19DC F0                 1277 	movx	@dptr,a
                           1278 ;	genPointerSet
                           1279 ;     genFarPointerSet
   19DD 90 02 14           1280 	mov	dptr,#(_UART_init_file_name_5_11 + 0x0005)
   19E0 74 69              1281 	mov	a,#0x69
   19E2 F0                 1282 	movx	@dptr,a
                           1283 ;	genPointerSet
                           1284 ;     genFarPointerSet
   19E3 90 02 15           1285 	mov	dptr,#(_UART_init_file_name_5_11 + 0x0006)
   19E6 74 76              1286 	mov	a,#0x76
   19E8 F0                 1287 	movx	@dptr,a
                           1288 ;	genPointerSet
                           1289 ;     genFarPointerSet
   19E9 90 02 16           1290 	mov	dptr,#(_UART_init_file_name_5_11 + 0x0007)
   19EC 74 65              1291 	mov	a,#0x65
   19EE F0                 1292 	movx	@dptr,a
                           1293 ;	genPointerSet
                           1294 ;     genFarPointerSet
   19EF 90 02 17           1295 	mov	dptr,#(_UART_init_file_name_5_11 + 0x0008)
   19F2 74 72              1296 	mov	a,#0x72
   19F4 F0                 1297 	movx	@dptr,a
                           1298 ;	genPointerSet
                           1299 ;     genFarPointerSet
   19F5 90 02 18           1300 	mov	dptr,#(_UART_init_file_name_5_11 + 0x0009)
   19F8 74 73              1301 	mov	a,#0x73
   19FA F0                 1302 	movx	@dptr,a
                           1303 ;	genPointerSet
                           1304 ;     genFarPointerSet
   19FB 90 02 19           1305 	mov	dptr,#(_UART_init_file_name_5_11 + 0x000a)
   19FE 74 2F              1306 	mov	a,#0x2F
   1A00 F0                 1307 	movx	@dptr,a
                           1308 ;	genPointerSet
                           1309 ;     genFarPointerSet
   1A01 90 02 1A           1310 	mov	dptr,#(_UART_init_file_name_5_11 + 0x000b)
   1A04 74 43              1311 	mov	a,#0x43
   1A06 F0                 1312 	movx	@dptr,a
                           1313 ;	genPointerSet
                           1314 ;     genFarPointerSet
   1A07 90 02 1B           1315 	mov	dptr,#(_UART_init_file_name_5_11 + 0x000c)
   1A0A 74 6F              1316 	mov	a,#0x6F
   1A0C F0                 1317 	movx	@dptr,a
                           1318 ;	genPointerSet
                           1319 ;     genFarPointerSet
   1A0D 90 02 1C           1320 	mov	dptr,#(_UART_init_file_name_5_11 + 0x000d)
   1A10 74 72              1321 	mov	a,#0x72
   1A12 F0                 1322 	movx	@dptr,a
                           1323 ;	genPointerSet
                           1324 ;     genFarPointerSet
   1A13 90 02 1D           1325 	mov	dptr,#(_UART_init_file_name_5_11 + 0x000e)
   1A16 74 65              1326 	mov	a,#0x65
   1A18 F0                 1327 	movx	@dptr,a
                           1328 ;	genPointerSet
                           1329 ;     genFarPointerSet
   1A19 90 02 1E           1330 	mov	dptr,#(_UART_init_file_name_5_11 + 0x000f)
   1A1C 74 55              1331 	mov	a,#0x55
   1A1E F0                 1332 	movx	@dptr,a
                           1333 ;	genPointerSet
                           1334 ;     genFarPointerSet
   1A1F 90 02 1F           1335 	mov	dptr,#(_UART_init_file_name_5_11 + 0x0010)
   1A22 74 41              1336 	mov	a,#0x41
   1A24 F0                 1337 	movx	@dptr,a
                           1338 ;	genPointerSet
                           1339 ;     genFarPointerSet
   1A25 90 02 20           1340 	mov	dptr,#(_UART_init_file_name_5_11 + 0x0011)
   1A28 74 52              1341 	mov	a,#0x52
   1A2A F0                 1342 	movx	@dptr,a
                           1343 ;	genPointerSet
                           1344 ;     genFarPointerSet
   1A2B 90 02 21           1345 	mov	dptr,#(_UART_init_file_name_5_11 + 0x0012)
   1A2E 74 54              1346 	mov	a,#0x54
   1A30 F0                 1347 	movx	@dptr,a
                           1348 ;	genPointerSet
                           1349 ;     genFarPointerSet
   1A31 90 02 22           1350 	mov	dptr,#(_UART_init_file_name_5_11 + 0x0013)
   1A34 74 61              1351 	mov	a,#0x61
   1A36 F0                 1352 	movx	@dptr,a
                           1353 ;	genPointerSet
                           1354 ;     genFarPointerSet
   1A37 90 02 23           1355 	mov	dptr,#(_UART_init_file_name_5_11 + 0x0014)
   1A3A 74 70              1356 	mov	a,#0x70
   1A3C F0                 1357 	movx	@dptr,a
                           1358 ;	genPointerSet
                           1359 ;     genFarPointerSet
   1A3D 90 02 24           1360 	mov	dptr,#(_UART_init_file_name_5_11 + 0x0015)
   1A40 74 62              1361 	mov	a,#0x62
   1A42 F0                 1362 	movx	@dptr,a
                           1363 ;	genPointerSet
                           1364 ;     genFarPointerSet
   1A43 90 02 25           1365 	mov	dptr,#(_UART_init_file_name_5_11 + 0x0016)
   1A46 74 2F              1366 	mov	a,#0x2F
   1A48 F0                 1367 	movx	@dptr,a
                           1368 ;	genPointerSet
                           1369 ;     genFarPointerSet
   1A49 90 02 26           1370 	mov	dptr,#(_UART_init_file_name_5_11 + 0x0017)
   1A4C 74 63              1371 	mov	a,#0x63
   1A4E F0                 1372 	movx	@dptr,a
                           1373 ;	genPointerSet
                           1374 ;     genFarPointerSet
   1A4F 90 02 27           1375 	mov	dptr,#(_UART_init_file_name_5_11 + 0x0018)
   1A52 74 6F              1376 	mov	a,#0x6F
   1A54 F0                 1377 	movx	@dptr,a
                           1378 ;	genPointerSet
                           1379 ;     genFarPointerSet
   1A55 90 02 28           1380 	mov	dptr,#(_UART_init_file_name_5_11 + 0x0019)
   1A58 74 72              1381 	mov	a,#0x72
   1A5A F0                 1382 	movx	@dptr,a
                           1383 ;	genPointerSet
                           1384 ;     genFarPointerSet
   1A5B 90 02 29           1385 	mov	dptr,#(_UART_init_file_name_5_11 + 0x001a)
   1A5E 74 65              1386 	mov	a,#0x65
   1A60 F0                 1387 	movx	@dptr,a
                           1388 ;	genPointerSet
                           1389 ;     genFarPointerSet
   1A61 90 02 2A           1390 	mov	dptr,#(_UART_init_file_name_5_11 + 0x001b)
   1A64 74 5F              1391 	mov	a,#0x5F
   1A66 F0                 1392 	movx	@dptr,a
                           1393 ;	genPointerSet
                           1394 ;     genFarPointerSet
   1A67 90 02 2B           1395 	mov	dptr,#(_UART_init_file_name_5_11 + 0x001c)
   1A6A 74 75              1396 	mov	a,#0x75
   1A6C F0                 1397 	movx	@dptr,a
                           1398 ;	genPointerSet
                           1399 ;     genFarPointerSet
   1A6D 90 02 2C           1400 	mov	dptr,#(_UART_init_file_name_5_11 + 0x001d)
   1A70 74 61              1401 	mov	a,#0x61
   1A72 F0                 1402 	movx	@dptr,a
                           1403 ;	genPointerSet
                           1404 ;     genFarPointerSet
   1A73 90 02 2D           1405 	mov	dptr,#(_UART_init_file_name_5_11 + 0x001e)
   1A76 74 72              1406 	mov	a,#0x72
   1A78 F0                 1407 	movx	@dptr,a
                           1408 ;	genPointerSet
                           1409 ;     genFarPointerSet
   1A79 90 02 2E           1410 	mov	dptr,#(_UART_init_file_name_5_11 + 0x001f)
   1A7C 74 74              1411 	mov	a,#0x74
   1A7E F0                 1412 	movx	@dptr,a
                           1413 ;	genPointerSet
                           1414 ;     genFarPointerSet
   1A7F 90 02 2F           1415 	mov	dptr,#(_UART_init_file_name_5_11 + 0x0020)
   1A82 74 5F              1416 	mov	a,#0x5F
   1A84 F0                 1417 	movx	@dptr,a
                           1418 ;	genPointerSet
                           1419 ;     genFarPointerSet
   1A85 90 02 30           1420 	mov	dptr,#(_UART_init_file_name_5_11 + 0x0021)
   1A88 74 61              1421 	mov	a,#0x61
   1A8A F0                 1422 	movx	@dptr,a
                           1423 ;	genPointerSet
                           1424 ;     genFarPointerSet
   1A8B 90 02 31           1425 	mov	dptr,#(_UART_init_file_name_5_11 + 0x0022)
   1A8E 74 70              1426 	mov	a,#0x70
   1A90 F0                 1427 	movx	@dptr,a
                           1428 ;	genPointerSet
                           1429 ;     genFarPointerSet
   1A91 90 02 32           1430 	mov	dptr,#(_UART_init_file_name_5_11 + 0x0023)
   1A94 74 62              1431 	mov	a,#0x62
   1A96 F0                 1432 	movx	@dptr,a
                           1433 ;	genPointerSet
                           1434 ;     genFarPointerSet
   1A97 90 02 33           1435 	mov	dptr,#(_UART_init_file_name_5_11 + 0x0024)
   1A9A 74 2E              1436 	mov	a,#0x2E
   1A9C F0                 1437 	movx	@dptr,a
                           1438 ;	genPointerSet
                           1439 ;     genFarPointerSet
   1A9D 90 02 34           1440 	mov	dptr,#(_UART_init_file_name_5_11 + 0x0025)
   1AA0 74 63              1441 	mov	a,#0x63
   1AA2 F0                 1442 	movx	@dptr,a
                           1443 ;	genPointerSet
                           1444 ;     genFarPointerSet
   1AA3 90 02 35           1445 	mov	dptr,#(_UART_init_file_name_5_11 + 0x0026)
   1AA6 74 00              1446 	mov	a,#0x00
   1AA8 F0                 1447 	movx	@dptr,a
                           1448 ;	genAssign
   1AA9 90 00 2E           1449 	mov	dptr,#_HAL_assert_fail_PARM_2
   1AAC 74 54              1450 	mov	a,#0x54
   1AAE F0                 1451 	movx	@dptr,a
   1AAF E4                 1452 	clr	a
   1AB0 A3                 1453 	inc	dptr
   1AB1 F0                 1454 	movx	@dptr,a
   1AB2 A3                 1455 	inc	dptr
   1AB3 F0                 1456 	movx	@dptr,a
   1AB4 A3                 1457 	inc	dptr
   1AB5 F0                 1458 	movx	@dptr,a
                           1459 ;	genCall
   1AB6 75 82 0F           1460 	mov	dpl,#_UART_init_file_name_5_11
   1AB9 75 83 02           1461 	mov	dph,#(_UART_init_file_name_5_11 >> 8)
   1ABC 75 F0 00           1462 	mov	b,#0x00
   1ABF C0 06              1463 	push	ar6
   1AC1 12 08 16           1464 	lcall	_HAL_assert_fail
   1AC4 D0 06              1465 	pop	ar6
   1AC6                    1466 00119$:
                    05AA   1467 	C$core_uart_apb.c$85$4$12 ==.
                           1468 ;	../drivers/CoreUARTapb/core_uart_apb.c:85: HAL_ASSERT( config == line_config );
                           1469 ;	genCmpEq
                           1470 ;	gencjneshort
   1AC6 EE                 1471 	mov	a,r6
   1AC7 B5 24 03           1472 	cjne	a,_UART_init_sloc0_1_0,00153$
   1ACA 02 1B D0           1473 	ljmp	00124$
   1ACD                    1474 00153$:
                           1475 ;	genPointerSet
                           1476 ;     genFarPointerSet
   1ACD 90 02 36           1477 	mov	dptr,#_UART_init_file_name_5_13
   1AD0 74 2E              1478 	mov	a,#0x2E
   1AD2 F0                 1479 	movx	@dptr,a
                           1480 ;	genPointerSet
                           1481 ;     genFarPointerSet
   1AD3 90 02 37           1482 	mov	dptr,#(_UART_init_file_name_5_13 + 0x0001)
   1AD6 74 2E              1483 	mov	a,#0x2E
   1AD8 F0                 1484 	movx	@dptr,a
                           1485 ;	genPointerSet
                           1486 ;     genFarPointerSet
   1AD9 90 02 38           1487 	mov	dptr,#(_UART_init_file_name_5_13 + 0x0002)
   1ADC 74 2F              1488 	mov	a,#0x2F
   1ADE F0                 1489 	movx	@dptr,a
                           1490 ;	genPointerSet
                           1491 ;     genFarPointerSet
   1ADF 90 02 39           1492 	mov	dptr,#(_UART_init_file_name_5_13 + 0x0003)
   1AE2 74 64              1493 	mov	a,#0x64
   1AE4 F0                 1494 	movx	@dptr,a
                           1495 ;	genPointerSet
                           1496 ;     genFarPointerSet
   1AE5 90 02 3A           1497 	mov	dptr,#(_UART_init_file_name_5_13 + 0x0004)
   1AE8 74 72              1498 	mov	a,#0x72
   1AEA F0                 1499 	movx	@dptr,a
                           1500 ;	genPointerSet
                           1501 ;     genFarPointerSet
   1AEB 90 02 3B           1502 	mov	dptr,#(_UART_init_file_name_5_13 + 0x0005)
   1AEE 74 69              1503 	mov	a,#0x69
   1AF0 F0                 1504 	movx	@dptr,a
                           1505 ;	genPointerSet
                           1506 ;     genFarPointerSet
   1AF1 90 02 3C           1507 	mov	dptr,#(_UART_init_file_name_5_13 + 0x0006)
   1AF4 74 76              1508 	mov	a,#0x76
   1AF6 F0                 1509 	movx	@dptr,a
                           1510 ;	genPointerSet
                           1511 ;     genFarPointerSet
   1AF7 90 02 3D           1512 	mov	dptr,#(_UART_init_file_name_5_13 + 0x0007)
   1AFA 74 65              1513 	mov	a,#0x65
   1AFC F0                 1514 	movx	@dptr,a
                           1515 ;	genPointerSet
                           1516 ;     genFarPointerSet
   1AFD 90 02 3E           1517 	mov	dptr,#(_UART_init_file_name_5_13 + 0x0008)
   1B00 74 72              1518 	mov	a,#0x72
   1B02 F0                 1519 	movx	@dptr,a
                           1520 ;	genPointerSet
                           1521 ;     genFarPointerSet
   1B03 90 02 3F           1522 	mov	dptr,#(_UART_init_file_name_5_13 + 0x0009)
   1B06 74 73              1523 	mov	a,#0x73
   1B08 F0                 1524 	movx	@dptr,a
                           1525 ;	genPointerSet
                           1526 ;     genFarPointerSet
   1B09 90 02 40           1527 	mov	dptr,#(_UART_init_file_name_5_13 + 0x000a)
   1B0C 74 2F              1528 	mov	a,#0x2F
   1B0E F0                 1529 	movx	@dptr,a
                           1530 ;	genPointerSet
                           1531 ;     genFarPointerSet
   1B0F 90 02 41           1532 	mov	dptr,#(_UART_init_file_name_5_13 + 0x000b)
   1B12 74 43              1533 	mov	a,#0x43
   1B14 F0                 1534 	movx	@dptr,a
                           1535 ;	genPointerSet
                           1536 ;     genFarPointerSet
   1B15 90 02 42           1537 	mov	dptr,#(_UART_init_file_name_5_13 + 0x000c)
   1B18 74 6F              1538 	mov	a,#0x6F
   1B1A F0                 1539 	movx	@dptr,a
                           1540 ;	genPointerSet
                           1541 ;     genFarPointerSet
   1B1B 90 02 43           1542 	mov	dptr,#(_UART_init_file_name_5_13 + 0x000d)
   1B1E 74 72              1543 	mov	a,#0x72
   1B20 F0                 1544 	movx	@dptr,a
                           1545 ;	genPointerSet
                           1546 ;     genFarPointerSet
   1B21 90 02 44           1547 	mov	dptr,#(_UART_init_file_name_5_13 + 0x000e)
   1B24 74 65              1548 	mov	a,#0x65
   1B26 F0                 1549 	movx	@dptr,a
                           1550 ;	genPointerSet
                           1551 ;     genFarPointerSet
   1B27 90 02 45           1552 	mov	dptr,#(_UART_init_file_name_5_13 + 0x000f)
   1B2A 74 55              1553 	mov	a,#0x55
   1B2C F0                 1554 	movx	@dptr,a
                           1555 ;	genPointerSet
                           1556 ;     genFarPointerSet
   1B2D 90 02 46           1557 	mov	dptr,#(_UART_init_file_name_5_13 + 0x0010)
   1B30 74 41              1558 	mov	a,#0x41
   1B32 F0                 1559 	movx	@dptr,a
                           1560 ;	genPointerSet
                           1561 ;     genFarPointerSet
   1B33 90 02 47           1562 	mov	dptr,#(_UART_init_file_name_5_13 + 0x0011)
   1B36 74 52              1563 	mov	a,#0x52
   1B38 F0                 1564 	movx	@dptr,a
                           1565 ;	genPointerSet
                           1566 ;     genFarPointerSet
   1B39 90 02 48           1567 	mov	dptr,#(_UART_init_file_name_5_13 + 0x0012)
   1B3C 74 54              1568 	mov	a,#0x54
   1B3E F0                 1569 	movx	@dptr,a
                           1570 ;	genPointerSet
                           1571 ;     genFarPointerSet
   1B3F 90 02 49           1572 	mov	dptr,#(_UART_init_file_name_5_13 + 0x0013)
   1B42 74 61              1573 	mov	a,#0x61
   1B44 F0                 1574 	movx	@dptr,a
                           1575 ;	genPointerSet
                           1576 ;     genFarPointerSet
   1B45 90 02 4A           1577 	mov	dptr,#(_UART_init_file_name_5_13 + 0x0014)
   1B48 74 70              1578 	mov	a,#0x70
   1B4A F0                 1579 	movx	@dptr,a
                           1580 ;	genPointerSet
                           1581 ;     genFarPointerSet
   1B4B 90 02 4B           1582 	mov	dptr,#(_UART_init_file_name_5_13 + 0x0015)
   1B4E 74 62              1583 	mov	a,#0x62
   1B50 F0                 1584 	movx	@dptr,a
                           1585 ;	genPointerSet
                           1586 ;     genFarPointerSet
   1B51 90 02 4C           1587 	mov	dptr,#(_UART_init_file_name_5_13 + 0x0016)
   1B54 74 2F              1588 	mov	a,#0x2F
   1B56 F0                 1589 	movx	@dptr,a
                           1590 ;	genPointerSet
                           1591 ;     genFarPointerSet
   1B57 90 02 4D           1592 	mov	dptr,#(_UART_init_file_name_5_13 + 0x0017)
   1B5A 74 63              1593 	mov	a,#0x63
   1B5C F0                 1594 	movx	@dptr,a
                           1595 ;	genPointerSet
                           1596 ;     genFarPointerSet
   1B5D 90 02 4E           1597 	mov	dptr,#(_UART_init_file_name_5_13 + 0x0018)
   1B60 74 6F              1598 	mov	a,#0x6F
   1B62 F0                 1599 	movx	@dptr,a
                           1600 ;	genPointerSet
                           1601 ;     genFarPointerSet
   1B63 90 02 4F           1602 	mov	dptr,#(_UART_init_file_name_5_13 + 0x0019)
   1B66 74 72              1603 	mov	a,#0x72
   1B68 F0                 1604 	movx	@dptr,a
                           1605 ;	genPointerSet
                           1606 ;     genFarPointerSet
   1B69 90 02 50           1607 	mov	dptr,#(_UART_init_file_name_5_13 + 0x001a)
   1B6C 74 65              1608 	mov	a,#0x65
   1B6E F0                 1609 	movx	@dptr,a
                           1610 ;	genPointerSet
                           1611 ;     genFarPointerSet
   1B6F 90 02 51           1612 	mov	dptr,#(_UART_init_file_name_5_13 + 0x001b)
   1B72 74 5F              1613 	mov	a,#0x5F
   1B74 F0                 1614 	movx	@dptr,a
                           1615 ;	genPointerSet
                           1616 ;     genFarPointerSet
   1B75 90 02 52           1617 	mov	dptr,#(_UART_init_file_name_5_13 + 0x001c)
   1B78 74 75              1618 	mov	a,#0x75
   1B7A F0                 1619 	movx	@dptr,a
                           1620 ;	genPointerSet
                           1621 ;     genFarPointerSet
   1B7B 90 02 53           1622 	mov	dptr,#(_UART_init_file_name_5_13 + 0x001d)
   1B7E 74 61              1623 	mov	a,#0x61
   1B80 F0                 1624 	movx	@dptr,a
                           1625 ;	genPointerSet
                           1626 ;     genFarPointerSet
   1B81 90 02 54           1627 	mov	dptr,#(_UART_init_file_name_5_13 + 0x001e)
   1B84 74 72              1628 	mov	a,#0x72
   1B86 F0                 1629 	movx	@dptr,a
                           1630 ;	genPointerSet
                           1631 ;     genFarPointerSet
   1B87 90 02 55           1632 	mov	dptr,#(_UART_init_file_name_5_13 + 0x001f)
   1B8A 74 74              1633 	mov	a,#0x74
   1B8C F0                 1634 	movx	@dptr,a
                           1635 ;	genPointerSet
                           1636 ;     genFarPointerSet
   1B8D 90 02 56           1637 	mov	dptr,#(_UART_init_file_name_5_13 + 0x0020)
   1B90 74 5F              1638 	mov	a,#0x5F
   1B92 F0                 1639 	movx	@dptr,a
                           1640 ;	genPointerSet
                           1641 ;     genFarPointerSet
   1B93 90 02 57           1642 	mov	dptr,#(_UART_init_file_name_5_13 + 0x0021)
   1B96 74 61              1643 	mov	a,#0x61
   1B98 F0                 1644 	movx	@dptr,a
                           1645 ;	genPointerSet
                           1646 ;     genFarPointerSet
   1B99 90 02 58           1647 	mov	dptr,#(_UART_init_file_name_5_13 + 0x0022)
   1B9C 74 70              1648 	mov	a,#0x70
   1B9E F0                 1649 	movx	@dptr,a
                           1650 ;	genPointerSet
                           1651 ;     genFarPointerSet
   1B9F 90 02 59           1652 	mov	dptr,#(_UART_init_file_name_5_13 + 0x0023)
   1BA2 74 62              1653 	mov	a,#0x62
   1BA4 F0                 1654 	movx	@dptr,a
                           1655 ;	genPointerSet
                           1656 ;     genFarPointerSet
   1BA5 90 02 5A           1657 	mov	dptr,#(_UART_init_file_name_5_13 + 0x0024)
   1BA8 74 2E              1658 	mov	a,#0x2E
   1BAA F0                 1659 	movx	@dptr,a
                           1660 ;	genPointerSet
                           1661 ;     genFarPointerSet
   1BAB 90 02 5B           1662 	mov	dptr,#(_UART_init_file_name_5_13 + 0x0025)
   1BAE 74 63              1663 	mov	a,#0x63
   1BB0 F0                 1664 	movx	@dptr,a
                           1665 ;	genPointerSet
                           1666 ;     genFarPointerSet
   1BB1 90 02 5C           1667 	mov	dptr,#(_UART_init_file_name_5_13 + 0x0026)
   1BB4 74 00              1668 	mov	a,#0x00
   1BB6 F0                 1669 	movx	@dptr,a
                           1670 ;	genAssign
   1BB7 90 00 2E           1671 	mov	dptr,#_HAL_assert_fail_PARM_2
   1BBA 74 55              1672 	mov	a,#0x55
   1BBC F0                 1673 	movx	@dptr,a
   1BBD E4                 1674 	clr	a
   1BBE A3                 1675 	inc	dptr
   1BBF F0                 1676 	movx	@dptr,a
   1BC0 A3                 1677 	inc	dptr
   1BC1 F0                 1678 	movx	@dptr,a
   1BC2 A3                 1679 	inc	dptr
   1BC3 F0                 1680 	movx	@dptr,a
                           1681 ;	genCall
   1BC4 75 82 36           1682 	mov	dpl,#_UART_init_file_name_5_13
   1BC7 75 83 02           1683 	mov	dph,#(_UART_init_file_name_5_13 >> 8)
   1BCA 75 F0 00           1684 	mov	b,#0x00
   1BCD 12 08 16           1685 	lcall	_HAL_assert_fail
   1BD0                    1686 00124$:
                    06B4   1687 	C$core_uart_apb.c$93$2$8 ==.
                           1688 ;	../drivers/CoreUARTapb/core_uart_apb.c:93: rx_full = HAL_get_8bit_reg( this_uart->base_address, STATUS ) &
                           1689 ;	genAssign
   1BD0 90 01 96           1690 	mov	dptr,#_UART_init_this_uart_1_1
   1BD3 E0                 1691 	movx	a,@dptr
   1BD4 FA                 1692 	mov	r2,a
   1BD5 A3                 1693 	inc	dptr
   1BD6 E0                 1694 	movx	a,@dptr
   1BD7 FB                 1695 	mov	r3,a
   1BD8 A3                 1696 	inc	dptr
   1BD9 E0                 1697 	movx	a,@dptr
   1BDA FC                 1698 	mov	r4,a
                           1699 ;	genPointerGet
                           1700 ;	genGenPointerGet
   1BDB 8A 82              1701 	mov	dpl,r2
   1BDD 8B 83              1702 	mov	dph,r3
   1BDF 8C F0              1703 	mov	b,r4
   1BE1 12 5C 8D           1704 	lcall	__gptrget
   1BE4 FD                 1705 	mov	r5,a
   1BE5 A3                 1706 	inc	dptr
   1BE6 12 5C 8D           1707 	lcall	__gptrget
   1BE9 FE                 1708 	mov	r6,a
                           1709 ;	genPlus
                           1710 ;	genPlusIncr
   1BEA 74 10              1711 	mov	a,#0x10
   1BEC 25 05              1712 	add	a,ar5
   1BEE FD                 1713 	mov	r5,a
   1BEF 74 00              1714 	mov	a,#0x00
   1BF1 35 06              1715 	addc	a,ar6
   1BF3 FE                 1716 	mov	r6,a
                           1717 ;	genCall
   1BF4 8D 82              1718 	mov	dpl,r5
   1BF6 8E 83              1719 	mov	dph,r6
   1BF8 C0 02              1720 	push	ar2
   1BFA C0 03              1721 	push	ar3
   1BFC C0 04              1722 	push	ar4
   1BFE 12 08 C7           1723 	lcall	_HW_get_8bit_reg
   1C01 AD 82              1724 	mov	r5,dpl
   1C03 D0 04              1725 	pop	ar4
   1C05 D0 03              1726 	pop	ar3
   1C07 D0 02              1727 	pop	ar2
                           1728 ;	genCast
   1C09 7E 00              1729 	mov	r6,#0x00
                           1730 ;	genAnd
   1C0B 53 05 02           1731 	anl	ar5,#0x02
   1C0E 7E 00              1732 	mov	r6,#0x00
                           1733 ;	genCast
   1C10 90 01 99           1734 	mov	dptr,#_UART_init_rx_full_1_1
   1C13 ED                 1735 	mov	a,r5
   1C14 F0                 1736 	movx	@dptr,a
                    06F9   1737 	C$core_uart_apb.c$95$3$14 ==.
                           1738 ;	../drivers/CoreUARTapb/core_uart_apb.c:95: while ( rx_full )
                           1739 ;	genAssign
   1C15                    1740 00126$:
                           1741 ;	genAssign
   1C15 90 01 99           1742 	mov	dptr,#_UART_init_rx_full_1_1
   1C18 E0                 1743 	movx	a,@dptr
   1C19 FD                 1744 	mov	r5,a
                           1745 ;	genIfx
   1C1A ED                 1746 	mov	a,r5
                           1747 ;	genIfxJump
   1C1B 70 03              1748 	jnz	00154$
   1C1D 02 1C 8F           1749 	ljmp	00128$
   1C20                    1750 00154$:
                    0704   1751 	C$core_uart_apb.c$98$3$14 ==.
                           1752 ;	../drivers/CoreUARTapb/core_uart_apb.c:98: rx_byte = HAL_get_8bit_reg( this_uart->base_address, RXDATA );
                           1753 ;	genPointerGet
                           1754 ;	genGenPointerGet
   1C20 8A 82              1755 	mov	dpl,r2
   1C22 8B 83              1756 	mov	dph,r3
   1C24 8C F0              1757 	mov	b,r4
   1C26 12 5C 8D           1758 	lcall	__gptrget
   1C29 FD                 1759 	mov	r5,a
   1C2A A3                 1760 	inc	dptr
   1C2B 12 5C 8D           1761 	lcall	__gptrget
   1C2E FE                 1762 	mov	r6,a
                           1763 ;	genPlus
                           1764 ;	genPlusIncr
   1C2F 74 04              1765 	mov	a,#0x04
   1C31 25 05              1766 	add	a,ar5
   1C33 FD                 1767 	mov	r5,a
   1C34 74 00              1768 	mov	a,#0x00
   1C36 35 06              1769 	addc	a,ar6
   1C38 FE                 1770 	mov	r6,a
                           1771 ;	genCall
   1C39 8D 82              1772 	mov	dpl,r5
   1C3B 8E 83              1773 	mov	dph,r6
   1C3D C0 02              1774 	push	ar2
   1C3F C0 03              1775 	push	ar3
   1C41 C0 04              1776 	push	ar4
   1C43 12 08 C7           1777 	lcall	_HW_get_8bit_reg
   1C46 E5 82              1778 	mov	a,dpl
   1C48 D0 04              1779 	pop	ar4
   1C4A D0 03              1780 	pop	ar3
   1C4C D0 02              1781 	pop	ar2
                           1782 ;	genAssign
   1C4E 90 02 5D           1783 	mov	dptr,#_UART_init_rx_byte_3_14
   1C51 F0                 1784 	movx	@dptr,a
                    0736   1785 	C$core_uart_apb.c$99$3$14 ==.
                           1786 ;	../drivers/CoreUARTapb/core_uart_apb.c:99: rx_full = HAL_get_8bit_reg( this_uart->base_address, STATUS ) &
                           1787 ;	genPointerGet
                           1788 ;	genGenPointerGet
   1C52 8A 82              1789 	mov	dpl,r2
   1C54 8B 83              1790 	mov	dph,r3
   1C56 8C F0              1791 	mov	b,r4
   1C58 12 5C 8D           1792 	lcall	__gptrget
   1C5B FD                 1793 	mov	r5,a
   1C5C A3                 1794 	inc	dptr
   1C5D 12 5C 8D           1795 	lcall	__gptrget
   1C60 FE                 1796 	mov	r6,a
                           1797 ;	genPlus
                           1798 ;	genPlusIncr
   1C61 74 10              1799 	mov	a,#0x10
   1C63 25 05              1800 	add	a,ar5
   1C65 FD                 1801 	mov	r5,a
   1C66 74 00              1802 	mov	a,#0x00
   1C68 35 06              1803 	addc	a,ar6
   1C6A FE                 1804 	mov	r6,a
                           1805 ;	genCall
   1C6B 8D 82              1806 	mov	dpl,r5
   1C6D 8E 83              1807 	mov	dph,r6
   1C6F C0 02              1808 	push	ar2
   1C71 C0 03              1809 	push	ar3
   1C73 C0 04              1810 	push	ar4
   1C75 12 08 C7           1811 	lcall	_HW_get_8bit_reg
   1C78 AD 82              1812 	mov	r5,dpl
   1C7A D0 04              1813 	pop	ar4
   1C7C D0 03              1814 	pop	ar3
   1C7E D0 02              1815 	pop	ar2
                           1816 ;	genCast
   1C80 7E 00              1817 	mov	r6,#0x00
                           1818 ;	genAnd
   1C82 53 05 02           1819 	anl	ar5,#0x02
   1C85 7E 00              1820 	mov	r6,#0x00
                           1821 ;	genCast
   1C87 90 01 99           1822 	mov	dptr,#_UART_init_rx_full_1_1
   1C8A ED                 1823 	mov	a,r5
   1C8B F0                 1824 	movx	@dptr,a
   1C8C 02 1C 15           1825 	ljmp	00126$
   1C8F                    1826 00128$:
                    0773   1827 	C$core_uart_apb.c$106$2$8 ==.
                           1828 ;	../drivers/CoreUARTapb/core_uart_apb.c:106: this_uart->status = (uint8_t)0;
                           1829 ;	genAssign
   1C8F 90 01 96           1830 	mov	dptr,#_UART_init_this_uart_1_1
   1C92 E0                 1831 	movx	a,@dptr
   1C93 FA                 1832 	mov	r2,a
   1C94 A3                 1833 	inc	dptr
   1C95 E0                 1834 	movx	a,@dptr
   1C96 FB                 1835 	mov	r3,a
   1C97 A3                 1836 	inc	dptr
   1C98 E0                 1837 	movx	a,@dptr
   1C99 FC                 1838 	mov	r4,a
                           1839 ;	genPlus
                           1840 ;	genPlusIncr
   1C9A 74 02              1841 	mov	a,#0x02
   1C9C 25 02              1842 	add	a,ar2
   1C9E FA                 1843 	mov	r2,a
   1C9F 74 00              1844 	mov	a,#0x00
   1CA1 35 03              1845 	addc	a,ar3
   1CA3 FB                 1846 	mov	r3,a
                           1847 ;	genPointerSet
                           1848 ;	genGenPointerSet
   1CA4 8A 82              1849 	mov	dpl,r2
   1CA6 8B 83              1850 	mov	dph,r3
   1CA8 8C F0              1851 	mov	b,r4
   1CAA 74 00              1852 	mov	a,#0x00
   1CAC 12 5C 54           1853 	lcall	__gptrput
   1CAF                    1854 00133$:
                    0793   1855 	C$core_uart_apb.c$108$2$1 ==.
                    0793   1856 	XG$UART_init$0$0 ==.
   1CAF 22                 1857 	ret
                           1858 ;------------------------------------------------------------
                           1859 ;Allocation info for local variables in function 'UART_send'
                           1860 ;------------------------------------------------------------
                           1861 ;sloc0                     Allocated with name '_UART_send_sloc0_1_0'
                           1862 ;sloc1                     Allocated with name '_UART_send_sloc1_1_0'
                           1863 ;tx_buffer                 Allocated with name '_UART_send_PARM_2'
                           1864 ;tx_size                   Allocated with name '_UART_send_PARM_3'
                           1865 ;this_uart                 Allocated with name '_UART_send_this_uart_1_1'
                           1866 ;char_idx                  Allocated with name '_UART_send_char_idx_1_1'
                           1867 ;tx_ready                  Allocated with name '_UART_send_tx_ready_1_1'
                           1868 ;file_name                 Allocated with name '_UART_send_file_name_3_3'
                           1869 ;file_name                 Allocated with name '_UART_send_file_name_3_5'
                           1870 ;file_name                 Allocated with name '_UART_send_file_name_3_7'
                           1871 ;------------------------------------------------------------
                    0794   1872 	G$UART_send$0$0 ==.
                    0794   1873 	C$core_uart_apb.c$115$2$1 ==.
                           1874 ;	../drivers/CoreUARTapb/core_uart_apb.c:115: UART_send
                           1875 ;	-----------------------------------------
                           1876 ;	 function UART_send
                           1877 ;	-----------------------------------------
   1CB0                    1878 _UART_send:
                           1879 ;	genReceive
   1CB0 AA F0              1880 	mov	r2,b
   1CB2 AB 83              1881 	mov	r3,dph
   1CB4 E5 82              1882 	mov	a,dpl
   1CB6 90 02 63           1883 	mov	dptr,#_UART_send_this_uart_1_1
   1CB9 F0                 1884 	movx	@dptr,a
   1CBA A3                 1885 	inc	dptr
   1CBB EB                 1886 	mov	a,r3
   1CBC F0                 1887 	movx	@dptr,a
   1CBD A3                 1888 	inc	dptr
   1CBE EA                 1889 	mov	a,r2
   1CBF F0                 1890 	movx	@dptr,a
                    07A4   1891 	C$core_uart_apb.c$125$2$2 ==.
                           1892 ;	../drivers/CoreUARTapb/core_uart_apb.c:125: HAL_ASSERT( this_uart != NULL_INSTANCE )
                           1893 ;	genAssign
   1CC0 90 02 63           1894 	mov	dptr,#_UART_send_this_uart_1_1
   1CC3 E0                 1895 	movx	a,@dptr
   1CC4 FA                 1896 	mov	r2,a
   1CC5 A3                 1897 	inc	dptr
   1CC6 E0                 1898 	movx	a,@dptr
   1CC7 FB                 1899 	mov	r3,a
   1CC8 A3                 1900 	inc	dptr
   1CC9 E0                 1901 	movx	a,@dptr
   1CCA FC                 1902 	mov	r4,a
                           1903 ;	genCmpEq
                           1904 ;	gencjneshort
   1CCB BA 00 08           1905 	cjne	r2,#0x00,00138$
   1CCE BB 00 05           1906 	cjne	r3,#0x00,00138$
   1CD1 BC 00 02           1907 	cjne	r4,#0x00,00138$
   1CD4 80 03              1908 	sjmp	00139$
   1CD6                    1909 00138$:
   1CD6 02 1D DC           1910 	ljmp	00104$
   1CD9                    1911 00139$:
                           1912 ;	genPointerSet
                           1913 ;     genFarPointerSet
   1CD9 90 02 68           1914 	mov	dptr,#_UART_send_file_name_3_3
   1CDC 74 2E              1915 	mov	a,#0x2E
   1CDE F0                 1916 	movx	@dptr,a
                           1917 ;	genPointerSet
                           1918 ;     genFarPointerSet
   1CDF 90 02 69           1919 	mov	dptr,#(_UART_send_file_name_3_3 + 0x0001)
   1CE2 74 2E              1920 	mov	a,#0x2E
   1CE4 F0                 1921 	movx	@dptr,a
                           1922 ;	genPointerSet
                           1923 ;     genFarPointerSet
   1CE5 90 02 6A           1924 	mov	dptr,#(_UART_send_file_name_3_3 + 0x0002)
   1CE8 74 2F              1925 	mov	a,#0x2F
   1CEA F0                 1926 	movx	@dptr,a
                           1927 ;	genPointerSet
                           1928 ;     genFarPointerSet
   1CEB 90 02 6B           1929 	mov	dptr,#(_UART_send_file_name_3_3 + 0x0003)
   1CEE 74 64              1930 	mov	a,#0x64
   1CF0 F0                 1931 	movx	@dptr,a
                           1932 ;	genPointerSet
                           1933 ;     genFarPointerSet
   1CF1 90 02 6C           1934 	mov	dptr,#(_UART_send_file_name_3_3 + 0x0004)
   1CF4 74 72              1935 	mov	a,#0x72
   1CF6 F0                 1936 	movx	@dptr,a
                           1937 ;	genPointerSet
                           1938 ;     genFarPointerSet
   1CF7 90 02 6D           1939 	mov	dptr,#(_UART_send_file_name_3_3 + 0x0005)
   1CFA 74 69              1940 	mov	a,#0x69
   1CFC F0                 1941 	movx	@dptr,a
                           1942 ;	genPointerSet
                           1943 ;     genFarPointerSet
   1CFD 90 02 6E           1944 	mov	dptr,#(_UART_send_file_name_3_3 + 0x0006)
   1D00 74 76              1945 	mov	a,#0x76
   1D02 F0                 1946 	movx	@dptr,a
                           1947 ;	genPointerSet
                           1948 ;     genFarPointerSet
   1D03 90 02 6F           1949 	mov	dptr,#(_UART_send_file_name_3_3 + 0x0007)
   1D06 74 65              1950 	mov	a,#0x65
   1D08 F0                 1951 	movx	@dptr,a
                           1952 ;	genPointerSet
                           1953 ;     genFarPointerSet
   1D09 90 02 70           1954 	mov	dptr,#(_UART_send_file_name_3_3 + 0x0008)
   1D0C 74 72              1955 	mov	a,#0x72
   1D0E F0                 1956 	movx	@dptr,a
                           1957 ;	genPointerSet
                           1958 ;     genFarPointerSet
   1D0F 90 02 71           1959 	mov	dptr,#(_UART_send_file_name_3_3 + 0x0009)
   1D12 74 73              1960 	mov	a,#0x73
   1D14 F0                 1961 	movx	@dptr,a
                           1962 ;	genPointerSet
                           1963 ;     genFarPointerSet
   1D15 90 02 72           1964 	mov	dptr,#(_UART_send_file_name_3_3 + 0x000a)
   1D18 74 2F              1965 	mov	a,#0x2F
   1D1A F0                 1966 	movx	@dptr,a
                           1967 ;	genPointerSet
                           1968 ;     genFarPointerSet
   1D1B 90 02 73           1969 	mov	dptr,#(_UART_send_file_name_3_3 + 0x000b)
   1D1E 74 43              1970 	mov	a,#0x43
   1D20 F0                 1971 	movx	@dptr,a
                           1972 ;	genPointerSet
                           1973 ;     genFarPointerSet
   1D21 90 02 74           1974 	mov	dptr,#(_UART_send_file_name_3_3 + 0x000c)
   1D24 74 6F              1975 	mov	a,#0x6F
   1D26 F0                 1976 	movx	@dptr,a
                           1977 ;	genPointerSet
                           1978 ;     genFarPointerSet
   1D27 90 02 75           1979 	mov	dptr,#(_UART_send_file_name_3_3 + 0x000d)
   1D2A 74 72              1980 	mov	a,#0x72
   1D2C F0                 1981 	movx	@dptr,a
                           1982 ;	genPointerSet
                           1983 ;     genFarPointerSet
   1D2D 90 02 76           1984 	mov	dptr,#(_UART_send_file_name_3_3 + 0x000e)
   1D30 74 65              1985 	mov	a,#0x65
   1D32 F0                 1986 	movx	@dptr,a
                           1987 ;	genPointerSet
                           1988 ;     genFarPointerSet
   1D33 90 02 77           1989 	mov	dptr,#(_UART_send_file_name_3_3 + 0x000f)
   1D36 74 55              1990 	mov	a,#0x55
   1D38 F0                 1991 	movx	@dptr,a
                           1992 ;	genPointerSet
                           1993 ;     genFarPointerSet
   1D39 90 02 78           1994 	mov	dptr,#(_UART_send_file_name_3_3 + 0x0010)
   1D3C 74 41              1995 	mov	a,#0x41
   1D3E F0                 1996 	movx	@dptr,a
                           1997 ;	genPointerSet
                           1998 ;     genFarPointerSet
   1D3F 90 02 79           1999 	mov	dptr,#(_UART_send_file_name_3_3 + 0x0011)
   1D42 74 52              2000 	mov	a,#0x52
   1D44 F0                 2001 	movx	@dptr,a
                           2002 ;	genPointerSet
                           2003 ;     genFarPointerSet
   1D45 90 02 7A           2004 	mov	dptr,#(_UART_send_file_name_3_3 + 0x0012)
   1D48 74 54              2005 	mov	a,#0x54
   1D4A F0                 2006 	movx	@dptr,a
                           2007 ;	genPointerSet
                           2008 ;     genFarPointerSet
   1D4B 90 02 7B           2009 	mov	dptr,#(_UART_send_file_name_3_3 + 0x0013)
   1D4E 74 61              2010 	mov	a,#0x61
   1D50 F0                 2011 	movx	@dptr,a
                           2012 ;	genPointerSet
                           2013 ;     genFarPointerSet
   1D51 90 02 7C           2014 	mov	dptr,#(_UART_send_file_name_3_3 + 0x0014)
   1D54 74 70              2015 	mov	a,#0x70
   1D56 F0                 2016 	movx	@dptr,a
                           2017 ;	genPointerSet
                           2018 ;     genFarPointerSet
   1D57 90 02 7D           2019 	mov	dptr,#(_UART_send_file_name_3_3 + 0x0015)
   1D5A 74 62              2020 	mov	a,#0x62
   1D5C F0                 2021 	movx	@dptr,a
                           2022 ;	genPointerSet
                           2023 ;     genFarPointerSet
   1D5D 90 02 7E           2024 	mov	dptr,#(_UART_send_file_name_3_3 + 0x0016)
   1D60 74 2F              2025 	mov	a,#0x2F
   1D62 F0                 2026 	movx	@dptr,a
                           2027 ;	genPointerSet
                           2028 ;     genFarPointerSet
   1D63 90 02 7F           2029 	mov	dptr,#(_UART_send_file_name_3_3 + 0x0017)
   1D66 74 63              2030 	mov	a,#0x63
   1D68 F0                 2031 	movx	@dptr,a
                           2032 ;	genPointerSet
                           2033 ;     genFarPointerSet
   1D69 90 02 80           2034 	mov	dptr,#(_UART_send_file_name_3_3 + 0x0018)
   1D6C 74 6F              2035 	mov	a,#0x6F
   1D6E F0                 2036 	movx	@dptr,a
                           2037 ;	genPointerSet
                           2038 ;     genFarPointerSet
   1D6F 90 02 81           2039 	mov	dptr,#(_UART_send_file_name_3_3 + 0x0019)
   1D72 74 72              2040 	mov	a,#0x72
   1D74 F0                 2041 	movx	@dptr,a
                           2042 ;	genPointerSet
                           2043 ;     genFarPointerSet
   1D75 90 02 82           2044 	mov	dptr,#(_UART_send_file_name_3_3 + 0x001a)
   1D78 74 65              2045 	mov	a,#0x65
   1D7A F0                 2046 	movx	@dptr,a
                           2047 ;	genPointerSet
                           2048 ;     genFarPointerSet
   1D7B 90 02 83           2049 	mov	dptr,#(_UART_send_file_name_3_3 + 0x001b)
   1D7E 74 5F              2050 	mov	a,#0x5F
   1D80 F0                 2051 	movx	@dptr,a
                           2052 ;	genPointerSet
                           2053 ;     genFarPointerSet
   1D81 90 02 84           2054 	mov	dptr,#(_UART_send_file_name_3_3 + 0x001c)
   1D84 74 75              2055 	mov	a,#0x75
   1D86 F0                 2056 	movx	@dptr,a
                           2057 ;	genPointerSet
                           2058 ;     genFarPointerSet
   1D87 90 02 85           2059 	mov	dptr,#(_UART_send_file_name_3_3 + 0x001d)
   1D8A 74 61              2060 	mov	a,#0x61
   1D8C F0                 2061 	movx	@dptr,a
                           2062 ;	genPointerSet
                           2063 ;     genFarPointerSet
   1D8D 90 02 86           2064 	mov	dptr,#(_UART_send_file_name_3_3 + 0x001e)
   1D90 74 72              2065 	mov	a,#0x72
   1D92 F0                 2066 	movx	@dptr,a
                           2067 ;	genPointerSet
                           2068 ;     genFarPointerSet
   1D93 90 02 87           2069 	mov	dptr,#(_UART_send_file_name_3_3 + 0x001f)
   1D96 74 74              2070 	mov	a,#0x74
   1D98 F0                 2071 	movx	@dptr,a
                           2072 ;	genPointerSet
                           2073 ;     genFarPointerSet
   1D99 90 02 88           2074 	mov	dptr,#(_UART_send_file_name_3_3 + 0x0020)
   1D9C 74 5F              2075 	mov	a,#0x5F
   1D9E F0                 2076 	movx	@dptr,a
                           2077 ;	genPointerSet
                           2078 ;     genFarPointerSet
   1D9F 90 02 89           2079 	mov	dptr,#(_UART_send_file_name_3_3 + 0x0021)
   1DA2 74 61              2080 	mov	a,#0x61
   1DA4 F0                 2081 	movx	@dptr,a
                           2082 ;	genPointerSet
                           2083 ;     genFarPointerSet
   1DA5 90 02 8A           2084 	mov	dptr,#(_UART_send_file_name_3_3 + 0x0022)
   1DA8 74 70              2085 	mov	a,#0x70
   1DAA F0                 2086 	movx	@dptr,a
                           2087 ;	genPointerSet
                           2088 ;     genFarPointerSet
   1DAB 90 02 8B           2089 	mov	dptr,#(_UART_send_file_name_3_3 + 0x0023)
   1DAE 74 62              2090 	mov	a,#0x62
   1DB0 F0                 2091 	movx	@dptr,a
                           2092 ;	genPointerSet
                           2093 ;     genFarPointerSet
   1DB1 90 02 8C           2094 	mov	dptr,#(_UART_send_file_name_3_3 + 0x0024)
   1DB4 74 2E              2095 	mov	a,#0x2E
   1DB6 F0                 2096 	movx	@dptr,a
                           2097 ;	genPointerSet
                           2098 ;     genFarPointerSet
   1DB7 90 02 8D           2099 	mov	dptr,#(_UART_send_file_name_3_3 + 0x0025)
   1DBA 74 63              2100 	mov	a,#0x63
   1DBC F0                 2101 	movx	@dptr,a
                           2102 ;	genPointerSet
                           2103 ;     genFarPointerSet
   1DBD 90 02 8E           2104 	mov	dptr,#(_UART_send_file_name_3_3 + 0x0026)
   1DC0 74 00              2105 	mov	a,#0x00
   1DC2 F0                 2106 	movx	@dptr,a
                           2107 ;	genAssign
   1DC3 90 00 2E           2108 	mov	dptr,#_HAL_assert_fail_PARM_2
   1DC6 74 7D              2109 	mov	a,#0x7D
   1DC8 F0                 2110 	movx	@dptr,a
   1DC9 E4                 2111 	clr	a
   1DCA A3                 2112 	inc	dptr
   1DCB F0                 2113 	movx	@dptr,a
   1DCC A3                 2114 	inc	dptr
   1DCD F0                 2115 	movx	@dptr,a
   1DCE A3                 2116 	inc	dptr
   1DCF F0                 2117 	movx	@dptr,a
                           2118 ;	genCall
   1DD0 75 82 68           2119 	mov	dpl,#_UART_send_file_name_3_3
   1DD3 75 83 02           2120 	mov	dph,#(_UART_send_file_name_3_3 >> 8)
   1DD6 75 F0 00           2121 	mov	b,#0x00
   1DD9 12 08 16           2122 	lcall	_HAL_assert_fail
   1DDC                    2123 00104$:
                    08C0   2124 	C$core_uart_apb.c$126$2$4 ==.
                           2125 ;	../drivers/CoreUARTapb/core_uart_apb.c:126: HAL_ASSERT( tx_buffer != NULL_BUFFER )
                           2126 ;	genAssign
   1DDC 90 02 5E           2127 	mov	dptr,#_UART_send_PARM_2
   1DDF E0                 2128 	movx	a,@dptr
   1DE0 F5 2E              2129 	mov	_UART_send_sloc1_1_0,a
   1DE2 A3                 2130 	inc	dptr
   1DE3 E0                 2131 	movx	a,@dptr
   1DE4 F5 2F              2132 	mov	(_UART_send_sloc1_1_0 + 1),a
   1DE6 A3                 2133 	inc	dptr
   1DE7 E0                 2134 	movx	a,@dptr
   1DE8 F5 30              2135 	mov	(_UART_send_sloc1_1_0 + 2),a
                           2136 ;	genCmpEq
                           2137 ;	gencjne
                           2138 ;	gencjneshort
   1DEA E5 2E              2139 	mov	a,_UART_send_sloc1_1_0
   1DEC 70 0C              2140 	jnz	00140$
   1DEE E5 2F              2141 	mov	a,(_UART_send_sloc1_1_0 + 1)
   1DF0 70 08              2142 	jnz	00140$
   1DF2 E5 30              2143 	mov	a,(_UART_send_sloc1_1_0 + 2)
   1DF4 70 04              2144 	jnz	00140$
   1DF6 74 01              2145 	mov	a,#0x01
   1DF8 80 01              2146 	sjmp	00141$
   1DFA                    2147 00140$:
   1DFA E4                 2148 	clr	a
   1DFB                    2149 00141$:
   1DFB FD                 2150 	mov	r5,a
                           2151 ;	genIfx
   1DFC ED                 2152 	mov	a,r5
                           2153 ;	genIfxJump
   1DFD 70 03              2154 	jnz	00142$
   1DFF 02 1F 09           2155 	ljmp	00109$
   1E02                    2156 00142$:
                           2157 ;	genPointerSet
                           2158 ;     genFarPointerSet
   1E02 90 02 8F           2159 	mov	dptr,#_UART_send_file_name_3_5
   1E05 74 2E              2160 	mov	a,#0x2E
   1E07 F0                 2161 	movx	@dptr,a
                           2162 ;	genPointerSet
                           2163 ;     genFarPointerSet
   1E08 90 02 90           2164 	mov	dptr,#(_UART_send_file_name_3_5 + 0x0001)
   1E0B 74 2E              2165 	mov	a,#0x2E
   1E0D F0                 2166 	movx	@dptr,a
                           2167 ;	genPointerSet
                           2168 ;     genFarPointerSet
   1E0E 90 02 91           2169 	mov	dptr,#(_UART_send_file_name_3_5 + 0x0002)
   1E11 74 2F              2170 	mov	a,#0x2F
   1E13 F0                 2171 	movx	@dptr,a
                           2172 ;	genPointerSet
                           2173 ;     genFarPointerSet
   1E14 90 02 92           2174 	mov	dptr,#(_UART_send_file_name_3_5 + 0x0003)
   1E17 74 64              2175 	mov	a,#0x64
   1E19 F0                 2176 	movx	@dptr,a
                           2177 ;	genPointerSet
                           2178 ;     genFarPointerSet
   1E1A 90 02 93           2179 	mov	dptr,#(_UART_send_file_name_3_5 + 0x0004)
   1E1D 74 72              2180 	mov	a,#0x72
   1E1F F0                 2181 	movx	@dptr,a
                           2182 ;	genPointerSet
                           2183 ;     genFarPointerSet
   1E20 90 02 94           2184 	mov	dptr,#(_UART_send_file_name_3_5 + 0x0005)
   1E23 74 69              2185 	mov	a,#0x69
   1E25 F0                 2186 	movx	@dptr,a
                           2187 ;	genPointerSet
                           2188 ;     genFarPointerSet
   1E26 90 02 95           2189 	mov	dptr,#(_UART_send_file_name_3_5 + 0x0006)
   1E29 74 76              2190 	mov	a,#0x76
   1E2B F0                 2191 	movx	@dptr,a
                           2192 ;	genPointerSet
                           2193 ;     genFarPointerSet
   1E2C 90 02 96           2194 	mov	dptr,#(_UART_send_file_name_3_5 + 0x0007)
   1E2F 74 65              2195 	mov	a,#0x65
   1E31 F0                 2196 	movx	@dptr,a
                           2197 ;	genPointerSet
                           2198 ;     genFarPointerSet
   1E32 90 02 97           2199 	mov	dptr,#(_UART_send_file_name_3_5 + 0x0008)
   1E35 74 72              2200 	mov	a,#0x72
   1E37 F0                 2201 	movx	@dptr,a
                           2202 ;	genPointerSet
                           2203 ;     genFarPointerSet
   1E38 90 02 98           2204 	mov	dptr,#(_UART_send_file_name_3_5 + 0x0009)
   1E3B 74 73              2205 	mov	a,#0x73
   1E3D F0                 2206 	movx	@dptr,a
                           2207 ;	genPointerSet
                           2208 ;     genFarPointerSet
   1E3E 90 02 99           2209 	mov	dptr,#(_UART_send_file_name_3_5 + 0x000a)
   1E41 74 2F              2210 	mov	a,#0x2F
   1E43 F0                 2211 	movx	@dptr,a
                           2212 ;	genPointerSet
                           2213 ;     genFarPointerSet
   1E44 90 02 9A           2214 	mov	dptr,#(_UART_send_file_name_3_5 + 0x000b)
   1E47 74 43              2215 	mov	a,#0x43
   1E49 F0                 2216 	movx	@dptr,a
                           2217 ;	genPointerSet
                           2218 ;     genFarPointerSet
   1E4A 90 02 9B           2219 	mov	dptr,#(_UART_send_file_name_3_5 + 0x000c)
   1E4D 74 6F              2220 	mov	a,#0x6F
   1E4F F0                 2221 	movx	@dptr,a
                           2222 ;	genPointerSet
                           2223 ;     genFarPointerSet
   1E50 90 02 9C           2224 	mov	dptr,#(_UART_send_file_name_3_5 + 0x000d)
   1E53 74 72              2225 	mov	a,#0x72
   1E55 F0                 2226 	movx	@dptr,a
                           2227 ;	genPointerSet
                           2228 ;     genFarPointerSet
   1E56 90 02 9D           2229 	mov	dptr,#(_UART_send_file_name_3_5 + 0x000e)
   1E59 74 65              2230 	mov	a,#0x65
   1E5B F0                 2231 	movx	@dptr,a
                           2232 ;	genPointerSet
                           2233 ;     genFarPointerSet
   1E5C 90 02 9E           2234 	mov	dptr,#(_UART_send_file_name_3_5 + 0x000f)
   1E5F 74 55              2235 	mov	a,#0x55
   1E61 F0                 2236 	movx	@dptr,a
                           2237 ;	genPointerSet
                           2238 ;     genFarPointerSet
   1E62 90 02 9F           2239 	mov	dptr,#(_UART_send_file_name_3_5 + 0x0010)
   1E65 74 41              2240 	mov	a,#0x41
   1E67 F0                 2241 	movx	@dptr,a
                           2242 ;	genPointerSet
                           2243 ;     genFarPointerSet
   1E68 90 02 A0           2244 	mov	dptr,#(_UART_send_file_name_3_5 + 0x0011)
   1E6B 74 52              2245 	mov	a,#0x52
   1E6D F0                 2246 	movx	@dptr,a
                           2247 ;	genPointerSet
                           2248 ;     genFarPointerSet
   1E6E 90 02 A1           2249 	mov	dptr,#(_UART_send_file_name_3_5 + 0x0012)
   1E71 74 54              2250 	mov	a,#0x54
   1E73 F0                 2251 	movx	@dptr,a
                           2252 ;	genPointerSet
                           2253 ;     genFarPointerSet
   1E74 90 02 A2           2254 	mov	dptr,#(_UART_send_file_name_3_5 + 0x0013)
   1E77 74 61              2255 	mov	a,#0x61
   1E79 F0                 2256 	movx	@dptr,a
                           2257 ;	genPointerSet
                           2258 ;     genFarPointerSet
   1E7A 90 02 A3           2259 	mov	dptr,#(_UART_send_file_name_3_5 + 0x0014)
   1E7D 74 70              2260 	mov	a,#0x70
   1E7F F0                 2261 	movx	@dptr,a
                           2262 ;	genPointerSet
                           2263 ;     genFarPointerSet
   1E80 90 02 A4           2264 	mov	dptr,#(_UART_send_file_name_3_5 + 0x0015)
   1E83 74 62              2265 	mov	a,#0x62
   1E85 F0                 2266 	movx	@dptr,a
                           2267 ;	genPointerSet
                           2268 ;     genFarPointerSet
   1E86 90 02 A5           2269 	mov	dptr,#(_UART_send_file_name_3_5 + 0x0016)
   1E89 74 2F              2270 	mov	a,#0x2F
   1E8B F0                 2271 	movx	@dptr,a
                           2272 ;	genPointerSet
                           2273 ;     genFarPointerSet
   1E8C 90 02 A6           2274 	mov	dptr,#(_UART_send_file_name_3_5 + 0x0017)
   1E8F 74 63              2275 	mov	a,#0x63
   1E91 F0                 2276 	movx	@dptr,a
                           2277 ;	genPointerSet
                           2278 ;     genFarPointerSet
   1E92 90 02 A7           2279 	mov	dptr,#(_UART_send_file_name_3_5 + 0x0018)
   1E95 74 6F              2280 	mov	a,#0x6F
   1E97 F0                 2281 	movx	@dptr,a
                           2282 ;	genPointerSet
                           2283 ;     genFarPointerSet
   1E98 90 02 A8           2284 	mov	dptr,#(_UART_send_file_name_3_5 + 0x0019)
   1E9B 74 72              2285 	mov	a,#0x72
   1E9D F0                 2286 	movx	@dptr,a
                           2287 ;	genPointerSet
                           2288 ;     genFarPointerSet
   1E9E 90 02 A9           2289 	mov	dptr,#(_UART_send_file_name_3_5 + 0x001a)
   1EA1 74 65              2290 	mov	a,#0x65
   1EA3 F0                 2291 	movx	@dptr,a
                           2292 ;	genPointerSet
                           2293 ;     genFarPointerSet
   1EA4 90 02 AA           2294 	mov	dptr,#(_UART_send_file_name_3_5 + 0x001b)
   1EA7 74 5F              2295 	mov	a,#0x5F
   1EA9 F0                 2296 	movx	@dptr,a
                           2297 ;	genPointerSet
                           2298 ;     genFarPointerSet
   1EAA 90 02 AB           2299 	mov	dptr,#(_UART_send_file_name_3_5 + 0x001c)
   1EAD 74 75              2300 	mov	a,#0x75
   1EAF F0                 2301 	movx	@dptr,a
                           2302 ;	genPointerSet
                           2303 ;     genFarPointerSet
   1EB0 90 02 AC           2304 	mov	dptr,#(_UART_send_file_name_3_5 + 0x001d)
   1EB3 74 61              2305 	mov	a,#0x61
   1EB5 F0                 2306 	movx	@dptr,a
                           2307 ;	genPointerSet
                           2308 ;     genFarPointerSet
   1EB6 90 02 AD           2309 	mov	dptr,#(_UART_send_file_name_3_5 + 0x001e)
   1EB9 74 72              2310 	mov	a,#0x72
   1EBB F0                 2311 	movx	@dptr,a
                           2312 ;	genPointerSet
                           2313 ;     genFarPointerSet
   1EBC 90 02 AE           2314 	mov	dptr,#(_UART_send_file_name_3_5 + 0x001f)
   1EBF 74 74              2315 	mov	a,#0x74
   1EC1 F0                 2316 	movx	@dptr,a
                           2317 ;	genPointerSet
                           2318 ;     genFarPointerSet
   1EC2 90 02 AF           2319 	mov	dptr,#(_UART_send_file_name_3_5 + 0x0020)
   1EC5 74 5F              2320 	mov	a,#0x5F
   1EC7 F0                 2321 	movx	@dptr,a
                           2322 ;	genPointerSet
                           2323 ;     genFarPointerSet
   1EC8 90 02 B0           2324 	mov	dptr,#(_UART_send_file_name_3_5 + 0x0021)
   1ECB 74 61              2325 	mov	a,#0x61
   1ECD F0                 2326 	movx	@dptr,a
                           2327 ;	genPointerSet
                           2328 ;     genFarPointerSet
   1ECE 90 02 B1           2329 	mov	dptr,#(_UART_send_file_name_3_5 + 0x0022)
   1ED1 74 70              2330 	mov	a,#0x70
   1ED3 F0                 2331 	movx	@dptr,a
                           2332 ;	genPointerSet
                           2333 ;     genFarPointerSet
   1ED4 90 02 B2           2334 	mov	dptr,#(_UART_send_file_name_3_5 + 0x0023)
   1ED7 74 62              2335 	mov	a,#0x62
   1ED9 F0                 2336 	movx	@dptr,a
                           2337 ;	genPointerSet
                           2338 ;     genFarPointerSet
   1EDA 90 02 B3           2339 	mov	dptr,#(_UART_send_file_name_3_5 + 0x0024)
   1EDD 74 2E              2340 	mov	a,#0x2E
   1EDF F0                 2341 	movx	@dptr,a
                           2342 ;	genPointerSet
                           2343 ;     genFarPointerSet
   1EE0 90 02 B4           2344 	mov	dptr,#(_UART_send_file_name_3_5 + 0x0025)
   1EE3 74 63              2345 	mov	a,#0x63
   1EE5 F0                 2346 	movx	@dptr,a
                           2347 ;	genPointerSet
                           2348 ;     genFarPointerSet
   1EE6 90 02 B5           2349 	mov	dptr,#(_UART_send_file_name_3_5 + 0x0026)
   1EE9 74 00              2350 	mov	a,#0x00
   1EEB F0                 2351 	movx	@dptr,a
                           2352 ;	genAssign
   1EEC 90 00 2E           2353 	mov	dptr,#_HAL_assert_fail_PARM_2
   1EEF 74 7E              2354 	mov	a,#0x7E
   1EF1 F0                 2355 	movx	@dptr,a
   1EF2 E4                 2356 	clr	a
   1EF3 A3                 2357 	inc	dptr
   1EF4 F0                 2358 	movx	@dptr,a
   1EF5 A3                 2359 	inc	dptr
   1EF6 F0                 2360 	movx	@dptr,a
   1EF7 A3                 2361 	inc	dptr
   1EF8 F0                 2362 	movx	@dptr,a
                           2363 ;	genCall
   1EF9 75 82 8F           2364 	mov	dpl,#_UART_send_file_name_3_5
   1EFC 75 83 02           2365 	mov	dph,#(_UART_send_file_name_3_5 >> 8)
   1EFF 75 F0 00           2366 	mov	b,#0x00
   1F02 C0 05              2367 	push	ar5
   1F04 12 08 16           2368 	lcall	_HAL_assert_fail
   1F07 D0 05              2369 	pop	ar5
   1F09                    2370 00109$:
                    09ED   2371 	C$core_uart_apb.c$127$2$6 ==.
                           2372 ;	../drivers/CoreUARTapb/core_uart_apb.c:127: HAL_ASSERT( tx_size > 0 )
                           2373 ;	genAssign
   1F09 90 02 61           2374 	mov	dptr,#_UART_send_PARM_3
   1F0C E0                 2375 	movx	a,@dptr
   1F0D FE                 2376 	mov	r6,a
   1F0E A3                 2377 	inc	dptr
   1F0F E0                 2378 	movx	a,@dptr
   1F10 FF                 2379 	mov	r7,a
                           2380 ;	genIfx
   1F11 EE                 2381 	mov	a,r6
   1F12 4F                 2382 	orl	a,r7
                           2383 ;	genIfxJump
   1F13 60 03              2384 	jz	00143$
   1F15 02 20 27           2385 	ljmp	00114$
   1F18                    2386 00143$:
                           2387 ;	genPointerSet
                           2388 ;     genFarPointerSet
   1F18 90 02 B6           2389 	mov	dptr,#_UART_send_file_name_3_7
   1F1B 74 2E              2390 	mov	a,#0x2E
   1F1D F0                 2391 	movx	@dptr,a
                           2392 ;	genPointerSet
                           2393 ;     genFarPointerSet
   1F1E 90 02 B7           2394 	mov	dptr,#(_UART_send_file_name_3_7 + 0x0001)
   1F21 74 2E              2395 	mov	a,#0x2E
   1F23 F0                 2396 	movx	@dptr,a
                           2397 ;	genPointerSet
                           2398 ;     genFarPointerSet
   1F24 90 02 B8           2399 	mov	dptr,#(_UART_send_file_name_3_7 + 0x0002)
   1F27 74 2F              2400 	mov	a,#0x2F
   1F29 F0                 2401 	movx	@dptr,a
                           2402 ;	genPointerSet
                           2403 ;     genFarPointerSet
   1F2A 90 02 B9           2404 	mov	dptr,#(_UART_send_file_name_3_7 + 0x0003)
   1F2D 74 64              2405 	mov	a,#0x64
   1F2F F0                 2406 	movx	@dptr,a
                           2407 ;	genPointerSet
                           2408 ;     genFarPointerSet
   1F30 90 02 BA           2409 	mov	dptr,#(_UART_send_file_name_3_7 + 0x0004)
   1F33 74 72              2410 	mov	a,#0x72
   1F35 F0                 2411 	movx	@dptr,a
                           2412 ;	genPointerSet
                           2413 ;     genFarPointerSet
   1F36 90 02 BB           2414 	mov	dptr,#(_UART_send_file_name_3_7 + 0x0005)
   1F39 74 69              2415 	mov	a,#0x69
   1F3B F0                 2416 	movx	@dptr,a
                           2417 ;	genPointerSet
                           2418 ;     genFarPointerSet
   1F3C 90 02 BC           2419 	mov	dptr,#(_UART_send_file_name_3_7 + 0x0006)
   1F3F 74 76              2420 	mov	a,#0x76
   1F41 F0                 2421 	movx	@dptr,a
                           2422 ;	genPointerSet
                           2423 ;     genFarPointerSet
   1F42 90 02 BD           2424 	mov	dptr,#(_UART_send_file_name_3_7 + 0x0007)
   1F45 74 65              2425 	mov	a,#0x65
   1F47 F0                 2426 	movx	@dptr,a
                           2427 ;	genPointerSet
                           2428 ;     genFarPointerSet
   1F48 90 02 BE           2429 	mov	dptr,#(_UART_send_file_name_3_7 + 0x0008)
   1F4B 74 72              2430 	mov	a,#0x72
   1F4D F0                 2431 	movx	@dptr,a
                           2432 ;	genPointerSet
                           2433 ;     genFarPointerSet
   1F4E 90 02 BF           2434 	mov	dptr,#(_UART_send_file_name_3_7 + 0x0009)
   1F51 74 73              2435 	mov	a,#0x73
   1F53 F0                 2436 	movx	@dptr,a
                           2437 ;	genPointerSet
                           2438 ;     genFarPointerSet
   1F54 90 02 C0           2439 	mov	dptr,#(_UART_send_file_name_3_7 + 0x000a)
   1F57 74 2F              2440 	mov	a,#0x2F
   1F59 F0                 2441 	movx	@dptr,a
                           2442 ;	genPointerSet
                           2443 ;     genFarPointerSet
   1F5A 90 02 C1           2444 	mov	dptr,#(_UART_send_file_name_3_7 + 0x000b)
   1F5D 74 43              2445 	mov	a,#0x43
   1F5F F0                 2446 	movx	@dptr,a
                           2447 ;	genPointerSet
                           2448 ;     genFarPointerSet
   1F60 90 02 C2           2449 	mov	dptr,#(_UART_send_file_name_3_7 + 0x000c)
   1F63 74 6F              2450 	mov	a,#0x6F
   1F65 F0                 2451 	movx	@dptr,a
                           2452 ;	genPointerSet
                           2453 ;     genFarPointerSet
   1F66 90 02 C3           2454 	mov	dptr,#(_UART_send_file_name_3_7 + 0x000d)
   1F69 74 72              2455 	mov	a,#0x72
   1F6B F0                 2456 	movx	@dptr,a
                           2457 ;	genPointerSet
                           2458 ;     genFarPointerSet
   1F6C 90 02 C4           2459 	mov	dptr,#(_UART_send_file_name_3_7 + 0x000e)
   1F6F 74 65              2460 	mov	a,#0x65
   1F71 F0                 2461 	movx	@dptr,a
                           2462 ;	genPointerSet
                           2463 ;     genFarPointerSet
   1F72 90 02 C5           2464 	mov	dptr,#(_UART_send_file_name_3_7 + 0x000f)
   1F75 74 55              2465 	mov	a,#0x55
   1F77 F0                 2466 	movx	@dptr,a
                           2467 ;	genPointerSet
                           2468 ;     genFarPointerSet
   1F78 90 02 C6           2469 	mov	dptr,#(_UART_send_file_name_3_7 + 0x0010)
   1F7B 74 41              2470 	mov	a,#0x41
   1F7D F0                 2471 	movx	@dptr,a
                           2472 ;	genPointerSet
                           2473 ;     genFarPointerSet
   1F7E 90 02 C7           2474 	mov	dptr,#(_UART_send_file_name_3_7 + 0x0011)
   1F81 74 52              2475 	mov	a,#0x52
   1F83 F0                 2476 	movx	@dptr,a
                           2477 ;	genPointerSet
                           2478 ;     genFarPointerSet
   1F84 90 02 C8           2479 	mov	dptr,#(_UART_send_file_name_3_7 + 0x0012)
   1F87 74 54              2480 	mov	a,#0x54
   1F89 F0                 2481 	movx	@dptr,a
                           2482 ;	genPointerSet
                           2483 ;     genFarPointerSet
   1F8A 90 02 C9           2484 	mov	dptr,#(_UART_send_file_name_3_7 + 0x0013)
   1F8D 74 61              2485 	mov	a,#0x61
   1F8F F0                 2486 	movx	@dptr,a
                           2487 ;	genPointerSet
                           2488 ;     genFarPointerSet
   1F90 90 02 CA           2489 	mov	dptr,#(_UART_send_file_name_3_7 + 0x0014)
   1F93 74 70              2490 	mov	a,#0x70
   1F95 F0                 2491 	movx	@dptr,a
                           2492 ;	genPointerSet
                           2493 ;     genFarPointerSet
   1F96 90 02 CB           2494 	mov	dptr,#(_UART_send_file_name_3_7 + 0x0015)
   1F99 74 62              2495 	mov	a,#0x62
   1F9B F0                 2496 	movx	@dptr,a
                           2497 ;	genPointerSet
                           2498 ;     genFarPointerSet
   1F9C 90 02 CC           2499 	mov	dptr,#(_UART_send_file_name_3_7 + 0x0016)
   1F9F 74 2F              2500 	mov	a,#0x2F
   1FA1 F0                 2501 	movx	@dptr,a
                           2502 ;	genPointerSet
                           2503 ;     genFarPointerSet
   1FA2 90 02 CD           2504 	mov	dptr,#(_UART_send_file_name_3_7 + 0x0017)
   1FA5 74 63              2505 	mov	a,#0x63
   1FA7 F0                 2506 	movx	@dptr,a
                           2507 ;	genPointerSet
                           2508 ;     genFarPointerSet
   1FA8 90 02 CE           2509 	mov	dptr,#(_UART_send_file_name_3_7 + 0x0018)
   1FAB 74 6F              2510 	mov	a,#0x6F
   1FAD F0                 2511 	movx	@dptr,a
                           2512 ;	genPointerSet
                           2513 ;     genFarPointerSet
   1FAE 90 02 CF           2514 	mov	dptr,#(_UART_send_file_name_3_7 + 0x0019)
   1FB1 74 72              2515 	mov	a,#0x72
   1FB3 F0                 2516 	movx	@dptr,a
                           2517 ;	genPointerSet
                           2518 ;     genFarPointerSet
   1FB4 90 02 D0           2519 	mov	dptr,#(_UART_send_file_name_3_7 + 0x001a)
   1FB7 74 65              2520 	mov	a,#0x65
   1FB9 F0                 2521 	movx	@dptr,a
                           2522 ;	genPointerSet
                           2523 ;     genFarPointerSet
   1FBA 90 02 D1           2524 	mov	dptr,#(_UART_send_file_name_3_7 + 0x001b)
   1FBD 74 5F              2525 	mov	a,#0x5F
   1FBF F0                 2526 	movx	@dptr,a
                           2527 ;	genPointerSet
                           2528 ;     genFarPointerSet
   1FC0 90 02 D2           2529 	mov	dptr,#(_UART_send_file_name_3_7 + 0x001c)
   1FC3 74 75              2530 	mov	a,#0x75
   1FC5 F0                 2531 	movx	@dptr,a
                           2532 ;	genPointerSet
                           2533 ;     genFarPointerSet
   1FC6 90 02 D3           2534 	mov	dptr,#(_UART_send_file_name_3_7 + 0x001d)
   1FC9 74 61              2535 	mov	a,#0x61
   1FCB F0                 2536 	movx	@dptr,a
                           2537 ;	genPointerSet
                           2538 ;     genFarPointerSet
   1FCC 90 02 D4           2539 	mov	dptr,#(_UART_send_file_name_3_7 + 0x001e)
   1FCF 74 72              2540 	mov	a,#0x72
   1FD1 F0                 2541 	movx	@dptr,a
                           2542 ;	genPointerSet
                           2543 ;     genFarPointerSet
   1FD2 90 02 D5           2544 	mov	dptr,#(_UART_send_file_name_3_7 + 0x001f)
   1FD5 74 74              2545 	mov	a,#0x74
   1FD7 F0                 2546 	movx	@dptr,a
                           2547 ;	genPointerSet
                           2548 ;     genFarPointerSet
   1FD8 90 02 D6           2549 	mov	dptr,#(_UART_send_file_name_3_7 + 0x0020)
   1FDB 74 5F              2550 	mov	a,#0x5F
   1FDD F0                 2551 	movx	@dptr,a
                           2552 ;	genPointerSet
                           2553 ;     genFarPointerSet
   1FDE 90 02 D7           2554 	mov	dptr,#(_UART_send_file_name_3_7 + 0x0021)
   1FE1 74 61              2555 	mov	a,#0x61
   1FE3 F0                 2556 	movx	@dptr,a
                           2557 ;	genPointerSet
                           2558 ;     genFarPointerSet
   1FE4 90 02 D8           2559 	mov	dptr,#(_UART_send_file_name_3_7 + 0x0022)
   1FE7 74 70              2560 	mov	a,#0x70
   1FE9 F0                 2561 	movx	@dptr,a
                           2562 ;	genPointerSet
                           2563 ;     genFarPointerSet
   1FEA 90 02 D9           2564 	mov	dptr,#(_UART_send_file_name_3_7 + 0x0023)
   1FED 74 62              2565 	mov	a,#0x62
   1FEF F0                 2566 	movx	@dptr,a
                           2567 ;	genPointerSet
                           2568 ;     genFarPointerSet
   1FF0 90 02 DA           2569 	mov	dptr,#(_UART_send_file_name_3_7 + 0x0024)
   1FF3 74 2E              2570 	mov	a,#0x2E
   1FF5 F0                 2571 	movx	@dptr,a
                           2572 ;	genPointerSet
                           2573 ;     genFarPointerSet
   1FF6 90 02 DB           2574 	mov	dptr,#(_UART_send_file_name_3_7 + 0x0025)
   1FF9 74 63              2575 	mov	a,#0x63
   1FFB F0                 2576 	movx	@dptr,a
                           2577 ;	genPointerSet
                           2578 ;     genFarPointerSet
   1FFC 90 02 DC           2579 	mov	dptr,#(_UART_send_file_name_3_7 + 0x0026)
   1FFF 74 00              2580 	mov	a,#0x00
   2001 F0                 2581 	movx	@dptr,a
                           2582 ;	genAssign
   2002 90 00 2E           2583 	mov	dptr,#_HAL_assert_fail_PARM_2
   2005 74 7F              2584 	mov	a,#0x7F
   2007 F0                 2585 	movx	@dptr,a
   2008 E4                 2586 	clr	a
   2009 A3                 2587 	inc	dptr
   200A F0                 2588 	movx	@dptr,a
   200B A3                 2589 	inc	dptr
   200C F0                 2590 	movx	@dptr,a
   200D A3                 2591 	inc	dptr
   200E F0                 2592 	movx	@dptr,a
                           2593 ;	genCall
   200F 75 82 B6           2594 	mov	dpl,#_UART_send_file_name_3_7
   2012 75 83 02           2595 	mov	dph,#(_UART_send_file_name_3_7 >> 8)
   2015 75 F0 00           2596 	mov	b,#0x00
   2018 C0 05              2597 	push	ar5
   201A C0 06              2598 	push	ar6
   201C C0 07              2599 	push	ar7
   201E 12 08 16           2600 	lcall	_HAL_assert_fail
   2021 D0 07              2601 	pop	ar7
   2023 D0 06              2602 	pop	ar6
   2025 D0 05              2603 	pop	ar5
   2027                    2604 00114$:
                    0B0B   2605 	C$core_uart_apb.c$129$1$1 ==.
                           2606 ;	../drivers/CoreUARTapb/core_uart_apb.c:129: if( (this_uart != NULL_INSTANCE) &&
                           2607 ;	genAssign
   2027 90 02 63           2608 	mov	dptr,#_UART_send_this_uart_1_1
   202A E0                 2609 	movx	a,@dptr
   202B FA                 2610 	mov	r2,a
   202C A3                 2611 	inc	dptr
   202D E0                 2612 	movx	a,@dptr
   202E FB                 2613 	mov	r3,a
   202F A3                 2614 	inc	dptr
   2030 E0                 2615 	movx	a,@dptr
   2031 FC                 2616 	mov	r4,a
                           2617 ;	genCmpEq
                           2618 ;	gencjneshort
   2032 BA 00 09           2619 	cjne	r2,#0x00,00144$
   2035 BB 00 06           2620 	cjne	r3,#0x00,00144$
   2038 BC 00 03           2621 	cjne	r4,#0x00,00144$
   203B 02 21 19           2622 	ljmp	00127$
   203E                    2623 00144$:
                    0B22   2624 	C$core_uart_apb.c$130$1$1 ==.
                           2625 ;	../drivers/CoreUARTapb/core_uart_apb.c:130: (tx_buffer != NULL_BUFFER)   &&
                           2626 ;	genIfx
   203E ED                 2627 	mov	a,r5
                           2628 ;	genIfxJump
   203F 60 03              2629 	jz	00145$
   2041 02 21 19           2630 	ljmp	00127$
   2044                    2631 00145$:
                    0B28   2632 	C$core_uart_apb.c$131$1$1 ==.
                           2633 ;	../drivers/CoreUARTapb/core_uart_apb.c:131: (tx_size > (size_t)0) )
                           2634 ;	genIfx
   2044 EE                 2635 	mov	a,r6
   2045 4F                 2636 	orl	a,r7
                           2637 ;	genIfxJump
   2046 70 03              2638 	jnz	00146$
   2048 02 21 19           2639 	ljmp	00127$
   204B                    2640 00146$:
                    0B2F   2641 	C$core_uart_apb.c$133$2$8 ==.
                           2642 ;	../drivers/CoreUARTapb/core_uart_apb.c:133: for ( char_idx = (size_t)0; char_idx < tx_size; char_idx++ )
                           2643 ;	genAssign
   204B 90 02 66           2644 	mov	dptr,#_UART_send_char_idx_1_1
   204E E4                 2645 	clr	a
   204F F0                 2646 	movx	@dptr,a
   2050 A3                 2647 	inc	dptr
   2051 F0                 2648 	movx	@dptr,a
                           2649 ;	genAssign
   2052 8A 05              2650 	mov	ar5,r2
   2054 8B 00              2651 	mov	ar0,r3
   2056 8C 01              2652 	mov	ar1,r4
   2058                    2653 00123$:
                           2654 ;	genIpush
                           2655 ;	genAssign
   2058 90 02 66           2656 	mov	dptr,#_UART_send_char_idx_1_1
   205B E0                 2657 	movx	a,@dptr
   205C FA                 2658 	mov	r2,a
   205D A3                 2659 	inc	dptr
   205E E0                 2660 	movx	a,@dptr
   205F FB                 2661 	mov	r3,a
                           2662 ;	genCmpLt
                           2663 ;	genCmp
   2060 C3                 2664 	clr	c
   2061 EA                 2665 	mov	a,r2
   2062 9E                 2666 	subb	a,r6
   2063 EB                 2667 	mov	a,r3
   2064 9F                 2668 	subb	a,r7
   2065 E4                 2669 	clr	a
   2066 33                 2670 	rlc	a
                           2671 ;	genIpop
                           2672 ;	genIfx
                           2673 ;	genIfxJump
   2067 70 03              2674 	jnz	00147$
   2069 02 21 19           2675 	ljmp	00127$
   206C                    2676 00147$:
                    0B50   2677 	C$core_uart_apb.c$136$3$9 ==.
                           2678 ;	../drivers/CoreUARTapb/core_uart_apb.c:136: do {
   206C                    2679 00116$:
                    0B50   2680 	C$core_uart_apb.c$137$2$1 ==.
                           2681 ;	../drivers/CoreUARTapb/core_uart_apb.c:137: tx_ready = HAL_get_8bit_reg( this_uart->base_address, STATUS ) &
                           2682 ;	genIpush
                           2683 ;	genPointerGet
                           2684 ;	genGenPointerGet
   206C 8D 82              2685 	mov	dpl,r5
   206E 88 83              2686 	mov	dph,r0
   2070 89 F0              2687 	mov	b,r1
   2072 12 5C 8D           2688 	lcall	__gptrget
   2075 FA                 2689 	mov	r2,a
   2076 A3                 2690 	inc	dptr
   2077 12 5C 8D           2691 	lcall	__gptrget
   207A FB                 2692 	mov	r3,a
                           2693 ;	genPlus
                           2694 ;	genPlusIncr
   207B 74 10              2695 	mov	a,#0x10
   207D 25 02              2696 	add	a,ar2
   207F FA                 2697 	mov	r2,a
   2080 74 00              2698 	mov	a,#0x00
   2082 35 03              2699 	addc	a,ar3
   2084 FB                 2700 	mov	r3,a
                           2701 ;	genCall
   2085 8A 82              2702 	mov	dpl,r2
   2087 8B 83              2703 	mov	dph,r3
   2089 C0 05              2704 	push	ar5
   208B C0 06              2705 	push	ar6
   208D C0 07              2706 	push	ar7
   208F C0 00              2707 	push	ar0
   2091 C0 01              2708 	push	ar1
   2093 12 08 C7           2709 	lcall	_HW_get_8bit_reg
   2096 AA 82              2710 	mov	r2,dpl
   2098 D0 01              2711 	pop	ar1
   209A D0 00              2712 	pop	ar0
   209C D0 07              2713 	pop	ar7
   209E D0 06              2714 	pop	ar6
   20A0 D0 05              2715 	pop	ar5
                           2716 ;	genCast
   20A2 7B 00              2717 	mov	r3,#0x00
                           2718 ;	genAnd
   20A4 53 02 01           2719 	anl	ar2,#0x01
   20A7 7B 00              2720 	mov	r3,#0x00
                           2721 ;	genCast
                    0B8D   2722 	C$core_uart_apb.c$139$2$1 ==.
                           2723 ;	../drivers/CoreUARTapb/core_uart_apb.c:139: } while ( !tx_ready );
                           2724 ;	genIfx
   20A9 EA                 2725 	mov	a,r2
                           2726 ;	genIpop
                           2727 ;	genIfxJump
   20AA 70 03              2728 	jnz	00148$
   20AC 02 20 6C           2729 	ljmp	00116$
   20AF                    2730 00148$:
                    0B93   2731 	C$core_uart_apb.c$141$2$1 ==.
                           2732 ;	../drivers/CoreUARTapb/core_uart_apb.c:141: HAL_set_8bit_reg( this_uart->base_address, TXDATA,
                           2733 ;	genIpush
   20AF C0 06              2734 	push	ar6
   20B1 C0 07              2735 	push	ar7
                           2736 ;	genPointerGet
                           2737 ;	genGenPointerGet
   20B3 8D 82              2738 	mov	dpl,r5
   20B5 88 83              2739 	mov	dph,r0
   20B7 89 F0              2740 	mov	b,r1
   20B9 12 5C 8D           2741 	lcall	__gptrget
   20BC F5 2B              2742 	mov	_UART_send_sloc0_1_0,a
   20BE A3                 2743 	inc	dptr
   20BF 12 5C 8D           2744 	lcall	__gptrget
   20C2 F5 2C              2745 	mov	(_UART_send_sloc0_1_0 + 1),a
                           2746 ;	genAssign
   20C4 90 02 66           2747 	mov	dptr,#_UART_send_char_idx_1_1
   20C7 E0                 2748 	movx	a,@dptr
   20C8 FE                 2749 	mov	r6,a
   20C9 A3                 2750 	inc	dptr
   20CA E0                 2751 	movx	a,@dptr
   20CB FF                 2752 	mov	r7,a
                           2753 ;	genPlus
   20CC E5 06              2754 	mov	a,ar6
   20CE 25 2E              2755 	add	a,_UART_send_sloc1_1_0
   20D0 FA                 2756 	mov	r2,a
   20D1 E5 07              2757 	mov	a,ar7
   20D3 35 2F              2758 	addc	a,(_UART_send_sloc1_1_0 + 1)
   20D5 FB                 2759 	mov	r3,a
   20D6 AC 30              2760 	mov	r4,(_UART_send_sloc1_1_0 + 2)
                           2761 ;	genPointerGet
                           2762 ;	genGenPointerGet
   20D8 8A 82              2763 	mov	dpl,r2
   20DA 8B 83              2764 	mov	dph,r3
   20DC 8C F0              2765 	mov	b,r4
   20DE 12 5C 8D           2766 	lcall	__gptrget
   20E1 FA                 2767 	mov	r2,a
                           2768 ;	genAssign
   20E2 90 00 4B           2769 	mov	dptr,#_HW_set_8bit_reg_PARM_2
   20E5 EA                 2770 	mov	a,r2
   20E6 F0                 2771 	movx	@dptr,a
                           2772 ;	genCall
   20E7 85 2B 82           2773 	mov	dpl,_UART_send_sloc0_1_0
   20EA 85 2C 83           2774 	mov	dph,(_UART_send_sloc0_1_0 + 1)
   20ED C0 05              2775 	push	ar5
   20EF C0 06              2776 	push	ar6
   20F1 C0 07              2777 	push	ar7
   20F3 C0 00              2778 	push	ar0
   20F5 C0 01              2779 	push	ar1
   20F7 12 08 B9           2780 	lcall	_HW_set_8bit_reg
   20FA D0 01              2781 	pop	ar1
   20FC D0 00              2782 	pop	ar0
   20FE D0 07              2783 	pop	ar7
   2100 D0 06              2784 	pop	ar6
   2102 D0 05              2785 	pop	ar5
                    0BE8   2786 	C$core_uart_apb.c$133$2$8 ==.
                           2787 ;	../drivers/CoreUARTapb/core_uart_apb.c:133: for ( char_idx = (size_t)0; char_idx < tx_size; char_idx++ )
                           2788 ;	genPlus
   2104 90 02 66           2789 	mov	dptr,#_UART_send_char_idx_1_1
                           2790 ;	genPlusIncr
   2107 74 01              2791 	mov	a,#0x01
   2109 25 06              2792 	add	a,ar6
   210B F0                 2793 	movx	@dptr,a
   210C 74 00              2794 	mov	a,#0x00
   210E 35 07              2795 	addc	a,ar7
   2110 A3                 2796 	inc	dptr
   2111 F0                 2797 	movx	@dptr,a
                           2798 ;	genIpop
   2112 D0 07              2799 	pop	ar7
   2114 D0 06              2800 	pop	ar6
   2116 02 20 58           2801 	ljmp	00123$
   2119                    2802 00127$:
                    0BFD   2803 	C$core_uart_apb.c$145$2$1 ==.
                    0BFD   2804 	XG$UART_send$0$0 ==.
   2119 22                 2805 	ret
                           2806 ;------------------------------------------------------------
                           2807 ;Allocation info for local variables in function 'UART_fill_tx_fifo'
                           2808 ;------------------------------------------------------------
                           2809 ;sloc0                     Allocated with name '_UART_fill_tx_fifo_sloc0_1_0'
                           2810 ;sloc1                     Allocated with name '_UART_fill_tx_fifo_sloc1_1_0'
                           2811 ;tx_buffer                 Allocated with name '_UART_fill_tx_fifo_PARM_2'
                           2812 ;tx_size                   Allocated with name '_UART_fill_tx_fifo_PARM_3'
                           2813 ;this_uart                 Allocated with name '_UART_fill_tx_fifo_this_uart_1_1'
                           2814 ;tx_ready                  Allocated with name '_UART_fill_tx_fifo_tx_ready_1_1'
                           2815 ;size_sent                 Allocated with name '_UART_fill_tx_fifo_size_sent_1_1'
                           2816 ;file_name                 Allocated with name '_UART_fill_tx_fifo_file_name_3_3'
                           2817 ;file_name                 Allocated with name '_UART_fill_tx_fifo_file_name_3_5'
                           2818 ;file_name                 Allocated with name '_UART_fill_tx_fifo_file_name_3_7'
                           2819 ;------------------------------------------------------------
                    0BFE   2820 	G$UART_fill_tx_fifo$0$0 ==.
                    0BFE   2821 	C$core_uart_apb.c$152$2$1 ==.
                           2822 ;	../drivers/CoreUARTapb/core_uart_apb.c:152: UART_fill_tx_fifo
                           2823 ;	-----------------------------------------
                           2824 ;	 function UART_fill_tx_fifo
                           2825 ;	-----------------------------------------
   211A                    2826 _UART_fill_tx_fifo:
                           2827 ;	genReceive
   211A AA F0              2828 	mov	r2,b
   211C AB 83              2829 	mov	r3,dph
   211E E5 82              2830 	mov	a,dpl
   2120 90 02 E2           2831 	mov	dptr,#_UART_fill_tx_fifo_this_uart_1_1
   2123 F0                 2832 	movx	@dptr,a
   2124 A3                 2833 	inc	dptr
   2125 EB                 2834 	mov	a,r3
   2126 F0                 2835 	movx	@dptr,a
   2127 A3                 2836 	inc	dptr
   2128 EA                 2837 	mov	a,r2
   2129 F0                 2838 	movx	@dptr,a
                    0C0E   2839 	C$core_uart_apb.c$160$1$1 ==.
                           2840 ;	../drivers/CoreUARTapb/core_uart_apb.c:160: size_t size_sent = 0u;
                           2841 ;	genAssign
   212A 90 02 E5           2842 	mov	dptr,#_UART_fill_tx_fifo_size_sent_1_1
   212D E4                 2843 	clr	a
   212E F0                 2844 	movx	@dptr,a
   212F A3                 2845 	inc	dptr
   2130 F0                 2846 	movx	@dptr,a
                    0C15   2847 	C$core_uart_apb.c$162$2$2 ==.
                           2848 ;	../drivers/CoreUARTapb/core_uart_apb.c:162: HAL_ASSERT( this_uart != NULL_INSTANCE )
                           2849 ;	genAssign
   2131 90 02 E2           2850 	mov	dptr,#_UART_fill_tx_fifo_this_uart_1_1
   2134 E0                 2851 	movx	a,@dptr
   2135 FA                 2852 	mov	r2,a
   2136 A3                 2853 	inc	dptr
   2137 E0                 2854 	movx	a,@dptr
   2138 FB                 2855 	mov	r3,a
   2139 A3                 2856 	inc	dptr
   213A E0                 2857 	movx	a,@dptr
   213B FC                 2858 	mov	r4,a
                           2859 ;	genCmpEq
                           2860 ;	gencjneshort
   213C BA 00 08           2861 	cjne	r2,#0x00,00136$
   213F BB 00 05           2862 	cjne	r3,#0x00,00136$
   2142 BC 00 02           2863 	cjne	r4,#0x00,00136$
   2145 80 03              2864 	sjmp	00137$
   2147                    2865 00136$:
   2147 02 22 4D           2866 	ljmp	00104$
   214A                    2867 00137$:
                           2868 ;	genPointerSet
                           2869 ;     genFarPointerSet
   214A 90 02 E7           2870 	mov	dptr,#_UART_fill_tx_fifo_file_name_3_3
   214D 74 2E              2871 	mov	a,#0x2E
   214F F0                 2872 	movx	@dptr,a
                           2873 ;	genPointerSet
                           2874 ;     genFarPointerSet
   2150 90 02 E8           2875 	mov	dptr,#(_UART_fill_tx_fifo_file_name_3_3 + 0x0001)
   2153 74 2E              2876 	mov	a,#0x2E
   2155 F0                 2877 	movx	@dptr,a
                           2878 ;	genPointerSet
                           2879 ;     genFarPointerSet
   2156 90 02 E9           2880 	mov	dptr,#(_UART_fill_tx_fifo_file_name_3_3 + 0x0002)
   2159 74 2F              2881 	mov	a,#0x2F
   215B F0                 2882 	movx	@dptr,a
                           2883 ;	genPointerSet
                           2884 ;     genFarPointerSet
   215C 90 02 EA           2885 	mov	dptr,#(_UART_fill_tx_fifo_file_name_3_3 + 0x0003)
   215F 74 64              2886 	mov	a,#0x64
   2161 F0                 2887 	movx	@dptr,a
                           2888 ;	genPointerSet
                           2889 ;     genFarPointerSet
   2162 90 02 EB           2890 	mov	dptr,#(_UART_fill_tx_fifo_file_name_3_3 + 0x0004)
   2165 74 72              2891 	mov	a,#0x72
   2167 F0                 2892 	movx	@dptr,a
                           2893 ;	genPointerSet
                           2894 ;     genFarPointerSet
   2168 90 02 EC           2895 	mov	dptr,#(_UART_fill_tx_fifo_file_name_3_3 + 0x0005)
   216B 74 69              2896 	mov	a,#0x69
   216D F0                 2897 	movx	@dptr,a
                           2898 ;	genPointerSet
                           2899 ;     genFarPointerSet
   216E 90 02 ED           2900 	mov	dptr,#(_UART_fill_tx_fifo_file_name_3_3 + 0x0006)
   2171 74 76              2901 	mov	a,#0x76
   2173 F0                 2902 	movx	@dptr,a
                           2903 ;	genPointerSet
                           2904 ;     genFarPointerSet
   2174 90 02 EE           2905 	mov	dptr,#(_UART_fill_tx_fifo_file_name_3_3 + 0x0007)
   2177 74 65              2906 	mov	a,#0x65
   2179 F0                 2907 	movx	@dptr,a
                           2908 ;	genPointerSet
                           2909 ;     genFarPointerSet
   217A 90 02 EF           2910 	mov	dptr,#(_UART_fill_tx_fifo_file_name_3_3 + 0x0008)
   217D 74 72              2911 	mov	a,#0x72
   217F F0                 2912 	movx	@dptr,a
                           2913 ;	genPointerSet
                           2914 ;     genFarPointerSet
   2180 90 02 F0           2915 	mov	dptr,#(_UART_fill_tx_fifo_file_name_3_3 + 0x0009)
   2183 74 73              2916 	mov	a,#0x73
   2185 F0                 2917 	movx	@dptr,a
                           2918 ;	genPointerSet
                           2919 ;     genFarPointerSet
   2186 90 02 F1           2920 	mov	dptr,#(_UART_fill_tx_fifo_file_name_3_3 + 0x000a)
   2189 74 2F              2921 	mov	a,#0x2F
   218B F0                 2922 	movx	@dptr,a
                           2923 ;	genPointerSet
                           2924 ;     genFarPointerSet
   218C 90 02 F2           2925 	mov	dptr,#(_UART_fill_tx_fifo_file_name_3_3 + 0x000b)
   218F 74 43              2926 	mov	a,#0x43
   2191 F0                 2927 	movx	@dptr,a
                           2928 ;	genPointerSet
                           2929 ;     genFarPointerSet
   2192 90 02 F3           2930 	mov	dptr,#(_UART_fill_tx_fifo_file_name_3_3 + 0x000c)
   2195 74 6F              2931 	mov	a,#0x6F
   2197 F0                 2932 	movx	@dptr,a
                           2933 ;	genPointerSet
                           2934 ;     genFarPointerSet
   2198 90 02 F4           2935 	mov	dptr,#(_UART_fill_tx_fifo_file_name_3_3 + 0x000d)
   219B 74 72              2936 	mov	a,#0x72
   219D F0                 2937 	movx	@dptr,a
                           2938 ;	genPointerSet
                           2939 ;     genFarPointerSet
   219E 90 02 F5           2940 	mov	dptr,#(_UART_fill_tx_fifo_file_name_3_3 + 0x000e)
   21A1 74 65              2941 	mov	a,#0x65
   21A3 F0                 2942 	movx	@dptr,a
                           2943 ;	genPointerSet
                           2944 ;     genFarPointerSet
   21A4 90 02 F6           2945 	mov	dptr,#(_UART_fill_tx_fifo_file_name_3_3 + 0x000f)
   21A7 74 55              2946 	mov	a,#0x55
   21A9 F0                 2947 	movx	@dptr,a
                           2948 ;	genPointerSet
                           2949 ;     genFarPointerSet
   21AA 90 02 F7           2950 	mov	dptr,#(_UART_fill_tx_fifo_file_name_3_3 + 0x0010)
   21AD 74 41              2951 	mov	a,#0x41
   21AF F0                 2952 	movx	@dptr,a
                           2953 ;	genPointerSet
                           2954 ;     genFarPointerSet
   21B0 90 02 F8           2955 	mov	dptr,#(_UART_fill_tx_fifo_file_name_3_3 + 0x0011)
   21B3 74 52              2956 	mov	a,#0x52
   21B5 F0                 2957 	movx	@dptr,a
                           2958 ;	genPointerSet
                           2959 ;     genFarPointerSet
   21B6 90 02 F9           2960 	mov	dptr,#(_UART_fill_tx_fifo_file_name_3_3 + 0x0012)
   21B9 74 54              2961 	mov	a,#0x54
   21BB F0                 2962 	movx	@dptr,a
                           2963 ;	genPointerSet
                           2964 ;     genFarPointerSet
   21BC 90 02 FA           2965 	mov	dptr,#(_UART_fill_tx_fifo_file_name_3_3 + 0x0013)
   21BF 74 61              2966 	mov	a,#0x61
   21C1 F0                 2967 	movx	@dptr,a
                           2968 ;	genPointerSet
                           2969 ;     genFarPointerSet
   21C2 90 02 FB           2970 	mov	dptr,#(_UART_fill_tx_fifo_file_name_3_3 + 0x0014)
   21C5 74 70              2971 	mov	a,#0x70
   21C7 F0                 2972 	movx	@dptr,a
                           2973 ;	genPointerSet
                           2974 ;     genFarPointerSet
   21C8 90 02 FC           2975 	mov	dptr,#(_UART_fill_tx_fifo_file_name_3_3 + 0x0015)
   21CB 74 62              2976 	mov	a,#0x62
   21CD F0                 2977 	movx	@dptr,a
                           2978 ;	genPointerSet
                           2979 ;     genFarPointerSet
   21CE 90 02 FD           2980 	mov	dptr,#(_UART_fill_tx_fifo_file_name_3_3 + 0x0016)
   21D1 74 2F              2981 	mov	a,#0x2F
   21D3 F0                 2982 	movx	@dptr,a
                           2983 ;	genPointerSet
                           2984 ;     genFarPointerSet
   21D4 90 02 FE           2985 	mov	dptr,#(_UART_fill_tx_fifo_file_name_3_3 + 0x0017)
   21D7 74 63              2986 	mov	a,#0x63
   21D9 F0                 2987 	movx	@dptr,a
                           2988 ;	genPointerSet
                           2989 ;     genFarPointerSet
   21DA 90 02 FF           2990 	mov	dptr,#(_UART_fill_tx_fifo_file_name_3_3 + 0x0018)
   21DD 74 6F              2991 	mov	a,#0x6F
   21DF F0                 2992 	movx	@dptr,a
                           2993 ;	genPointerSet
                           2994 ;     genFarPointerSet
   21E0 90 03 00           2995 	mov	dptr,#(_UART_fill_tx_fifo_file_name_3_3 + 0x0019)
   21E3 74 72              2996 	mov	a,#0x72
   21E5 F0                 2997 	movx	@dptr,a
                           2998 ;	genPointerSet
                           2999 ;     genFarPointerSet
   21E6 90 03 01           3000 	mov	dptr,#(_UART_fill_tx_fifo_file_name_3_3 + 0x001a)
   21E9 74 65              3001 	mov	a,#0x65
   21EB F0                 3002 	movx	@dptr,a
                           3003 ;	genPointerSet
                           3004 ;     genFarPointerSet
   21EC 90 03 02           3005 	mov	dptr,#(_UART_fill_tx_fifo_file_name_3_3 + 0x001b)
   21EF 74 5F              3006 	mov	a,#0x5F
   21F1 F0                 3007 	movx	@dptr,a
                           3008 ;	genPointerSet
                           3009 ;     genFarPointerSet
   21F2 90 03 03           3010 	mov	dptr,#(_UART_fill_tx_fifo_file_name_3_3 + 0x001c)
   21F5 74 75              3011 	mov	a,#0x75
   21F7 F0                 3012 	movx	@dptr,a
                           3013 ;	genPointerSet
                           3014 ;     genFarPointerSet
   21F8 90 03 04           3015 	mov	dptr,#(_UART_fill_tx_fifo_file_name_3_3 + 0x001d)
   21FB 74 61              3016 	mov	a,#0x61
   21FD F0                 3017 	movx	@dptr,a
                           3018 ;	genPointerSet
                           3019 ;     genFarPointerSet
   21FE 90 03 05           3020 	mov	dptr,#(_UART_fill_tx_fifo_file_name_3_3 + 0x001e)
   2201 74 72              3021 	mov	a,#0x72
   2203 F0                 3022 	movx	@dptr,a
                           3023 ;	genPointerSet
                           3024 ;     genFarPointerSet
   2204 90 03 06           3025 	mov	dptr,#(_UART_fill_tx_fifo_file_name_3_3 + 0x001f)
   2207 74 74              3026 	mov	a,#0x74
   2209 F0                 3027 	movx	@dptr,a
                           3028 ;	genPointerSet
                           3029 ;     genFarPointerSet
   220A 90 03 07           3030 	mov	dptr,#(_UART_fill_tx_fifo_file_name_3_3 + 0x0020)
   220D 74 5F              3031 	mov	a,#0x5F
   220F F0                 3032 	movx	@dptr,a
                           3033 ;	genPointerSet
                           3034 ;     genFarPointerSet
   2210 90 03 08           3035 	mov	dptr,#(_UART_fill_tx_fifo_file_name_3_3 + 0x0021)
   2213 74 61              3036 	mov	a,#0x61
   2215 F0                 3037 	movx	@dptr,a
                           3038 ;	genPointerSet
                           3039 ;     genFarPointerSet
   2216 90 03 09           3040 	mov	dptr,#(_UART_fill_tx_fifo_file_name_3_3 + 0x0022)
   2219 74 70              3041 	mov	a,#0x70
   221B F0                 3042 	movx	@dptr,a
                           3043 ;	genPointerSet
                           3044 ;     genFarPointerSet
   221C 90 03 0A           3045 	mov	dptr,#(_UART_fill_tx_fifo_file_name_3_3 + 0x0023)
   221F 74 62              3046 	mov	a,#0x62
   2221 F0                 3047 	movx	@dptr,a
                           3048 ;	genPointerSet
                           3049 ;     genFarPointerSet
   2222 90 03 0B           3050 	mov	dptr,#(_UART_fill_tx_fifo_file_name_3_3 + 0x0024)
   2225 74 2E              3051 	mov	a,#0x2E
   2227 F0                 3052 	movx	@dptr,a
                           3053 ;	genPointerSet
                           3054 ;     genFarPointerSet
   2228 90 03 0C           3055 	mov	dptr,#(_UART_fill_tx_fifo_file_name_3_3 + 0x0025)
   222B 74 63              3056 	mov	a,#0x63
   222D F0                 3057 	movx	@dptr,a
                           3058 ;	genPointerSet
                           3059 ;     genFarPointerSet
   222E 90 03 0D           3060 	mov	dptr,#(_UART_fill_tx_fifo_file_name_3_3 + 0x0026)
   2231 74 00              3061 	mov	a,#0x00
   2233 F0                 3062 	movx	@dptr,a
                           3063 ;	genAssign
   2234 90 00 2E           3064 	mov	dptr,#_HAL_assert_fail_PARM_2
   2237 74 A2              3065 	mov	a,#0xA2
   2239 F0                 3066 	movx	@dptr,a
   223A E4                 3067 	clr	a
   223B A3                 3068 	inc	dptr
   223C F0                 3069 	movx	@dptr,a
   223D A3                 3070 	inc	dptr
   223E F0                 3071 	movx	@dptr,a
   223F A3                 3072 	inc	dptr
   2240 F0                 3073 	movx	@dptr,a
                           3074 ;	genCall
   2241 75 82 E7           3075 	mov	dpl,#_UART_fill_tx_fifo_file_name_3_3
   2244 75 83 02           3076 	mov	dph,#(_UART_fill_tx_fifo_file_name_3_3 >> 8)
   2247 75 F0 00           3077 	mov	b,#0x00
   224A 12 08 16           3078 	lcall	_HAL_assert_fail
   224D                    3079 00104$:
                    0D31   3080 	C$core_uart_apb.c$163$2$4 ==.
                           3081 ;	../drivers/CoreUARTapb/core_uart_apb.c:163: HAL_ASSERT( tx_buffer != NULL_BUFFER )
                           3082 ;	genAssign
   224D 90 02 DD           3083 	mov	dptr,#_UART_fill_tx_fifo_PARM_2
   2250 E0                 3084 	movx	a,@dptr
   2251 F5 34              3085 	mov	_UART_fill_tx_fifo_sloc1_1_0,a
   2253 A3                 3086 	inc	dptr
   2254 E0                 3087 	movx	a,@dptr
   2255 F5 35              3088 	mov	(_UART_fill_tx_fifo_sloc1_1_0 + 1),a
   2257 A3                 3089 	inc	dptr
   2258 E0                 3090 	movx	a,@dptr
   2259 F5 36              3091 	mov	(_UART_fill_tx_fifo_sloc1_1_0 + 2),a
                           3092 ;	genCmpEq
                           3093 ;	gencjne
                           3094 ;	gencjneshort
   225B E5 34              3095 	mov	a,_UART_fill_tx_fifo_sloc1_1_0
   225D 70 0C              3096 	jnz	00138$
   225F E5 35              3097 	mov	a,(_UART_fill_tx_fifo_sloc1_1_0 + 1)
   2261 70 08              3098 	jnz	00138$
   2263 E5 36              3099 	mov	a,(_UART_fill_tx_fifo_sloc1_1_0 + 2)
   2265 70 04              3100 	jnz	00138$
   2267 74 01              3101 	mov	a,#0x01
   2269 80 01              3102 	sjmp	00139$
   226B                    3103 00138$:
   226B E4                 3104 	clr	a
   226C                    3105 00139$:
   226C FD                 3106 	mov	r5,a
                           3107 ;	genIfx
   226D ED                 3108 	mov	a,r5
                           3109 ;	genIfxJump
   226E 70 03              3110 	jnz	00140$
   2270 02 23 7A           3111 	ljmp	00109$
   2273                    3112 00140$:
                           3113 ;	genPointerSet
                           3114 ;     genFarPointerSet
   2273 90 03 0E           3115 	mov	dptr,#_UART_fill_tx_fifo_file_name_3_5
   2276 74 2E              3116 	mov	a,#0x2E
   2278 F0                 3117 	movx	@dptr,a
                           3118 ;	genPointerSet
                           3119 ;     genFarPointerSet
   2279 90 03 0F           3120 	mov	dptr,#(_UART_fill_tx_fifo_file_name_3_5 + 0x0001)
   227C 74 2E              3121 	mov	a,#0x2E
   227E F0                 3122 	movx	@dptr,a
                           3123 ;	genPointerSet
                           3124 ;     genFarPointerSet
   227F 90 03 10           3125 	mov	dptr,#(_UART_fill_tx_fifo_file_name_3_5 + 0x0002)
   2282 74 2F              3126 	mov	a,#0x2F
   2284 F0                 3127 	movx	@dptr,a
                           3128 ;	genPointerSet
                           3129 ;     genFarPointerSet
   2285 90 03 11           3130 	mov	dptr,#(_UART_fill_tx_fifo_file_name_3_5 + 0x0003)
   2288 74 64              3131 	mov	a,#0x64
   228A F0                 3132 	movx	@dptr,a
                           3133 ;	genPointerSet
                           3134 ;     genFarPointerSet
   228B 90 03 12           3135 	mov	dptr,#(_UART_fill_tx_fifo_file_name_3_5 + 0x0004)
   228E 74 72              3136 	mov	a,#0x72
   2290 F0                 3137 	movx	@dptr,a
                           3138 ;	genPointerSet
                           3139 ;     genFarPointerSet
   2291 90 03 13           3140 	mov	dptr,#(_UART_fill_tx_fifo_file_name_3_5 + 0x0005)
   2294 74 69              3141 	mov	a,#0x69
   2296 F0                 3142 	movx	@dptr,a
                           3143 ;	genPointerSet
                           3144 ;     genFarPointerSet
   2297 90 03 14           3145 	mov	dptr,#(_UART_fill_tx_fifo_file_name_3_5 + 0x0006)
   229A 74 76              3146 	mov	a,#0x76
   229C F0                 3147 	movx	@dptr,a
                           3148 ;	genPointerSet
                           3149 ;     genFarPointerSet
   229D 90 03 15           3150 	mov	dptr,#(_UART_fill_tx_fifo_file_name_3_5 + 0x0007)
   22A0 74 65              3151 	mov	a,#0x65
   22A2 F0                 3152 	movx	@dptr,a
                           3153 ;	genPointerSet
                           3154 ;     genFarPointerSet
   22A3 90 03 16           3155 	mov	dptr,#(_UART_fill_tx_fifo_file_name_3_5 + 0x0008)
   22A6 74 72              3156 	mov	a,#0x72
   22A8 F0                 3157 	movx	@dptr,a
                           3158 ;	genPointerSet
                           3159 ;     genFarPointerSet
   22A9 90 03 17           3160 	mov	dptr,#(_UART_fill_tx_fifo_file_name_3_5 + 0x0009)
   22AC 74 73              3161 	mov	a,#0x73
   22AE F0                 3162 	movx	@dptr,a
                           3163 ;	genPointerSet
                           3164 ;     genFarPointerSet
   22AF 90 03 18           3165 	mov	dptr,#(_UART_fill_tx_fifo_file_name_3_5 + 0x000a)
   22B2 74 2F              3166 	mov	a,#0x2F
   22B4 F0                 3167 	movx	@dptr,a
                           3168 ;	genPointerSet
                           3169 ;     genFarPointerSet
   22B5 90 03 19           3170 	mov	dptr,#(_UART_fill_tx_fifo_file_name_3_5 + 0x000b)
   22B8 74 43              3171 	mov	a,#0x43
   22BA F0                 3172 	movx	@dptr,a
                           3173 ;	genPointerSet
                           3174 ;     genFarPointerSet
   22BB 90 03 1A           3175 	mov	dptr,#(_UART_fill_tx_fifo_file_name_3_5 + 0x000c)
   22BE 74 6F              3176 	mov	a,#0x6F
   22C0 F0                 3177 	movx	@dptr,a
                           3178 ;	genPointerSet
                           3179 ;     genFarPointerSet
   22C1 90 03 1B           3180 	mov	dptr,#(_UART_fill_tx_fifo_file_name_3_5 + 0x000d)
   22C4 74 72              3181 	mov	a,#0x72
   22C6 F0                 3182 	movx	@dptr,a
                           3183 ;	genPointerSet
                           3184 ;     genFarPointerSet
   22C7 90 03 1C           3185 	mov	dptr,#(_UART_fill_tx_fifo_file_name_3_5 + 0x000e)
   22CA 74 65              3186 	mov	a,#0x65
   22CC F0                 3187 	movx	@dptr,a
                           3188 ;	genPointerSet
                           3189 ;     genFarPointerSet
   22CD 90 03 1D           3190 	mov	dptr,#(_UART_fill_tx_fifo_file_name_3_5 + 0x000f)
   22D0 74 55              3191 	mov	a,#0x55
   22D2 F0                 3192 	movx	@dptr,a
                           3193 ;	genPointerSet
                           3194 ;     genFarPointerSet
   22D3 90 03 1E           3195 	mov	dptr,#(_UART_fill_tx_fifo_file_name_3_5 + 0x0010)
   22D6 74 41              3196 	mov	a,#0x41
   22D8 F0                 3197 	movx	@dptr,a
                           3198 ;	genPointerSet
                           3199 ;     genFarPointerSet
   22D9 90 03 1F           3200 	mov	dptr,#(_UART_fill_tx_fifo_file_name_3_5 + 0x0011)
   22DC 74 52              3201 	mov	a,#0x52
   22DE F0                 3202 	movx	@dptr,a
                           3203 ;	genPointerSet
                           3204 ;     genFarPointerSet
   22DF 90 03 20           3205 	mov	dptr,#(_UART_fill_tx_fifo_file_name_3_5 + 0x0012)
   22E2 74 54              3206 	mov	a,#0x54
   22E4 F0                 3207 	movx	@dptr,a
                           3208 ;	genPointerSet
                           3209 ;     genFarPointerSet
   22E5 90 03 21           3210 	mov	dptr,#(_UART_fill_tx_fifo_file_name_3_5 + 0x0013)
   22E8 74 61              3211 	mov	a,#0x61
   22EA F0                 3212 	movx	@dptr,a
                           3213 ;	genPointerSet
                           3214 ;     genFarPointerSet
   22EB 90 03 22           3215 	mov	dptr,#(_UART_fill_tx_fifo_file_name_3_5 + 0x0014)
   22EE 74 70              3216 	mov	a,#0x70
   22F0 F0                 3217 	movx	@dptr,a
                           3218 ;	genPointerSet
                           3219 ;     genFarPointerSet
   22F1 90 03 23           3220 	mov	dptr,#(_UART_fill_tx_fifo_file_name_3_5 + 0x0015)
   22F4 74 62              3221 	mov	a,#0x62
   22F6 F0                 3222 	movx	@dptr,a
                           3223 ;	genPointerSet
                           3224 ;     genFarPointerSet
   22F7 90 03 24           3225 	mov	dptr,#(_UART_fill_tx_fifo_file_name_3_5 + 0x0016)
   22FA 74 2F              3226 	mov	a,#0x2F
   22FC F0                 3227 	movx	@dptr,a
                           3228 ;	genPointerSet
                           3229 ;     genFarPointerSet
   22FD 90 03 25           3230 	mov	dptr,#(_UART_fill_tx_fifo_file_name_3_5 + 0x0017)
   2300 74 63              3231 	mov	a,#0x63
   2302 F0                 3232 	movx	@dptr,a
                           3233 ;	genPointerSet
                           3234 ;     genFarPointerSet
   2303 90 03 26           3235 	mov	dptr,#(_UART_fill_tx_fifo_file_name_3_5 + 0x0018)
   2306 74 6F              3236 	mov	a,#0x6F
   2308 F0                 3237 	movx	@dptr,a
                           3238 ;	genPointerSet
                           3239 ;     genFarPointerSet
   2309 90 03 27           3240 	mov	dptr,#(_UART_fill_tx_fifo_file_name_3_5 + 0x0019)
   230C 74 72              3241 	mov	a,#0x72
   230E F0                 3242 	movx	@dptr,a
                           3243 ;	genPointerSet
                           3244 ;     genFarPointerSet
   230F 90 03 28           3245 	mov	dptr,#(_UART_fill_tx_fifo_file_name_3_5 + 0x001a)
   2312 74 65              3246 	mov	a,#0x65
   2314 F0                 3247 	movx	@dptr,a
                           3248 ;	genPointerSet
                           3249 ;     genFarPointerSet
   2315 90 03 29           3250 	mov	dptr,#(_UART_fill_tx_fifo_file_name_3_5 + 0x001b)
   2318 74 5F              3251 	mov	a,#0x5F
   231A F0                 3252 	movx	@dptr,a
                           3253 ;	genPointerSet
                           3254 ;     genFarPointerSet
   231B 90 03 2A           3255 	mov	dptr,#(_UART_fill_tx_fifo_file_name_3_5 + 0x001c)
   231E 74 75              3256 	mov	a,#0x75
   2320 F0                 3257 	movx	@dptr,a
                           3258 ;	genPointerSet
                           3259 ;     genFarPointerSet
   2321 90 03 2B           3260 	mov	dptr,#(_UART_fill_tx_fifo_file_name_3_5 + 0x001d)
   2324 74 61              3261 	mov	a,#0x61
   2326 F0                 3262 	movx	@dptr,a
                           3263 ;	genPointerSet
                           3264 ;     genFarPointerSet
   2327 90 03 2C           3265 	mov	dptr,#(_UART_fill_tx_fifo_file_name_3_5 + 0x001e)
   232A 74 72              3266 	mov	a,#0x72
   232C F0                 3267 	movx	@dptr,a
                           3268 ;	genPointerSet
                           3269 ;     genFarPointerSet
   232D 90 03 2D           3270 	mov	dptr,#(_UART_fill_tx_fifo_file_name_3_5 + 0x001f)
   2330 74 74              3271 	mov	a,#0x74
   2332 F0                 3272 	movx	@dptr,a
                           3273 ;	genPointerSet
                           3274 ;     genFarPointerSet
   2333 90 03 2E           3275 	mov	dptr,#(_UART_fill_tx_fifo_file_name_3_5 + 0x0020)
   2336 74 5F              3276 	mov	a,#0x5F
   2338 F0                 3277 	movx	@dptr,a
                           3278 ;	genPointerSet
                           3279 ;     genFarPointerSet
   2339 90 03 2F           3280 	mov	dptr,#(_UART_fill_tx_fifo_file_name_3_5 + 0x0021)
   233C 74 61              3281 	mov	a,#0x61
   233E F0                 3282 	movx	@dptr,a
                           3283 ;	genPointerSet
                           3284 ;     genFarPointerSet
   233F 90 03 30           3285 	mov	dptr,#(_UART_fill_tx_fifo_file_name_3_5 + 0x0022)
   2342 74 70              3286 	mov	a,#0x70
   2344 F0                 3287 	movx	@dptr,a
                           3288 ;	genPointerSet
                           3289 ;     genFarPointerSet
   2345 90 03 31           3290 	mov	dptr,#(_UART_fill_tx_fifo_file_name_3_5 + 0x0023)
   2348 74 62              3291 	mov	a,#0x62
   234A F0                 3292 	movx	@dptr,a
                           3293 ;	genPointerSet
                           3294 ;     genFarPointerSet
   234B 90 03 32           3295 	mov	dptr,#(_UART_fill_tx_fifo_file_name_3_5 + 0x0024)
   234E 74 2E              3296 	mov	a,#0x2E
   2350 F0                 3297 	movx	@dptr,a
                           3298 ;	genPointerSet
                           3299 ;     genFarPointerSet
   2351 90 03 33           3300 	mov	dptr,#(_UART_fill_tx_fifo_file_name_3_5 + 0x0025)
   2354 74 63              3301 	mov	a,#0x63
   2356 F0                 3302 	movx	@dptr,a
                           3303 ;	genPointerSet
                           3304 ;     genFarPointerSet
   2357 90 03 34           3305 	mov	dptr,#(_UART_fill_tx_fifo_file_name_3_5 + 0x0026)
   235A 74 00              3306 	mov	a,#0x00
   235C F0                 3307 	movx	@dptr,a
                           3308 ;	genAssign
   235D 90 00 2E           3309 	mov	dptr,#_HAL_assert_fail_PARM_2
   2360 74 A3              3310 	mov	a,#0xA3
   2362 F0                 3311 	movx	@dptr,a
   2363 E4                 3312 	clr	a
   2364 A3                 3313 	inc	dptr
   2365 F0                 3314 	movx	@dptr,a
   2366 A3                 3315 	inc	dptr
   2367 F0                 3316 	movx	@dptr,a
   2368 A3                 3317 	inc	dptr
   2369 F0                 3318 	movx	@dptr,a
                           3319 ;	genCall
   236A 75 82 0E           3320 	mov	dpl,#_UART_fill_tx_fifo_file_name_3_5
   236D 75 83 03           3321 	mov	dph,#(_UART_fill_tx_fifo_file_name_3_5 >> 8)
   2370 75 F0 00           3322 	mov	b,#0x00
   2373 C0 05              3323 	push	ar5
   2375 12 08 16           3324 	lcall	_HAL_assert_fail
   2378 D0 05              3325 	pop	ar5
   237A                    3326 00109$:
                    0E5E   3327 	C$core_uart_apb.c$164$2$6 ==.
                           3328 ;	../drivers/CoreUARTapb/core_uart_apb.c:164: HAL_ASSERT( tx_size > 0 )
                           3329 ;	genAssign
   237A 90 02 E0           3330 	mov	dptr,#_UART_fill_tx_fifo_PARM_3
   237D E0                 3331 	movx	a,@dptr
   237E FE                 3332 	mov	r6,a
   237F A3                 3333 	inc	dptr
   2380 E0                 3334 	movx	a,@dptr
   2381 FF                 3335 	mov	r7,a
                           3336 ;	genIfx
   2382 EE                 3337 	mov	a,r6
   2383 4F                 3338 	orl	a,r7
                           3339 ;	genIfxJump
   2384 60 03              3340 	jz	00141$
   2386 02 24 98           3341 	ljmp	00114$
   2389                    3342 00141$:
                           3343 ;	genPointerSet
                           3344 ;     genFarPointerSet
   2389 90 03 35           3345 	mov	dptr,#_UART_fill_tx_fifo_file_name_3_7
   238C 74 2E              3346 	mov	a,#0x2E
   238E F0                 3347 	movx	@dptr,a
                           3348 ;	genPointerSet
                           3349 ;     genFarPointerSet
   238F 90 03 36           3350 	mov	dptr,#(_UART_fill_tx_fifo_file_name_3_7 + 0x0001)
   2392 74 2E              3351 	mov	a,#0x2E
   2394 F0                 3352 	movx	@dptr,a
                           3353 ;	genPointerSet
                           3354 ;     genFarPointerSet
   2395 90 03 37           3355 	mov	dptr,#(_UART_fill_tx_fifo_file_name_3_7 + 0x0002)
   2398 74 2F              3356 	mov	a,#0x2F
   239A F0                 3357 	movx	@dptr,a
                           3358 ;	genPointerSet
                           3359 ;     genFarPointerSet
   239B 90 03 38           3360 	mov	dptr,#(_UART_fill_tx_fifo_file_name_3_7 + 0x0003)
   239E 74 64              3361 	mov	a,#0x64
   23A0 F0                 3362 	movx	@dptr,a
                           3363 ;	genPointerSet
                           3364 ;     genFarPointerSet
   23A1 90 03 39           3365 	mov	dptr,#(_UART_fill_tx_fifo_file_name_3_7 + 0x0004)
   23A4 74 72              3366 	mov	a,#0x72
   23A6 F0                 3367 	movx	@dptr,a
                           3368 ;	genPointerSet
                           3369 ;     genFarPointerSet
   23A7 90 03 3A           3370 	mov	dptr,#(_UART_fill_tx_fifo_file_name_3_7 + 0x0005)
   23AA 74 69              3371 	mov	a,#0x69
   23AC F0                 3372 	movx	@dptr,a
                           3373 ;	genPointerSet
                           3374 ;     genFarPointerSet
   23AD 90 03 3B           3375 	mov	dptr,#(_UART_fill_tx_fifo_file_name_3_7 + 0x0006)
   23B0 74 76              3376 	mov	a,#0x76
   23B2 F0                 3377 	movx	@dptr,a
                           3378 ;	genPointerSet
                           3379 ;     genFarPointerSet
   23B3 90 03 3C           3380 	mov	dptr,#(_UART_fill_tx_fifo_file_name_3_7 + 0x0007)
   23B6 74 65              3381 	mov	a,#0x65
   23B8 F0                 3382 	movx	@dptr,a
                           3383 ;	genPointerSet
                           3384 ;     genFarPointerSet
   23B9 90 03 3D           3385 	mov	dptr,#(_UART_fill_tx_fifo_file_name_3_7 + 0x0008)
   23BC 74 72              3386 	mov	a,#0x72
   23BE F0                 3387 	movx	@dptr,a
                           3388 ;	genPointerSet
                           3389 ;     genFarPointerSet
   23BF 90 03 3E           3390 	mov	dptr,#(_UART_fill_tx_fifo_file_name_3_7 + 0x0009)
   23C2 74 73              3391 	mov	a,#0x73
   23C4 F0                 3392 	movx	@dptr,a
                           3393 ;	genPointerSet
                           3394 ;     genFarPointerSet
   23C5 90 03 3F           3395 	mov	dptr,#(_UART_fill_tx_fifo_file_name_3_7 + 0x000a)
   23C8 74 2F              3396 	mov	a,#0x2F
   23CA F0                 3397 	movx	@dptr,a
                           3398 ;	genPointerSet
                           3399 ;     genFarPointerSet
   23CB 90 03 40           3400 	mov	dptr,#(_UART_fill_tx_fifo_file_name_3_7 + 0x000b)
   23CE 74 43              3401 	mov	a,#0x43
   23D0 F0                 3402 	movx	@dptr,a
                           3403 ;	genPointerSet
                           3404 ;     genFarPointerSet
   23D1 90 03 41           3405 	mov	dptr,#(_UART_fill_tx_fifo_file_name_3_7 + 0x000c)
   23D4 74 6F              3406 	mov	a,#0x6F
   23D6 F0                 3407 	movx	@dptr,a
                           3408 ;	genPointerSet
                           3409 ;     genFarPointerSet
   23D7 90 03 42           3410 	mov	dptr,#(_UART_fill_tx_fifo_file_name_3_7 + 0x000d)
   23DA 74 72              3411 	mov	a,#0x72
   23DC F0                 3412 	movx	@dptr,a
                           3413 ;	genPointerSet
                           3414 ;     genFarPointerSet
   23DD 90 03 43           3415 	mov	dptr,#(_UART_fill_tx_fifo_file_name_3_7 + 0x000e)
   23E0 74 65              3416 	mov	a,#0x65
   23E2 F0                 3417 	movx	@dptr,a
                           3418 ;	genPointerSet
                           3419 ;     genFarPointerSet
   23E3 90 03 44           3420 	mov	dptr,#(_UART_fill_tx_fifo_file_name_3_7 + 0x000f)
   23E6 74 55              3421 	mov	a,#0x55
   23E8 F0                 3422 	movx	@dptr,a
                           3423 ;	genPointerSet
                           3424 ;     genFarPointerSet
   23E9 90 03 45           3425 	mov	dptr,#(_UART_fill_tx_fifo_file_name_3_7 + 0x0010)
   23EC 74 41              3426 	mov	a,#0x41
   23EE F0                 3427 	movx	@dptr,a
                           3428 ;	genPointerSet
                           3429 ;     genFarPointerSet
   23EF 90 03 46           3430 	mov	dptr,#(_UART_fill_tx_fifo_file_name_3_7 + 0x0011)
   23F2 74 52              3431 	mov	a,#0x52
   23F4 F0                 3432 	movx	@dptr,a
                           3433 ;	genPointerSet
                           3434 ;     genFarPointerSet
   23F5 90 03 47           3435 	mov	dptr,#(_UART_fill_tx_fifo_file_name_3_7 + 0x0012)
   23F8 74 54              3436 	mov	a,#0x54
   23FA F0                 3437 	movx	@dptr,a
                           3438 ;	genPointerSet
                           3439 ;     genFarPointerSet
   23FB 90 03 48           3440 	mov	dptr,#(_UART_fill_tx_fifo_file_name_3_7 + 0x0013)
   23FE 74 61              3441 	mov	a,#0x61
   2400 F0                 3442 	movx	@dptr,a
                           3443 ;	genPointerSet
                           3444 ;     genFarPointerSet
   2401 90 03 49           3445 	mov	dptr,#(_UART_fill_tx_fifo_file_name_3_7 + 0x0014)
   2404 74 70              3446 	mov	a,#0x70
   2406 F0                 3447 	movx	@dptr,a
                           3448 ;	genPointerSet
                           3449 ;     genFarPointerSet
   2407 90 03 4A           3450 	mov	dptr,#(_UART_fill_tx_fifo_file_name_3_7 + 0x0015)
   240A 74 62              3451 	mov	a,#0x62
   240C F0                 3452 	movx	@dptr,a
                           3453 ;	genPointerSet
                           3454 ;     genFarPointerSet
   240D 90 03 4B           3455 	mov	dptr,#(_UART_fill_tx_fifo_file_name_3_7 + 0x0016)
   2410 74 2F              3456 	mov	a,#0x2F
   2412 F0                 3457 	movx	@dptr,a
                           3458 ;	genPointerSet
                           3459 ;     genFarPointerSet
   2413 90 03 4C           3460 	mov	dptr,#(_UART_fill_tx_fifo_file_name_3_7 + 0x0017)
   2416 74 63              3461 	mov	a,#0x63
   2418 F0                 3462 	movx	@dptr,a
                           3463 ;	genPointerSet
                           3464 ;     genFarPointerSet
   2419 90 03 4D           3465 	mov	dptr,#(_UART_fill_tx_fifo_file_name_3_7 + 0x0018)
   241C 74 6F              3466 	mov	a,#0x6F
   241E F0                 3467 	movx	@dptr,a
                           3468 ;	genPointerSet
                           3469 ;     genFarPointerSet
   241F 90 03 4E           3470 	mov	dptr,#(_UART_fill_tx_fifo_file_name_3_7 + 0x0019)
   2422 74 72              3471 	mov	a,#0x72
   2424 F0                 3472 	movx	@dptr,a
                           3473 ;	genPointerSet
                           3474 ;     genFarPointerSet
   2425 90 03 4F           3475 	mov	dptr,#(_UART_fill_tx_fifo_file_name_3_7 + 0x001a)
   2428 74 65              3476 	mov	a,#0x65
   242A F0                 3477 	movx	@dptr,a
                           3478 ;	genPointerSet
                           3479 ;     genFarPointerSet
   242B 90 03 50           3480 	mov	dptr,#(_UART_fill_tx_fifo_file_name_3_7 + 0x001b)
   242E 74 5F              3481 	mov	a,#0x5F
   2430 F0                 3482 	movx	@dptr,a
                           3483 ;	genPointerSet
                           3484 ;     genFarPointerSet
   2431 90 03 51           3485 	mov	dptr,#(_UART_fill_tx_fifo_file_name_3_7 + 0x001c)
   2434 74 75              3486 	mov	a,#0x75
   2436 F0                 3487 	movx	@dptr,a
                           3488 ;	genPointerSet
                           3489 ;     genFarPointerSet
   2437 90 03 52           3490 	mov	dptr,#(_UART_fill_tx_fifo_file_name_3_7 + 0x001d)
   243A 74 61              3491 	mov	a,#0x61
   243C F0                 3492 	movx	@dptr,a
                           3493 ;	genPointerSet
                           3494 ;     genFarPointerSet
   243D 90 03 53           3495 	mov	dptr,#(_UART_fill_tx_fifo_file_name_3_7 + 0x001e)
   2440 74 72              3496 	mov	a,#0x72
   2442 F0                 3497 	movx	@dptr,a
                           3498 ;	genPointerSet
                           3499 ;     genFarPointerSet
   2443 90 03 54           3500 	mov	dptr,#(_UART_fill_tx_fifo_file_name_3_7 + 0x001f)
   2446 74 74              3501 	mov	a,#0x74
   2448 F0                 3502 	movx	@dptr,a
                           3503 ;	genPointerSet
                           3504 ;     genFarPointerSet
   2449 90 03 55           3505 	mov	dptr,#(_UART_fill_tx_fifo_file_name_3_7 + 0x0020)
   244C 74 5F              3506 	mov	a,#0x5F
   244E F0                 3507 	movx	@dptr,a
                           3508 ;	genPointerSet
                           3509 ;     genFarPointerSet
   244F 90 03 56           3510 	mov	dptr,#(_UART_fill_tx_fifo_file_name_3_7 + 0x0021)
   2452 74 61              3511 	mov	a,#0x61
   2454 F0                 3512 	movx	@dptr,a
                           3513 ;	genPointerSet
                           3514 ;     genFarPointerSet
   2455 90 03 57           3515 	mov	dptr,#(_UART_fill_tx_fifo_file_name_3_7 + 0x0022)
   2458 74 70              3516 	mov	a,#0x70
   245A F0                 3517 	movx	@dptr,a
                           3518 ;	genPointerSet
                           3519 ;     genFarPointerSet
   245B 90 03 58           3520 	mov	dptr,#(_UART_fill_tx_fifo_file_name_3_7 + 0x0023)
   245E 74 62              3521 	mov	a,#0x62
   2460 F0                 3522 	movx	@dptr,a
                           3523 ;	genPointerSet
                           3524 ;     genFarPointerSet
   2461 90 03 59           3525 	mov	dptr,#(_UART_fill_tx_fifo_file_name_3_7 + 0x0024)
   2464 74 2E              3526 	mov	a,#0x2E
   2466 F0                 3527 	movx	@dptr,a
                           3528 ;	genPointerSet
                           3529 ;     genFarPointerSet
   2467 90 03 5A           3530 	mov	dptr,#(_UART_fill_tx_fifo_file_name_3_7 + 0x0025)
   246A 74 63              3531 	mov	a,#0x63
   246C F0                 3532 	movx	@dptr,a
                           3533 ;	genPointerSet
                           3534 ;     genFarPointerSet
   246D 90 03 5B           3535 	mov	dptr,#(_UART_fill_tx_fifo_file_name_3_7 + 0x0026)
   2470 74 00              3536 	mov	a,#0x00
   2472 F0                 3537 	movx	@dptr,a
                           3538 ;	genAssign
   2473 90 00 2E           3539 	mov	dptr,#_HAL_assert_fail_PARM_2
   2476 74 A4              3540 	mov	a,#0xA4
   2478 F0                 3541 	movx	@dptr,a
   2479 E4                 3542 	clr	a
   247A A3                 3543 	inc	dptr
   247B F0                 3544 	movx	@dptr,a
   247C A3                 3545 	inc	dptr
   247D F0                 3546 	movx	@dptr,a
   247E A3                 3547 	inc	dptr
   247F F0                 3548 	movx	@dptr,a
                           3549 ;	genCall
   2480 75 82 35           3550 	mov	dpl,#_UART_fill_tx_fifo_file_name_3_7
   2483 75 83 03           3551 	mov	dph,#(_UART_fill_tx_fifo_file_name_3_7 >> 8)
   2486 75 F0 00           3552 	mov	b,#0x00
   2489 C0 05              3553 	push	ar5
   248B C0 06              3554 	push	ar6
   248D C0 07              3555 	push	ar7
   248F 12 08 16           3556 	lcall	_HAL_assert_fail
   2492 D0 07              3557 	pop	ar7
   2494 D0 06              3558 	pop	ar6
   2496 D0 05              3559 	pop	ar5
   2498                    3560 00114$:
                    0F7C   3561 	C$core_uart_apb.c$168$1$1 ==.
                           3562 ;	../drivers/CoreUARTapb/core_uart_apb.c:168: if( (this_uart != NULL_INSTANCE) &&
                           3563 ;	genAssign
   2498 90 02 E2           3564 	mov	dptr,#_UART_fill_tx_fifo_this_uart_1_1
   249B E0                 3565 	movx	a,@dptr
   249C FA                 3566 	mov	r2,a
   249D A3                 3567 	inc	dptr
   249E E0                 3568 	movx	a,@dptr
   249F FB                 3569 	mov	r3,a
   24A0 A3                 3570 	inc	dptr
   24A1 E0                 3571 	movx	a,@dptr
   24A2 FC                 3572 	mov	r4,a
                           3573 ;	genCmpEq
                           3574 ;	gencjneshort
   24A3 BA 00 09           3575 	cjne	r2,#0x00,00142$
   24A6 BB 00 06           3576 	cjne	r3,#0x00,00142$
   24A9 BC 00 03           3577 	cjne	r4,#0x00,00142$
   24AC 02 25 C1           3578 	ljmp	00123$
   24AF                    3579 00142$:
                    0F93   3580 	C$core_uart_apb.c$169$1$1 ==.
                           3581 ;	../drivers/CoreUARTapb/core_uart_apb.c:169: (tx_buffer != NULL_BUFFER)   &&
                           3582 ;	genIfx
   24AF ED                 3583 	mov	a,r5
                           3584 ;	genIfxJump
   24B0 60 03              3585 	jz	00143$
   24B2 02 25 C1           3586 	ljmp	00123$
   24B5                    3587 00143$:
                    0F99   3588 	C$core_uart_apb.c$170$1$1 ==.
                           3589 ;	../drivers/CoreUARTapb/core_uart_apb.c:170: (tx_size > 0u) )
                           3590 ;	genIfx
   24B5 EE                 3591 	mov	a,r6
   24B6 4F                 3592 	orl	a,r7
                           3593 ;	genIfxJump
   24B7 70 03              3594 	jnz	00144$
   24B9 02 25 C1           3595 	ljmp	00123$
   24BC                    3596 00144$:
                    0FA0   3597 	C$core_uart_apb.c$172$2$8 ==.
                           3598 ;	../drivers/CoreUARTapb/core_uart_apb.c:172: tx_ready = HAL_get_8bit_reg( this_uart->base_address, STATUS ) &
                           3599 ;	genPointerGet
                           3600 ;	genGenPointerGet
   24BC 8A 82              3601 	mov	dpl,r2
   24BE 8B 83              3602 	mov	dph,r3
   24C0 8C F0              3603 	mov	b,r4
   24C2 12 5C 8D           3604 	lcall	__gptrget
   24C5 FD                 3605 	mov	r5,a
   24C6 A3                 3606 	inc	dptr
   24C7 12 5C 8D           3607 	lcall	__gptrget
   24CA F8                 3608 	mov	r0,a
                           3609 ;	genPlus
                           3610 ;	genPlusIncr
   24CB 74 10              3611 	mov	a,#0x10
   24CD 25 05              3612 	add	a,ar5
   24CF FD                 3613 	mov	r5,a
   24D0 74 00              3614 	mov	a,#0x00
   24D2 35 00              3615 	addc	a,ar0
   24D4 F8                 3616 	mov	r0,a
                           3617 ;	genCall
   24D5 8D 82              3618 	mov	dpl,r5
   24D7 88 83              3619 	mov	dph,r0
   24D9 C0 02              3620 	push	ar2
   24DB C0 03              3621 	push	ar3
   24DD C0 04              3622 	push	ar4
   24DF C0 06              3623 	push	ar6
   24E1 C0 07              3624 	push	ar7
   24E3 12 08 C7           3625 	lcall	_HW_get_8bit_reg
   24E6 AD 82              3626 	mov	r5,dpl
   24E8 D0 07              3627 	pop	ar7
   24EA D0 06              3628 	pop	ar6
   24EC D0 04              3629 	pop	ar4
   24EE D0 03              3630 	pop	ar3
   24F0 D0 02              3631 	pop	ar2
                           3632 ;	genCast
   24F2 78 00              3633 	mov	r0,#0x00
                           3634 ;	genAnd
   24F4 53 05 01           3635 	anl	ar5,#0x01
   24F7 78 00              3636 	mov	r0,#0x00
                           3637 ;	genCast
                    0FDD   3638 	C$core_uart_apb.c$174$2$8 ==.
                           3639 ;	../drivers/CoreUARTapb/core_uart_apb.c:174: if ( tx_ready )
                           3640 ;	genIfx
   24F9 ED                 3641 	mov	a,r5
                           3642 ;	genIfxJump
   24FA 70 03              3643 	jnz	00145$
   24FC 02 25 C1           3644 	ljmp	00123$
   24FF                    3645 00145$:
                    0FE3   3646 	C$core_uart_apb.c$176$4$10 ==.
                           3647 ;	../drivers/CoreUARTapb/core_uart_apb.c:176: do {
                           3648 ;	genAssign
   24FF 8A 05              3649 	mov	ar5,r2
   2501 8B 00              3650 	mov	ar0,r3
   2503 8C 01              3651 	mov	ar1,r4
   2505                    3652 00117$:
                    0FE9   3653 	C$core_uart_apb.c$177$1$1 ==.
                           3654 ;	../drivers/CoreUARTapb/core_uart_apb.c:177: HAL_set_8bit_reg( this_uart->base_address, TXDATA,
                           3655 ;	genIpush
   2505 C0 06              3656 	push	ar6
   2507 C0 07              3657 	push	ar7
                           3658 ;	genPointerGet
                           3659 ;	genGenPointerGet
   2509 8D 82              3660 	mov	dpl,r5
   250B 88 83              3661 	mov	dph,r0
   250D 89 F0              3662 	mov	b,r1
   250F 12 5C 8D           3663 	lcall	__gptrget
   2512 F5 31              3664 	mov	_UART_fill_tx_fifo_sloc0_1_0,a
   2514 A3                 3665 	inc	dptr
   2515 12 5C 8D           3666 	lcall	__gptrget
   2518 F5 32              3667 	mov	(_UART_fill_tx_fifo_sloc0_1_0 + 1),a
                           3668 ;	genAssign
   251A 90 02 E5           3669 	mov	dptr,#_UART_fill_tx_fifo_size_sent_1_1
   251D E0                 3670 	movx	a,@dptr
   251E FE                 3671 	mov	r6,a
   251F A3                 3672 	inc	dptr
   2520 E0                 3673 	movx	a,@dptr
   2521 FF                 3674 	mov	r7,a
                           3675 ;	genPlus
   2522 E5 06              3676 	mov	a,ar6
   2524 25 34              3677 	add	a,_UART_fill_tx_fifo_sloc1_1_0
   2526 FA                 3678 	mov	r2,a
   2527 E5 07              3679 	mov	a,ar7
   2529 35 35              3680 	addc	a,(_UART_fill_tx_fifo_sloc1_1_0 + 1)
   252B FB                 3681 	mov	r3,a
   252C AC 36              3682 	mov	r4,(_UART_fill_tx_fifo_sloc1_1_0 + 2)
                           3683 ;	genPointerGet
                           3684 ;	genGenPointerGet
   252E 8A 82              3685 	mov	dpl,r2
   2530 8B 83              3686 	mov	dph,r3
   2532 8C F0              3687 	mov	b,r4
   2534 12 5C 8D           3688 	lcall	__gptrget
   2537 FA                 3689 	mov	r2,a
                           3690 ;	genAssign
   2538 90 00 4B           3691 	mov	dptr,#_HW_set_8bit_reg_PARM_2
   253B EA                 3692 	mov	a,r2
   253C F0                 3693 	movx	@dptr,a
                           3694 ;	genCall
   253D 85 31 82           3695 	mov	dpl,_UART_fill_tx_fifo_sloc0_1_0
   2540 85 32 83           3696 	mov	dph,(_UART_fill_tx_fifo_sloc0_1_0 + 1)
   2543 C0 05              3697 	push	ar5
   2545 C0 06              3698 	push	ar6
   2547 C0 07              3699 	push	ar7
   2549 C0 00              3700 	push	ar0
   254B C0 01              3701 	push	ar1
   254D 12 08 B9           3702 	lcall	_HW_set_8bit_reg
   2550 D0 01              3703 	pop	ar1
   2552 D0 00              3704 	pop	ar0
   2554 D0 07              3705 	pop	ar7
   2556 D0 06              3706 	pop	ar6
   2558 D0 05              3707 	pop	ar5
                    103E   3708 	C$core_uart_apb.c$179$4$10 ==.
                           3709 ;	../drivers/CoreUARTapb/core_uart_apb.c:179: size_sent++;
                           3710 ;	genPlus
   255A 90 02 E5           3711 	mov	dptr,#_UART_fill_tx_fifo_size_sent_1_1
                           3712 ;	genPlusIncr
   255D 74 01              3713 	mov	a,#0x01
   255F 25 06              3714 	add	a,ar6
   2561 F0                 3715 	movx	@dptr,a
   2562 74 00              3716 	mov	a,#0x00
   2564 35 07              3717 	addc	a,ar7
   2566 A3                 3718 	inc	dptr
   2567 F0                 3719 	movx	@dptr,a
                    104C   3720 	C$core_uart_apb.c$180$4$10 ==.
                           3721 ;	../drivers/CoreUARTapb/core_uart_apb.c:180: tx_ready = HAL_get_8bit_reg( this_uart->base_address, STATUS ) &
                           3722 ;	genPointerGet
                           3723 ;	genGenPointerGet
   2568 8D 82              3724 	mov	dpl,r5
   256A 88 83              3725 	mov	dph,r0
   256C 89 F0              3726 	mov	b,r1
   256E 12 5C 8D           3727 	lcall	__gptrget
   2571 FA                 3728 	mov	r2,a
   2572 A3                 3729 	inc	dptr
   2573 12 5C 8D           3730 	lcall	__gptrget
   2576 FB                 3731 	mov	r3,a
                           3732 ;	genPlus
                           3733 ;	genPlusIncr
   2577 74 10              3734 	mov	a,#0x10
   2579 25 02              3735 	add	a,ar2
   257B FA                 3736 	mov	r2,a
   257C 74 00              3737 	mov	a,#0x00
   257E 35 03              3738 	addc	a,ar3
   2580 FB                 3739 	mov	r3,a
                           3740 ;	genCall
   2581 8A 82              3741 	mov	dpl,r2
   2583 8B 83              3742 	mov	dph,r3
   2585 C0 05              3743 	push	ar5
   2587 C0 06              3744 	push	ar6
   2589 C0 07              3745 	push	ar7
   258B C0 00              3746 	push	ar0
   258D C0 01              3747 	push	ar1
   258F 12 08 C7           3748 	lcall	_HW_get_8bit_reg
   2592 AA 82              3749 	mov	r2,dpl
   2594 D0 01              3750 	pop	ar1
   2596 D0 00              3751 	pop	ar0
   2598 D0 07              3752 	pop	ar7
   259A D0 06              3753 	pop	ar6
   259C D0 05              3754 	pop	ar5
                           3755 ;	genCast
   259E 7B 00              3756 	mov	r3,#0x00
                           3757 ;	genAnd
   25A0 53 02 01           3758 	anl	ar2,#0x01
   25A3 7B 00              3759 	mov	r3,#0x00
                           3760 ;	genCast
                    1089   3761 	C$core_uart_apb.c$182$1$1 ==.
                           3762 ;	../drivers/CoreUARTapb/core_uart_apb.c:182: } while ( (tx_ready) && ( size_sent < tx_size ) );
                           3763 ;	genIpop
   25A5 D0 07              3764 	pop	ar7
   25A7 D0 06              3765 	pop	ar6
                           3766 ;	genIfx
   25A9 EA                 3767 	mov	a,r2
                           3768 ;	genIfxJump
   25AA 70 03              3769 	jnz	00146$
   25AC 02 25 C1           3770 	ljmp	00123$
   25AF                    3771 00146$:
                           3772 ;	genAssign
   25AF 90 02 E5           3773 	mov	dptr,#_UART_fill_tx_fifo_size_sent_1_1
   25B2 E0                 3774 	movx	a,@dptr
   25B3 FA                 3775 	mov	r2,a
   25B4 A3                 3776 	inc	dptr
   25B5 E0                 3777 	movx	a,@dptr
   25B6 FB                 3778 	mov	r3,a
                           3779 ;	genCmpLt
                           3780 ;	genCmp
   25B7 C3                 3781 	clr	c
   25B8 EA                 3782 	mov	a,r2
   25B9 9E                 3783 	subb	a,r6
   25BA EB                 3784 	mov	a,r3
   25BB 9F                 3785 	subb	a,r7
                           3786 ;	genIfxJump
   25BC 50 03              3787 	jnc	00147$
   25BE 02 25 05           3788 	ljmp	00117$
   25C1                    3789 00147$:
   25C1                    3790 00123$:
                    10A5   3791 	C$core_uart_apb.c$185$1$1 ==.
                           3792 ;	../drivers/CoreUARTapb/core_uart_apb.c:185: return size_sent;
                           3793 ;	genAssign
   25C1 90 02 E5           3794 	mov	dptr,#_UART_fill_tx_fifo_size_sent_1_1
   25C4 E0                 3795 	movx	a,@dptr
   25C5 FA                 3796 	mov	r2,a
   25C6 A3                 3797 	inc	dptr
   25C7 E0                 3798 	movx	a,@dptr
   25C8 FB                 3799 	mov	r3,a
                           3800 ;	genRet
   25C9 8A 82              3801 	mov	dpl,r2
   25CB 8B 83              3802 	mov	dph,r3
   25CD                    3803 00126$:
                    10B1   3804 	C$core_uart_apb.c$186$1$1 ==.
                    10B1   3805 	XG$UART_fill_tx_fifo$0$0 ==.
   25CD 22                 3806 	ret
                           3807 ;------------------------------------------------------------
                           3808 ;Allocation info for local variables in function 'UART_get_rx'
                           3809 ;------------------------------------------------------------
                           3810 ;sloc0                     Allocated with name '_UART_get_rx_sloc0_1_0'
                           3811 ;sloc1                     Allocated with name '_UART_get_rx_sloc1_1_0'
                           3812 ;rx_buffer                 Allocated with name '_UART_get_rx_PARM_2'
                           3813 ;buff_size                 Allocated with name '_UART_get_rx_PARM_3'
                           3814 ;this_uart                 Allocated with name '_UART_get_rx_this_uart_1_1'
                           3815 ;new_status                Allocated with name '_UART_get_rx_new_status_1_1'
                           3816 ;rx_full                   Allocated with name '_UART_get_rx_rx_full_1_1'
                           3817 ;rx_idx                    Allocated with name '_UART_get_rx_rx_idx_1_1'
                           3818 ;file_name                 Allocated with name '_UART_get_rx_file_name_3_3'
                           3819 ;file_name                 Allocated with name '_UART_get_rx_file_name_3_5'
                           3820 ;file_name                 Allocated with name '_UART_get_rx_file_name_3_7'
                           3821 ;------------------------------------------------------------
                    10B2   3822 	G$UART_get_rx$0$0 ==.
                    10B2   3823 	C$core_uart_apb.c$193$1$1 ==.
                           3824 ;	../drivers/CoreUARTapb/core_uart_apb.c:193: UART_get_rx
                           3825 ;	-----------------------------------------
                           3826 ;	 function UART_get_rx
                           3827 ;	-----------------------------------------
   25CE                    3828 _UART_get_rx:
                           3829 ;	genReceive
   25CE AA F0              3830 	mov	r2,b
   25D0 AB 83              3831 	mov	r3,dph
   25D2 E5 82              3832 	mov	a,dpl
   25D4 90 03 61           3833 	mov	dptr,#_UART_get_rx_this_uart_1_1
   25D7 F0                 3834 	movx	@dptr,a
   25D8 A3                 3835 	inc	dptr
   25D9 EB                 3836 	mov	a,r3
   25DA F0                 3837 	movx	@dptr,a
   25DB A3                 3838 	inc	dptr
   25DC EA                 3839 	mov	a,r2
   25DD F0                 3840 	movx	@dptr,a
                    10C2   3841 	C$core_uart_apb.c$202$1$1 ==.
                           3842 ;	../drivers/CoreUARTapb/core_uart_apb.c:202: size_t rx_idx = 0u;
                           3843 ;	genAssign
   25DE 90 03 65           3844 	mov	dptr,#_UART_get_rx_rx_idx_1_1
   25E1 E4                 3845 	clr	a
   25E2 F0                 3846 	movx	@dptr,a
   25E3 A3                 3847 	inc	dptr
   25E4 F0                 3848 	movx	@dptr,a
                    10C9   3849 	C$core_uart_apb.c$204$2$2 ==.
                           3850 ;	../drivers/CoreUARTapb/core_uart_apb.c:204: HAL_ASSERT( this_uart != NULL_INSTANCE )
                           3851 ;	genAssign
   25E5 90 03 61           3852 	mov	dptr,#_UART_get_rx_this_uart_1_1
   25E8 E0                 3853 	movx	a,@dptr
   25E9 FA                 3854 	mov	r2,a
   25EA A3                 3855 	inc	dptr
   25EB E0                 3856 	movx	a,@dptr
   25EC FB                 3857 	mov	r3,a
   25ED A3                 3858 	inc	dptr
   25EE E0                 3859 	movx	a,@dptr
   25EF FC                 3860 	mov	r4,a
                           3861 ;	genCmpEq
                           3862 ;	gencjneshort
   25F0 BA 00 08           3863 	cjne	r2,#0x00,00135$
   25F3 BB 00 05           3864 	cjne	r3,#0x00,00135$
   25F6 BC 00 02           3865 	cjne	r4,#0x00,00135$
   25F9 80 03              3866 	sjmp	00136$
   25FB                    3867 00135$:
   25FB 02 27 01           3868 	ljmp	00104$
   25FE                    3869 00136$:
                           3870 ;	genPointerSet
                           3871 ;     genFarPointerSet
   25FE 90 03 67           3872 	mov	dptr,#_UART_get_rx_file_name_3_3
   2601 74 2E              3873 	mov	a,#0x2E
   2603 F0                 3874 	movx	@dptr,a
                           3875 ;	genPointerSet
                           3876 ;     genFarPointerSet
   2604 90 03 68           3877 	mov	dptr,#(_UART_get_rx_file_name_3_3 + 0x0001)
   2607 74 2E              3878 	mov	a,#0x2E
   2609 F0                 3879 	movx	@dptr,a
                           3880 ;	genPointerSet
                           3881 ;     genFarPointerSet
   260A 90 03 69           3882 	mov	dptr,#(_UART_get_rx_file_name_3_3 + 0x0002)
   260D 74 2F              3883 	mov	a,#0x2F
   260F F0                 3884 	movx	@dptr,a
                           3885 ;	genPointerSet
                           3886 ;     genFarPointerSet
   2610 90 03 6A           3887 	mov	dptr,#(_UART_get_rx_file_name_3_3 + 0x0003)
   2613 74 64              3888 	mov	a,#0x64
   2615 F0                 3889 	movx	@dptr,a
                           3890 ;	genPointerSet
                           3891 ;     genFarPointerSet
   2616 90 03 6B           3892 	mov	dptr,#(_UART_get_rx_file_name_3_3 + 0x0004)
   2619 74 72              3893 	mov	a,#0x72
   261B F0                 3894 	movx	@dptr,a
                           3895 ;	genPointerSet
                           3896 ;     genFarPointerSet
   261C 90 03 6C           3897 	mov	dptr,#(_UART_get_rx_file_name_3_3 + 0x0005)
   261F 74 69              3898 	mov	a,#0x69
   2621 F0                 3899 	movx	@dptr,a
                           3900 ;	genPointerSet
                           3901 ;     genFarPointerSet
   2622 90 03 6D           3902 	mov	dptr,#(_UART_get_rx_file_name_3_3 + 0x0006)
   2625 74 76              3903 	mov	a,#0x76
   2627 F0                 3904 	movx	@dptr,a
                           3905 ;	genPointerSet
                           3906 ;     genFarPointerSet
   2628 90 03 6E           3907 	mov	dptr,#(_UART_get_rx_file_name_3_3 + 0x0007)
   262B 74 65              3908 	mov	a,#0x65
   262D F0                 3909 	movx	@dptr,a
                           3910 ;	genPointerSet
                           3911 ;     genFarPointerSet
   262E 90 03 6F           3912 	mov	dptr,#(_UART_get_rx_file_name_3_3 + 0x0008)
   2631 74 72              3913 	mov	a,#0x72
   2633 F0                 3914 	movx	@dptr,a
                           3915 ;	genPointerSet
                           3916 ;     genFarPointerSet
   2634 90 03 70           3917 	mov	dptr,#(_UART_get_rx_file_name_3_3 + 0x0009)
   2637 74 73              3918 	mov	a,#0x73
   2639 F0                 3919 	movx	@dptr,a
                           3920 ;	genPointerSet
                           3921 ;     genFarPointerSet
   263A 90 03 71           3922 	mov	dptr,#(_UART_get_rx_file_name_3_3 + 0x000a)
   263D 74 2F              3923 	mov	a,#0x2F
   263F F0                 3924 	movx	@dptr,a
                           3925 ;	genPointerSet
                           3926 ;     genFarPointerSet
   2640 90 03 72           3927 	mov	dptr,#(_UART_get_rx_file_name_3_3 + 0x000b)
   2643 74 43              3928 	mov	a,#0x43
   2645 F0                 3929 	movx	@dptr,a
                           3930 ;	genPointerSet
                           3931 ;     genFarPointerSet
   2646 90 03 73           3932 	mov	dptr,#(_UART_get_rx_file_name_3_3 + 0x000c)
   2649 74 6F              3933 	mov	a,#0x6F
   264B F0                 3934 	movx	@dptr,a
                           3935 ;	genPointerSet
                           3936 ;     genFarPointerSet
   264C 90 03 74           3937 	mov	dptr,#(_UART_get_rx_file_name_3_3 + 0x000d)
   264F 74 72              3938 	mov	a,#0x72
   2651 F0                 3939 	movx	@dptr,a
                           3940 ;	genPointerSet
                           3941 ;     genFarPointerSet
   2652 90 03 75           3942 	mov	dptr,#(_UART_get_rx_file_name_3_3 + 0x000e)
   2655 74 65              3943 	mov	a,#0x65
   2657 F0                 3944 	movx	@dptr,a
                           3945 ;	genPointerSet
                           3946 ;     genFarPointerSet
   2658 90 03 76           3947 	mov	dptr,#(_UART_get_rx_file_name_3_3 + 0x000f)
   265B 74 55              3948 	mov	a,#0x55
   265D F0                 3949 	movx	@dptr,a
                           3950 ;	genPointerSet
                           3951 ;     genFarPointerSet
   265E 90 03 77           3952 	mov	dptr,#(_UART_get_rx_file_name_3_3 + 0x0010)
   2661 74 41              3953 	mov	a,#0x41
   2663 F0                 3954 	movx	@dptr,a
                           3955 ;	genPointerSet
                           3956 ;     genFarPointerSet
   2664 90 03 78           3957 	mov	dptr,#(_UART_get_rx_file_name_3_3 + 0x0011)
   2667 74 52              3958 	mov	a,#0x52
   2669 F0                 3959 	movx	@dptr,a
                           3960 ;	genPointerSet
                           3961 ;     genFarPointerSet
   266A 90 03 79           3962 	mov	dptr,#(_UART_get_rx_file_name_3_3 + 0x0012)
   266D 74 54              3963 	mov	a,#0x54
   266F F0                 3964 	movx	@dptr,a
                           3965 ;	genPointerSet
                           3966 ;     genFarPointerSet
   2670 90 03 7A           3967 	mov	dptr,#(_UART_get_rx_file_name_3_3 + 0x0013)
   2673 74 61              3968 	mov	a,#0x61
   2675 F0                 3969 	movx	@dptr,a
                           3970 ;	genPointerSet
                           3971 ;     genFarPointerSet
   2676 90 03 7B           3972 	mov	dptr,#(_UART_get_rx_file_name_3_3 + 0x0014)
   2679 74 70              3973 	mov	a,#0x70
   267B F0                 3974 	movx	@dptr,a
                           3975 ;	genPointerSet
                           3976 ;     genFarPointerSet
   267C 90 03 7C           3977 	mov	dptr,#(_UART_get_rx_file_name_3_3 + 0x0015)
   267F 74 62              3978 	mov	a,#0x62
   2681 F0                 3979 	movx	@dptr,a
                           3980 ;	genPointerSet
                           3981 ;     genFarPointerSet
   2682 90 03 7D           3982 	mov	dptr,#(_UART_get_rx_file_name_3_3 + 0x0016)
   2685 74 2F              3983 	mov	a,#0x2F
   2687 F0                 3984 	movx	@dptr,a
                           3985 ;	genPointerSet
                           3986 ;     genFarPointerSet
   2688 90 03 7E           3987 	mov	dptr,#(_UART_get_rx_file_name_3_3 + 0x0017)
   268B 74 63              3988 	mov	a,#0x63
   268D F0                 3989 	movx	@dptr,a
                           3990 ;	genPointerSet
                           3991 ;     genFarPointerSet
   268E 90 03 7F           3992 	mov	dptr,#(_UART_get_rx_file_name_3_3 + 0x0018)
   2691 74 6F              3993 	mov	a,#0x6F
   2693 F0                 3994 	movx	@dptr,a
                           3995 ;	genPointerSet
                           3996 ;     genFarPointerSet
   2694 90 03 80           3997 	mov	dptr,#(_UART_get_rx_file_name_3_3 + 0x0019)
   2697 74 72              3998 	mov	a,#0x72
   2699 F0                 3999 	movx	@dptr,a
                           4000 ;	genPointerSet
                           4001 ;     genFarPointerSet
   269A 90 03 81           4002 	mov	dptr,#(_UART_get_rx_file_name_3_3 + 0x001a)
   269D 74 65              4003 	mov	a,#0x65
   269F F0                 4004 	movx	@dptr,a
                           4005 ;	genPointerSet
                           4006 ;     genFarPointerSet
   26A0 90 03 82           4007 	mov	dptr,#(_UART_get_rx_file_name_3_3 + 0x001b)
   26A3 74 5F              4008 	mov	a,#0x5F
   26A5 F0                 4009 	movx	@dptr,a
                           4010 ;	genPointerSet
                           4011 ;     genFarPointerSet
   26A6 90 03 83           4012 	mov	dptr,#(_UART_get_rx_file_name_3_3 + 0x001c)
   26A9 74 75              4013 	mov	a,#0x75
   26AB F0                 4014 	movx	@dptr,a
                           4015 ;	genPointerSet
                           4016 ;     genFarPointerSet
   26AC 90 03 84           4017 	mov	dptr,#(_UART_get_rx_file_name_3_3 + 0x001d)
   26AF 74 61              4018 	mov	a,#0x61
   26B1 F0                 4019 	movx	@dptr,a
                           4020 ;	genPointerSet
                           4021 ;     genFarPointerSet
   26B2 90 03 85           4022 	mov	dptr,#(_UART_get_rx_file_name_3_3 + 0x001e)
   26B5 74 72              4023 	mov	a,#0x72
   26B7 F0                 4024 	movx	@dptr,a
                           4025 ;	genPointerSet
                           4026 ;     genFarPointerSet
   26B8 90 03 86           4027 	mov	dptr,#(_UART_get_rx_file_name_3_3 + 0x001f)
   26BB 74 74              4028 	mov	a,#0x74
   26BD F0                 4029 	movx	@dptr,a
                           4030 ;	genPointerSet
                           4031 ;     genFarPointerSet
   26BE 90 03 87           4032 	mov	dptr,#(_UART_get_rx_file_name_3_3 + 0x0020)
   26C1 74 5F              4033 	mov	a,#0x5F
   26C3 F0                 4034 	movx	@dptr,a
                           4035 ;	genPointerSet
                           4036 ;     genFarPointerSet
   26C4 90 03 88           4037 	mov	dptr,#(_UART_get_rx_file_name_3_3 + 0x0021)
   26C7 74 61              4038 	mov	a,#0x61
   26C9 F0                 4039 	movx	@dptr,a
                           4040 ;	genPointerSet
                           4041 ;     genFarPointerSet
   26CA 90 03 89           4042 	mov	dptr,#(_UART_get_rx_file_name_3_3 + 0x0022)
   26CD 74 70              4043 	mov	a,#0x70
   26CF F0                 4044 	movx	@dptr,a
                           4045 ;	genPointerSet
                           4046 ;     genFarPointerSet
   26D0 90 03 8A           4047 	mov	dptr,#(_UART_get_rx_file_name_3_3 + 0x0023)
   26D3 74 62              4048 	mov	a,#0x62
   26D5 F0                 4049 	movx	@dptr,a
                           4050 ;	genPointerSet
                           4051 ;     genFarPointerSet
   26D6 90 03 8B           4052 	mov	dptr,#(_UART_get_rx_file_name_3_3 + 0x0024)
   26D9 74 2E              4053 	mov	a,#0x2E
   26DB F0                 4054 	movx	@dptr,a
                           4055 ;	genPointerSet
                           4056 ;     genFarPointerSet
   26DC 90 03 8C           4057 	mov	dptr,#(_UART_get_rx_file_name_3_3 + 0x0025)
   26DF 74 63              4058 	mov	a,#0x63
   26E1 F0                 4059 	movx	@dptr,a
                           4060 ;	genPointerSet
                           4061 ;     genFarPointerSet
   26E2 90 03 8D           4062 	mov	dptr,#(_UART_get_rx_file_name_3_3 + 0x0026)
   26E5 74 00              4063 	mov	a,#0x00
   26E7 F0                 4064 	movx	@dptr,a
                           4065 ;	genAssign
   26E8 90 00 2E           4066 	mov	dptr,#_HAL_assert_fail_PARM_2
   26EB 74 CC              4067 	mov	a,#0xCC
   26ED F0                 4068 	movx	@dptr,a
   26EE E4                 4069 	clr	a
   26EF A3                 4070 	inc	dptr
   26F0 F0                 4071 	movx	@dptr,a
   26F1 A3                 4072 	inc	dptr
   26F2 F0                 4073 	movx	@dptr,a
   26F3 A3                 4074 	inc	dptr
   26F4 F0                 4075 	movx	@dptr,a
                           4076 ;	genCall
   26F5 75 82 67           4077 	mov	dpl,#_UART_get_rx_file_name_3_3
   26F8 75 83 03           4078 	mov	dph,#(_UART_get_rx_file_name_3_3 >> 8)
   26FB 75 F0 00           4079 	mov	b,#0x00
   26FE 12 08 16           4080 	lcall	_HAL_assert_fail
   2701                    4081 00104$:
                    11E5   4082 	C$core_uart_apb.c$205$2$4 ==.
                           4083 ;	../drivers/CoreUARTapb/core_uart_apb.c:205: HAL_ASSERT( rx_buffer != NULL_BUFFER )
                           4084 ;	genAssign
   2701 90 03 5C           4085 	mov	dptr,#_UART_get_rx_PARM_2
   2704 E0                 4086 	movx	a,@dptr
   2705 F5 3A              4087 	mov	_UART_get_rx_sloc1_1_0,a
   2707 A3                 4088 	inc	dptr
   2708 E0                 4089 	movx	a,@dptr
   2709 F5 3B              4090 	mov	(_UART_get_rx_sloc1_1_0 + 1),a
   270B A3                 4091 	inc	dptr
   270C E0                 4092 	movx	a,@dptr
   270D F5 3C              4093 	mov	(_UART_get_rx_sloc1_1_0 + 2),a
                           4094 ;	genCmpEq
                           4095 ;	gencjne
                           4096 ;	gencjneshort
   270F E5 3A              4097 	mov	a,_UART_get_rx_sloc1_1_0
   2711 70 0C              4098 	jnz	00137$
   2713 E5 3B              4099 	mov	a,(_UART_get_rx_sloc1_1_0 + 1)
   2715 70 08              4100 	jnz	00137$
   2717 E5 3C              4101 	mov	a,(_UART_get_rx_sloc1_1_0 + 2)
   2719 70 04              4102 	jnz	00137$
   271B 74 01              4103 	mov	a,#0x01
   271D 80 01              4104 	sjmp	00138$
   271F                    4105 00137$:
   271F E4                 4106 	clr	a
   2720                    4107 00138$:
   2720 FD                 4108 	mov	r5,a
                           4109 ;	genIfx
   2721 ED                 4110 	mov	a,r5
                           4111 ;	genIfxJump
   2722 70 03              4112 	jnz	00139$
   2724 02 28 2E           4113 	ljmp	00109$
   2727                    4114 00139$:
                           4115 ;	genPointerSet
                           4116 ;     genFarPointerSet
   2727 90 03 8E           4117 	mov	dptr,#_UART_get_rx_file_name_3_5
   272A 74 2E              4118 	mov	a,#0x2E
   272C F0                 4119 	movx	@dptr,a
                           4120 ;	genPointerSet
                           4121 ;     genFarPointerSet
   272D 90 03 8F           4122 	mov	dptr,#(_UART_get_rx_file_name_3_5 + 0x0001)
   2730 74 2E              4123 	mov	a,#0x2E
   2732 F0                 4124 	movx	@dptr,a
                           4125 ;	genPointerSet
                           4126 ;     genFarPointerSet
   2733 90 03 90           4127 	mov	dptr,#(_UART_get_rx_file_name_3_5 + 0x0002)
   2736 74 2F              4128 	mov	a,#0x2F
   2738 F0                 4129 	movx	@dptr,a
                           4130 ;	genPointerSet
                           4131 ;     genFarPointerSet
   2739 90 03 91           4132 	mov	dptr,#(_UART_get_rx_file_name_3_5 + 0x0003)
   273C 74 64              4133 	mov	a,#0x64
   273E F0                 4134 	movx	@dptr,a
                           4135 ;	genPointerSet
                           4136 ;     genFarPointerSet
   273F 90 03 92           4137 	mov	dptr,#(_UART_get_rx_file_name_3_5 + 0x0004)
   2742 74 72              4138 	mov	a,#0x72
   2744 F0                 4139 	movx	@dptr,a
                           4140 ;	genPointerSet
                           4141 ;     genFarPointerSet
   2745 90 03 93           4142 	mov	dptr,#(_UART_get_rx_file_name_3_5 + 0x0005)
   2748 74 69              4143 	mov	a,#0x69
   274A F0                 4144 	movx	@dptr,a
                           4145 ;	genPointerSet
                           4146 ;     genFarPointerSet
   274B 90 03 94           4147 	mov	dptr,#(_UART_get_rx_file_name_3_5 + 0x0006)
   274E 74 76              4148 	mov	a,#0x76
   2750 F0                 4149 	movx	@dptr,a
                           4150 ;	genPointerSet
                           4151 ;     genFarPointerSet
   2751 90 03 95           4152 	mov	dptr,#(_UART_get_rx_file_name_3_5 + 0x0007)
   2754 74 65              4153 	mov	a,#0x65
   2756 F0                 4154 	movx	@dptr,a
                           4155 ;	genPointerSet
                           4156 ;     genFarPointerSet
   2757 90 03 96           4157 	mov	dptr,#(_UART_get_rx_file_name_3_5 + 0x0008)
   275A 74 72              4158 	mov	a,#0x72
   275C F0                 4159 	movx	@dptr,a
                           4160 ;	genPointerSet
                           4161 ;     genFarPointerSet
   275D 90 03 97           4162 	mov	dptr,#(_UART_get_rx_file_name_3_5 + 0x0009)
   2760 74 73              4163 	mov	a,#0x73
   2762 F0                 4164 	movx	@dptr,a
                           4165 ;	genPointerSet
                           4166 ;     genFarPointerSet
   2763 90 03 98           4167 	mov	dptr,#(_UART_get_rx_file_name_3_5 + 0x000a)
   2766 74 2F              4168 	mov	a,#0x2F
   2768 F0                 4169 	movx	@dptr,a
                           4170 ;	genPointerSet
                           4171 ;     genFarPointerSet
   2769 90 03 99           4172 	mov	dptr,#(_UART_get_rx_file_name_3_5 + 0x000b)
   276C 74 43              4173 	mov	a,#0x43
   276E F0                 4174 	movx	@dptr,a
                           4175 ;	genPointerSet
                           4176 ;     genFarPointerSet
   276F 90 03 9A           4177 	mov	dptr,#(_UART_get_rx_file_name_3_5 + 0x000c)
   2772 74 6F              4178 	mov	a,#0x6F
   2774 F0                 4179 	movx	@dptr,a
                           4180 ;	genPointerSet
                           4181 ;     genFarPointerSet
   2775 90 03 9B           4182 	mov	dptr,#(_UART_get_rx_file_name_3_5 + 0x000d)
   2778 74 72              4183 	mov	a,#0x72
   277A F0                 4184 	movx	@dptr,a
                           4185 ;	genPointerSet
                           4186 ;     genFarPointerSet
   277B 90 03 9C           4187 	mov	dptr,#(_UART_get_rx_file_name_3_5 + 0x000e)
   277E 74 65              4188 	mov	a,#0x65
   2780 F0                 4189 	movx	@dptr,a
                           4190 ;	genPointerSet
                           4191 ;     genFarPointerSet
   2781 90 03 9D           4192 	mov	dptr,#(_UART_get_rx_file_name_3_5 + 0x000f)
   2784 74 55              4193 	mov	a,#0x55
   2786 F0                 4194 	movx	@dptr,a
                           4195 ;	genPointerSet
                           4196 ;     genFarPointerSet
   2787 90 03 9E           4197 	mov	dptr,#(_UART_get_rx_file_name_3_5 + 0x0010)
   278A 74 41              4198 	mov	a,#0x41
   278C F0                 4199 	movx	@dptr,a
                           4200 ;	genPointerSet
                           4201 ;     genFarPointerSet
   278D 90 03 9F           4202 	mov	dptr,#(_UART_get_rx_file_name_3_5 + 0x0011)
   2790 74 52              4203 	mov	a,#0x52
   2792 F0                 4204 	movx	@dptr,a
                           4205 ;	genPointerSet
                           4206 ;     genFarPointerSet
   2793 90 03 A0           4207 	mov	dptr,#(_UART_get_rx_file_name_3_5 + 0x0012)
   2796 74 54              4208 	mov	a,#0x54
   2798 F0                 4209 	movx	@dptr,a
                           4210 ;	genPointerSet
                           4211 ;     genFarPointerSet
   2799 90 03 A1           4212 	mov	dptr,#(_UART_get_rx_file_name_3_5 + 0x0013)
   279C 74 61              4213 	mov	a,#0x61
   279E F0                 4214 	movx	@dptr,a
                           4215 ;	genPointerSet
                           4216 ;     genFarPointerSet
   279F 90 03 A2           4217 	mov	dptr,#(_UART_get_rx_file_name_3_5 + 0x0014)
   27A2 74 70              4218 	mov	a,#0x70
   27A4 F0                 4219 	movx	@dptr,a
                           4220 ;	genPointerSet
                           4221 ;     genFarPointerSet
   27A5 90 03 A3           4222 	mov	dptr,#(_UART_get_rx_file_name_3_5 + 0x0015)
   27A8 74 62              4223 	mov	a,#0x62
   27AA F0                 4224 	movx	@dptr,a
                           4225 ;	genPointerSet
                           4226 ;     genFarPointerSet
   27AB 90 03 A4           4227 	mov	dptr,#(_UART_get_rx_file_name_3_5 + 0x0016)
   27AE 74 2F              4228 	mov	a,#0x2F
   27B0 F0                 4229 	movx	@dptr,a
                           4230 ;	genPointerSet
                           4231 ;     genFarPointerSet
   27B1 90 03 A5           4232 	mov	dptr,#(_UART_get_rx_file_name_3_5 + 0x0017)
   27B4 74 63              4233 	mov	a,#0x63
   27B6 F0                 4234 	movx	@dptr,a
                           4235 ;	genPointerSet
                           4236 ;     genFarPointerSet
   27B7 90 03 A6           4237 	mov	dptr,#(_UART_get_rx_file_name_3_5 + 0x0018)
   27BA 74 6F              4238 	mov	a,#0x6F
   27BC F0                 4239 	movx	@dptr,a
                           4240 ;	genPointerSet
                           4241 ;     genFarPointerSet
   27BD 90 03 A7           4242 	mov	dptr,#(_UART_get_rx_file_name_3_5 + 0x0019)
   27C0 74 72              4243 	mov	a,#0x72
   27C2 F0                 4244 	movx	@dptr,a
                           4245 ;	genPointerSet
                           4246 ;     genFarPointerSet
   27C3 90 03 A8           4247 	mov	dptr,#(_UART_get_rx_file_name_3_5 + 0x001a)
   27C6 74 65              4248 	mov	a,#0x65
   27C8 F0                 4249 	movx	@dptr,a
                           4250 ;	genPointerSet
                           4251 ;     genFarPointerSet
   27C9 90 03 A9           4252 	mov	dptr,#(_UART_get_rx_file_name_3_5 + 0x001b)
   27CC 74 5F              4253 	mov	a,#0x5F
   27CE F0                 4254 	movx	@dptr,a
                           4255 ;	genPointerSet
                           4256 ;     genFarPointerSet
   27CF 90 03 AA           4257 	mov	dptr,#(_UART_get_rx_file_name_3_5 + 0x001c)
   27D2 74 75              4258 	mov	a,#0x75
   27D4 F0                 4259 	movx	@dptr,a
                           4260 ;	genPointerSet
                           4261 ;     genFarPointerSet
   27D5 90 03 AB           4262 	mov	dptr,#(_UART_get_rx_file_name_3_5 + 0x001d)
   27D8 74 61              4263 	mov	a,#0x61
   27DA F0                 4264 	movx	@dptr,a
                           4265 ;	genPointerSet
                           4266 ;     genFarPointerSet
   27DB 90 03 AC           4267 	mov	dptr,#(_UART_get_rx_file_name_3_5 + 0x001e)
   27DE 74 72              4268 	mov	a,#0x72
   27E0 F0                 4269 	movx	@dptr,a
                           4270 ;	genPointerSet
                           4271 ;     genFarPointerSet
   27E1 90 03 AD           4272 	mov	dptr,#(_UART_get_rx_file_name_3_5 + 0x001f)
   27E4 74 74              4273 	mov	a,#0x74
   27E6 F0                 4274 	movx	@dptr,a
                           4275 ;	genPointerSet
                           4276 ;     genFarPointerSet
   27E7 90 03 AE           4277 	mov	dptr,#(_UART_get_rx_file_name_3_5 + 0x0020)
   27EA 74 5F              4278 	mov	a,#0x5F
   27EC F0                 4279 	movx	@dptr,a
                           4280 ;	genPointerSet
                           4281 ;     genFarPointerSet
   27ED 90 03 AF           4282 	mov	dptr,#(_UART_get_rx_file_name_3_5 + 0x0021)
   27F0 74 61              4283 	mov	a,#0x61
   27F2 F0                 4284 	movx	@dptr,a
                           4285 ;	genPointerSet
                           4286 ;     genFarPointerSet
   27F3 90 03 B0           4287 	mov	dptr,#(_UART_get_rx_file_name_3_5 + 0x0022)
   27F6 74 70              4288 	mov	a,#0x70
   27F8 F0                 4289 	movx	@dptr,a
                           4290 ;	genPointerSet
                           4291 ;     genFarPointerSet
   27F9 90 03 B1           4292 	mov	dptr,#(_UART_get_rx_file_name_3_5 + 0x0023)
   27FC 74 62              4293 	mov	a,#0x62
   27FE F0                 4294 	movx	@dptr,a
                           4295 ;	genPointerSet
                           4296 ;     genFarPointerSet
   27FF 90 03 B2           4297 	mov	dptr,#(_UART_get_rx_file_name_3_5 + 0x0024)
   2802 74 2E              4298 	mov	a,#0x2E
   2804 F0                 4299 	movx	@dptr,a
                           4300 ;	genPointerSet
                           4301 ;     genFarPointerSet
   2805 90 03 B3           4302 	mov	dptr,#(_UART_get_rx_file_name_3_5 + 0x0025)
   2808 74 63              4303 	mov	a,#0x63
   280A F0                 4304 	movx	@dptr,a
                           4305 ;	genPointerSet
                           4306 ;     genFarPointerSet
   280B 90 03 B4           4307 	mov	dptr,#(_UART_get_rx_file_name_3_5 + 0x0026)
   280E 74 00              4308 	mov	a,#0x00
   2810 F0                 4309 	movx	@dptr,a
                           4310 ;	genAssign
   2811 90 00 2E           4311 	mov	dptr,#_HAL_assert_fail_PARM_2
   2814 74 CD              4312 	mov	a,#0xCD
   2816 F0                 4313 	movx	@dptr,a
   2817 E4                 4314 	clr	a
   2818 A3                 4315 	inc	dptr
   2819 F0                 4316 	movx	@dptr,a
   281A A3                 4317 	inc	dptr
   281B F0                 4318 	movx	@dptr,a
   281C A3                 4319 	inc	dptr
   281D F0                 4320 	movx	@dptr,a
                           4321 ;	genCall
   281E 75 82 8E           4322 	mov	dpl,#_UART_get_rx_file_name_3_5
   2821 75 83 03           4323 	mov	dph,#(_UART_get_rx_file_name_3_5 >> 8)
   2824 75 F0 00           4324 	mov	b,#0x00
   2827 C0 05              4325 	push	ar5
   2829 12 08 16           4326 	lcall	_HAL_assert_fail
   282C D0 05              4327 	pop	ar5
   282E                    4328 00109$:
                    1312   4329 	C$core_uart_apb.c$206$2$6 ==.
                           4330 ;	../drivers/CoreUARTapb/core_uart_apb.c:206: HAL_ASSERT( buff_size > 0 )
                           4331 ;	genAssign
   282E 90 03 5F           4332 	mov	dptr,#_UART_get_rx_PARM_3
   2831 E0                 4333 	movx	a,@dptr
   2832 FE                 4334 	mov	r6,a
   2833 A3                 4335 	inc	dptr
   2834 E0                 4336 	movx	a,@dptr
   2835 FF                 4337 	mov	r7,a
                           4338 ;	genIfx
   2836 EE                 4339 	mov	a,r6
   2837 4F                 4340 	orl	a,r7
                           4341 ;	genIfxJump
   2838 60 03              4342 	jz	00140$
   283A 02 29 4C           4343 	ljmp	00114$
   283D                    4344 00140$:
                           4345 ;	genPointerSet
                           4346 ;     genFarPointerSet
   283D 90 03 B5           4347 	mov	dptr,#_UART_get_rx_file_name_3_7
   2840 74 2E              4348 	mov	a,#0x2E
   2842 F0                 4349 	movx	@dptr,a
                           4350 ;	genPointerSet
                           4351 ;     genFarPointerSet
   2843 90 03 B6           4352 	mov	dptr,#(_UART_get_rx_file_name_3_7 + 0x0001)
   2846 74 2E              4353 	mov	a,#0x2E
   2848 F0                 4354 	movx	@dptr,a
                           4355 ;	genPointerSet
                           4356 ;     genFarPointerSet
   2849 90 03 B7           4357 	mov	dptr,#(_UART_get_rx_file_name_3_7 + 0x0002)
   284C 74 2F              4358 	mov	a,#0x2F
   284E F0                 4359 	movx	@dptr,a
                           4360 ;	genPointerSet
                           4361 ;     genFarPointerSet
   284F 90 03 B8           4362 	mov	dptr,#(_UART_get_rx_file_name_3_7 + 0x0003)
   2852 74 64              4363 	mov	a,#0x64
   2854 F0                 4364 	movx	@dptr,a
                           4365 ;	genPointerSet
                           4366 ;     genFarPointerSet
   2855 90 03 B9           4367 	mov	dptr,#(_UART_get_rx_file_name_3_7 + 0x0004)
   2858 74 72              4368 	mov	a,#0x72
   285A F0                 4369 	movx	@dptr,a
                           4370 ;	genPointerSet
                           4371 ;     genFarPointerSet
   285B 90 03 BA           4372 	mov	dptr,#(_UART_get_rx_file_name_3_7 + 0x0005)
   285E 74 69              4373 	mov	a,#0x69
   2860 F0                 4374 	movx	@dptr,a
                           4375 ;	genPointerSet
                           4376 ;     genFarPointerSet
   2861 90 03 BB           4377 	mov	dptr,#(_UART_get_rx_file_name_3_7 + 0x0006)
   2864 74 76              4378 	mov	a,#0x76
   2866 F0                 4379 	movx	@dptr,a
                           4380 ;	genPointerSet
                           4381 ;     genFarPointerSet
   2867 90 03 BC           4382 	mov	dptr,#(_UART_get_rx_file_name_3_7 + 0x0007)
   286A 74 65              4383 	mov	a,#0x65
   286C F0                 4384 	movx	@dptr,a
                           4385 ;	genPointerSet
                           4386 ;     genFarPointerSet
   286D 90 03 BD           4387 	mov	dptr,#(_UART_get_rx_file_name_3_7 + 0x0008)
   2870 74 72              4388 	mov	a,#0x72
   2872 F0                 4389 	movx	@dptr,a
                           4390 ;	genPointerSet
                           4391 ;     genFarPointerSet
   2873 90 03 BE           4392 	mov	dptr,#(_UART_get_rx_file_name_3_7 + 0x0009)
   2876 74 73              4393 	mov	a,#0x73
   2878 F0                 4394 	movx	@dptr,a
                           4395 ;	genPointerSet
                           4396 ;     genFarPointerSet
   2879 90 03 BF           4397 	mov	dptr,#(_UART_get_rx_file_name_3_7 + 0x000a)
   287C 74 2F              4398 	mov	a,#0x2F
   287E F0                 4399 	movx	@dptr,a
                           4400 ;	genPointerSet
                           4401 ;     genFarPointerSet
   287F 90 03 C0           4402 	mov	dptr,#(_UART_get_rx_file_name_3_7 + 0x000b)
   2882 74 43              4403 	mov	a,#0x43
   2884 F0                 4404 	movx	@dptr,a
                           4405 ;	genPointerSet
                           4406 ;     genFarPointerSet
   2885 90 03 C1           4407 	mov	dptr,#(_UART_get_rx_file_name_3_7 + 0x000c)
   2888 74 6F              4408 	mov	a,#0x6F
   288A F0                 4409 	movx	@dptr,a
                           4410 ;	genPointerSet
                           4411 ;     genFarPointerSet
   288B 90 03 C2           4412 	mov	dptr,#(_UART_get_rx_file_name_3_7 + 0x000d)
   288E 74 72              4413 	mov	a,#0x72
   2890 F0                 4414 	movx	@dptr,a
                           4415 ;	genPointerSet
                           4416 ;     genFarPointerSet
   2891 90 03 C3           4417 	mov	dptr,#(_UART_get_rx_file_name_3_7 + 0x000e)
   2894 74 65              4418 	mov	a,#0x65
   2896 F0                 4419 	movx	@dptr,a
                           4420 ;	genPointerSet
                           4421 ;     genFarPointerSet
   2897 90 03 C4           4422 	mov	dptr,#(_UART_get_rx_file_name_3_7 + 0x000f)
   289A 74 55              4423 	mov	a,#0x55
   289C F0                 4424 	movx	@dptr,a
                           4425 ;	genPointerSet
                           4426 ;     genFarPointerSet
   289D 90 03 C5           4427 	mov	dptr,#(_UART_get_rx_file_name_3_7 + 0x0010)
   28A0 74 41              4428 	mov	a,#0x41
   28A2 F0                 4429 	movx	@dptr,a
                           4430 ;	genPointerSet
                           4431 ;     genFarPointerSet
   28A3 90 03 C6           4432 	mov	dptr,#(_UART_get_rx_file_name_3_7 + 0x0011)
   28A6 74 52              4433 	mov	a,#0x52
   28A8 F0                 4434 	movx	@dptr,a
                           4435 ;	genPointerSet
                           4436 ;     genFarPointerSet
   28A9 90 03 C7           4437 	mov	dptr,#(_UART_get_rx_file_name_3_7 + 0x0012)
   28AC 74 54              4438 	mov	a,#0x54
   28AE F0                 4439 	movx	@dptr,a
                           4440 ;	genPointerSet
                           4441 ;     genFarPointerSet
   28AF 90 03 C8           4442 	mov	dptr,#(_UART_get_rx_file_name_3_7 + 0x0013)
   28B2 74 61              4443 	mov	a,#0x61
   28B4 F0                 4444 	movx	@dptr,a
                           4445 ;	genPointerSet
                           4446 ;     genFarPointerSet
   28B5 90 03 C9           4447 	mov	dptr,#(_UART_get_rx_file_name_3_7 + 0x0014)
   28B8 74 70              4448 	mov	a,#0x70
   28BA F0                 4449 	movx	@dptr,a
                           4450 ;	genPointerSet
                           4451 ;     genFarPointerSet
   28BB 90 03 CA           4452 	mov	dptr,#(_UART_get_rx_file_name_3_7 + 0x0015)
   28BE 74 62              4453 	mov	a,#0x62
   28C0 F0                 4454 	movx	@dptr,a
                           4455 ;	genPointerSet
                           4456 ;     genFarPointerSet
   28C1 90 03 CB           4457 	mov	dptr,#(_UART_get_rx_file_name_3_7 + 0x0016)
   28C4 74 2F              4458 	mov	a,#0x2F
   28C6 F0                 4459 	movx	@dptr,a
                           4460 ;	genPointerSet
                           4461 ;     genFarPointerSet
   28C7 90 03 CC           4462 	mov	dptr,#(_UART_get_rx_file_name_3_7 + 0x0017)
   28CA 74 63              4463 	mov	a,#0x63
   28CC F0                 4464 	movx	@dptr,a
                           4465 ;	genPointerSet
                           4466 ;     genFarPointerSet
   28CD 90 03 CD           4467 	mov	dptr,#(_UART_get_rx_file_name_3_7 + 0x0018)
   28D0 74 6F              4468 	mov	a,#0x6F
   28D2 F0                 4469 	movx	@dptr,a
                           4470 ;	genPointerSet
                           4471 ;     genFarPointerSet
   28D3 90 03 CE           4472 	mov	dptr,#(_UART_get_rx_file_name_3_7 + 0x0019)
   28D6 74 72              4473 	mov	a,#0x72
   28D8 F0                 4474 	movx	@dptr,a
                           4475 ;	genPointerSet
                           4476 ;     genFarPointerSet
   28D9 90 03 CF           4477 	mov	dptr,#(_UART_get_rx_file_name_3_7 + 0x001a)
   28DC 74 65              4478 	mov	a,#0x65
   28DE F0                 4479 	movx	@dptr,a
                           4480 ;	genPointerSet
                           4481 ;     genFarPointerSet
   28DF 90 03 D0           4482 	mov	dptr,#(_UART_get_rx_file_name_3_7 + 0x001b)
   28E2 74 5F              4483 	mov	a,#0x5F
   28E4 F0                 4484 	movx	@dptr,a
                           4485 ;	genPointerSet
                           4486 ;     genFarPointerSet
   28E5 90 03 D1           4487 	mov	dptr,#(_UART_get_rx_file_name_3_7 + 0x001c)
   28E8 74 75              4488 	mov	a,#0x75
   28EA F0                 4489 	movx	@dptr,a
                           4490 ;	genPointerSet
                           4491 ;     genFarPointerSet
   28EB 90 03 D2           4492 	mov	dptr,#(_UART_get_rx_file_name_3_7 + 0x001d)
   28EE 74 61              4493 	mov	a,#0x61
   28F0 F0                 4494 	movx	@dptr,a
                           4495 ;	genPointerSet
                           4496 ;     genFarPointerSet
   28F1 90 03 D3           4497 	mov	dptr,#(_UART_get_rx_file_name_3_7 + 0x001e)
   28F4 74 72              4498 	mov	a,#0x72
   28F6 F0                 4499 	movx	@dptr,a
                           4500 ;	genPointerSet
                           4501 ;     genFarPointerSet
   28F7 90 03 D4           4502 	mov	dptr,#(_UART_get_rx_file_name_3_7 + 0x001f)
   28FA 74 74              4503 	mov	a,#0x74
   28FC F0                 4504 	movx	@dptr,a
                           4505 ;	genPointerSet
                           4506 ;     genFarPointerSet
   28FD 90 03 D5           4507 	mov	dptr,#(_UART_get_rx_file_name_3_7 + 0x0020)
   2900 74 5F              4508 	mov	a,#0x5F
   2902 F0                 4509 	movx	@dptr,a
                           4510 ;	genPointerSet
                           4511 ;     genFarPointerSet
   2903 90 03 D6           4512 	mov	dptr,#(_UART_get_rx_file_name_3_7 + 0x0021)
   2906 74 61              4513 	mov	a,#0x61
   2908 F0                 4514 	movx	@dptr,a
                           4515 ;	genPointerSet
                           4516 ;     genFarPointerSet
   2909 90 03 D7           4517 	mov	dptr,#(_UART_get_rx_file_name_3_7 + 0x0022)
   290C 74 70              4518 	mov	a,#0x70
   290E F0                 4519 	movx	@dptr,a
                           4520 ;	genPointerSet
                           4521 ;     genFarPointerSet
   290F 90 03 D8           4522 	mov	dptr,#(_UART_get_rx_file_name_3_7 + 0x0023)
   2912 74 62              4523 	mov	a,#0x62
   2914 F0                 4524 	movx	@dptr,a
                           4525 ;	genPointerSet
                           4526 ;     genFarPointerSet
   2915 90 03 D9           4527 	mov	dptr,#(_UART_get_rx_file_name_3_7 + 0x0024)
   2918 74 2E              4528 	mov	a,#0x2E
   291A F0                 4529 	movx	@dptr,a
                           4530 ;	genPointerSet
                           4531 ;     genFarPointerSet
   291B 90 03 DA           4532 	mov	dptr,#(_UART_get_rx_file_name_3_7 + 0x0025)
   291E 74 63              4533 	mov	a,#0x63
   2920 F0                 4534 	movx	@dptr,a
                           4535 ;	genPointerSet
                           4536 ;     genFarPointerSet
   2921 90 03 DB           4537 	mov	dptr,#(_UART_get_rx_file_name_3_7 + 0x0026)
   2924 74 00              4538 	mov	a,#0x00
   2926 F0                 4539 	movx	@dptr,a
                           4540 ;	genAssign
   2927 90 00 2E           4541 	mov	dptr,#_HAL_assert_fail_PARM_2
   292A 74 CE              4542 	mov	a,#0xCE
   292C F0                 4543 	movx	@dptr,a
   292D E4                 4544 	clr	a
   292E A3                 4545 	inc	dptr
   292F F0                 4546 	movx	@dptr,a
   2930 A3                 4547 	inc	dptr
   2931 F0                 4548 	movx	@dptr,a
   2932 A3                 4549 	inc	dptr
   2933 F0                 4550 	movx	@dptr,a
                           4551 ;	genCall
   2934 75 82 B5           4552 	mov	dpl,#_UART_get_rx_file_name_3_7
   2937 75 83 03           4553 	mov	dph,#(_UART_get_rx_file_name_3_7 >> 8)
   293A 75 F0 00           4554 	mov	b,#0x00
   293D C0 05              4555 	push	ar5
   293F C0 06              4556 	push	ar6
   2941 C0 07              4557 	push	ar7
   2943 12 08 16           4558 	lcall	_HAL_assert_fail
   2946 D0 07              4559 	pop	ar7
   2948 D0 06              4560 	pop	ar6
   294A D0 05              4561 	pop	ar5
   294C                    4562 00114$:
                    1430   4563 	C$core_uart_apb.c$208$1$1 ==.
                           4564 ;	../drivers/CoreUARTapb/core_uart_apb.c:208: if( (this_uart != NULL_INSTANCE) &&
                           4565 ;	genAssign
   294C 90 03 61           4566 	mov	dptr,#_UART_get_rx_this_uart_1_1
   294F E0                 4567 	movx	a,@dptr
   2950 F5 37              4568 	mov	_UART_get_rx_sloc0_1_0,a
   2952 A3                 4569 	inc	dptr
   2953 E0                 4570 	movx	a,@dptr
   2954 F5 38              4571 	mov	(_UART_get_rx_sloc0_1_0 + 1),a
   2956 A3                 4572 	inc	dptr
   2957 E0                 4573 	movx	a,@dptr
   2958 F5 39              4574 	mov	(_UART_get_rx_sloc0_1_0 + 2),a
                           4575 ;	genCmpEq
                           4576 ;	gencjneshort
   295A E5 37              4577 	mov	a,_UART_get_rx_sloc0_1_0
   295C 70 0B              4578 	jnz	00141$
   295E E5 38              4579 	mov	a,(_UART_get_rx_sloc0_1_0 + 1)
   2960 70 07              4580 	jnz	00141$
   2962 E5 39              4581 	mov	a,(_UART_get_rx_sloc0_1_0 + 2)
   2964 70 03              4582 	jnz	00141$
   2966 02 2A D4           4583 	ljmp	00121$
   2969                    4584 00141$:
                    144D   4585 	C$core_uart_apb.c$209$1$1 ==.
                           4586 ;	../drivers/CoreUARTapb/core_uart_apb.c:209: (rx_buffer != NULL_BUFFER)   &&
                           4587 ;	genIfx
   2969 ED                 4588 	mov	a,r5
                           4589 ;	genIfxJump
   296A 60 03              4590 	jz	00142$
   296C 02 2A D4           4591 	ljmp	00121$
   296F                    4592 00142$:
                    1453   4593 	C$core_uart_apb.c$210$1$1 ==.
                           4594 ;	../drivers/CoreUARTapb/core_uart_apb.c:210: (buff_size > 0u) )
                           4595 ;	genIfx
   296F EE                 4596 	mov	a,r6
   2970 4F                 4597 	orl	a,r7
                           4598 ;	genIfxJump
   2971 70 03              4599 	jnz	00143$
   2973 02 2A D4           4600 	ljmp	00121$
   2976                    4601 00143$:
                    145A   4602 	C$core_uart_apb.c$212$1$1 ==.
                           4603 ;	../drivers/CoreUARTapb/core_uart_apb.c:212: rx_idx = 0u;
                           4604 ;	genIpush
                           4605 ;	genAssign
   2976 90 03 65           4606 	mov	dptr,#_UART_get_rx_rx_idx_1_1
   2979 E4                 4607 	clr	a
   297A F0                 4608 	movx	@dptr,a
   297B A3                 4609 	inc	dptr
   297C F0                 4610 	movx	@dptr,a
                    1461   4611 	C$core_uart_apb.c$213$2$8 ==.
                           4612 ;	../drivers/CoreUARTapb/core_uart_apb.c:213: new_status = HAL_get_8bit_reg( this_uart->base_address, STATUS );
                           4613 ;	genPointerGet
                           4614 ;	genGenPointerGet
   297D 85 37 82           4615 	mov	dpl,_UART_get_rx_sloc0_1_0
   2980 85 38 83           4616 	mov	dph,(_UART_get_rx_sloc0_1_0 + 1)
   2983 85 39 F0           4617 	mov	b,(_UART_get_rx_sloc0_1_0 + 2)
   2986 12 5C 8D           4618 	lcall	__gptrget
   2989 FD                 4619 	mov	r5,a
   298A A3                 4620 	inc	dptr
   298B 12 5C 8D           4621 	lcall	__gptrget
   298E F8                 4622 	mov	r0,a
                           4623 ;	genPlus
                           4624 ;	genPlusIncr
   298F 74 10              4625 	mov	a,#0x10
   2991 25 05              4626 	add	a,ar5
   2993 FD                 4627 	mov	r5,a
   2994 74 00              4628 	mov	a,#0x00
   2996 35 00              4629 	addc	a,ar0
   2998 F8                 4630 	mov	r0,a
                           4631 ;	genCall
   2999 8D 82              4632 	mov	dpl,r5
   299B 88 83              4633 	mov	dph,r0
   299D C0 06              4634 	push	ar6
   299F C0 07              4635 	push	ar7
   29A1 12 08 C7           4636 	lcall	_HW_get_8bit_reg
   29A4 AD 82              4637 	mov	r5,dpl
   29A6 D0 07              4638 	pop	ar7
   29A8 D0 06              4639 	pop	ar6
                    148E   4640 	C$core_uart_apb.c$214$2$8 ==.
                           4641 ;	../drivers/CoreUARTapb/core_uart_apb.c:214: this_uart->status |= new_status;
                           4642 ;	genPlus
                           4643 ;	genPlusIncr
   29AA 74 02              4644 	mov	a,#0x02
   29AC 25 37              4645 	add	a,_UART_get_rx_sloc0_1_0
   29AE F8                 4646 	mov	r0,a
   29AF 74 00              4647 	mov	a,#0x00
   29B1 35 38              4648 	addc	a,(_UART_get_rx_sloc0_1_0 + 1)
   29B3 F9                 4649 	mov	r1,a
   29B4 AA 39              4650 	mov	r2,(_UART_get_rx_sloc0_1_0 + 2)
                           4651 ;	genPointerGet
                           4652 ;	genGenPointerGet
   29B6 88 82              4653 	mov	dpl,r0
   29B8 89 83              4654 	mov	dph,r1
   29BA 8A F0              4655 	mov	b,r2
   29BC 12 5C 8D           4656 	lcall	__gptrget
   29BF FB                 4657 	mov	r3,a
                           4658 ;	genOr
   29C0 ED                 4659 	mov	a,r5
   29C1 42 03              4660 	orl	ar3,a
                           4661 ;	genPointerSet
                           4662 ;	genGenPointerSet
   29C3 88 82              4663 	mov	dpl,r0
   29C5 89 83              4664 	mov	dph,r1
   29C7 8A F0              4665 	mov	b,r2
   29C9 EB                 4666 	mov	a,r3
   29CA 12 5C 54           4667 	lcall	__gptrput
                    14B1   4668 	C$core_uart_apb.c$215$2$8 ==.
                           4669 ;	../drivers/CoreUARTapb/core_uart_apb.c:215: rx_full = new_status & STATUS_RXFULL_MASK;
                           4670 ;	genCast
   29CD 7A 00              4671 	mov	r2,#0x00
                           4672 ;	genAnd
   29CF 53 05 02           4673 	anl	ar5,#0x02
   29D2 7A 00              4674 	mov	r2,#0x00
                           4675 ;	genCast
   29D4 90 03 64           4676 	mov	dptr,#_UART_get_rx_rx_full_1_1
   29D7 ED                 4677 	mov	a,r5
   29D8 F0                 4678 	movx	@dptr,a
                    14BD   4679 	C$core_uart_apb.c$226$1$1 ==.
                           4680 ;	../drivers/CoreUARTapb/core_uart_apb.c:226: return rx_idx;
                           4681 ;	genIpop
                    14BD   4682 	C$core_uart_apb.c$216$3$9 ==.
                           4683 ;	../drivers/CoreUARTapb/core_uart_apb.c:216: while ( ( rx_full ) && ( rx_idx < buff_size ) )
                           4684 ;	genAssign
   29D9 AD 37              4685 	mov	r5,_UART_get_rx_sloc0_1_0
   29DB A8 38              4686 	mov	r0,(_UART_get_rx_sloc0_1_0 + 1)
   29DD A9 39              4687 	mov	r1,(_UART_get_rx_sloc0_1_0 + 2)
   29DF                    4688 00117$:
                           4689 ;	genAssign
   29DF 90 03 64           4690 	mov	dptr,#_UART_get_rx_rx_full_1_1
   29E2 E0                 4691 	movx	a,@dptr
   29E3 FA                 4692 	mov	r2,a
                           4693 ;	genIfx
   29E4 EA                 4694 	mov	a,r2
                           4695 ;	genIfxJump
   29E5 70 03              4696 	jnz	00144$
   29E7 02 2A D4           4697 	ljmp	00121$
   29EA                    4698 00144$:
                           4699 ;	genAssign
   29EA 90 03 65           4700 	mov	dptr,#_UART_get_rx_rx_idx_1_1
   29ED E0                 4701 	movx	a,@dptr
   29EE FA                 4702 	mov	r2,a
   29EF A3                 4703 	inc	dptr
   29F0 E0                 4704 	movx	a,@dptr
   29F1 FB                 4705 	mov	r3,a
                           4706 ;	genCmpLt
                           4707 ;	genCmp
   29F2 C3                 4708 	clr	c
   29F3 EA                 4709 	mov	a,r2
   29F4 9E                 4710 	subb	a,r6
   29F5 EB                 4711 	mov	a,r3
   29F6 9F                 4712 	subb	a,r7
                           4713 ;	genIfxJump
   29F7 40 03              4714 	jc	00145$
   29F9 02 2A D4           4715 	ljmp	00121$
   29FC                    4716 00145$:
                    14E0   4717 	C$core_uart_apb.c$218$1$1 ==.
                           4718 ;	../drivers/CoreUARTapb/core_uart_apb.c:218: rx_buffer[rx_idx] = HAL_get_8bit_reg( this_uart->base_address,
                           4719 ;	genIpush
   29FC C0 06              4720 	push	ar6
   29FE C0 07              4721 	push	ar7
                           4722 ;	genPlus
   2A00 E5 02              4723 	mov	a,ar2
   2A02 25 3A              4724 	add	a,_UART_get_rx_sloc1_1_0
   2A04 F5 37              4725 	mov	_UART_get_rx_sloc0_1_0,a
   2A06 E5 03              4726 	mov	a,ar3
   2A08 35 3B              4727 	addc	a,(_UART_get_rx_sloc1_1_0 + 1)
   2A0A F5 38              4728 	mov	(_UART_get_rx_sloc0_1_0 + 1),a
   2A0C 85 3C 39           4729 	mov	(_UART_get_rx_sloc0_1_0 + 2),(_UART_get_rx_sloc1_1_0 + 2)
                           4730 ;	genPointerGet
                           4731 ;	genGenPointerGet
   2A0F 8D 82              4732 	mov	dpl,r5
   2A11 88 83              4733 	mov	dph,r0
   2A13 89 F0              4734 	mov	b,r1
   2A15 12 5C 8D           4735 	lcall	__gptrget
   2A18 FC                 4736 	mov	r4,a
   2A19 A3                 4737 	inc	dptr
   2A1A 12 5C 8D           4738 	lcall	__gptrget
   2A1D FE                 4739 	mov	r6,a
                           4740 ;	genPlus
                           4741 ;	genPlusIncr
   2A1E 74 04              4742 	mov	a,#0x04
   2A20 25 04              4743 	add	a,ar4
   2A22 FC                 4744 	mov	r4,a
   2A23 74 00              4745 	mov	a,#0x00
   2A25 35 06              4746 	addc	a,ar6
   2A27 FE                 4747 	mov	r6,a
                           4748 ;	genCall
   2A28 8C 82              4749 	mov	dpl,r4
   2A2A 8E 83              4750 	mov	dph,r6
   2A2C C0 02              4751 	push	ar2
   2A2E C0 03              4752 	push	ar3
   2A30 C0 05              4753 	push	ar5
   2A32 C0 06              4754 	push	ar6
   2A34 C0 07              4755 	push	ar7
   2A36 C0 00              4756 	push	ar0
   2A38 C0 01              4757 	push	ar1
   2A3A 12 08 C7           4758 	lcall	_HW_get_8bit_reg
   2A3D AC 82              4759 	mov	r4,dpl
   2A3F D0 01              4760 	pop	ar1
   2A41 D0 00              4761 	pop	ar0
   2A43 D0 07              4762 	pop	ar7
   2A45 D0 06              4763 	pop	ar6
   2A47 D0 05              4764 	pop	ar5
   2A49 D0 03              4765 	pop	ar3
   2A4B D0 02              4766 	pop	ar2
                           4767 ;	genPointerSet
                           4768 ;	genGenPointerSet
   2A4D 85 37 82           4769 	mov	dpl,_UART_get_rx_sloc0_1_0
   2A50 85 38 83           4770 	mov	dph,(_UART_get_rx_sloc0_1_0 + 1)
   2A53 85 39 F0           4771 	mov	b,(_UART_get_rx_sloc0_1_0 + 2)
   2A56 EC                 4772 	mov	a,r4
   2A57 12 5C 54           4773 	lcall	__gptrput
                    153E   4774 	C$core_uart_apb.c$220$3$9 ==.
                           4775 ;	../drivers/CoreUARTapb/core_uart_apb.c:220: rx_idx++;
                           4776 ;	genPlus
   2A5A 90 03 65           4777 	mov	dptr,#_UART_get_rx_rx_idx_1_1
                           4778 ;	genPlusIncr
   2A5D 74 01              4779 	mov	a,#0x01
   2A5F 25 02              4780 	add	a,ar2
   2A61 F0                 4781 	movx	@dptr,a
   2A62 74 00              4782 	mov	a,#0x00
   2A64 35 03              4783 	addc	a,ar3
   2A66 A3                 4784 	inc	dptr
   2A67 F0                 4785 	movx	@dptr,a
                    154C   4786 	C$core_uart_apb.c$221$3$9 ==.
                           4787 ;	../drivers/CoreUARTapb/core_uart_apb.c:221: new_status = HAL_get_8bit_reg( this_uart->base_address, STATUS );
                           4788 ;	genPointerGet
                           4789 ;	genGenPointerGet
   2A68 8D 82              4790 	mov	dpl,r5
   2A6A 88 83              4791 	mov	dph,r0
   2A6C 89 F0              4792 	mov	b,r1
   2A6E 12 5C 8D           4793 	lcall	__gptrget
   2A71 FA                 4794 	mov	r2,a
   2A72 A3                 4795 	inc	dptr
   2A73 12 5C 8D           4796 	lcall	__gptrget
   2A76 FB                 4797 	mov	r3,a
                           4798 ;	genPlus
                           4799 ;	genPlusIncr
   2A77 74 10              4800 	mov	a,#0x10
   2A79 25 02              4801 	add	a,ar2
   2A7B FA                 4802 	mov	r2,a
   2A7C 74 00              4803 	mov	a,#0x00
   2A7E 35 03              4804 	addc	a,ar3
   2A80 FB                 4805 	mov	r3,a
                           4806 ;	genCall
   2A81 8A 82              4807 	mov	dpl,r2
   2A83 8B 83              4808 	mov	dph,r3
   2A85 C0 05              4809 	push	ar5
   2A87 C0 06              4810 	push	ar6
   2A89 C0 07              4811 	push	ar7
   2A8B C0 00              4812 	push	ar0
   2A8D C0 01              4813 	push	ar1
   2A8F 12 08 C7           4814 	lcall	_HW_get_8bit_reg
   2A92 AA 82              4815 	mov	r2,dpl
   2A94 D0 01              4816 	pop	ar1
   2A96 D0 00              4817 	pop	ar0
   2A98 D0 07              4818 	pop	ar7
   2A9A D0 06              4819 	pop	ar6
   2A9C D0 05              4820 	pop	ar5
                    1582   4821 	C$core_uart_apb.c$222$3$9 ==.
                           4822 ;	../drivers/CoreUARTapb/core_uart_apb.c:222: this_uart->status |= new_status;
                           4823 ;	genPlus
                           4824 ;	genPlusIncr
   2A9E 74 02              4825 	mov	a,#0x02
   2AA0 25 05              4826 	add	a,ar5
   2AA2 FB                 4827 	mov	r3,a
   2AA3 74 00              4828 	mov	a,#0x00
   2AA5 35 00              4829 	addc	a,ar0
   2AA7 FC                 4830 	mov	r4,a
   2AA8 89 06              4831 	mov	ar6,r1
                           4832 ;	genPointerGet
                           4833 ;	genGenPointerGet
   2AAA 8B 82              4834 	mov	dpl,r3
   2AAC 8C 83              4835 	mov	dph,r4
   2AAE 8E F0              4836 	mov	b,r6
   2AB0 12 5C 8D           4837 	lcall	__gptrget
   2AB3 FF                 4838 	mov	r7,a
                           4839 ;	genOr
   2AB4 EA                 4840 	mov	a,r2
   2AB5 42 07              4841 	orl	ar7,a
                           4842 ;	genPointerSet
                           4843 ;	genGenPointerSet
   2AB7 8B 82              4844 	mov	dpl,r3
   2AB9 8C 83              4845 	mov	dph,r4
   2ABB 8E F0              4846 	mov	b,r6
   2ABD EF                 4847 	mov	a,r7
   2ABE 12 5C 54           4848 	lcall	__gptrput
                    15A5   4849 	C$core_uart_apb.c$223$3$9 ==.
                           4850 ;	../drivers/CoreUARTapb/core_uart_apb.c:223: rx_full = new_status & STATUS_RXFULL_MASK;
                           4851 ;	genCast
   2AC1 7B 00              4852 	mov	r3,#0x00
                           4853 ;	genAnd
   2AC3 53 02 02           4854 	anl	ar2,#0x02
   2AC6 7B 00              4855 	mov	r3,#0x00
                           4856 ;	genCast
   2AC8 90 03 64           4857 	mov	dptr,#_UART_get_rx_rx_full_1_1
   2ACB EA                 4858 	mov	a,r2
   2ACC F0                 4859 	movx	@dptr,a
                           4860 ;	genIpop
   2ACD D0 07              4861 	pop	ar7
   2ACF D0 06              4862 	pop	ar6
   2AD1 02 29 DF           4863 	ljmp	00117$
   2AD4                    4864 00121$:
                    15B8   4865 	C$core_uart_apb.c$226$1$1 ==.
                           4866 ;	../drivers/CoreUARTapb/core_uart_apb.c:226: return rx_idx;
                           4867 ;	genAssign
   2AD4 90 03 65           4868 	mov	dptr,#_UART_get_rx_rx_idx_1_1
   2AD7 E0                 4869 	movx	a,@dptr
   2AD8 FA                 4870 	mov	r2,a
   2AD9 A3                 4871 	inc	dptr
   2ADA E0                 4872 	movx	a,@dptr
   2ADB FB                 4873 	mov	r3,a
                           4874 ;	genRet
   2ADC 8A 82              4875 	mov	dpl,r2
   2ADE 8B 83              4876 	mov	dph,r3
   2AE0                    4877 00124$:
                    15C4   4878 	C$core_uart_apb.c$227$1$1 ==.
                    15C4   4879 	XG$UART_get_rx$0$0 ==.
   2AE0 22                 4880 	ret
                           4881 ;------------------------------------------------------------
                           4882 ;Allocation info for local variables in function 'UART_polled_tx_string'
                           4883 ;------------------------------------------------------------
                           4884 ;sloc0                     Allocated with name '_UART_polled_tx_string_sloc0_1_0'
                           4885 ;sloc1                     Allocated with name '_UART_polled_tx_string_sloc1_1_0'
                           4886 ;p_sz_string               Allocated with name '_UART_polled_tx_string_PARM_2'
                           4887 ;this_uart                 Allocated with name '_UART_polled_tx_string_this_uart_1_1'
                           4888 ;char_idx                  Allocated with name '_UART_polled_tx_string_char_idx_1_1'
                           4889 ;tx_ready                  Allocated with name '_UART_polled_tx_string_tx_ready_1_1'
                           4890 ;file_name                 Allocated with name '_UART_polled_tx_string_file_name_3_3'
                           4891 ;file_name                 Allocated with name '_UART_polled_tx_string_file_name_3_5'
                           4892 ;------------------------------------------------------------
                    15C5   4893 	G$UART_polled_tx_string$0$0 ==.
                    15C5   4894 	C$core_uart_apb.c$234$1$1 ==.
                           4895 ;	../drivers/CoreUARTapb/core_uart_apb.c:234: UART_polled_tx_string
                           4896 ;	-----------------------------------------
                           4897 ;	 function UART_polled_tx_string
                           4898 ;	-----------------------------------------
   2AE1                    4899 _UART_polled_tx_string:
                           4900 ;	genReceive
   2AE1 AA F0              4901 	mov	r2,b
   2AE3 AB 83              4902 	mov	r3,dph
   2AE5 E5 82              4903 	mov	a,dpl
   2AE7 90 03 DF           4904 	mov	dptr,#_UART_polled_tx_string_this_uart_1_1
   2AEA F0                 4905 	movx	@dptr,a
   2AEB A3                 4906 	inc	dptr
   2AEC EB                 4907 	mov	a,r3
   2AED F0                 4908 	movx	@dptr,a
   2AEE A3                 4909 	inc	dptr
   2AEF EA                 4910 	mov	a,r2
   2AF0 F0                 4911 	movx	@dptr,a
                    15D5   4912 	C$core_uart_apb.c$243$2$2 ==.
                           4913 ;	../drivers/CoreUARTapb/core_uart_apb.c:243: HAL_ASSERT( this_uart != NULL_INSTANCE )
                           4914 ;	genAssign
   2AF1 90 03 DF           4915 	mov	dptr,#_UART_polled_tx_string_this_uart_1_1
   2AF4 E0                 4916 	movx	a,@dptr
   2AF5 FA                 4917 	mov	r2,a
   2AF6 A3                 4918 	inc	dptr
   2AF7 E0                 4919 	movx	a,@dptr
   2AF8 FB                 4920 	mov	r3,a
   2AF9 A3                 4921 	inc	dptr
   2AFA E0                 4922 	movx	a,@dptr
   2AFB FC                 4923 	mov	r4,a
                           4924 ;	genCmpEq
                           4925 ;	gencjneshort
   2AFC BA 00 08           4926 	cjne	r2,#0x00,00129$
   2AFF BB 00 05           4927 	cjne	r3,#0x00,00129$
   2B02 BC 00 02           4928 	cjne	r4,#0x00,00129$
   2B05 80 03              4929 	sjmp	00130$
   2B07                    4930 00129$:
   2B07 02 2C 0D           4931 	ljmp	00104$
   2B0A                    4932 00130$:
                           4933 ;	genPointerSet
                           4934 ;     genFarPointerSet
   2B0A 90 03 E6           4935 	mov	dptr,#_UART_polled_tx_string_file_name_3_3
   2B0D 74 2E              4936 	mov	a,#0x2E
   2B0F F0                 4937 	movx	@dptr,a
                           4938 ;	genPointerSet
                           4939 ;     genFarPointerSet
   2B10 90 03 E7           4940 	mov	dptr,#(_UART_polled_tx_string_file_name_3_3 + 0x0001)
   2B13 74 2E              4941 	mov	a,#0x2E
   2B15 F0                 4942 	movx	@dptr,a
                           4943 ;	genPointerSet
                           4944 ;     genFarPointerSet
   2B16 90 03 E8           4945 	mov	dptr,#(_UART_polled_tx_string_file_name_3_3 + 0x0002)
   2B19 74 2F              4946 	mov	a,#0x2F
   2B1B F0                 4947 	movx	@dptr,a
                           4948 ;	genPointerSet
                           4949 ;     genFarPointerSet
   2B1C 90 03 E9           4950 	mov	dptr,#(_UART_polled_tx_string_file_name_3_3 + 0x0003)
   2B1F 74 64              4951 	mov	a,#0x64
   2B21 F0                 4952 	movx	@dptr,a
                           4953 ;	genPointerSet
                           4954 ;     genFarPointerSet
   2B22 90 03 EA           4955 	mov	dptr,#(_UART_polled_tx_string_file_name_3_3 + 0x0004)
   2B25 74 72              4956 	mov	a,#0x72
   2B27 F0                 4957 	movx	@dptr,a
                           4958 ;	genPointerSet
                           4959 ;     genFarPointerSet
   2B28 90 03 EB           4960 	mov	dptr,#(_UART_polled_tx_string_file_name_3_3 + 0x0005)
   2B2B 74 69              4961 	mov	a,#0x69
   2B2D F0                 4962 	movx	@dptr,a
                           4963 ;	genPointerSet
                           4964 ;     genFarPointerSet
   2B2E 90 03 EC           4965 	mov	dptr,#(_UART_polled_tx_string_file_name_3_3 + 0x0006)
   2B31 74 76              4966 	mov	a,#0x76
   2B33 F0                 4967 	movx	@dptr,a
                           4968 ;	genPointerSet
                           4969 ;     genFarPointerSet
   2B34 90 03 ED           4970 	mov	dptr,#(_UART_polled_tx_string_file_name_3_3 + 0x0007)
   2B37 74 65              4971 	mov	a,#0x65
   2B39 F0                 4972 	movx	@dptr,a
                           4973 ;	genPointerSet
                           4974 ;     genFarPointerSet
   2B3A 90 03 EE           4975 	mov	dptr,#(_UART_polled_tx_string_file_name_3_3 + 0x0008)
   2B3D 74 72              4976 	mov	a,#0x72
   2B3F F0                 4977 	movx	@dptr,a
                           4978 ;	genPointerSet
                           4979 ;     genFarPointerSet
   2B40 90 03 EF           4980 	mov	dptr,#(_UART_polled_tx_string_file_name_3_3 + 0x0009)
   2B43 74 73              4981 	mov	a,#0x73
   2B45 F0                 4982 	movx	@dptr,a
                           4983 ;	genPointerSet
                           4984 ;     genFarPointerSet
   2B46 90 03 F0           4985 	mov	dptr,#(_UART_polled_tx_string_file_name_3_3 + 0x000a)
   2B49 74 2F              4986 	mov	a,#0x2F
   2B4B F0                 4987 	movx	@dptr,a
                           4988 ;	genPointerSet
                           4989 ;     genFarPointerSet
   2B4C 90 03 F1           4990 	mov	dptr,#(_UART_polled_tx_string_file_name_3_3 + 0x000b)
   2B4F 74 43              4991 	mov	a,#0x43
   2B51 F0                 4992 	movx	@dptr,a
                           4993 ;	genPointerSet
                           4994 ;     genFarPointerSet
   2B52 90 03 F2           4995 	mov	dptr,#(_UART_polled_tx_string_file_name_3_3 + 0x000c)
   2B55 74 6F              4996 	mov	a,#0x6F
   2B57 F0                 4997 	movx	@dptr,a
                           4998 ;	genPointerSet
                           4999 ;     genFarPointerSet
   2B58 90 03 F3           5000 	mov	dptr,#(_UART_polled_tx_string_file_name_3_3 + 0x000d)
   2B5B 74 72              5001 	mov	a,#0x72
   2B5D F0                 5002 	movx	@dptr,a
                           5003 ;	genPointerSet
                           5004 ;     genFarPointerSet
   2B5E 90 03 F4           5005 	mov	dptr,#(_UART_polled_tx_string_file_name_3_3 + 0x000e)
   2B61 74 65              5006 	mov	a,#0x65
   2B63 F0                 5007 	movx	@dptr,a
                           5008 ;	genPointerSet
                           5009 ;     genFarPointerSet
   2B64 90 03 F5           5010 	mov	dptr,#(_UART_polled_tx_string_file_name_3_3 + 0x000f)
   2B67 74 55              5011 	mov	a,#0x55
   2B69 F0                 5012 	movx	@dptr,a
                           5013 ;	genPointerSet
                           5014 ;     genFarPointerSet
   2B6A 90 03 F6           5015 	mov	dptr,#(_UART_polled_tx_string_file_name_3_3 + 0x0010)
   2B6D 74 41              5016 	mov	a,#0x41
   2B6F F0                 5017 	movx	@dptr,a
                           5018 ;	genPointerSet
                           5019 ;     genFarPointerSet
   2B70 90 03 F7           5020 	mov	dptr,#(_UART_polled_tx_string_file_name_3_3 + 0x0011)
   2B73 74 52              5021 	mov	a,#0x52
   2B75 F0                 5022 	movx	@dptr,a
                           5023 ;	genPointerSet
                           5024 ;     genFarPointerSet
   2B76 90 03 F8           5025 	mov	dptr,#(_UART_polled_tx_string_file_name_3_3 + 0x0012)
   2B79 74 54              5026 	mov	a,#0x54
   2B7B F0                 5027 	movx	@dptr,a
                           5028 ;	genPointerSet
                           5029 ;     genFarPointerSet
   2B7C 90 03 F9           5030 	mov	dptr,#(_UART_polled_tx_string_file_name_3_3 + 0x0013)
   2B7F 74 61              5031 	mov	a,#0x61
   2B81 F0                 5032 	movx	@dptr,a
                           5033 ;	genPointerSet
                           5034 ;     genFarPointerSet
   2B82 90 03 FA           5035 	mov	dptr,#(_UART_polled_tx_string_file_name_3_3 + 0x0014)
   2B85 74 70              5036 	mov	a,#0x70
   2B87 F0                 5037 	movx	@dptr,a
                           5038 ;	genPointerSet
                           5039 ;     genFarPointerSet
   2B88 90 03 FB           5040 	mov	dptr,#(_UART_polled_tx_string_file_name_3_3 + 0x0015)
   2B8B 74 62              5041 	mov	a,#0x62
   2B8D F0                 5042 	movx	@dptr,a
                           5043 ;	genPointerSet
                           5044 ;     genFarPointerSet
   2B8E 90 03 FC           5045 	mov	dptr,#(_UART_polled_tx_string_file_name_3_3 + 0x0016)
   2B91 74 2F              5046 	mov	a,#0x2F
   2B93 F0                 5047 	movx	@dptr,a
                           5048 ;	genPointerSet
                           5049 ;     genFarPointerSet
   2B94 90 03 FD           5050 	mov	dptr,#(_UART_polled_tx_string_file_name_3_3 + 0x0017)
   2B97 74 63              5051 	mov	a,#0x63
   2B99 F0                 5052 	movx	@dptr,a
                           5053 ;	genPointerSet
                           5054 ;     genFarPointerSet
   2B9A 90 03 FE           5055 	mov	dptr,#(_UART_polled_tx_string_file_name_3_3 + 0x0018)
   2B9D 74 6F              5056 	mov	a,#0x6F
   2B9F F0                 5057 	movx	@dptr,a
                           5058 ;	genPointerSet
                           5059 ;     genFarPointerSet
   2BA0 90 03 FF           5060 	mov	dptr,#(_UART_polled_tx_string_file_name_3_3 + 0x0019)
   2BA3 74 72              5061 	mov	a,#0x72
   2BA5 F0                 5062 	movx	@dptr,a
                           5063 ;	genPointerSet
                           5064 ;     genFarPointerSet
   2BA6 90 04 00           5065 	mov	dptr,#(_UART_polled_tx_string_file_name_3_3 + 0x001a)
   2BA9 74 65              5066 	mov	a,#0x65
   2BAB F0                 5067 	movx	@dptr,a
                           5068 ;	genPointerSet
                           5069 ;     genFarPointerSet
   2BAC 90 04 01           5070 	mov	dptr,#(_UART_polled_tx_string_file_name_3_3 + 0x001b)
   2BAF 74 5F              5071 	mov	a,#0x5F
   2BB1 F0                 5072 	movx	@dptr,a
                           5073 ;	genPointerSet
                           5074 ;     genFarPointerSet
   2BB2 90 04 02           5075 	mov	dptr,#(_UART_polled_tx_string_file_name_3_3 + 0x001c)
   2BB5 74 75              5076 	mov	a,#0x75
   2BB7 F0                 5077 	movx	@dptr,a
                           5078 ;	genPointerSet
                           5079 ;     genFarPointerSet
   2BB8 90 04 03           5080 	mov	dptr,#(_UART_polled_tx_string_file_name_3_3 + 0x001d)
   2BBB 74 61              5081 	mov	a,#0x61
   2BBD F0                 5082 	movx	@dptr,a
                           5083 ;	genPointerSet
                           5084 ;     genFarPointerSet
   2BBE 90 04 04           5085 	mov	dptr,#(_UART_polled_tx_string_file_name_3_3 + 0x001e)
   2BC1 74 72              5086 	mov	a,#0x72
   2BC3 F0                 5087 	movx	@dptr,a
                           5088 ;	genPointerSet
                           5089 ;     genFarPointerSet
   2BC4 90 04 05           5090 	mov	dptr,#(_UART_polled_tx_string_file_name_3_3 + 0x001f)
   2BC7 74 74              5091 	mov	a,#0x74
   2BC9 F0                 5092 	movx	@dptr,a
                           5093 ;	genPointerSet
                           5094 ;     genFarPointerSet
   2BCA 90 04 06           5095 	mov	dptr,#(_UART_polled_tx_string_file_name_3_3 + 0x0020)
   2BCD 74 5F              5096 	mov	a,#0x5F
   2BCF F0                 5097 	movx	@dptr,a
                           5098 ;	genPointerSet
                           5099 ;     genFarPointerSet
   2BD0 90 04 07           5100 	mov	dptr,#(_UART_polled_tx_string_file_name_3_3 + 0x0021)
   2BD3 74 61              5101 	mov	a,#0x61
   2BD5 F0                 5102 	movx	@dptr,a
                           5103 ;	genPointerSet
                           5104 ;     genFarPointerSet
   2BD6 90 04 08           5105 	mov	dptr,#(_UART_polled_tx_string_file_name_3_3 + 0x0022)
   2BD9 74 70              5106 	mov	a,#0x70
   2BDB F0                 5107 	movx	@dptr,a
                           5108 ;	genPointerSet
                           5109 ;     genFarPointerSet
   2BDC 90 04 09           5110 	mov	dptr,#(_UART_polled_tx_string_file_name_3_3 + 0x0023)
   2BDF 74 62              5111 	mov	a,#0x62
   2BE1 F0                 5112 	movx	@dptr,a
                           5113 ;	genPointerSet
                           5114 ;     genFarPointerSet
   2BE2 90 04 0A           5115 	mov	dptr,#(_UART_polled_tx_string_file_name_3_3 + 0x0024)
   2BE5 74 2E              5116 	mov	a,#0x2E
   2BE7 F0                 5117 	movx	@dptr,a
                           5118 ;	genPointerSet
                           5119 ;     genFarPointerSet
   2BE8 90 04 0B           5120 	mov	dptr,#(_UART_polled_tx_string_file_name_3_3 + 0x0025)
   2BEB 74 63              5121 	mov	a,#0x63
   2BED F0                 5122 	movx	@dptr,a
                           5123 ;	genPointerSet
                           5124 ;     genFarPointerSet
   2BEE 90 04 0C           5125 	mov	dptr,#(_UART_polled_tx_string_file_name_3_3 + 0x0026)
   2BF1 74 00              5126 	mov	a,#0x00
   2BF3 F0                 5127 	movx	@dptr,a
                           5128 ;	genAssign
   2BF4 90 00 2E           5129 	mov	dptr,#_HAL_assert_fail_PARM_2
   2BF7 74 F3              5130 	mov	a,#0xF3
   2BF9 F0                 5131 	movx	@dptr,a
   2BFA E4                 5132 	clr	a
   2BFB A3                 5133 	inc	dptr
   2BFC F0                 5134 	movx	@dptr,a
   2BFD A3                 5135 	inc	dptr
   2BFE F0                 5136 	movx	@dptr,a
   2BFF A3                 5137 	inc	dptr
   2C00 F0                 5138 	movx	@dptr,a
                           5139 ;	genCall
   2C01 75 82 E6           5140 	mov	dpl,#_UART_polled_tx_string_file_name_3_3
   2C04 75 83 03           5141 	mov	dph,#(_UART_polled_tx_string_file_name_3_3 >> 8)
   2C07 75 F0 00           5142 	mov	b,#0x00
   2C0A 12 08 16           5143 	lcall	_HAL_assert_fail
   2C0D                    5144 00104$:
                    16F1   5145 	C$core_uart_apb.c$244$2$4 ==.
                           5146 ;	../drivers/CoreUARTapb/core_uart_apb.c:244: HAL_ASSERT( p_sz_string != NULL_BUFFER )
                           5147 ;	genAssign
   2C0D 90 03 DC           5148 	mov	dptr,#_UART_polled_tx_string_PARM_2
   2C10 E0                 5149 	movx	a,@dptr
   2C11 FA                 5150 	mov	r2,a
   2C12 A3                 5151 	inc	dptr
   2C13 E0                 5152 	movx	a,@dptr
   2C14 FB                 5153 	mov	r3,a
   2C15 A3                 5154 	inc	dptr
   2C16 E0                 5155 	movx	a,@dptr
   2C17 FC                 5156 	mov	r4,a
                           5157 ;	genCmpEq
                           5158 ;	gencjne
                           5159 ;	gencjneshort
   2C18 BA 00 0A           5160 	cjne	r2,#0x00,00131$
   2C1B BB 00 07           5161 	cjne	r3,#0x00,00131$
   2C1E BC 00 04           5162 	cjne	r4,#0x00,00131$
   2C21 74 01              5163 	mov	a,#0x01
   2C23 80 01              5164 	sjmp	00132$
   2C25                    5165 00131$:
   2C25 E4                 5166 	clr	a
   2C26                    5167 00132$:
   2C26 FD                 5168 	mov	r5,a
                           5169 ;	genIfx
   2C27 ED                 5170 	mov	a,r5
                           5171 ;	genIfxJump
   2C28 70 03              5172 	jnz	00133$
   2C2A 02 2D 40           5173 	ljmp	00109$
   2C2D                    5174 00133$:
                           5175 ;	genPointerSet
                           5176 ;     genFarPointerSet
   2C2D 90 04 0D           5177 	mov	dptr,#_UART_polled_tx_string_file_name_3_5
   2C30 74 2E              5178 	mov	a,#0x2E
   2C32 F0                 5179 	movx	@dptr,a
                           5180 ;	genPointerSet
                           5181 ;     genFarPointerSet
   2C33 90 04 0E           5182 	mov	dptr,#(_UART_polled_tx_string_file_name_3_5 + 0x0001)
   2C36 74 2E              5183 	mov	a,#0x2E
   2C38 F0                 5184 	movx	@dptr,a
                           5185 ;	genPointerSet
                           5186 ;     genFarPointerSet
   2C39 90 04 0F           5187 	mov	dptr,#(_UART_polled_tx_string_file_name_3_5 + 0x0002)
   2C3C 74 2F              5188 	mov	a,#0x2F
   2C3E F0                 5189 	movx	@dptr,a
                           5190 ;	genPointerSet
                           5191 ;     genFarPointerSet
   2C3F 90 04 10           5192 	mov	dptr,#(_UART_polled_tx_string_file_name_3_5 + 0x0003)
   2C42 74 64              5193 	mov	a,#0x64
   2C44 F0                 5194 	movx	@dptr,a
                           5195 ;	genPointerSet
                           5196 ;     genFarPointerSet
   2C45 90 04 11           5197 	mov	dptr,#(_UART_polled_tx_string_file_name_3_5 + 0x0004)
   2C48 74 72              5198 	mov	a,#0x72
   2C4A F0                 5199 	movx	@dptr,a
                           5200 ;	genPointerSet
                           5201 ;     genFarPointerSet
   2C4B 90 04 12           5202 	mov	dptr,#(_UART_polled_tx_string_file_name_3_5 + 0x0005)
   2C4E 74 69              5203 	mov	a,#0x69
   2C50 F0                 5204 	movx	@dptr,a
                           5205 ;	genPointerSet
                           5206 ;     genFarPointerSet
   2C51 90 04 13           5207 	mov	dptr,#(_UART_polled_tx_string_file_name_3_5 + 0x0006)
   2C54 74 76              5208 	mov	a,#0x76
   2C56 F0                 5209 	movx	@dptr,a
                           5210 ;	genPointerSet
                           5211 ;     genFarPointerSet
   2C57 90 04 14           5212 	mov	dptr,#(_UART_polled_tx_string_file_name_3_5 + 0x0007)
   2C5A 74 65              5213 	mov	a,#0x65
   2C5C F0                 5214 	movx	@dptr,a
                           5215 ;	genPointerSet
                           5216 ;     genFarPointerSet
   2C5D 90 04 15           5217 	mov	dptr,#(_UART_polled_tx_string_file_name_3_5 + 0x0008)
   2C60 74 72              5218 	mov	a,#0x72
   2C62 F0                 5219 	movx	@dptr,a
                           5220 ;	genPointerSet
                           5221 ;     genFarPointerSet
   2C63 90 04 16           5222 	mov	dptr,#(_UART_polled_tx_string_file_name_3_5 + 0x0009)
   2C66 74 73              5223 	mov	a,#0x73
   2C68 F0                 5224 	movx	@dptr,a
                           5225 ;	genPointerSet
                           5226 ;     genFarPointerSet
   2C69 90 04 17           5227 	mov	dptr,#(_UART_polled_tx_string_file_name_3_5 + 0x000a)
   2C6C 74 2F              5228 	mov	a,#0x2F
   2C6E F0                 5229 	movx	@dptr,a
                           5230 ;	genPointerSet
                           5231 ;     genFarPointerSet
   2C6F 90 04 18           5232 	mov	dptr,#(_UART_polled_tx_string_file_name_3_5 + 0x000b)
   2C72 74 43              5233 	mov	a,#0x43
   2C74 F0                 5234 	movx	@dptr,a
                           5235 ;	genPointerSet
                           5236 ;     genFarPointerSet
   2C75 90 04 19           5237 	mov	dptr,#(_UART_polled_tx_string_file_name_3_5 + 0x000c)
   2C78 74 6F              5238 	mov	a,#0x6F
   2C7A F0                 5239 	movx	@dptr,a
                           5240 ;	genPointerSet
                           5241 ;     genFarPointerSet
   2C7B 90 04 1A           5242 	mov	dptr,#(_UART_polled_tx_string_file_name_3_5 + 0x000d)
   2C7E 74 72              5243 	mov	a,#0x72
   2C80 F0                 5244 	movx	@dptr,a
                           5245 ;	genPointerSet
                           5246 ;     genFarPointerSet
   2C81 90 04 1B           5247 	mov	dptr,#(_UART_polled_tx_string_file_name_3_5 + 0x000e)
   2C84 74 65              5248 	mov	a,#0x65
   2C86 F0                 5249 	movx	@dptr,a
                           5250 ;	genPointerSet
                           5251 ;     genFarPointerSet
   2C87 90 04 1C           5252 	mov	dptr,#(_UART_polled_tx_string_file_name_3_5 + 0x000f)
   2C8A 74 55              5253 	mov	a,#0x55
   2C8C F0                 5254 	movx	@dptr,a
                           5255 ;	genPointerSet
                           5256 ;     genFarPointerSet
   2C8D 90 04 1D           5257 	mov	dptr,#(_UART_polled_tx_string_file_name_3_5 + 0x0010)
   2C90 74 41              5258 	mov	a,#0x41
   2C92 F0                 5259 	movx	@dptr,a
                           5260 ;	genPointerSet
                           5261 ;     genFarPointerSet
   2C93 90 04 1E           5262 	mov	dptr,#(_UART_polled_tx_string_file_name_3_5 + 0x0011)
   2C96 74 52              5263 	mov	a,#0x52
   2C98 F0                 5264 	movx	@dptr,a
                           5265 ;	genPointerSet
                           5266 ;     genFarPointerSet
   2C99 90 04 1F           5267 	mov	dptr,#(_UART_polled_tx_string_file_name_3_5 + 0x0012)
   2C9C 74 54              5268 	mov	a,#0x54
   2C9E F0                 5269 	movx	@dptr,a
                           5270 ;	genPointerSet
                           5271 ;     genFarPointerSet
   2C9F 90 04 20           5272 	mov	dptr,#(_UART_polled_tx_string_file_name_3_5 + 0x0013)
   2CA2 74 61              5273 	mov	a,#0x61
   2CA4 F0                 5274 	movx	@dptr,a
                           5275 ;	genPointerSet
                           5276 ;     genFarPointerSet
   2CA5 90 04 21           5277 	mov	dptr,#(_UART_polled_tx_string_file_name_3_5 + 0x0014)
   2CA8 74 70              5278 	mov	a,#0x70
   2CAA F0                 5279 	movx	@dptr,a
                           5280 ;	genPointerSet
                           5281 ;     genFarPointerSet
   2CAB 90 04 22           5282 	mov	dptr,#(_UART_polled_tx_string_file_name_3_5 + 0x0015)
   2CAE 74 62              5283 	mov	a,#0x62
   2CB0 F0                 5284 	movx	@dptr,a
                           5285 ;	genPointerSet
                           5286 ;     genFarPointerSet
   2CB1 90 04 23           5287 	mov	dptr,#(_UART_polled_tx_string_file_name_3_5 + 0x0016)
   2CB4 74 2F              5288 	mov	a,#0x2F
   2CB6 F0                 5289 	movx	@dptr,a
                           5290 ;	genPointerSet
                           5291 ;     genFarPointerSet
   2CB7 90 04 24           5292 	mov	dptr,#(_UART_polled_tx_string_file_name_3_5 + 0x0017)
   2CBA 74 63              5293 	mov	a,#0x63
   2CBC F0                 5294 	movx	@dptr,a
                           5295 ;	genPointerSet
                           5296 ;     genFarPointerSet
   2CBD 90 04 25           5297 	mov	dptr,#(_UART_polled_tx_string_file_name_3_5 + 0x0018)
   2CC0 74 6F              5298 	mov	a,#0x6F
   2CC2 F0                 5299 	movx	@dptr,a
                           5300 ;	genPointerSet
                           5301 ;     genFarPointerSet
   2CC3 90 04 26           5302 	mov	dptr,#(_UART_polled_tx_string_file_name_3_5 + 0x0019)
   2CC6 74 72              5303 	mov	a,#0x72
   2CC8 F0                 5304 	movx	@dptr,a
                           5305 ;	genPointerSet
                           5306 ;     genFarPointerSet
   2CC9 90 04 27           5307 	mov	dptr,#(_UART_polled_tx_string_file_name_3_5 + 0x001a)
   2CCC 74 65              5308 	mov	a,#0x65
   2CCE F0                 5309 	movx	@dptr,a
                           5310 ;	genPointerSet
                           5311 ;     genFarPointerSet
   2CCF 90 04 28           5312 	mov	dptr,#(_UART_polled_tx_string_file_name_3_5 + 0x001b)
   2CD2 74 5F              5313 	mov	a,#0x5F
   2CD4 F0                 5314 	movx	@dptr,a
                           5315 ;	genPointerSet
                           5316 ;     genFarPointerSet
   2CD5 90 04 29           5317 	mov	dptr,#(_UART_polled_tx_string_file_name_3_5 + 0x001c)
   2CD8 74 75              5318 	mov	a,#0x75
   2CDA F0                 5319 	movx	@dptr,a
                           5320 ;	genPointerSet
                           5321 ;     genFarPointerSet
   2CDB 90 04 2A           5322 	mov	dptr,#(_UART_polled_tx_string_file_name_3_5 + 0x001d)
   2CDE 74 61              5323 	mov	a,#0x61
   2CE0 F0                 5324 	movx	@dptr,a
                           5325 ;	genPointerSet
                           5326 ;     genFarPointerSet
   2CE1 90 04 2B           5327 	mov	dptr,#(_UART_polled_tx_string_file_name_3_5 + 0x001e)
   2CE4 74 72              5328 	mov	a,#0x72
   2CE6 F0                 5329 	movx	@dptr,a
                           5330 ;	genPointerSet
                           5331 ;     genFarPointerSet
   2CE7 90 04 2C           5332 	mov	dptr,#(_UART_polled_tx_string_file_name_3_5 + 0x001f)
   2CEA 74 74              5333 	mov	a,#0x74
   2CEC F0                 5334 	movx	@dptr,a
                           5335 ;	genPointerSet
                           5336 ;     genFarPointerSet
   2CED 90 04 2D           5337 	mov	dptr,#(_UART_polled_tx_string_file_name_3_5 + 0x0020)
   2CF0 74 5F              5338 	mov	a,#0x5F
   2CF2 F0                 5339 	movx	@dptr,a
                           5340 ;	genPointerSet
                           5341 ;     genFarPointerSet
   2CF3 90 04 2E           5342 	mov	dptr,#(_UART_polled_tx_string_file_name_3_5 + 0x0021)
   2CF6 74 61              5343 	mov	a,#0x61
   2CF8 F0                 5344 	movx	@dptr,a
                           5345 ;	genPointerSet
                           5346 ;     genFarPointerSet
   2CF9 90 04 2F           5347 	mov	dptr,#(_UART_polled_tx_string_file_name_3_5 + 0x0022)
   2CFC 74 70              5348 	mov	a,#0x70
   2CFE F0                 5349 	movx	@dptr,a
                           5350 ;	genPointerSet
                           5351 ;     genFarPointerSet
   2CFF 90 04 30           5352 	mov	dptr,#(_UART_polled_tx_string_file_name_3_5 + 0x0023)
   2D02 74 62              5353 	mov	a,#0x62
   2D04 F0                 5354 	movx	@dptr,a
                           5355 ;	genPointerSet
                           5356 ;     genFarPointerSet
   2D05 90 04 31           5357 	mov	dptr,#(_UART_polled_tx_string_file_name_3_5 + 0x0024)
   2D08 74 2E              5358 	mov	a,#0x2E
   2D0A F0                 5359 	movx	@dptr,a
                           5360 ;	genPointerSet
                           5361 ;     genFarPointerSet
   2D0B 90 04 32           5362 	mov	dptr,#(_UART_polled_tx_string_file_name_3_5 + 0x0025)
   2D0E 74 63              5363 	mov	a,#0x63
   2D10 F0                 5364 	movx	@dptr,a
                           5365 ;	genPointerSet
                           5366 ;     genFarPointerSet
   2D11 90 04 33           5367 	mov	dptr,#(_UART_polled_tx_string_file_name_3_5 + 0x0026)
   2D14 74 00              5368 	mov	a,#0x00
   2D16 F0                 5369 	movx	@dptr,a
                           5370 ;	genAssign
   2D17 90 00 2E           5371 	mov	dptr,#_HAL_assert_fail_PARM_2
   2D1A 74 F4              5372 	mov	a,#0xF4
   2D1C F0                 5373 	movx	@dptr,a
   2D1D E4                 5374 	clr	a
   2D1E A3                 5375 	inc	dptr
   2D1F F0                 5376 	movx	@dptr,a
   2D20 A3                 5377 	inc	dptr
   2D21 F0                 5378 	movx	@dptr,a
   2D22 A3                 5379 	inc	dptr
   2D23 F0                 5380 	movx	@dptr,a
                           5381 ;	genCall
   2D24 75 82 0D           5382 	mov	dpl,#_UART_polled_tx_string_file_name_3_5
   2D27 75 83 04           5383 	mov	dph,#(_UART_polled_tx_string_file_name_3_5 >> 8)
   2D2A 75 F0 00           5384 	mov	b,#0x00
   2D2D C0 02              5385 	push	ar2
   2D2F C0 03              5386 	push	ar3
   2D31 C0 04              5387 	push	ar4
   2D33 C0 05              5388 	push	ar5
   2D35 12 08 16           5389 	lcall	_HAL_assert_fail
   2D38 D0 05              5390 	pop	ar5
   2D3A D0 04              5391 	pop	ar4
   2D3C D0 03              5392 	pop	ar3
   2D3E D0 02              5393 	pop	ar2
   2D40                    5394 00109$:
                    1824   5395 	C$core_uart_apb.c$246$1$1 ==.
                           5396 ;	../drivers/CoreUARTapb/core_uart_apb.c:246: if( ( this_uart != NULL_INSTANCE ) && ( p_sz_string != NULL_BUFFER ) )
                           5397 ;	genAssign
   2D40 90 03 DF           5398 	mov	dptr,#_UART_polled_tx_string_this_uart_1_1
   2D43 E0                 5399 	movx	a,@dptr
   2D44 FE                 5400 	mov	r6,a
   2D45 A3                 5401 	inc	dptr
   2D46 E0                 5402 	movx	a,@dptr
   2D47 FF                 5403 	mov	r7,a
   2D48 A3                 5404 	inc	dptr
   2D49 E0                 5405 	movx	a,@dptr
   2D4A F8                 5406 	mov	r0,a
                           5407 ;	genCmpEq
                           5408 ;	gencjneshort
   2D4B BE 00 09           5409 	cjne	r6,#0x00,00134$
   2D4E BF 00 06           5410 	cjne	r7,#0x00,00134$
   2D51 B8 00 03           5411 	cjne	r0,#0x00,00134$
   2D54 02 2E 7B           5412 	ljmp	00120$
   2D57                    5413 00134$:
                           5414 ;	genIfx
   2D57 ED                 5415 	mov	a,r5
                           5416 ;	genIfxJump
   2D58 60 03              5417 	jz	00135$
   2D5A 02 2E 7B           5418 	ljmp	00120$
   2D5D                    5419 00135$:
                    1841   5420 	C$core_uart_apb.c$248$2$6 ==.
                           5421 ;	../drivers/CoreUARTapb/core_uart_apb.c:248: char_idx = 0U;
                           5422 ;	genAssign
   2D5D 90 03 E2           5423 	mov	dptr,#_UART_polled_tx_string_char_idx_1_1
   2D60 E4                 5424 	clr	a
   2D61 F0                 5425 	movx	@dptr,a
   2D62 A3                 5426 	inc	dptr
   2D63 F0                 5427 	movx	@dptr,a
   2D64 A3                 5428 	inc	dptr
   2D65 F0                 5429 	movx	@dptr,a
   2D66 A3                 5430 	inc	dptr
   2D67 F0                 5431 	movx	@dptr,a
                    184C   5432 	C$core_uart_apb.c$249$4$8 ==.
                           5433 ;	../drivers/CoreUARTapb/core_uart_apb.c:249: while( 0U != p_sz_string[char_idx] )
                           5434 ;	genAssign
   2D68 88 05              5435 	mov	ar5,r0
   2D6A                    5436 00114$:
                           5437 ;	genIpush
   2D6A C0 06              5438 	push	ar6
   2D6C C0 07              5439 	push	ar7
   2D6E C0 05              5440 	push	ar5
                           5441 ;	genAssign
   2D70 90 03 E2           5442 	mov	dptr,#_UART_polled_tx_string_char_idx_1_1
   2D73 E0                 5443 	movx	a,@dptr
   2D74 F8                 5444 	mov	r0,a
   2D75 A3                 5445 	inc	dptr
   2D76 E0                 5446 	movx	a,@dptr
   2D77 F9                 5447 	mov	r1,a
   2D78 A3                 5448 	inc	dptr
   2D79 E0                 5449 	movx	a,@dptr
   2D7A FD                 5450 	mov	r5,a
   2D7B A3                 5451 	inc	dptr
   2D7C E0                 5452 	movx	a,@dptr
   2D7D FE                 5453 	mov	r6,a
                           5454 ;	genPlus
   2D7E E5 00              5455 	mov	a,ar0
   2D80 25 02              5456 	add	a,ar2
   2D82 F8                 5457 	mov	r0,a
   2D83 E5 01              5458 	mov	a,ar1
   2D85 35 03              5459 	addc	a,ar3
   2D87 F9                 5460 	mov	r1,a
   2D88 8C 05              5461 	mov	ar5,r4
                           5462 ;	genPointerGet
                           5463 ;	genGenPointerGet
   2D8A 88 82              5464 	mov	dpl,r0
   2D8C 89 83              5465 	mov	dph,r1
   2D8E 8D F0              5466 	mov	b,r5
   2D90 12 5C 8D           5467 	lcall	__gptrget
   2D93 F8                 5468 	mov	r0,a
                           5469 ;	genCast
   2D94 7D 00              5470 	mov	r5,#0x00
                           5471 ;	genCmpEq
                           5472 ;	gencjne
                           5473 ;	gencjneshort
   2D96 B8 00 07           5474 	cjne	r0,#0x00,00136$
   2D99 BD 00 04           5475 	cjne	r5,#0x00,00136$
   2D9C 74 01              5476 	mov	a,#0x01
   2D9E 80 01              5477 	sjmp	00137$
   2DA0                    5478 00136$:
   2DA0 E4                 5479 	clr	a
   2DA1                    5480 00137$:
                           5481 ;	genIpop
   2DA1 D0 05              5482 	pop	ar5
   2DA3 D0 07              5483 	pop	ar7
   2DA5 D0 06              5484 	pop	ar6
                           5485 ;	genIfx
                           5486 ;	genIfxJump
   2DA7 60 03              5487 	jz	00138$
   2DA9 02 2E 7B           5488 	ljmp	00120$
   2DAC                    5489 00138$:
                    1890   5490 	C$core_uart_apb.c$252$3$7 ==.
                           5491 ;	../drivers/CoreUARTapb/core_uart_apb.c:252: do {
   2DAC                    5492 00111$:
                    1890   5493 	C$core_uart_apb.c$253$4$8 ==.
                           5494 ;	../drivers/CoreUARTapb/core_uart_apb.c:253: tx_ready = HAL_get_8bit_reg( this_uart->base_address, STATUS ) &
                           5495 ;	genPointerGet
                           5496 ;	genGenPointerGet
   2DAC 8E 82              5497 	mov	dpl,r6
   2DAE 8F 83              5498 	mov	dph,r7
   2DB0 8D F0              5499 	mov	b,r5
   2DB2 12 5C 8D           5500 	lcall	__gptrget
   2DB5 F8                 5501 	mov	r0,a
   2DB6 A3                 5502 	inc	dptr
   2DB7 12 5C 8D           5503 	lcall	__gptrget
   2DBA F9                 5504 	mov	r1,a
                           5505 ;	genPlus
                           5506 ;	genPlusIncr
   2DBB 74 10              5507 	mov	a,#0x10
   2DBD 25 00              5508 	add	a,ar0
   2DBF F8                 5509 	mov	r0,a
   2DC0 74 00              5510 	mov	a,#0x00
   2DC2 35 01              5511 	addc	a,ar1
   2DC4 F9                 5512 	mov	r1,a
                           5513 ;	genCall
   2DC5 88 82              5514 	mov	dpl,r0
   2DC7 89 83              5515 	mov	dph,r1
   2DC9 C0 02              5516 	push	ar2
   2DCB C0 03              5517 	push	ar3
   2DCD C0 04              5518 	push	ar4
   2DCF C0 05              5519 	push	ar5
   2DD1 C0 06              5520 	push	ar6
   2DD3 C0 07              5521 	push	ar7
   2DD5 12 08 C7           5522 	lcall	_HW_get_8bit_reg
   2DD8 A8 82              5523 	mov	r0,dpl
   2DDA D0 07              5524 	pop	ar7
   2DDC D0 06              5525 	pop	ar6
   2DDE D0 05              5526 	pop	ar5
   2DE0 D0 04              5527 	pop	ar4
   2DE2 D0 03              5528 	pop	ar3
   2DE4 D0 02              5529 	pop	ar2
                           5530 ;	genCast
   2DE6 79 00              5531 	mov	r1,#0x00
                           5532 ;	genAnd
   2DE8 53 00 01           5533 	anl	ar0,#0x01
   2DEB 79 00              5534 	mov	r1,#0x00
                           5535 ;	genCast
                    18D1   5536 	C$core_uart_apb.c$255$3$7 ==.
                           5537 ;	../drivers/CoreUARTapb/core_uart_apb.c:255: } while ( !tx_ready );
                           5538 ;	genIfx
   2DED E8                 5539 	mov	a,r0
                           5540 ;	genIfxJump
   2DEE 70 03              5541 	jnz	00139$
   2DF0 02 2D AC           5542 	ljmp	00111$
   2DF3                    5543 00139$:
                    18D7   5544 	C$core_uart_apb.c$257$3$7 ==.
                           5545 ;	../drivers/CoreUARTapb/core_uart_apb.c:257: HAL_set_8bit_reg( this_uart->base_address, TXDATA,
                           5546 ;	genPointerGet
                           5547 ;	genGenPointerGet
   2DF3 8E 82              5548 	mov	dpl,r6
   2DF5 8F 83              5549 	mov	dph,r7
   2DF7 8D F0              5550 	mov	b,r5
   2DF9 12 5C 8D           5551 	lcall	__gptrget
   2DFC F5 3D              5552 	mov	_UART_polled_tx_string_sloc0_1_0,a
   2DFE A3                 5553 	inc	dptr
   2DFF 12 5C 8D           5554 	lcall	__gptrget
   2E02 F5 3E              5555 	mov	(_UART_polled_tx_string_sloc0_1_0 + 1),a
                           5556 ;	genIpush
   2E04 C0 06              5557 	push	ar6
   2E06 C0 07              5558 	push	ar7
   2E08 C0 05              5559 	push	ar5
                           5560 ;	genAssign
   2E0A 90 03 E2           5561 	mov	dptr,#_UART_polled_tx_string_char_idx_1_1
   2E0D E0                 5562 	movx	a,@dptr
   2E0E F5 3F              5563 	mov	_UART_polled_tx_string_sloc1_1_0,a
   2E10 A3                 5564 	inc	dptr
   2E11 E0                 5565 	movx	a,@dptr
   2E12 F5 40              5566 	mov	(_UART_polled_tx_string_sloc1_1_0 + 1),a
   2E14 A3                 5567 	inc	dptr
   2E15 E0                 5568 	movx	a,@dptr
   2E16 F5 41              5569 	mov	(_UART_polled_tx_string_sloc1_1_0 + 2),a
   2E18 A3                 5570 	inc	dptr
   2E19 E0                 5571 	movx	a,@dptr
   2E1A F5 42              5572 	mov	(_UART_polled_tx_string_sloc1_1_0 + 3),a
                           5573 ;	genPlus
   2E1C E5 3F              5574 	mov	a,_UART_polled_tx_string_sloc1_1_0
   2E1E 25 02              5575 	add	a,ar2
   2E20 F9                 5576 	mov	r1,a
   2E21 E5 40              5577 	mov	a,(_UART_polled_tx_string_sloc1_1_0 + 1)
   2E23 35 03              5578 	addc	a,ar3
   2E25 FD                 5579 	mov	r5,a
   2E26 8C 06              5580 	mov	ar6,r4
                           5581 ;	genPointerGet
                           5582 ;	genGenPointerGet
   2E28 89 82              5583 	mov	dpl,r1
   2E2A 8D 83              5584 	mov	dph,r5
   2E2C 8E F0              5585 	mov	b,r6
   2E2E 12 5C 8D           5586 	lcall	__gptrget
   2E31 F9                 5587 	mov	r1,a
                           5588 ;	genAssign
   2E32 90 00 4B           5589 	mov	dptr,#_HW_set_8bit_reg_PARM_2
   2E35 E9                 5590 	mov	a,r1
   2E36 F0                 5591 	movx	@dptr,a
                           5592 ;	genCall
   2E37 85 3D 82           5593 	mov	dpl,_UART_polled_tx_string_sloc0_1_0
   2E3A 85 3E 83           5594 	mov	dph,(_UART_polled_tx_string_sloc0_1_0 + 1)
   2E3D C0 02              5595 	push	ar2
   2E3F C0 03              5596 	push	ar3
   2E41 C0 04              5597 	push	ar4
   2E43 C0 05              5598 	push	ar5
   2E45 C0 06              5599 	push	ar6
   2E47 C0 07              5600 	push	ar7
   2E49 12 08 B9           5601 	lcall	_HW_set_8bit_reg
   2E4C D0 07              5602 	pop	ar7
   2E4E D0 06              5603 	pop	ar6
   2E50 D0 05              5604 	pop	ar5
   2E52 D0 04              5605 	pop	ar4
   2E54 D0 03              5606 	pop	ar3
   2E56 D0 02              5607 	pop	ar2
                    193C   5608 	C$core_uart_apb.c$259$3$7 ==.
                           5609 ;	../drivers/CoreUARTapb/core_uart_apb.c:259: char_idx++;
                           5610 ;	genPlus
   2E58 90 03 E2           5611 	mov	dptr,#_UART_polled_tx_string_char_idx_1_1
                           5612 ;	genPlusIncr
   2E5B 74 01              5613 	mov	a,#0x01
   2E5D 25 3F              5614 	add	a,_UART_polled_tx_string_sloc1_1_0
   2E5F F0                 5615 	movx	@dptr,a
   2E60 74 00              5616 	mov	a,#0x00
   2E62 35 40              5617 	addc	a,(_UART_polled_tx_string_sloc1_1_0 + 1)
   2E64 A3                 5618 	inc	dptr
   2E65 F0                 5619 	movx	@dptr,a
   2E66 74 00              5620 	mov	a,#0x00
   2E68 35 41              5621 	addc	a,(_UART_polled_tx_string_sloc1_1_0 + 2)
   2E6A A3                 5622 	inc	dptr
   2E6B F0                 5623 	movx	@dptr,a
   2E6C 74 00              5624 	mov	a,#0x00
   2E6E 35 42              5625 	addc	a,(_UART_polled_tx_string_sloc1_1_0 + 3)
   2E70 A3                 5626 	inc	dptr
   2E71 F0                 5627 	movx	@dptr,a
                           5628 ;	genIpop
   2E72 D0 05              5629 	pop	ar5
   2E74 D0 07              5630 	pop	ar7
   2E76 D0 06              5631 	pop	ar6
   2E78 02 2D 6A           5632 	ljmp	00114$
   2E7B                    5633 00120$:
                    195F   5634 	C$core_uart_apb.c$262$2$1 ==.
                    195F   5635 	XG$UART_polled_tx_string$0$0 ==.
   2E7B 22                 5636 	ret
                           5637 ;------------------------------------------------------------
                           5638 ;Allocation info for local variables in function 'UART_get_rx_status'
                           5639 ;------------------------------------------------------------
                           5640 ;this_uart                 Allocated with name '_UART_get_rx_status_this_uart_1_1'
                           5641 ;status                    Allocated with name '_UART_get_rx_status_status_1_1'
                           5642 ;file_name                 Allocated with name '_UART_get_rx_status_file_name_3_3'
                           5643 ;------------------------------------------------------------
                    1960   5644 	G$UART_get_rx_status$0$0 ==.
                    1960   5645 	C$core_uart_apb.c$269$2$1 ==.
                           5646 ;	../drivers/CoreUARTapb/core_uart_apb.c:269: UART_get_rx_status
                           5647 ;	-----------------------------------------
                           5648 ;	 function UART_get_rx_status
                           5649 ;	-----------------------------------------
   2E7C                    5650 _UART_get_rx_status:
                           5651 ;	genReceive
   2E7C AA F0              5652 	mov	r2,b
   2E7E AB 83              5653 	mov	r3,dph
   2E80 E5 82              5654 	mov	a,dpl
   2E82 90 04 34           5655 	mov	dptr,#_UART_get_rx_status_this_uart_1_1
   2E85 F0                 5656 	movx	@dptr,a
   2E86 A3                 5657 	inc	dptr
   2E87 EB                 5658 	mov	a,r3
   2E88 F0                 5659 	movx	@dptr,a
   2E89 A3                 5660 	inc	dptr
   2E8A EA                 5661 	mov	a,r2
   2E8B F0                 5662 	movx	@dptr,a
                    1970   5663 	C$core_uart_apb.c$274$1$1 ==.
                           5664 ;	../drivers/CoreUARTapb/core_uart_apb.c:274: uint8_t status = UART_APB_INVALID_PARAM;
                           5665 ;	genAssign
   2E8C 90 04 37           5666 	mov	dptr,#_UART_get_rx_status_status_1_1
   2E8F 74 FF              5667 	mov	a,#0xFF
   2E91 F0                 5668 	movx	@dptr,a
                    1976   5669 	C$core_uart_apb.c$276$2$2 ==.
                           5670 ;	../drivers/CoreUARTapb/core_uart_apb.c:276: HAL_ASSERT( this_uart != NULL_INSTANCE )
                           5671 ;	genAssign
   2E92 90 04 34           5672 	mov	dptr,#_UART_get_rx_status_this_uart_1_1
   2E95 E0                 5673 	movx	a,@dptr
   2E96 FA                 5674 	mov	r2,a
   2E97 A3                 5675 	inc	dptr
   2E98 E0                 5676 	movx	a,@dptr
   2E99 FB                 5677 	mov	r3,a
   2E9A A3                 5678 	inc	dptr
   2E9B E0                 5679 	movx	a,@dptr
   2E9C FC                 5680 	mov	r4,a
                           5681 ;	genCmpEq
                           5682 ;	gencjneshort
   2E9D BA 00 08           5683 	cjne	r2,#0x00,00112$
   2EA0 BB 00 05           5684 	cjne	r3,#0x00,00112$
   2EA3 BC 00 02           5685 	cjne	r4,#0x00,00112$
   2EA6 80 03              5686 	sjmp	00113$
   2EA8                    5687 00112$:
   2EA8 02 2F B3           5688 	ljmp	00104$
   2EAB                    5689 00113$:
                           5690 ;	genPointerSet
                           5691 ;     genFarPointerSet
   2EAB 90 04 38           5692 	mov	dptr,#_UART_get_rx_status_file_name_3_3
   2EAE 74 2E              5693 	mov	a,#0x2E
   2EB0 F0                 5694 	movx	@dptr,a
                           5695 ;	genPointerSet
                           5696 ;     genFarPointerSet
   2EB1 90 04 39           5697 	mov	dptr,#(_UART_get_rx_status_file_name_3_3 + 0x0001)
   2EB4 74 2E              5698 	mov	a,#0x2E
   2EB6 F0                 5699 	movx	@dptr,a
                           5700 ;	genPointerSet
                           5701 ;     genFarPointerSet
   2EB7 90 04 3A           5702 	mov	dptr,#(_UART_get_rx_status_file_name_3_3 + 0x0002)
   2EBA 74 2F              5703 	mov	a,#0x2F
   2EBC F0                 5704 	movx	@dptr,a
                           5705 ;	genPointerSet
                           5706 ;     genFarPointerSet
   2EBD 90 04 3B           5707 	mov	dptr,#(_UART_get_rx_status_file_name_3_3 + 0x0003)
   2EC0 74 64              5708 	mov	a,#0x64
   2EC2 F0                 5709 	movx	@dptr,a
                           5710 ;	genPointerSet
                           5711 ;     genFarPointerSet
   2EC3 90 04 3C           5712 	mov	dptr,#(_UART_get_rx_status_file_name_3_3 + 0x0004)
   2EC6 74 72              5713 	mov	a,#0x72
   2EC8 F0                 5714 	movx	@dptr,a
                           5715 ;	genPointerSet
                           5716 ;     genFarPointerSet
   2EC9 90 04 3D           5717 	mov	dptr,#(_UART_get_rx_status_file_name_3_3 + 0x0005)
   2ECC 74 69              5718 	mov	a,#0x69
   2ECE F0                 5719 	movx	@dptr,a
                           5720 ;	genPointerSet
                           5721 ;     genFarPointerSet
   2ECF 90 04 3E           5722 	mov	dptr,#(_UART_get_rx_status_file_name_3_3 + 0x0006)
   2ED2 74 76              5723 	mov	a,#0x76
   2ED4 F0                 5724 	movx	@dptr,a
                           5725 ;	genPointerSet
                           5726 ;     genFarPointerSet
   2ED5 90 04 3F           5727 	mov	dptr,#(_UART_get_rx_status_file_name_3_3 + 0x0007)
   2ED8 74 65              5728 	mov	a,#0x65
   2EDA F0                 5729 	movx	@dptr,a
                           5730 ;	genPointerSet
                           5731 ;     genFarPointerSet
   2EDB 90 04 40           5732 	mov	dptr,#(_UART_get_rx_status_file_name_3_3 + 0x0008)
   2EDE 74 72              5733 	mov	a,#0x72
   2EE0 F0                 5734 	movx	@dptr,a
                           5735 ;	genPointerSet
                           5736 ;     genFarPointerSet
   2EE1 90 04 41           5737 	mov	dptr,#(_UART_get_rx_status_file_name_3_3 + 0x0009)
   2EE4 74 73              5738 	mov	a,#0x73
   2EE6 F0                 5739 	movx	@dptr,a
                           5740 ;	genPointerSet
                           5741 ;     genFarPointerSet
   2EE7 90 04 42           5742 	mov	dptr,#(_UART_get_rx_status_file_name_3_3 + 0x000a)
   2EEA 74 2F              5743 	mov	a,#0x2F
   2EEC F0                 5744 	movx	@dptr,a
                           5745 ;	genPointerSet
                           5746 ;     genFarPointerSet
   2EED 90 04 43           5747 	mov	dptr,#(_UART_get_rx_status_file_name_3_3 + 0x000b)
   2EF0 74 43              5748 	mov	a,#0x43
   2EF2 F0                 5749 	movx	@dptr,a
                           5750 ;	genPointerSet
                           5751 ;     genFarPointerSet
   2EF3 90 04 44           5752 	mov	dptr,#(_UART_get_rx_status_file_name_3_3 + 0x000c)
   2EF6 74 6F              5753 	mov	a,#0x6F
   2EF8 F0                 5754 	movx	@dptr,a
                           5755 ;	genPointerSet
                           5756 ;     genFarPointerSet
   2EF9 90 04 45           5757 	mov	dptr,#(_UART_get_rx_status_file_name_3_3 + 0x000d)
   2EFC 74 72              5758 	mov	a,#0x72
   2EFE F0                 5759 	movx	@dptr,a
                           5760 ;	genPointerSet
                           5761 ;     genFarPointerSet
   2EFF 90 04 46           5762 	mov	dptr,#(_UART_get_rx_status_file_name_3_3 + 0x000e)
   2F02 74 65              5763 	mov	a,#0x65
   2F04 F0                 5764 	movx	@dptr,a
                           5765 ;	genPointerSet
                           5766 ;     genFarPointerSet
   2F05 90 04 47           5767 	mov	dptr,#(_UART_get_rx_status_file_name_3_3 + 0x000f)
   2F08 74 55              5768 	mov	a,#0x55
   2F0A F0                 5769 	movx	@dptr,a
                           5770 ;	genPointerSet
                           5771 ;     genFarPointerSet
   2F0B 90 04 48           5772 	mov	dptr,#(_UART_get_rx_status_file_name_3_3 + 0x0010)
   2F0E 74 41              5773 	mov	a,#0x41
   2F10 F0                 5774 	movx	@dptr,a
                           5775 ;	genPointerSet
                           5776 ;     genFarPointerSet
   2F11 90 04 49           5777 	mov	dptr,#(_UART_get_rx_status_file_name_3_3 + 0x0011)
   2F14 74 52              5778 	mov	a,#0x52
   2F16 F0                 5779 	movx	@dptr,a
                           5780 ;	genPointerSet
                           5781 ;     genFarPointerSet
   2F17 90 04 4A           5782 	mov	dptr,#(_UART_get_rx_status_file_name_3_3 + 0x0012)
   2F1A 74 54              5783 	mov	a,#0x54
   2F1C F0                 5784 	movx	@dptr,a
                           5785 ;	genPointerSet
                           5786 ;     genFarPointerSet
   2F1D 90 04 4B           5787 	mov	dptr,#(_UART_get_rx_status_file_name_3_3 + 0x0013)
   2F20 74 61              5788 	mov	a,#0x61
   2F22 F0                 5789 	movx	@dptr,a
                           5790 ;	genPointerSet
                           5791 ;     genFarPointerSet
   2F23 90 04 4C           5792 	mov	dptr,#(_UART_get_rx_status_file_name_3_3 + 0x0014)
   2F26 74 70              5793 	mov	a,#0x70
   2F28 F0                 5794 	movx	@dptr,a
                           5795 ;	genPointerSet
                           5796 ;     genFarPointerSet
   2F29 90 04 4D           5797 	mov	dptr,#(_UART_get_rx_status_file_name_3_3 + 0x0015)
   2F2C 74 62              5798 	mov	a,#0x62
   2F2E F0                 5799 	movx	@dptr,a
                           5800 ;	genPointerSet
                           5801 ;     genFarPointerSet
   2F2F 90 04 4E           5802 	mov	dptr,#(_UART_get_rx_status_file_name_3_3 + 0x0016)
   2F32 74 2F              5803 	mov	a,#0x2F
   2F34 F0                 5804 	movx	@dptr,a
                           5805 ;	genPointerSet
                           5806 ;     genFarPointerSet
   2F35 90 04 4F           5807 	mov	dptr,#(_UART_get_rx_status_file_name_3_3 + 0x0017)
   2F38 74 63              5808 	mov	a,#0x63
   2F3A F0                 5809 	movx	@dptr,a
                           5810 ;	genPointerSet
                           5811 ;     genFarPointerSet
   2F3B 90 04 50           5812 	mov	dptr,#(_UART_get_rx_status_file_name_3_3 + 0x0018)
   2F3E 74 6F              5813 	mov	a,#0x6F
   2F40 F0                 5814 	movx	@dptr,a
                           5815 ;	genPointerSet
                           5816 ;     genFarPointerSet
   2F41 90 04 51           5817 	mov	dptr,#(_UART_get_rx_status_file_name_3_3 + 0x0019)
   2F44 74 72              5818 	mov	a,#0x72
   2F46 F0                 5819 	movx	@dptr,a
                           5820 ;	genPointerSet
                           5821 ;     genFarPointerSet
   2F47 90 04 52           5822 	mov	dptr,#(_UART_get_rx_status_file_name_3_3 + 0x001a)
   2F4A 74 65              5823 	mov	a,#0x65
   2F4C F0                 5824 	movx	@dptr,a
                           5825 ;	genPointerSet
                           5826 ;     genFarPointerSet
   2F4D 90 04 53           5827 	mov	dptr,#(_UART_get_rx_status_file_name_3_3 + 0x001b)
   2F50 74 5F              5828 	mov	a,#0x5F
   2F52 F0                 5829 	movx	@dptr,a
                           5830 ;	genPointerSet
                           5831 ;     genFarPointerSet
   2F53 90 04 54           5832 	mov	dptr,#(_UART_get_rx_status_file_name_3_3 + 0x001c)
   2F56 74 75              5833 	mov	a,#0x75
   2F58 F0                 5834 	movx	@dptr,a
                           5835 ;	genPointerSet
                           5836 ;     genFarPointerSet
   2F59 90 04 55           5837 	mov	dptr,#(_UART_get_rx_status_file_name_3_3 + 0x001d)
   2F5C 74 61              5838 	mov	a,#0x61
   2F5E F0                 5839 	movx	@dptr,a
                           5840 ;	genPointerSet
                           5841 ;     genFarPointerSet
   2F5F 90 04 56           5842 	mov	dptr,#(_UART_get_rx_status_file_name_3_3 + 0x001e)
   2F62 74 72              5843 	mov	a,#0x72
   2F64 F0                 5844 	movx	@dptr,a
                           5845 ;	genPointerSet
                           5846 ;     genFarPointerSet
   2F65 90 04 57           5847 	mov	dptr,#(_UART_get_rx_status_file_name_3_3 + 0x001f)
   2F68 74 74              5848 	mov	a,#0x74
   2F6A F0                 5849 	movx	@dptr,a
                           5850 ;	genPointerSet
                           5851 ;     genFarPointerSet
   2F6B 90 04 58           5852 	mov	dptr,#(_UART_get_rx_status_file_name_3_3 + 0x0020)
   2F6E 74 5F              5853 	mov	a,#0x5F
   2F70 F0                 5854 	movx	@dptr,a
                           5855 ;	genPointerSet
                           5856 ;     genFarPointerSet
   2F71 90 04 59           5857 	mov	dptr,#(_UART_get_rx_status_file_name_3_3 + 0x0021)
   2F74 74 61              5858 	mov	a,#0x61
   2F76 F0                 5859 	movx	@dptr,a
                           5860 ;	genPointerSet
                           5861 ;     genFarPointerSet
   2F77 90 04 5A           5862 	mov	dptr,#(_UART_get_rx_status_file_name_3_3 + 0x0022)
   2F7A 74 70              5863 	mov	a,#0x70
   2F7C F0                 5864 	movx	@dptr,a
                           5865 ;	genPointerSet
                           5866 ;     genFarPointerSet
   2F7D 90 04 5B           5867 	mov	dptr,#(_UART_get_rx_status_file_name_3_3 + 0x0023)
   2F80 74 62              5868 	mov	a,#0x62
   2F82 F0                 5869 	movx	@dptr,a
                           5870 ;	genPointerSet
                           5871 ;     genFarPointerSet
   2F83 90 04 5C           5872 	mov	dptr,#(_UART_get_rx_status_file_name_3_3 + 0x0024)
   2F86 74 2E              5873 	mov	a,#0x2E
   2F88 F0                 5874 	movx	@dptr,a
                           5875 ;	genPointerSet
                           5876 ;     genFarPointerSet
   2F89 90 04 5D           5877 	mov	dptr,#(_UART_get_rx_status_file_name_3_3 + 0x0025)
   2F8C 74 63              5878 	mov	a,#0x63
   2F8E F0                 5879 	movx	@dptr,a
                           5880 ;	genPointerSet
                           5881 ;     genFarPointerSet
   2F8F 90 04 5E           5882 	mov	dptr,#(_UART_get_rx_status_file_name_3_3 + 0x0026)
   2F92 74 00              5883 	mov	a,#0x00
   2F94 F0                 5884 	movx	@dptr,a
                           5885 ;	genAssign
   2F95 90 00 2E           5886 	mov	dptr,#_HAL_assert_fail_PARM_2
   2F98 74 14              5887 	mov	a,#0x14
   2F9A F0                 5888 	movx	@dptr,a
   2F9B A3                 5889 	inc	dptr
   2F9C 74 01              5890 	mov	a,#0x01
   2F9E F0                 5891 	movx	@dptr,a
   2F9F A3                 5892 	inc	dptr
   2FA0 74 00              5893 	mov	a,#0x00
   2FA2 F0                 5894 	movx	@dptr,a
   2FA3 A3                 5895 	inc	dptr
   2FA4 74 00              5896 	mov	a,#0x00
   2FA6 F0                 5897 	movx	@dptr,a
                           5898 ;	genCall
   2FA7 75 82 38           5899 	mov	dpl,#_UART_get_rx_status_file_name_3_3
   2FAA 75 83 04           5900 	mov	dph,#(_UART_get_rx_status_file_name_3_3 >> 8)
   2FAD 75 F0 00           5901 	mov	b,#0x00
   2FB0 12 08 16           5902 	lcall	_HAL_assert_fail
   2FB3                    5903 00104$:
                    1A97   5904 	C$core_uart_apb.c$283$1$1 ==.
                           5905 ;	../drivers/CoreUARTapb/core_uart_apb.c:283: if( this_uart != NULL_INSTANCE )
                           5906 ;	genAssign
   2FB3 90 04 34           5907 	mov	dptr,#_UART_get_rx_status_this_uart_1_1
   2FB6 E0                 5908 	movx	a,@dptr
   2FB7 FA                 5909 	mov	r2,a
   2FB8 A3                 5910 	inc	dptr
   2FB9 E0                 5911 	movx	a,@dptr
   2FBA FB                 5912 	mov	r3,a
   2FBB A3                 5913 	inc	dptr
   2FBC E0                 5914 	movx	a,@dptr
   2FBD FC                 5915 	mov	r4,a
                           5916 ;	genCmpEq
                           5917 ;	gencjneshort
   2FBE BA 00 09           5918 	cjne	r2,#0x00,00114$
   2FC1 BB 00 06           5919 	cjne	r3,#0x00,00114$
   2FC4 BC 00 03           5920 	cjne	r4,#0x00,00114$
   2FC7 02 2F F7           5921 	ljmp	00107$
   2FCA                    5922 00114$:
                    1AAE   5923 	C$core_uart_apb.c$285$2$4 ==.
                           5924 ;	../drivers/CoreUARTapb/core_uart_apb.c:285: status = ( ( this_uart->status & STATUS_ERROR_MASK ) >> 
                           5925 ;	genPlus
                           5926 ;	genPlusIncr
   2FCA 74 02              5927 	mov	a,#0x02
   2FCC 25 02              5928 	add	a,ar2
   2FCE FA                 5929 	mov	r2,a
   2FCF 74 00              5930 	mov	a,#0x00
   2FD1 35 03              5931 	addc	a,ar3
   2FD3 FB                 5932 	mov	r3,a
                           5933 ;	genPointerGet
                           5934 ;	genGenPointerGet
   2FD4 8A 82              5935 	mov	dpl,r2
   2FD6 8B 83              5936 	mov	dph,r3
   2FD8 8C F0              5937 	mov	b,r4
   2FDA 12 5C 8D           5938 	lcall	__gptrget
   2FDD FD                 5939 	mov	r5,a
                           5940 ;	genAnd
   2FDE 53 05 1C           5941 	anl	ar5,#0x1C
                           5942 ;	genRightShift
                           5943 ;	genRightShiftLiteral
                           5944 ;	genrshOne
   2FE1 ED                 5945 	mov	a,r5
   2FE2 03                 5946 	rr	a
   2FE3 03                 5947 	rr	a
   2FE4 54 3F              5948 	anl	a,#0x3f
   2FE6 FD                 5949 	mov	r5,a
                           5950 ;	genAssign
   2FE7 90 04 37           5951 	mov	dptr,#_UART_get_rx_status_status_1_1
   2FEA ED                 5952 	mov	a,r5
   2FEB F0                 5953 	movx	@dptr,a
                    1AD0   5954 	C$core_uart_apb.c$290$2$4 ==.
                           5955 ;	../drivers/CoreUARTapb/core_uart_apb.c:290: this_uart->status = (uint8_t)0;
                           5956 ;	genPointerSet
                           5957 ;	genGenPointerSet
   2FEC 8A 82              5958 	mov	dpl,r2
   2FEE 8B 83              5959 	mov	dph,r3
   2FF0 8C F0              5960 	mov	b,r4
   2FF2 74 00              5961 	mov	a,#0x00
   2FF4 12 5C 54           5962 	lcall	__gptrput
   2FF7                    5963 00107$:
                    1ADB   5964 	C$core_uart_apb.c$292$1$1 ==.
                           5965 ;	../drivers/CoreUARTapb/core_uart_apb.c:292: return status;
                           5966 ;	genAssign
   2FF7 90 04 37           5967 	mov	dptr,#_UART_get_rx_status_status_1_1
   2FFA E0                 5968 	movx	a,@dptr
   2FFB FA                 5969 	mov	r2,a
                           5970 ;	genRet
   2FFC 8A 82              5971 	mov	dpl,r2
   2FFE                    5972 00108$:
                    1AE2   5973 	C$core_uart_apb.c$293$1$1 ==.
                    1AE2   5974 	XG$UART_get_rx_status$0$0 ==.
   2FFE 22                 5975 	ret
                           5976 	.area CSEG    (CODE)
                           5977 	.area CONST   (CODE)
                           5978 	.area XINIT   (CODE)
                           5979 	.area CABS    (ABS,CODE)
