
Core8051s_Interrupt_LED.elf:     file format elf32-c8051

Disassembly of section .text:

00800000 <INT0_IRQHandler-0x70>:
  800000:	02 00 0b    	ljmp 80000b <sloc0+0x3fffb2>
  800003:	02 00 70    	ljmp 800070 <INT0_IRQHandler>
  800006:	12 02 c8    	lcall 8002c8 <main>
  800009:	80 fe       	sjmp 800009
  80000b:	75 81 5c    	mov sp, #92
  80000e:	12 61 64    	lcall 806164 <GPIO_clear_irq+0x2e5>
  800011:	e5 82       	mov a, dpl
  800013:	60 03       	jz 800018
  800015:	02 00 06    	ljmp 800006 <sloc0+0x3fffad>
  800018:	79 02       	mov r1, #2
  80001a:	e9          	mov a, r1
  80001b:	44 00       	orl a, #0
  80001d:	60 1b       	jz 80003a
  80001f:	7a 01       	mov r2, #1
  800021:	90 61 68    	mov dptr, #24936
  800024:	78 89       	mov r0, #137
  800026:	75 a0 09    	mov 0xa0, #9
  800029:	e4          	clr a
  80002a:	93          	movc a, @a + dptr
  80002b:	f2          	movx @r0, a
  80002c:	a3          	inc dptr
  80002d:	08          	inc r0
  80002e:	b8 00 02    	cjne r0, #0, 800033
  800031:	05 a0       	inc 0xa0
  800033:	d9 f4       	djnz r1, 800029
  800035:	da f2       	djnz r2, 800029
  800037:	75 a0 ff    	mov 0xa0, #255
  80003a:	e4          	clr a
  80003b:	78 ff       	mov r0, #255
  80003d:	f6          	mov @r0, a
  80003e:	d8 fd       	djnz r0, 80003d
  800040:	78 00       	mov r0, #0
  800042:	e8          	mov a, r0
  800043:	60 0a       	jz 80004f
  800045:	79 00       	mov r1, #0
  800047:	75 a0 00    	mov 0xa0, #0
  80004a:	e4          	clr a
  80004b:	f3          	movx @r1, a
  80004c:	09          	inc r1
  80004d:	d8 fc       	djnz r0, 80004b
  80004f:	78 89       	mov r0, #137
  800051:	e8          	mov a, r0
  800052:	44 09       	orl a, #9
  800054:	60 0c       	jz 800062
  800056:	79 0a       	mov r1, #10
  800058:	90 00 00    	mov dptr, #0
  80005b:	e4          	clr a
  80005c:	f0          	movx @dptr, a
  80005d:	a3          	inc dptr
  80005e:	d8 fc       	djnz r0, 80005c
  800060:	d9 fa       	djnz r1, 80005c
  800062:	90 00 0a    	mov dptr, #10
  800065:	e4          	clr a
  800066:	f0          	movx @dptr, a
  800067:	a3          	inc dptr
  800068:	f0          	movx @dptr, a
  800069:	a3          	inc dptr
  80006a:	f0          	movx @dptr, a
  80006b:	a3          	inc dptr
  80006c:	f0          	movx @dptr, a
  80006d:	02 00 06    	ljmp 800006 <sloc0+0x3fffad>

00800070 <INT0_IRQHandler>:
  800070:	c0 e0       	push acc
  800072:	c0 f0       	push b
  800074:	c0 82       	push dpl
  800076:	c0 83       	push dph
  800078:	c0 02       	push 0x02
  80007a:	c0 03       	push 0x03
  80007c:	c0 04       	push 0x04
  80007e:	c0 05       	push 0x05
  800080:	c0 06       	push 0x06
  800082:	c0 07       	push 0x07
  800084:	c0 00       	push 00
  800086:	c0 01       	push 0x01
  800088:	c0 d0       	push psw
  80008a:	75 d0 00    	mov psw, #0
  80008d:	12 00 ab    	lcall 8000ab <timer0_isr>
  800090:	d0 d0       	pop psw
  800092:	d0 01       	pop 0x01
  800094:	d0 00       	pop 00
  800096:	d0 07       	pop 0x07
  800098:	d0 06       	pop 0x06
  80009a:	d0 05       	pop 0x05
  80009c:	d0 04       	pop 0x04
  80009e:	d0 03       	pop 0x03
  8000a0:	d0 02       	pop 0x02
  8000a2:	d0 83       	pop dph
  8000a4:	d0 82       	pop dpl
  8000a6:	d0 f0       	pop b
  8000a8:	d0 e0       	pop acc
  8000aa:	32          	reti

008000ab <timer0_isr>:
  8000ab:	90 00 0e    	mov dptr, #14
  8000ae:	74 0a       	mov a, #10
  8000b0:	f0          	movx @dptr, a
  8000b1:	90 00 0f    	mov dptr, #15
  8000b4:	74 0d       	mov a, #13
  8000b6:	f0          	movx @dptr, a
  8000b7:	90 00 10    	mov dptr, #16
  8000ba:	74 2a       	mov a, #42
  8000bc:	f0          	movx @dptr, a
  8000bd:	90 00 11    	mov dptr, #17
  8000c0:	74 2a       	mov a, #42
  8000c2:	f0          	movx @dptr, a
  8000c3:	90 00 12    	mov dptr, #18
  8000c6:	74 20       	mov a, #32
  8000c8:	f0          	movx @dptr, a
  8000c9:	90 00 13    	mov dptr, #19
  8000cc:	74 54       	mov a, #84
  8000ce:	f0          	movx @dptr, a
  8000cf:	90 00 14    	mov dptr, #20
  8000d2:	74 69       	mov a, #105
  8000d4:	f0          	movx @dptr, a
  8000d5:	90 00 15    	mov dptr, #21
  8000d8:	74 6d       	mov a, #109
  8000da:	f0          	movx @dptr, a
  8000db:	90 00 16    	mov dptr, #22
  8000de:	74 65       	mov a, #101
  8000e0:	f0          	movx @dptr, a
  8000e1:	90 00 17    	mov dptr, #23
  8000e4:	74 72       	mov a, #114
  8000e6:	f0          	movx @dptr, a
  8000e7:	90 00 18    	mov dptr, #24
  8000ea:	74 20       	mov a, #32
  8000ec:	f0          	movx @dptr, a
  8000ed:	90 00 19    	mov dptr, #25
  8000f0:	74 69       	mov a, #105
  8000f2:	f0          	movx @dptr, a
  8000f3:	90 00 1a    	mov dptr, #26
  8000f6:	74 6e       	mov a, #110
  8000f8:	f0          	movx @dptr, a
  8000f9:	90 00 1b    	mov dptr, #27
  8000fc:	74 74       	mov a, #116
  8000fe:	f0          	movx @dptr, a
  8000ff:	90 00 1c    	mov dptr, #28
  800102:	74 65       	mov a, #101
  800104:	f0          	movx @dptr, a
  800105:	90 00 1d    	mov dptr, #29
  800108:	74 72       	mov a, #114
  80010a:	f0          	movx @dptr, a
  80010b:	90 00 1e    	mov dptr, #30
  80010e:	74 72       	mov a, #114
  800110:	f0          	movx @dptr, a
  800111:	90 00 1f    	mov dptr, #31
  800114:	74 75       	mov a, #117
  800116:	f0          	movx @dptr, a
  800117:	90 00 20    	mov dptr, #32
  80011a:	74 70       	mov a, #112
  80011c:	f0          	movx @dptr, a
  80011d:	90 00 21    	mov dptr, #33
  800120:	74 74       	mov a, #116
  800122:	f0          	movx @dptr, a
  800123:	90 00 22    	mov dptr, #34
  800126:	74 20       	mov a, #32
  800128:	f0          	movx @dptr, a
  800129:	90 00 23    	mov dptr, #35
  80012c:	74 72       	mov a, #114
  80012e:	f0          	movx @dptr, a
  80012f:	90 00 24    	mov dptr, #36
  800132:	74 65       	mov a, #101
  800134:	f0          	movx @dptr, a
  800135:	90 00 25    	mov dptr, #37
  800138:	74 63       	mov a, #99
  80013a:	f0          	movx @dptr, a
  80013b:	90 00 26    	mov dptr, #38
  80013e:	74 65       	mov a, #101
  800140:	f0          	movx @dptr, a
  800141:	90 00 27    	mov dptr, #39
  800144:	74 69       	mov a, #105
  800146:	f0          	movx @dptr, a
  800147:	90 00 28    	mov dptr, #40
  80014a:	74 76       	mov a, #118
  80014c:	f0          	movx @dptr, a
  80014d:	90 00 29    	mov dptr, #41
  800150:	74 65       	mov a, #101
  800152:	f0          	movx @dptr, a
  800153:	90 00 2a    	mov dptr, #42
  800156:	74 64       	mov a, #100
  800158:	f0          	movx @dptr, a
  800159:	90 00 2b    	mov dptr, #43
  80015c:	74 20       	mov a, #32
  80015e:	f0          	movx @dptr, a
  80015f:	90 00 2c    	mov dptr, #44
  800162:	74 74       	mov a, #116
  800164:	f0          	movx @dptr, a
  800165:	90 00 2d    	mov dptr, #45
  800168:	74 6f       	mov a, #111
  80016a:	f0          	movx @dptr, a
  80016b:	90 00 2e    	mov dptr, #46
  80016e:	74 20       	mov a, #32
  800170:	f0          	movx @dptr, a
  800171:	90 00 2f    	mov dptr, #47
  800174:	74 38       	mov a, #56
  800176:	f0          	movx @dptr, a
  800177:	90 00 30    	mov dptr, #48
  80017a:	74 30       	mov a, #48
  80017c:	f0          	movx @dptr, a
  80017d:	90 00 31    	mov dptr, #49
  800180:	74 35       	mov a, #53
  800182:	f0          	movx @dptr, a
  800183:	90 00 32    	mov dptr, #50
  800186:	74 31       	mov a, #49
  800188:	f0          	movx @dptr, a
  800189:	90 00 33    	mov dptr, #51
  80018c:	74 73       	mov a, #115
  80018e:	f0          	movx @dptr, a
  80018f:	90 00 34    	mov dptr, #52
  800192:	74 20       	mov a, #32
  800194:	f0          	movx @dptr, a
  800195:	90 00 35    	mov dptr, #53
  800198:	74 49       	mov a, #73
  80019a:	f0          	movx @dptr, a
  80019b:	90 00 36    	mov dptr, #54
  80019e:	74 4e       	mov a, #78
  8001a0:	f0          	movx @dptr, a
  8001a1:	90 00 37    	mov dptr, #55
  8001a4:	74 54       	mov a, #84
  8001a6:	f0          	movx @dptr, a
  8001a7:	90 00 38    	mov dptr, #56
  8001aa:	74 20       	mov a, #32
  8001ac:	f0          	movx @dptr, a
  8001ad:	90 00 39    	mov dptr, #57
  8001b0:	74 30       	mov a, #48
  8001b2:	f0          	movx @dptr, a
  8001b3:	90 00 3a    	mov dptr, #58
  8001b6:	74 20       	mov a, #32
  8001b8:	f0          	movx @dptr, a
  8001b9:	90 00 3b    	mov dptr, #59
  8001bc:	74 2a       	mov a, #42
  8001be:	f0          	movx @dptr, a
  8001bf:	90 00 3c    	mov dptr, #60
  8001c2:	74 2a       	mov a, #42
  8001c4:	f0          	movx @dptr, a
  8001c5:	90 00 3d    	mov dptr, #61
  8001c8:	74 0a       	mov a, #10
  8001ca:	f0          	movx @dptr, a
  8001cb:	90 00 3e    	mov dptr, #62
  8001ce:	74 0d       	mov a, #13
  8001d0:	f0          	movx @dptr, a
  8001d1:	90 00 3f    	mov dptr, #63
  8001d4:	74 00       	mov a, #0
  8001d6:	f0          	movx @dptr, a
  8001d7:	90 00 40    	mov dptr, #64
  8001da:	74 0a       	mov a, #10
  8001dc:	f0          	movx @dptr, a
  8001dd:	90 00 41    	mov dptr, #65
  8001e0:	74 0d       	mov a, #13
  8001e2:	f0          	movx @dptr, a
  8001e3:	90 00 42    	mov dptr, #66
  8001e6:	74 00       	mov a, #0
  8001e8:	f0          	movx @dptr, a
  8001e9:	90 02 bc    	mov dptr, #700
  8001ec:	74 0e       	mov a, #14
  8001ee:	f0          	movx @dptr, a
  8001ef:	a3          	inc dptr
  8001f0:	74 00       	mov a, #0
  8001f2:	f0          	movx @dptr, a
  8001f3:	a3          	inc dptr
  8001f4:	74 00       	mov a, #0
  8001f6:	f0          	movx @dptr, a
  8001f7:	90 02 bf    	mov dptr, #703
  8001fa:	74 32       	mov a, #50
  8001fc:	f0          	movx @dptr, a
  8001fd:	e4          	clr a
  8001fe:	a3          	inc dptr
  8001ff:	f0          	movx @dptr, a
  800200:	75 82 03    	mov dpl, #3
  800203:	75 83 00    	mov dph, #0
  800206:	75 f0 00    	mov b, #0
  800209:	12 1a 90    	lcall 801a90 <UART_send>
  80020c:	90 02 bc    	mov dptr, #700
  80020f:	74 40       	mov a, #64
  800211:	f0          	movx @dptr, a
  800212:	a3          	inc dptr
  800213:	74 00       	mov a, #0
  800215:	f0          	movx @dptr, a
  800216:	a3          	inc dptr
  800217:	74 00       	mov a, #0
  800219:	f0          	movx @dptr, a
  80021a:	90 02 bf    	mov dptr, #703
  80021d:	74 03       	mov a, #3
  80021f:	f0          	movx @dptr, a
  800220:	e4          	clr a
  800221:	a3          	inc dptr
  800222:	f0          	movx @dptr, a
  800223:	75 82 03    	mov dpl, #3
  800226:	75 83 00    	mov dph, #0
  800229:	75 f0 00    	mov b, #0
  80022c:	12 1a 90    	lcall 801a90 <UART_send>
  80022f:	90 08 2b    	mov dptr, #2091
  800232:	74 01       	mov a, #1
  800234:	f0          	movx @dptr, a
  800235:	90 08 2c    	mov dptr, #2092
  800238:	74 01       	mov a, #1
  80023a:	f0          	movx @dptr, a
  80023b:	75 82 00    	mov dpl, #0
  80023e:	75 83 00    	mov dph, #0
  800241:	75 f0 00    	mov b, #0
  800244:	12 50 94    	lcall 805094 <GPIO_set_output>
  800247:	90 00 0a    	mov dptr, #10
  80024a:	e0          	movx a, @dptr
  80024b:	fa          	mov r2, a
  80024c:	a3          	inc dptr
  80024d:	e0          	movx a, @dptr
  80024e:	fb          	mov r3, a
  80024f:	a3          	inc dptr
  800250:	e0          	movx a, @dptr
  800251:	fc          	mov r4, a
  800252:	a3          	inc dptr
  800253:	e0          	movx a, @dptr
  800254:	fd          	mov r5, a
  800255:	c3          	clr c
  800256:	74 00       	mov a, #0
  800258:	9a          	subb a, r2
  800259:	74 00       	mov a, #0
  80025b:	9b          	subb a, r3
  80025c:	74 00       	mov a, #0
  80025e:	9c          	subb a, r4
  80025f:	74 00       	mov a, #0
  800261:	64 80       	xrl a, #128
  800263:	8d f0       	mov b, r5
  800265:	63 f0 80    	xrl b, #128
  800268:	95 f0       	subb a, b
  80026a:	40 03       	jc 80026f
  80026c:	02 02 7d    	ljmp 80027d <timer0_isr+0x1d2>
  80026f:	90 00 0a    	mov dptr, #10
  800272:	e4          	clr a
  800273:	f0          	movx @dptr, a
  800274:	a3          	inc dptr
  800275:	f0          	movx @dptr, a
  800276:	a3          	inc dptr
  800277:	f0          	movx @dptr, a
  800278:	a3          	inc dptr
  800279:	f0          	movx @dptr, a
  80027a:	02 02 8a    	ljmp 80028a <timer0_isr+0x1df>
  80027d:	90 00 0a    	mov dptr, #10
  800280:	74 01       	mov a, #1
  800282:	f0          	movx @dptr, a
  800283:	e4          	clr a
  800284:	a3          	inc dptr
  800285:	f0          	movx @dptr, a
  800286:	a3          	inc dptr
  800287:	f0          	movx @dptr, a
  800288:	a3          	inc dptr
  800289:	f0          	movx @dptr, a
  80028a:	90 00 0a    	mov dptr, #10
  80028d:	e0          	movx a, @dptr
  80028e:	fa          	mov r2, a
  80028f:	a3          	inc dptr
  800290:	e0          	movx a, @dptr
  800291:	fb          	mov r3, a
  800292:	a3          	inc dptr
  800293:	e0          	movx a, @dptr
  800294:	fc          	mov r4, a
  800295:	a3          	inc dptr
  800296:	e0          	movx a, @dptr
  800297:	fd          	mov r5, a
  800298:	90 08 2b    	mov dptr, #2091
  80029b:	74 00       	mov a, #0
  80029d:	f0          	movx @dptr, a
  80029e:	90 08 2c    	mov dptr, #2092
  8002a1:	ea          	mov a, r2
  8002a2:	f0          	movx @dptr, a
  8002a3:	75 82 00    	mov dpl, #0
  8002a6:	75 83 00    	mov dph, #0
  8002a9:	75 f0 00    	mov b, #0
  8002ac:	12 50 94    	lcall 805094 <GPIO_set_output>
  8002af:	75 82 08    	mov dpl, #8
  8002b2:	75 83 00    	mov dph, #0
  8002b5:	75 f0 00    	mov b, #0
  8002b8:	12 36 db    	lcall 8036db <TMR_clear_int>
  8002bb:	22          	ret

008002bc <enable_8051_interrupts>:
  8002bc:	d2 a8       	setb 168
  8002be:	d2 aa       	setb 170
  8002c0:	d2 af       	setb 175
  8002c2:	22          	ret

008002c3 <C8051_interrupt_type>:
  8002c3:	d2 88       	setb 136
  8002c5:	d2 8a       	setb 138
  8002c7:	22          	ret

008002c8 <main>:
  8002c8:	90 00 43    	mov dptr, #67
  8002cb:	74 0a       	mov a, #10
  8002cd:	f0          	movx @dptr, a
  8002ce:	90 00 44    	mov dptr, #68
  8002d1:	74 0d       	mov a, #13
  8002d3:	f0          	movx @dptr, a
  8002d4:	90 00 45    	mov dptr, #69
  8002d7:	74 2a       	mov a, #42
  8002d9:	f0          	movx @dptr, a
  8002da:	90 00 46    	mov dptr, #70
  8002dd:	74 20       	mov a, #32
  8002df:	f0          	movx @dptr, a
  8002e0:	90 00 47    	mov dptr, #71
  8002e3:	74 53       	mov a, #83
  8002e5:	f0          	movx @dptr, a
  8002e6:	90 00 48    	mov dptr, #72
  8002e9:	74 74       	mov a, #116
  8002eb:	f0          	movx @dptr, a
  8002ec:	90 00 49    	mov dptr, #73
  8002ef:	74 61       	mov a, #97
  8002f1:	f0          	movx @dptr, a
  8002f2:	90 00 4a    	mov dptr, #74
  8002f5:	74 72       	mov a, #114
  8002f7:	f0          	movx @dptr, a
  8002f8:	90 00 4b    	mov dptr, #75
  8002fb:	74 74       	mov a, #116
  8002fd:	f0          	movx @dptr, a
  8002fe:	90 00 4c    	mov dptr, #76
  800301:	74 20       	mov a, #32
  800303:	f0          	movx @dptr, a
  800304:	90 00 4d    	mov dptr, #77
  800307:	74 74       	mov a, #116
  800309:	f0          	movx @dptr, a
  80030a:	90 00 4e    	mov dptr, #78
  80030d:	74 68       	mov a, #104
  80030f:	f0          	movx @dptr, a
  800310:	90 00 4f    	mov dptr, #79
  800313:	74 65       	mov a, #101
  800315:	f0          	movx @dptr, a
  800316:	90 00 50    	mov dptr, #80
  800319:	74 20       	mov a, #32
  80031b:	f0          	movx @dptr, a
  80031c:	90 00 51    	mov dptr, #81
  80031f:	74 38       	mov a, #56
  800321:	f0          	movx @dptr, a
  800322:	90 00 52    	mov dptr, #82
  800325:	74 30       	mov a, #48
  800327:	f0          	movx @dptr, a
  800328:	90 00 53    	mov dptr, #83
  80032b:	74 35       	mov a, #53
  80032d:	f0          	movx @dptr, a
  80032e:	90 00 54    	mov dptr, #84
  800331:	74 31       	mov a, #49
  800333:	f0          	movx @dptr, a
  800334:	90 00 55    	mov dptr, #85
  800337:	74 73       	mov a, #115
  800339:	f0          	movx @dptr, a
  80033a:	90 00 56    	mov dptr, #86
  80033d:	74 20       	mov a, #32
  80033f:	f0          	movx @dptr, a
  800340:	90 00 57    	mov dptr, #87
  800343:	74 49       	mov a, #73
  800345:	f0          	movx @dptr, a
  800346:	90 00 58    	mov dptr, #88
  800349:	74 6e       	mov a, #110
  80034b:	f0          	movx @dptr, a
  80034c:	90 00 59    	mov dptr, #89
  80034f:	74 74       	mov a, #116
  800351:	f0          	movx @dptr, a
  800352:	90 00 5a    	mov dptr, #90
  800355:	74 65       	mov a, #101
  800357:	f0          	movx @dptr, a
  800358:	90 00 5b    	mov dptr, #91
  80035b:	74 72       	mov a, #114
  80035d:	f0          	movx @dptr, a
  80035e:	90 00 5c    	mov dptr, #92
  800361:	74 72       	mov a, #114
  800363:	f0          	movx @dptr, a
  800364:	90 00 5d    	mov dptr, #93
  800367:	74 75       	mov a, #117
  800369:	f0          	movx @dptr, a
  80036a:	90 00 5e    	mov dptr, #94
  80036d:	74 70       	mov a, #112
  80036f:	f0          	movx @dptr, a
  800370:	90 00 5f    	mov dptr, #95
  800373:	74 74       	mov a, #116
  800375:	f0          	movx @dptr, a
  800376:	90 00 60    	mov dptr, #96
  800379:	74 73       	mov a, #115
  80037b:	f0          	movx @dptr, a
  80037c:	90 00 61    	mov dptr, #97
  80037f:	74 20       	mov a, #32
  800381:	f0          	movx @dptr, a
  800382:	90 00 62    	mov dptr, #98
  800385:	74 74       	mov a, #116
  800387:	f0          	movx @dptr, a
  800388:	90 00 63    	mov dptr, #99
  80038b:	74 65       	mov a, #101
  80038d:	f0          	movx @dptr, a
  80038e:	90 00 64    	mov dptr, #100
  800391:	74 73       	mov a, #115
  800393:	f0          	movx @dptr, a
  800394:	90 00 65    	mov dptr, #101
  800397:	74 74       	mov a, #116
  800399:	f0          	movx @dptr, a
  80039a:	90 00 66    	mov dptr, #102
  80039d:	74 20       	mov a, #32
  80039f:	f0          	movx @dptr, a
  8003a0:	90 00 67    	mov dptr, #103
  8003a3:	74 2a       	mov a, #42
  8003a5:	f0          	movx @dptr, a
  8003a6:	90 00 68    	mov dptr, #104
  8003a9:	74 0a       	mov a, #10
  8003ab:	f0          	movx @dptr, a
  8003ac:	90 00 69    	mov dptr, #105
  8003af:	74 0d       	mov a, #13
  8003b1:	f0          	movx @dptr, a
  8003b2:	90 00 6a    	mov dptr, #106
  8003b5:	74 00       	mov a, #0
  8003b7:	f0          	movx @dptr, a
  8003b8:	90 00 6b    	mov dptr, #107
  8003bb:	74 0a       	mov a, #10
  8003bd:	f0          	movx @dptr, a
  8003be:	90 00 6c    	mov dptr, #108
  8003c1:	74 0d       	mov a, #13
  8003c3:	f0          	movx @dptr, a
  8003c4:	90 00 6d    	mov dptr, #109
  8003c7:	74 00       	mov a, #0
  8003c9:	f0          	movx @dptr, a
  8003ca:	90 00 6e    	mov dptr, #110
  8003cd:	74 0a       	mov a, #10
  8003cf:	f0          	movx @dptr, a
  8003d0:	90 00 6f    	mov dptr, #111
  8003d3:	74 0d       	mov a, #13
  8003d5:	f0          	movx @dptr, a
  8003d6:	90 00 70    	mov dptr, #112
  8003d9:	74 20       	mov a, #32
  8003db:	f0          	movx @dptr, a
  8003dc:	90 00 71    	mov dptr, #113
  8003df:	74 20       	mov a, #32
  8003e1:	f0          	movx @dptr, a
  8003e2:	90 00 72    	mov dptr, #114
  8003e5:	74 20       	mov a, #32
  8003e7:	f0          	movx @dptr, a
  8003e8:	90 00 73    	mov dptr, #115
  8003eb:	74 20       	mov a, #32
  8003ed:	f0          	movx @dptr, a
  8003ee:	90 00 74    	mov dptr, #116
  8003f1:	74 53       	mov a, #83
  8003f3:	f0          	movx @dptr, a
  8003f4:	90 00 75    	mov dptr, #117
  8003f7:	74 63       	mov a, #99
  8003f9:	f0          	movx @dptr, a
  8003fa:	90 00 76    	mov dptr, #118
  8003fd:	74 61       	mov a, #97
  8003ff:	f0          	movx @dptr, a
  800400:	90 00 77    	mov dptr, #119
  800403:	74 6e       	mov a, #110
  800405:	f0          	movx @dptr, a
  800406:	90 00 78    	mov dptr, #120
  800409:	74 6e       	mov a, #110
  80040b:	f0          	movx @dptr, a
  80040c:	90 00 79    	mov dptr, #121
  80040f:	74 69       	mov a, #105
  800411:	f0          	movx @dptr, a
  800412:	90 00 7a    	mov dptr, #122
  800415:	74 6e       	mov a, #110
  800417:	f0          	movx @dptr, a
  800418:	90 00 7b    	mov dptr, #123
  80041b:	74 67       	mov a, #103
  80041d:	f0          	movx @dptr, a
  80041e:	90 00 7c    	mov dptr, #124
  800421:	74 2e       	mov a, #46
  800423:	f0          	movx @dptr, a
  800424:	90 00 7d    	mov dptr, #125
  800427:	74 2e       	mov a, #46
  800429:	f0          	movx @dptr, a
  80042a:	90 00 7e    	mov dptr, #126
  80042d:	74 2e       	mov a, #46
  80042f:	f0          	movx @dptr, a
  800430:	90 00 7f    	mov dptr, #127
  800433:	74 2e       	mov a, #46
  800435:	f0          	movx @dptr, a
  800436:	90 00 80    	mov dptr, #128
  800439:	74 2e       	mov a, #46
  80043b:	f0          	movx @dptr, a
  80043c:	90 00 81    	mov dptr, #129
  80043f:	74 2e       	mov a, #46
  800441:	f0          	movx @dptr, a
  800442:	90 00 82    	mov dptr, #130
  800445:	74 20       	mov a, #32
  800447:	f0          	movx @dptr, a
  800448:	90 00 83    	mov dptr, #131
  80044b:	74 20       	mov a, #32
  80044d:	f0          	movx @dptr, a
  80044e:	90 00 84    	mov dptr, #132
  800451:	74 20       	mov a, #32
  800453:	f0          	movx @dptr, a
  800454:	90 00 85    	mov dptr, #133
  800457:	74 20       	mov a, #32
  800459:	f0          	movx @dptr, a
  80045a:	90 00 86    	mov dptr, #134
  80045d:	74 20       	mov a, #32
  80045f:	f0          	movx @dptr, a
  800460:	90 00 87    	mov dptr, #135
  800463:	74 20       	mov a, #32
  800465:	f0          	movx @dptr, a
  800466:	90 00 88    	mov dptr, #136
  800469:	74 20       	mov a, #32
  80046b:	f0          	movx @dptr, a
  80046c:	90 00 89    	mov dptr, #137
  80046f:	74 0a       	mov a, #10
  800471:	f0          	movx @dptr, a
  800472:	90 00 8a    	mov dptr, #138
  800475:	74 0d       	mov a, #13
  800477:	f0          	movx @dptr, a
  800478:	90 00 8b    	mov dptr, #139
  80047b:	74 00       	mov a, #0
  80047d:	f0          	movx @dptr, a
  80047e:	12 02 bc    	lcall 8002bc <enable_8051_interrupts>
  800481:	90 01 ef    	mov dptr, #495
  800484:	74 00       	mov a, #0
  800486:	f0          	movx @dptr, a
  800487:	a3          	inc dptr
  800488:	74 f0       	mov a, #240
  80048a:	f0          	movx @dptr, a
  80048b:	90 01 f1    	mov dptr, #497
  80048e:	74 26       	mov a, #38
  800490:	f0          	movx @dptr, a
  800491:	e4          	clr a
  800492:	a3          	inc dptr
  800493:	f0          	movx @dptr, a
  800494:	90 01 f3    	mov dptr, #499
  800497:	74 01       	mov a, #1
  800499:	f0          	movx @dptr, a
  80049a:	75 82 03    	mov dpl, #3
  80049d:	75 83 00    	mov dph, #0
  8004a0:	75 f0 00    	mov b, #0
  8004a3:	12 12 fc    	lcall 8012fc <UART_init>
  8004a6:	90 00 e6    	mov dptr, #230
  8004a9:	74 00       	mov a, #0
  8004ab:	f0          	movx @dptr, a
  8004ac:	a3          	inc dptr
  8004ad:	74 f3       	mov a, #243
  8004af:	f0          	movx @dptr, a
  8004b0:	90 00 e8    	mov dptr, #232
  8004b3:	74 e8       	mov a, #232
  8004b5:	f0          	movx @dptr, a
  8004b6:	a3          	inc dptr
  8004b7:	74 03       	mov a, #3
  8004b9:	f0          	movx @dptr, a
  8004ba:	a3          	inc dptr
  8004bb:	74 00       	mov a, #0
  8004bd:	f0          	movx @dptr, a
  8004be:	a3          	inc dptr
  8004bf:	74 00       	mov a, #0
  8004c1:	f0          	movx @dptr, a
  8004c2:	90 00 ec    	mov dptr, #236
  8004c5:	74 03       	mov a, #3
  8004c7:	f0          	movx @dptr, a
  8004c8:	e4          	clr a
  8004c9:	a3          	inc dptr
  8004ca:	f0          	movx @dptr, a
  8004cb:	a3          	inc dptr
  8004cc:	f0          	movx @dptr, a
  8004cd:	a3          	inc dptr
  8004ce:	f0          	movx @dptr, a
  8004cf:	75 82 06    	mov dpl, #6
  8004d2:	75 83 00    	mov dph, #0
  8004d5:	75 f0 00    	mov b, #0
  8004d8:	12 09 a1    	lcall 8009a1 <WD_init>
  8004db:	75 82 06    	mov dpl, #6
  8004de:	75 83 00    	mov dph, #0
  8004e1:	75 f0 00    	mov b, #0
  8004e4:	12 0e 7f    	lcall 800e7f <WD_disable>
  8004e7:	90 07 25    	mov dptr, #1829
  8004ea:	74 00       	mov a, #0
  8004ec:	f0          	movx @dptr, a
  8004ed:	a3          	inc dptr
  8004ee:	74 f1       	mov a, #241
  8004f0:	f0          	movx @dptr, a
  8004f1:	90 07 27    	mov dptr, #1831
  8004f4:	74 02       	mov a, #2
  8004f6:	f0          	movx @dptr, a
  8004f7:	75 82 00    	mov dpl, #0
  8004fa:	75 83 00    	mov dph, #0
  8004fd:	75 f0 00    	mov b, #0
  800500:	12 42 e1    	lcall 8042e1 <GPIO_init>
  800503:	90 07 4e    	mov dptr, #1870
  800506:	74 00       	mov a, #0
  800508:	f0          	movx @dptr, a
  800509:	90 07 4f    	mov dptr, #1871
  80050c:	74 05       	mov a, #5
  80050e:	f0          	movx @dptr, a
  80050f:	e4          	clr a
  800510:	a3          	inc dptr
  800511:	f0          	movx @dptr, a
  800512:	a3          	inc dptr
  800513:	f0          	movx @dptr, a
  800514:	a3          	inc dptr
  800515:	f0          	movx @dptr, a
  800516:	75 82 00    	mov dpl, #0
  800519:	75 83 00    	mov dph, #0
  80051c:	75 f0 00    	mov b, #0
  80051f:	12 45 e5    	lcall 8045e5 <GPIO_config>
  800522:	90 07 4e    	mov dptr, #1870
  800525:	74 05       	mov a, #5
  800527:	f0          	movx @dptr, a
  800528:	90 07 4f    	mov dptr, #1871
  80052b:	74 05       	mov a, #5
  80052d:	f0          	movx @dptr, a
  80052e:	e4          	clr a
  80052f:	a3          	inc dptr
  800530:	f0          	movx @dptr, a
  800531:	a3          	inc dptr
  800532:	f0          	movx @dptr, a
  800533:	a3          	inc dptr
  800534:	f0          	movx @dptr, a
  800535:	75 82 00    	mov dpl, #0
  800538:	75 83 00    	mov dph, #0
  80053b:	75 f0 00    	mov b, #0
  80053e:	12 45 e5    	lcall 8045e5 <GPIO_config>
  800541:	90 04 c0    	mov dptr, #1216
  800544:	74 00       	mov a, #0
  800546:	f0          	movx @dptr, a
  800547:	a3          	inc dptr
  800548:	74 f2       	mov a, #242
  80054a:	f0          	movx @dptr, a
  80054b:	90 04 c2    	mov dptr, #1218
  80054e:	74 00       	mov a, #0
  800550:	f0          	movx @dptr, a
  800551:	90 04 c3    	mov dptr, #1219
  800554:	74 09       	mov a, #9
  800556:	f0          	movx @dptr, a
  800557:	e4          	clr a
  800558:	a3          	inc dptr
  800559:	f0          	movx @dptr, a
  80055a:	a3          	inc dptr
  80055b:	f0          	movx @dptr, a
  80055c:	a3          	inc dptr
  80055d:	f0          	movx @dptr, a
  80055e:	90 04 c7    	mov dptr, #1223
  800561:	74 8c       	mov a, #140
  800563:	f0          	movx @dptr, a
  800564:	a3          	inc dptr
  800565:	74 5b       	mov a, #91
  800567:	f0          	movx @dptr, a
  800568:	a3          	inc dptr
  800569:	74 00       	mov a, #0
  80056b:	f0          	movx @dptr, a
  80056c:	a3          	inc dptr
  80056d:	74 00       	mov a, #0
  80056f:	f0          	movx @dptr, a
  800570:	75 82 08    	mov dpl, #8
  800573:	75 83 00    	mov dph, #0
  800576:	75 f0 00    	mov b, #0
  800579:	12 2d df    	lcall 802ddf <TMR_init>
  80057c:	90 02 bc    	mov dptr, #700
  80057f:	74 43       	mov a, #67
  800581:	f0          	movx @dptr, a
  800582:	a3          	inc dptr
  800583:	74 00       	mov a, #0
  800585:	f0          	movx @dptr, a
  800586:	a3          	inc dptr
  800587:	74 00       	mov a, #0
  800589:	f0          	movx @dptr, a
  80058a:	90 02 bf    	mov dptr, #703
  80058d:	74 28       	mov a, #40
  80058f:	f0          	movx @dptr, a
  800590:	e4          	clr a
  800591:	a3          	inc dptr
  800592:	f0          	movx @dptr, a
  800593:	75 82 03    	mov dpl, #3
  800596:	75 83 00    	mov dph, #0
  800599:	75 f0 00    	mov b, #0
  80059c:	12 1a 90    	lcall 801a90 <UART_send>
  80059f:	90 02 bc    	mov dptr, #700
  8005a2:	74 6b       	mov a, #107
  8005a4:	f0          	movx @dptr, a
  8005a5:	a3          	inc dptr
  8005a6:	74 00       	mov a, #0
  8005a8:	f0          	movx @dptr, a
  8005a9:	a3          	inc dptr
  8005aa:	74 00       	mov a, #0
  8005ac:	f0          	movx @dptr, a
  8005ad:	90 02 bf    	mov dptr, #703
  8005b0:	74 03       	mov a, #3
  8005b2:	f0          	movx @dptr, a
  8005b3:	e4          	clr a
  8005b4:	a3          	inc dptr
  8005b5:	f0          	movx @dptr, a
  8005b6:	75 82 03    	mov dpl, #3
  8005b9:	75 83 00    	mov dph, #0
  8005bc:	75 f0 00    	mov b, #0
  8005bf:	12 1a 90    	lcall 801a90 <UART_send>
  8005c2:	75 82 08    	mov dpl, #8
  8005c5:	75 83 00    	mov dph, #0
  8005c8:	75 f0 00    	mov b, #0
  8005cb:	12 35 73    	lcall 803573 <TMR_enable_int>
  8005ce:	75 82 08    	mov dpl, #8
  8005d1:	75 83 00    	mov dph, #0
  8005d4:	75 f0 00    	mov b, #0
  8005d7:	12 32 a5    	lcall 8032a5 <TMR_start>
  8005da:	90 08 2b    	mov dptr, #2091
  8005dd:	74 00       	mov a, #0
  8005df:	f0          	movx @dptr, a
  8005e0:	90 08 2c    	mov dptr, #2092
  8005e3:	74 00       	mov a, #0
  8005e5:	f0          	movx @dptr, a
  8005e6:	75 82 00    	mov dpl, #0
  8005e9:	75 83 00    	mov dph, #0
  8005ec:	75 f0 00    	mov b, #0
  8005ef:	12 50 94    	lcall 805094 <GPIO_set_output>
  8005f2:	02 05 f2    	ljmp 8005f2 <main+0x32a>
  8005f5:	22          	ret

008005f6 <HAL_assert_fail>:
  8005f6:	aa f0       	mov r2, b
  8005f8:	ab 83       	mov r3, dph
  8005fa:	e5 82       	mov a, dpl
  8005fc:	90 00 90    	mov dptr, #144
  8005ff:	f0          	movx @dptr, a
  800600:	a3          	inc dptr
  800601:	eb          	mov a, r3
  800602:	f0          	movx @dptr, a
  800603:	a3          	inc dptr
  800604:	ea          	mov a, r2
  800605:	f0          	movx @dptr, a
  800606:	90 00 90    	mov dptr, #144
  800609:	e0          	movx a, @dptr
  80060a:	fa          	mov r2, a
  80060b:	a3          	inc dptr
  80060c:	e0          	movx a, @dptr
  80060d:	fb          	mov r3, a
  80060e:	a3          	inc dptr
  80060f:	e0          	movx a, @dptr
  800610:	fc          	mov r4, a
  800611:	90 00 93    	mov dptr, #147
  800614:	ea          	mov a, r2
  800615:	f0          	movx @dptr, a
  800616:	a3          	inc dptr
  800617:	eb          	mov a, r3
  800618:	f0          	movx @dptr, a
  800619:	a3          	inc dptr
  80061a:	ec          	mov a, r4
  80061b:	f0          	movx @dptr, a
  80061c:	90 00 8c    	mov dptr, #140
  80061f:	e0          	movx a, @dptr
  800620:	fa          	mov r2, a
  800621:	a3          	inc dptr
  800622:	e0          	movx a, @dptr
  800623:	fb          	mov r3, a
  800624:	a3          	inc dptr
  800625:	e0          	movx a, @dptr
  800626:	fc          	mov r4, a
  800627:	a3          	inc dptr
  800628:	e0          	movx a, @dptr
  800629:	fd          	mov r5, a
  80062a:	90 00 96    	mov dptr, #150
  80062d:	ea          	mov a, r2
  80062e:	f0          	movx @dptr, a
  80062f:	a3          	inc dptr
  800630:	eb          	mov a, r3
  800631:	f0          	movx @dptr, a
  800632:	a3          	inc dptr
  800633:	ec          	mov a, r4
  800634:	f0          	movx @dptr, a
  800635:	a3          	inc dptr
  800636:	ed          	mov a, r5
  800637:	f0          	movx @dptr, a
  800638:	90 00 93    	mov dptr, #147
  80063b:	e0          	movx a, @dptr
  80063c:	fa          	mov r2, a
  80063d:	a3          	inc dptr
  80063e:	e0          	movx a, @dptr
  80063f:	fb          	mov r3, a
  800640:	a3          	inc dptr
  800641:	e0          	movx a, @dptr
  800642:	fc          	mov r4, a
  800643:	8a 82       	mov dpl, r2
  800645:	8b 83       	mov dph, r3
  800647:	8c f0       	mov b, r4
  800649:	12 61 48    	lcall 806148 <GPIO_clear_irq+0x2c9>
  80064c:	fa          	mov r2, a
  80064d:	90 00 9a    	mov dptr, #154
  800650:	ea          	mov a, r2
  800651:	f0          	movx @dptr, a
  800652:	02 06 06    	ljmp 800606 <HAL_assert_fail+0x10>
  800655:	22          	ret

00800656 <HW_get_32bit_reg>:
  800656:	e0 f5 82 85 9d 83 85 9e f0 e5 9f 22                 ..........."

00800662 <HW_set_32bit_reg>:
  800662:	c0 83 c0 82 90 00 ab e0 f5 9a a3 e0 f5 9b a3 e0     ................
  800672:	f5 9c 90 00 aa e0 d0 82 d0 83 f0 22                 ..........."

0080067e <HW_set_16bit_reg>:
  80067e:	c0 83 c0 82 90 00 a8 e0 f5 9a 90 00 a7 e0 d0 82     ................
  80068e:	d0 83 f0 22                                         ..."

00800692 <HW_get_16bit_reg>:
  800692:	e0 f5 82 85 9d 83 22                                ......"

00800699 <HW_set_8bit_reg>:
  800699:	c0 83 c0 82 90 00 a9 e0 d0 82 d0 83 f0 22           ............."

008006a7 <HW_get_8bit_reg>:
  8006a7:	e0 f5 82 22                                         ..."

008006ab <HAL_enable_interrupts>:
  8006ab:	75 af 80 22                                         u.."

008006af <HAL_disable_interrupts>:
  8006af:	85 af 82 75 af 00 22                                ...u.."

008006b6 <HAL_restore_interrupts>:
  8006b6:	85 82 af 22                                         ..."

008006ba <HW_set_32bit_reg_field>:
  8006ba:	aa 83       	mov r2, dph
  8006bc:	e5 82       	mov a, dpl
  8006be:	90 00 b7    	mov dptr, #183
  8006c1:	f0          	movx @dptr, a
  8006c2:	a3          	inc dptr
  8006c3:	ea          	mov a, r2
  8006c4:	f0          	movx @dptr, a
  8006c5:	90 00 b7    	mov dptr, #183
  8006c8:	e0          	movx a, @dptr
  8006c9:	f5 18       	mov 0x18, a
  8006cb:	a3          	inc dptr
  8006cc:	e0          	movx a, @dptr
  8006cd:	f5 19       	mov 0x19, a
  8006cf:	85 18 82    	mov dpl, 0x18
  8006d2:	85 19 83    	mov dph, 0x19
  8006d5:	12 06 56    	lcall 800656 <HW_get_32bit_reg>
  8006d8:	ac 82       	mov r4, dpl
  8006da:	ad 83       	mov r5, dph
  8006dc:	ae f0       	mov r6, b
  8006de:	ff          	mov r7, a
  8006df:	90 00 b9    	mov dptr, #185
  8006e2:	ec          	mov a, r4
  8006e3:	f0          	movx @dptr, a
  8006e4:	a3          	inc dptr
  8006e5:	ed          	mov a, r5
  8006e6:	f0          	movx @dptr, a
  8006e7:	a3          	inc dptr
  8006e8:	ee          	mov a, r6
  8006e9:	f0          	movx @dptr, a
  8006ea:	a3          	inc dptr
  8006eb:	ef          	mov a, r7
  8006ec:	f0          	movx @dptr, a
  8006ed:	90 00 af    	mov dptr, #175
  8006f0:	e0          	movx a, @dptr
  8006f1:	fc          	mov r4, a
  8006f2:	a3          	inc dptr
  8006f3:	e0          	movx a, @dptr
  8006f4:	fd          	mov r5, a
  8006f5:	a3          	inc dptr
  8006f6:	e0          	movx a, @dptr
  8006f7:	fe          	mov r6, a
  8006f8:	a3          	inc dptr
  8006f9:	e0          	movx a, @dptr
  8006fa:	ff          	mov r7, a
  8006fb:	ec          	mov a, r4
  8006fc:	f4          	cpl a
  8006fd:	f5 1a       	mov 0x1a, a
  8006ff:	ed          	mov a, r5
  800700:	f4          	cpl a
  800701:	f5 1b       	mov 0x1b, a
  800703:	ee          	mov a, r6
  800704:	f4          	cpl a
  800705:	f5 1c       	mov 0x1c, a
  800707:	ef          	mov a, r7
  800708:	f4          	cpl a
  800709:	f5 1d       	mov 0x1d, a
  80070b:	90 00 b9    	mov dptr, #185
  80070e:	e0          	movx a, @dptr
  80070f:	fa          	mov r2, a
  800710:	a3          	inc dptr
  800711:	e0          	movx a, @dptr
  800712:	fb          	mov r3, a
  800713:	a3          	inc dptr
  800714:	e0          	movx a, @dptr
  800715:	f8          	mov r0, a
  800716:	a3          	inc dptr
  800717:	e0          	movx a, @dptr
  800718:	f9          	mov r1, a
  800719:	ea          	mov a, r2
  80071a:	52 1a       	anl 0x1a, a
  80071c:	eb          	mov a, r3
  80071d:	52 1b       	anl 0x1b, a
  80071f:	e8          	mov a, r0
  800720:	52 1c       	anl 0x1c, a
  800722:	e9          	mov a, r1
  800723:	52 1d       	anl 0x1d, a
  800725:	90 00 ae    	mov dptr, #174
  800728:	e0          	movx a, @dptr
  800729:	f5 1e       	mov 0x1e, a
  80072b:	90 00 b3    	mov dptr, #179
  80072e:	e0          	movx a, @dptr
  80072f:	fb          	mov r3, a
  800730:	a3          	inc dptr
  800731:	e0          	movx a, @dptr
  800732:	f8          	mov r0, a
  800733:	a3          	inc dptr
  800734:	e0          	movx a, @dptr
  800735:	f9          	mov r1, a
  800736:	a3          	inc dptr
  800737:	e0          	movx a, @dptr
  800738:	fa          	mov r2, a
  800739:	85 1e f0    	mov b, 0x1e
  80073c:	05 f0       	inc b
  80073e:	80 0d       	sjmp 80074d
  800740:	eb          	mov a, r3
  800741:	25 e0       	add a, acc
  800743:	fb          	mov r3, a
  800744:	e8          	mov a, r0
  800745:	33          	rlc a
  800746:	f8          	mov r0, a
  800747:	e9          	mov a, r1
  800748:	33          	rlc a
  800749:	f9          	mov r1, a
  80074a:	ea          	mov a, r2
  80074b:	33          	rlc a
  80074c:	fa          	mov r2, a
  80074d:	d5 f0 f0    	djnz b, 800740
  800750:	eb          	mov a, r3
  800751:	52 04       	anl 0x04, a
  800753:	e8          	mov a, r0
  800754:	52 05       	anl 0x05, a
  800756:	e9          	mov a, r1
  800757:	52 06       	anl 0x06, a
  800759:	ea          	mov a, r2
  80075a:	52 07       	anl 0x07, a
  80075c:	90 00 b9    	mov dptr, #185
  80075f:	ec          	mov a, r4
  800760:	45 1a       	orl a, 0x1a
  800762:	f0          	movx @dptr, a
  800763:	ed          	mov a, r5
  800764:	45 1b       	orl a, 0x1b
  800766:	a3          	inc dptr
  800767:	f0          	movx @dptr, a
  800768:	ee          	mov a, r6
  800769:	45 1c       	orl a, 0x1c
  80076b:	a3          	inc dptr
  80076c:	f0          	movx @dptr, a
  80076d:	ef          	mov a, r7
  80076e:	45 1d       	orl a, 0x1d
  800770:	a3          	inc dptr
  800771:	f0          	movx @dptr, a
  800772:	90 00 b9    	mov dptr, #185
  800775:	e0          	movx a, @dptr
  800776:	fa          	mov r2, a
  800777:	a3          	inc dptr
  800778:	e0          	movx a, @dptr
  800779:	fb          	mov r3, a
  80077a:	a3          	inc dptr
  80077b:	e0          	movx a, @dptr
  80077c:	fc          	mov r4, a
  80077d:	a3          	inc dptr
  80077e:	e0          	movx a, @dptr
  80077f:	fd          	mov r5, a
  800780:	90 00 aa    	mov dptr, #170
  800783:	ea          	mov a, r2
  800784:	f0          	movx @dptr, a
  800785:	a3          	inc dptr
  800786:	eb          	mov a, r3
  800787:	f0          	movx @dptr, a
  800788:	a3          	inc dptr
  800789:	ec          	mov a, r4
  80078a:	f0          	movx @dptr, a
  80078b:	a3          	inc dptr
  80078c:	ed          	mov a, r5
  80078d:	f0          	movx @dptr, a
  80078e:	85 18 82    	mov dpl, 0x18
  800791:	85 19 83    	mov dph, 0x19
  800794:	12 06 62    	lcall 800662 <HW_set_32bit_reg>
  800797:	22          	ret

00800798 <HW_get_32bit_reg_field>:
  800798:	aa 83       	mov r2, dph
  80079a:	e5 82       	mov a, dpl
  80079c:	90 00 c2    	mov dptr, #194
  80079f:	f0          	movx @dptr, a
  8007a0:	a3          	inc dptr
  8007a1:	ea          	mov a, r2
  8007a2:	f0          	movx @dptr, a
  8007a3:	90 00 c2    	mov dptr, #194
  8007a6:	e0          	movx a, @dptr
  8007a7:	fa          	mov r2, a
  8007a8:	a3          	inc dptr
  8007a9:	e0          	movx a, @dptr
  8007aa:	fb          	mov r3, a
  8007ab:	8a 82       	mov dpl, r2
  8007ad:	8b 83       	mov dph, r3
  8007af:	12 06 56    	lcall 800656 <HW_get_32bit_reg>
  8007b2:	aa 82       	mov r2, dpl
  8007b4:	ab 83       	mov r3, dph
  8007b6:	ac f0       	mov r4, b
  8007b8:	fd          	mov r5, a
  8007b9:	90 00 be    	mov dptr, #190
  8007bc:	e0          	movx a, @dptr
  8007bd:	fe          	mov r6, a
  8007be:	a3          	inc dptr
  8007bf:	e0          	movx a, @dptr
  8007c0:	ff          	mov r7, a
  8007c1:	a3          	inc dptr
  8007c2:	e0          	movx a, @dptr
  8007c3:	f8          	mov r0, a
  8007c4:	a3          	inc dptr
  8007c5:	e0          	movx a, @dptr
  8007c6:	f9          	mov r1, a
  8007c7:	ee          	mov a, r6
  8007c8:	52 02       	anl 0x02, a
  8007ca:	ef          	mov a, r7
  8007cb:	52 03       	anl 0x03, a
  8007cd:	e8          	mov a, r0
  8007ce:	52 04       	anl 0x04, a
  8007d0:	e9          	mov a, r1
  8007d1:	52 05       	anl 0x05, a
  8007d3:	90 00 bd    	mov dptr, #189
  8007d6:	e0          	movx a, @dptr
  8007d7:	fe          	mov r6, a
  8007d8:	8e f0       	mov b, r6
  8007da:	05 f0       	inc b
  8007dc:	80 0d       	sjmp 8007eb
  8007de:	c3          	clr c
  8007df:	ed          	mov a, r5
  8007e0:	13          	rrc a
  8007e1:	fd          	mov r5, a
  8007e2:	ec          	mov a, r4
  8007e3:	13          	rrc a
  8007e4:	fc          	mov r4, a
  8007e5:	eb          	mov a, r3
  8007e6:	13          	rrc a
  8007e7:	fb          	mov r3, a
  8007e8:	ea          	mov a, r2
  8007e9:	13          	rrc a
  8007ea:	fa          	mov r2, a
  8007eb:	d5 f0 f0    	djnz b, 8007de
  8007ee:	90 00 c4    	mov dptr, #196
  8007f1:	ea          	mov a, r2
  8007f2:	f0          	movx @dptr, a
  8007f3:	a3          	inc dptr
  8007f4:	eb          	mov a, r3
  8007f5:	f0          	movx @dptr, a
  8007f6:	a3          	inc dptr
  8007f7:	ec          	mov a, r4
  8007f8:	f0          	movx @dptr, a
  8007f9:	a3          	inc dptr
  8007fa:	ed          	mov a, r5
  8007fb:	f0          	movx @dptr, a
  8007fc:	90 00 c4    	mov dptr, #196
  8007ff:	e0          	movx a, @dptr
  800800:	fa          	mov r2, a
  800801:	a3          	inc dptr
  800802:	e0          	movx a, @dptr
  800803:	fb          	mov r3, a
  800804:	a3          	inc dptr
  800805:	e0          	movx a, @dptr
  800806:	fc          	mov r4, a
  800807:	a3          	inc dptr
  800808:	e0          	movx a, @dptr
  800809:	fd          	mov r5, a
  80080a:	8a 82       	mov dpl, r2
  80080c:	8b 83       	mov dph, r3
  80080e:	8c f0       	mov b, r4
  800810:	ed          	mov a, r5
  800811:	22          	ret

00800812 <HW_set_16bit_reg_field>:
  800812:	aa 83       	mov r2, dph
  800814:	e5 82       	mov a, dpl
  800816:	90 00 cd    	mov dptr, #205
  800819:	f0          	movx @dptr, a
  80081a:	a3          	inc dptr
  80081b:	ea          	mov a, r2
  80081c:	f0          	movx @dptr, a
  80081d:	90 00 cd    	mov dptr, #205
  800820:	e0          	movx a, @dptr
  800821:	fa          	mov r2, a
  800822:	a3          	inc dptr
  800823:	e0          	movx a, @dptr
  800824:	fb          	mov r3, a
  800825:	8a 82       	mov dpl, r2
  800827:	8b 83       	mov dph, r3
  800829:	c0 02       	push 0x02
  80082b:	c0 03       	push 0x03
  80082d:	12 06 92    	lcall 800692 <HW_get_16bit_reg>
  800830:	e5 82       	mov a, dpl
  800832:	85 83 f0    	mov b, dph
  800835:	d0 03       	pop 0x03
  800837:	d0 02       	pop 0x02
  800839:	90 00 cf    	mov dptr, #207
  80083c:	f0          	movx @dptr, a
  80083d:	a3          	inc dptr
  80083e:	e5 f0       	mov a, b
  800840:	f0          	movx @dptr, a
  800841:	90 00 c9    	mov dptr, #201
  800844:	e0          	movx a, @dptr
  800845:	fc          	mov r4, a
  800846:	a3          	inc dptr
  800847:	e0          	movx a, @dptr
  800848:	fd          	mov r5, a
  800849:	ec          	mov a, r4
  80084a:	f4          	cpl a
  80084b:	fe          	mov r6, a
  80084c:	ed          	mov a, r5
  80084d:	f4          	cpl a
  80084e:	ff          	mov r7, a
  80084f:	90 00 cf    	mov dptr, #207
  800852:	e0          	movx a, @dptr
  800853:	f8          	mov r0, a
  800854:	a3          	inc dptr
  800855:	e0          	movx a, @dptr
  800856:	f9          	mov r1, a
  800857:	e8          	mov a, r0
  800858:	52 06       	anl 0x06, a
  80085a:	e9          	mov a, r1
  80085b:	52 07       	anl 0x07, a
  80085d:	90 00 c8    	mov dptr, #200
  800860:	e0          	movx a, @dptr
  800861:	f5 1f       	mov 0x1f, a
  800863:	90 00 cb    	mov dptr, #203
  800866:	e0          	movx a, @dptr
  800867:	f9          	mov r1, a
  800868:	a3          	inc dptr
  800869:	e0          	movx a, @dptr
  80086a:	f8          	mov r0, a
  80086b:	85 1f f0    	mov b, 0x1f
  80086e:	05 f0       	inc b
  800870:	80 07       	sjmp 800879
  800872:	e9          	mov a, r1
  800873:	25 e0       	add a, acc
  800875:	f9          	mov r1, a
  800876:	e8          	mov a, r0
  800877:	33          	rlc a
  800878:	f8          	mov r0, a
  800879:	d5 f0 f6    	djnz b, 800872
  80087c:	e9          	mov a, r1
  80087d:	52 04       	anl 0x04, a
  80087f:	e8          	mov a, r0
  800880:	52 05       	anl 0x05, a
  800882:	90 00 cf    	mov dptr, #207
  800885:	ec          	mov a, r4
  800886:	4e          	orl a, r6
  800887:	f0          	movx @dptr, a
  800888:	ed          	mov a, r5
  800889:	4f          	orl a, r7
  80088a:	a3          	inc dptr
  80088b:	f0          	movx @dptr, a
  80088c:	90 00 cf    	mov dptr, #207
  80088f:	e0          	movx a, @dptr
  800890:	fc          	mov r4, a
  800891:	a3          	inc dptr
  800892:	e0          	movx a, @dptr
  800893:	fd          	mov r5, a
  800894:	90 00 a7    	mov dptr, #167
  800897:	ec          	mov a, r4
  800898:	f0          	movx @dptr, a
  800899:	a3          	inc dptr
  80089a:	ed          	mov a, r5
  80089b:	f0          	movx @dptr, a
  80089c:	8a 82       	mov dpl, r2
  80089e:	8b 83       	mov dph, r3
  8008a0:	12 06 7e    	lcall 80067e <HW_set_16bit_reg>
  8008a3:	22          	ret

008008a4 <HW_get_16bit_reg_field>:
  8008a4:	aa 83       	mov r2, dph
  8008a6:	e5 82       	mov a, dpl
  8008a8:	90 00 d4    	mov dptr, #212
  8008ab:	f0          	movx @dptr, a
  8008ac:	a3          	inc dptr
  8008ad:	ea          	mov a, r2
  8008ae:	f0          	movx @dptr, a
  8008af:	90 00 d4    	mov dptr, #212
  8008b2:	e0          	movx a, @dptr
  8008b3:	fa          	mov r2, a
  8008b4:	a3          	inc dptr
  8008b5:	e0          	movx a, @dptr
  8008b6:	fb          	mov r3, a
  8008b7:	8a 82       	mov dpl, r2
  8008b9:	8b 83       	mov dph, r3
  8008bb:	12 06 92    	lcall 800692 <HW_get_16bit_reg>
  8008be:	aa 82       	mov r2, dpl
  8008c0:	ab 83       	mov r3, dph
  8008c2:	90 00 d2    	mov dptr, #210
  8008c5:	e0          	movx a, @dptr
  8008c6:	fc          	mov r4, a
  8008c7:	a3          	inc dptr
  8008c8:	e0          	movx a, @dptr
  8008c9:	fd          	mov r5, a
  8008ca:	ec          	mov a, r4
  8008cb:	52 02       	anl 0x02, a
  8008cd:	ed          	mov a, r5
  8008ce:	52 03       	anl 0x03, a
  8008d0:	90 00 d1    	mov dptr, #209
  8008d3:	e0          	movx a, @dptr
  8008d4:	fc          	mov r4, a
  8008d5:	8c f0       	mov b, r4
  8008d7:	05 f0       	inc b
  8008d9:	80 07       	sjmp 8008e2
  8008db:	c3          	clr c
  8008dc:	eb          	mov a, r3
  8008dd:	13          	rrc a
  8008de:	fb          	mov r3, a
  8008df:	ea          	mov a, r2
  8008e0:	13          	rrc a
  8008e1:	fa          	mov r2, a
  8008e2:	d5 f0 f6    	djnz b, 8008db
  8008e5:	90 00 d6    	mov dptr, #214
  8008e8:	ea          	mov a, r2
  8008e9:	f0          	movx @dptr, a
  8008ea:	a3          	inc dptr
  8008eb:	eb          	mov a, r3
  8008ec:	f0          	movx @dptr, a
  8008ed:	90 00 d6    	mov dptr, #214
  8008f0:	e0          	movx a, @dptr
  8008f1:	fa          	mov r2, a
  8008f2:	a3          	inc dptr
  8008f3:	e0          	movx a, @dptr
  8008f4:	fb          	mov r3, a
  8008f5:	8a 82       	mov dpl, r2
  8008f7:	8b 83       	mov dph, r3
  8008f9:	22          	ret

008008fa <HW_set_8bit_reg_field>:
  8008fa:	aa 83       	mov r2, dph
  8008fc:	e5 82       	mov a, dpl
  8008fe:	90 00 db    	mov dptr, #219
  800901:	f0          	movx @dptr, a
  800902:	a3          	inc dptr
  800903:	ea          	mov a, r2
  800904:	f0          	movx @dptr, a
  800905:	90 00 db    	mov dptr, #219
  800908:	e0          	movx a, @dptr
  800909:	fa          	mov r2, a
  80090a:	a3          	inc dptr
  80090b:	e0          	movx a, @dptr
  80090c:	fb          	mov r3, a
  80090d:	8a 82       	mov dpl, r2
  80090f:	8b 83       	mov dph, r3
  800911:	c0 02       	push 0x02
  800913:	c0 03       	push 0x03
  800915:	12 06 a7    	lcall 8006a7 <HW_get_8bit_reg>
  800918:	e5 82       	mov a, dpl
  80091a:	d0 03       	pop 0x03
  80091c:	d0 02       	pop 0x02
  80091e:	90 00 dd    	mov dptr, #221
  800921:	f0          	movx @dptr, a
  800922:	90 00 d9    	mov dptr, #217
  800925:	e0          	movx a, @dptr
  800926:	fc          	mov r4, a
  800927:	ec          	mov a, r4
  800928:	f4          	cpl a
  800929:	fd          	mov r5, a
  80092a:	90 00 dd    	mov dptr, #221
  80092d:	e0          	movx a, @dptr
  80092e:	fe          	mov r6, a
  80092f:	ee          	mov a, r6
  800930:	52 05       	anl 0x05, a
  800932:	90 00 d8    	mov dptr, #216
  800935:	e0          	movx a, @dptr
  800936:	fe          	mov r6, a
  800937:	90 00 da    	mov dptr, #218
  80093a:	e0          	movx a, @dptr
  80093b:	ff          	mov r7, a
  80093c:	8e f0       	mov b, r6
  80093e:	05 f0       	inc b
  800940:	ef          	mov a, r7
  800941:	80 02       	sjmp 800945
  800943:	25 e0       	add a, acc
  800945:	d5 f0 fb    	djnz b, 800943
  800948:	5c          	anl a, r4
  800949:	90 00 dd    	mov dptr, #221
  80094c:	4d          	orl a, r5
  80094d:	f0          	movx @dptr, a
  80094e:	90 00 dd    	mov dptr, #221
  800951:	e0          	movx a, @dptr
  800952:	fc          	mov r4, a
  800953:	90 00 a9    	mov dptr, #169
  800956:	ec          	mov a, r4
  800957:	f0          	movx @dptr, a
  800958:	8a 82       	mov dpl, r2
  80095a:	8b 83       	mov dph, r3
  80095c:	12 06 99    	lcall 800699 <HW_set_8bit_reg>
  80095f:	22          	ret

00800960 <HW_get_8bit_reg_field>:
  800960:	aa 83       	mov r2, dph
  800962:	e5 82       	mov a, dpl
  800964:	90 00 e0    	mov dptr, #224
  800967:	f0          	movx @dptr, a
  800968:	a3          	inc dptr
  800969:	ea          	mov a, r2
  80096a:	f0          	movx @dptr, a
  80096b:	90 00 e0    	mov dptr, #224
  80096e:	e0          	movx a, @dptr
  80096f:	fa          	mov r2, a
  800970:	a3          	inc dptr
  800971:	e0          	movx a, @dptr
  800972:	fb          	mov r3, a
  800973:	8a 82       	mov dpl, r2
  800975:	8b 83       	mov dph, r3
  800977:	12 06 a7    	lcall 8006a7 <HW_get_8bit_reg>
  80097a:	aa 82       	mov r2, dpl
  80097c:	90 00 df    	mov dptr, #223
  80097f:	e0          	movx a, @dptr
  800980:	fb          	mov r3, a
  800981:	eb          	mov a, r3
  800982:	52 02       	anl 0x02, a
  800984:	90 00 de    	mov dptr, #222
  800987:	e0          	movx a, @dptr
  800988:	fb          	mov r3, a
  800989:	8b f0       	mov b, r3
  80098b:	05 f0       	inc b
  80098d:	ea          	mov a, r2
  80098e:	80 02       	sjmp 800992
  800990:	c3          	clr c
  800991:	13          	rrc a
  800992:	d5 f0 fb    	djnz b, 800990
  800995:	90 00 e2    	mov dptr, #226
  800998:	f0          	movx @dptr, a
  800999:	90 00 e2    	mov dptr, #226
  80099c:	e0          	movx a, @dptr
  80099d:	fa          	mov r2, a
  80099e:	8a 82       	mov dpl, r2
  8009a0:	22          	ret

008009a1 <WD_init>:
  8009a1:	aa f0       	mov r2, b
  8009a3:	ab 83       	mov r3, dph
  8009a5:	e5 82       	mov a, dpl
  8009a7:	90 00 f0    	mov dptr, #240
  8009aa:	f0          	movx @dptr, a
  8009ab:	a3          	inc dptr
  8009ac:	eb          	mov a, r3
  8009ad:	f0          	movx @dptr, a
  8009ae:	a3          	inc dptr
  8009af:	ea          	mov a, r2
  8009b0:	f0          	movx @dptr, a
  8009b1:	90 00 f0    	mov dptr, #240
  8009b4:	e0          	movx a, @dptr
  8009b5:	fa          	mov r2, a
  8009b6:	a3          	inc dptr
  8009b7:	e0          	movx a, @dptr
  8009b8:	fb          	mov r3, a
  8009b9:	a3          	inc dptr
  8009ba:	e0          	movx a, @dptr
  8009bb:	fc          	mov r4, a
  8009bc:	90 00 e3    	mov dptr, #227
  8009bf:	e0          	movx a, @dptr
  8009c0:	fd          	mov r5, a
  8009c1:	a3          	inc dptr
  8009c2:	e0          	movx a, @dptr
  8009c3:	fe          	mov r6, a
  8009c4:	a3          	inc dptr
  8009c5:	e0          	movx a, @dptr
  8009c6:	ff          	mov r7, a
  8009c7:	ea          	mov a, r2
  8009c8:	b5 05 0a    	cjne a, 0x05, 8009d5
  8009cb:	eb          	mov a, r3
  8009cc:	b5 06 06    	cjne a, 0x06, 8009d5
  8009cf:	ec          	mov a, r4
  8009d0:	b5 07 02    	cjne a, 0x07, 8009d5
  8009d3:	80 03       	sjmp 8009d8
  8009d5:	02 0a e1    	ljmp 800ae1 <WD_init+0x140>
  8009d8:	90 00 f3    	mov dptr, #243
  8009db:	74 2e       	mov a, #46
  8009dd:	f0          	movx @dptr, a
  8009de:	90 00 f4    	mov dptr, #244
  8009e1:	74 2e       	mov a, #46
  8009e3:	f0          	movx @dptr, a
  8009e4:	90 00 f5    	mov dptr, #245
  8009e7:	74 2f       	mov a, #47
  8009e9:	f0          	movx @dptr, a
  8009ea:	90 00 f6    	mov dptr, #246
  8009ed:	74 64       	mov a, #100
  8009ef:	f0          	movx @dptr, a
  8009f0:	90 00 f7    	mov dptr, #247
  8009f3:	74 72       	mov a, #114
  8009f5:	f0          	movx @dptr, a
  8009f6:	90 00 f8    	mov dptr, #248
  8009f9:	74 69       	mov a, #105
  8009fb:	f0          	movx @dptr, a
  8009fc:	90 00 f9    	mov dptr, #249
  8009ff:	74 76       	mov a, #118
  800a01:	f0          	movx @dptr, a
  800a02:	90 00 fa    	mov dptr, #250
  800a05:	74 65       	mov a, #101
  800a07:	f0          	movx @dptr, a
  800a08:	90 00 fb    	mov dptr, #251
  800a0b:	74 72       	mov a, #114
  800a0d:	f0          	movx @dptr, a
  800a0e:	90 00 fc    	mov dptr, #252
  800a11:	74 73       	mov a, #115
  800a13:	f0          	movx @dptr, a
  800a14:	90 00 fd    	mov dptr, #253
  800a17:	74 2f       	mov a, #47
  800a19:	f0          	movx @dptr, a
  800a1a:	90 00 fe    	mov dptr, #254
  800a1d:	74 43       	mov a, #67
  800a1f:	f0          	movx @dptr, a
  800a20:	90 00 ff    	mov dptr, #255
  800a23:	74 6f       	mov a, #111
  800a25:	f0          	movx @dptr, a
  800a26:	90 01 00    	mov dptr, #256
  800a29:	74 72       	mov a, #114
  800a2b:	f0          	movx @dptr, a
  800a2c:	90 01 01    	mov dptr, #257
  800a2f:	74 65       	mov a, #101
  800a31:	f0          	movx @dptr, a
  800a32:	90 01 02    	mov dptr, #258
  800a35:	74 57       	mov a, #87
  800a37:	f0          	movx @dptr, a
  800a38:	90 01 03    	mov dptr, #259
  800a3b:	74 61       	mov a, #97
  800a3d:	f0          	movx @dptr, a
  800a3e:	90 01 04    	mov dptr, #260
  800a41:	74 74       	mov a, #116
  800a43:	f0          	movx @dptr, a
  800a44:	90 01 05    	mov dptr, #261
  800a47:	74 63       	mov a, #99
  800a49:	f0          	movx @dptr, a
  800a4a:	90 01 06    	mov dptr, #262
  800a4d:	74 68       	mov a, #104
  800a4f:	f0          	movx @dptr, a
  800a50:	90 01 07    	mov dptr, #263
  800a53:	74 64       	mov a, #100
  800a55:	f0          	movx @dptr, a
  800a56:	90 01 08    	mov dptr, #264
  800a59:	74 6f       	mov a, #111
  800a5b:	f0          	movx @dptr, a
  800a5c:	90 01 09    	mov dptr, #265
  800a5f:	74 67       	mov a, #103
  800a61:	f0          	movx @dptr, a
  800a62:	90 01 0a    	mov dptr, #266
  800a65:	74 2f       	mov a, #47
  800a67:	f0          	movx @dptr, a
  800a68:	90 01 0b    	mov dptr, #267
  800a6b:	74 63       	mov a, #99
  800a6d:	f0          	movx @dptr, a
  800a6e:	90 01 0c    	mov dptr, #268
  800a71:	74 6f       	mov a, #111
  800a73:	f0          	movx @dptr, a
  800a74:	90 01 0d    	mov dptr, #269
  800a77:	74 72       	mov a, #114
  800a79:	f0          	movx @dptr, a
  800a7a:	90 01 0e    	mov dptr, #270
  800a7d:	74 65       	mov a, #101
  800a7f:	f0          	movx @dptr, a
  800a80:	90 01 0f    	mov dptr, #271
  800a83:	74 5f       	mov a, #95
  800a85:	f0          	movx @dptr, a
  800a86:	90 01 10    	mov dptr, #272
  800a89:	74 77       	mov a, #119
  800a8b:	f0          	movx @dptr, a
  800a8c:	90 01 11    	mov dptr, #273
  800a8f:	74 61       	mov a, #97
  800a91:	f0          	movx @dptr, a
  800a92:	90 01 12    	mov dptr, #274
  800a95:	74 74       	mov a, #116
  800a97:	f0          	movx @dptr, a
  800a98:	90 01 13    	mov dptr, #275
  800a9b:	74 63       	mov a, #99
  800a9d:	f0          	movx @dptr, a
  800a9e:	90 01 14    	mov dptr, #276
  800aa1:	74 68       	mov a, #104
  800aa3:	f0          	movx @dptr, a
  800aa4:	90 01 15    	mov dptr, #277
  800aa7:	74 64       	mov a, #100
  800aa9:	f0          	movx @dptr, a
  800aaa:	90 01 16    	mov dptr, #278
  800aad:	74 6f       	mov a, #111
  800aaf:	f0          	movx @dptr, a
  800ab0:	90 01 17    	mov dptr, #279
  800ab3:	74 67       	mov a, #103
  800ab5:	f0          	movx @dptr, a
  800ab6:	90 01 18    	mov dptr, #280
  800ab9:	74 2e       	mov a, #46
  800abb:	f0          	movx @dptr, a
  800abc:	90 01 19    	mov dptr, #281
  800abf:	74 63       	mov a, #99
  800ac1:	f0          	movx @dptr, a
  800ac2:	90 01 1a    	mov dptr, #282
  800ac5:	74 00       	mov a, #0
  800ac7:	f0          	movx @dptr, a
  800ac8:	90 00 8c    	mov dptr, #140
  800acb:	74 22       	mov a, #34
  800acd:	f0          	movx @dptr, a
  800ace:	e4          	clr a
  800acf:	a3          	inc dptr
  800ad0:	f0          	movx @dptr, a
  800ad1:	a3          	inc dptr
  800ad2:	f0          	movx @dptr, a
  800ad3:	a3          	inc dptr
  800ad4:	f0          	movx @dptr, a
  800ad5:	75 82 f3    	mov dpl, #243
  800ad8:	75 83 00    	mov dph, #0
  800adb:	75 f0 00    	mov b, #0
  800ade:	12 05 f6    	lcall 8005f6 <HAL_assert_fail>
  800ae1:	90 00 ec    	mov dptr, #236
  800ae4:	e0          	movx a, @dptr
  800ae5:	f5 20       	mov 0x20, a
  800ae7:	a3          	inc dptr
  800ae8:	e0          	movx a, @dptr
  800ae9:	f5 21       	mov 0x21, a
  800aeb:	a3          	inc dptr
  800aec:	e0          	movx a, @dptr
  800aed:	f5 22       	mov 0x22, a
  800aef:	a3          	inc dptr
  800af0:	e0          	movx a, @dptr
  800af1:	f5 23       	mov 0x23, a
  800af3:	c3          	clr c
  800af4:	74 09       	mov a, #9
  800af6:	95 20       	subb a, 0x20
  800af8:	74 00       	mov a, #0
  800afa:	95 21       	subb a, 0x21
  800afc:	74 00       	mov a, #0
  800afe:	95 22       	subb a, 0x22
  800b00:	74 00       	mov a, #0
  800b02:	95 23       	subb a, 0x23
  800b04:	40 03       	jc 800b09
  800b06:	02 0c 12    	ljmp 800c12 <WD_init+0x271>
  800b09:	90 01 1b    	mov dptr, #283
  800b0c:	74 2e       	mov a, #46
  800b0e:	f0          	movx @dptr, a
  800b0f:	90 01 1c    	mov dptr, #284
  800b12:	74 2e       	mov a, #46
  800b14:	f0          	movx @dptr, a
  800b15:	90 01 1d    	mov dptr, #285
  800b18:	74 2f       	mov a, #47
  800b1a:	f0          	movx @dptr, a
  800b1b:	90 01 1e    	mov dptr, #286
  800b1e:	74 64       	mov a, #100
  800b20:	f0          	movx @dptr, a
  800b21:	90 01 1f    	mov dptr, #287
  800b24:	74 72       	mov a, #114
  800b26:	f0          	movx @dptr, a
  800b27:	90 01 20    	mov dptr, #288
  800b2a:	74 69       	mov a, #105
  800b2c:	f0          	movx @dptr, a
  800b2d:	90 01 21    	mov dptr, #289
  800b30:	74 76       	mov a, #118
  800b32:	f0          	movx @dptr, a
  800b33:	90 01 22    	mov dptr, #290
  800b36:	74 65       	mov a, #101
  800b38:	f0          	movx @dptr, a
  800b39:	90 01 23    	mov dptr, #291
  800b3c:	74 72       	mov a, #114
  800b3e:	f0          	movx @dptr, a
  800b3f:	90 01 24    	mov dptr, #292
  800b42:	74 73       	mov a, #115
  800b44:	f0          	movx @dptr, a
  800b45:	90 01 25    	mov dptr, #293
  800b48:	74 2f       	mov a, #47
  800b4a:	f0          	movx @dptr, a
  800b4b:	90 01 26    	mov dptr, #294
  800b4e:	74 43       	mov a, #67
  800b50:	f0          	movx @dptr, a
  800b51:	90 01 27    	mov dptr, #295
  800b54:	74 6f       	mov a, #111
  800b56:	f0          	movx @dptr, a
  800b57:	90 01 28    	mov dptr, #296
  800b5a:	74 72       	mov a, #114
  800b5c:	f0          	movx @dptr, a
  800b5d:	90 01 29    	mov dptr, #297
  800b60:	74 65       	mov a, #101
  800b62:	f0          	movx @dptr, a
  800b63:	90 01 2a    	mov dptr, #298
  800b66:	74 57       	mov a, #87
  800b68:	f0          	movx @dptr, a
  800b69:	90 01 2b    	mov dptr, #299
  800b6c:	74 61       	mov a, #97
  800b6e:	f0          	movx @dptr, a
  800b6f:	90 01 2c    	mov dptr, #300
  800b72:	74 74       	mov a, #116
  800b74:	f0          	movx @dptr, a
  800b75:	90 01 2d    	mov dptr, #301
  800b78:	74 63       	mov a, #99
  800b7a:	f0          	movx @dptr, a
  800b7b:	90 01 2e    	mov dptr, #302
  800b7e:	74 68       	mov a, #104
  800b80:	f0          	movx @dptr, a
  800b81:	90 01 2f    	mov dptr, #303
  800b84:	74 64       	mov a, #100
  800b86:	f0          	movx @dptr, a
  800b87:	90 01 30    	mov dptr, #304
  800b8a:	74 6f       	mov a, #111
  800b8c:	f0          	movx @dptr, a
  800b8d:	90 01 31    	mov dptr, #305
  800b90:	74 67       	mov a, #103
  800b92:	f0          	movx @dptr, a
  800b93:	90 01 32    	mov dptr, #306
  800b96:	74 2f       	mov a, #47
  800b98:	f0          	movx @dptr, a
  800b99:	90 01 33    	mov dptr, #307
  800b9c:	74 63       	mov a, #99
  800b9e:	f0          	movx @dptr, a
  800b9f:	90 01 34    	mov dptr, #308
  800ba2:	74 6f       	mov a, #111
  800ba4:	f0          	movx @dptr, a
  800ba5:	90 01 35    	mov dptr, #309
  800ba8:	74 72       	mov a, #114
  800baa:	f0          	movx @dptr, a
  800bab:	90 01 36    	mov dptr, #310
  800bae:	74 65       	mov a, #101
  800bb0:	f0          	movx @dptr, a
  800bb1:	90 01 37    	mov dptr, #311
  800bb4:	74 5f       	mov a, #95
  800bb6:	f0          	movx @dptr, a
  800bb7:	90 01 38    	mov dptr, #312
  800bba:	74 77       	mov a, #119
  800bbc:	f0          	movx @dptr, a
  800bbd:	90 01 39    	mov dptr, #313
  800bc0:	74 61       	mov a, #97
  800bc2:	f0          	movx @dptr, a
  800bc3:	90 01 3a    	mov dptr, #314
  800bc6:	74 74       	mov a, #116
  800bc8:	f0          	movx @dptr, a
  800bc9:	90 01 3b    	mov dptr, #315
  800bcc:	74 63       	mov a, #99
  800bce:	f0          	movx @dptr, a
  800bcf:	90 01 3c    	mov dptr, #316
  800bd2:	74 68       	mov a, #104
  800bd4:	f0          	movx @dptr, a
  800bd5:	90 01 3d    	mov dptr, #317
  800bd8:	74 64       	mov a, #100
  800bda:	f0          	movx @dptr, a
  800bdb:	90 01 3e    	mov dptr, #318
  800bde:	74 6f       	mov a, #111
  800be0:	f0          	movx @dptr, a
  800be1:	90 01 3f    	mov dptr, #319
  800be4:	74 67       	mov a, #103
  800be6:	f0          	movx @dptr, a
  800be7:	90 01 40    	mov dptr, #320
  800bea:	74 2e       	mov a, #46
  800bec:	f0          	movx @dptr, a
  800bed:	90 01 41    	mov dptr, #321
  800bf0:	74 63       	mov a, #99
  800bf2:	f0          	movx @dptr, a
  800bf3:	90 01 42    	mov dptr, #322
  800bf6:	74 00       	mov a, #0
  800bf8:	f0          	movx @dptr, a
  800bf9:	90 00 8c    	mov dptr, #140
  800bfc:	74 23       	mov a, #35
  800bfe:	f0          	movx @dptr, a
  800bff:	e4          	clr a
  800c00:	a3          	inc dptr
  800c01:	f0          	movx @dptr, a
  800c02:	a3          	inc dptr
  800c03:	f0          	movx @dptr, a
  800c04:	a3          	inc dptr
  800c05:	f0          	movx @dptr, a
  800c06:	75 82 1b    	mov dpl, #27
  800c09:	75 83 01    	mov dph, #1
  800c0c:	75 f0 00    	mov b, #0
  800c0f:	12 05 f6    	lcall 8005f6 <HAL_assert_fail>
  800c12:	90 00 f0    	mov dptr, #240
  800c15:	e0          	movx a, @dptr
  800c16:	fe          	mov r6, a
  800c17:	a3          	inc dptr
  800c18:	e0          	movx a, @dptr
  800c19:	ff          	mov r7, a
  800c1a:	a3          	inc dptr
  800c1b:	e0          	movx a, @dptr
  800c1c:	f8          	mov r0, a
  800c1d:	90 00 e6    	mov dptr, #230
  800c20:	e0          	movx a, @dptr
  800c21:	f9          	mov r1, a
  800c22:	a3          	inc dptr
  800c23:	e0          	movx a, @dptr
  800c24:	fa          	mov r2, a
  800c25:	8e 82       	mov dpl, r6
  800c27:	8f 83       	mov dph, r7
  800c29:	88 f0       	mov b, r0
  800c2b:	e9          	mov a, r1
  800c2c:	12 61 2f    	lcall 80612f <GPIO_clear_irq+0x2b0>
  800c2f:	a3          	inc dptr
  800c30:	ea          	mov a, r2
  800c31:	12 61 2f    	lcall 80612f <GPIO_clear_irq+0x2b0>
  800c34:	74 08       	mov a, #8
  800c36:	25 01       	add a, 0x01
  800c38:	f9          	mov r1, a
  800c39:	74 00       	mov a, #0
  800c3b:	35 02       	addc a, 0x02
  800c3d:	fa          	mov r2, a
  800c3e:	90 00 ae    	mov dptr, #174
  800c41:	74 04       	mov a, #4
  800c43:	f0          	movx @dptr, a
  800c44:	90 00 af    	mov dptr, #175
  800c47:	74 10       	mov a, #16
  800c49:	f0          	movx @dptr, a
  800c4a:	e4          	clr a
  800c4b:	a3          	inc dptr
  800c4c:	f0          	movx @dptr, a
  800c4d:	a3          	inc dptr
  800c4e:	f0          	movx @dptr, a
  800c4f:	a3          	inc dptr
  800c50:	f0          	movx @dptr, a
  800c51:	90 00 b3    	mov dptr, #179
  800c54:	e4          	clr a
  800c55:	f0          	movx @dptr, a
  800c56:	a3          	inc dptr
  800c57:	f0          	movx @dptr, a
  800c58:	a3          	inc dptr
  800c59:	f0          	movx @dptr, a
  800c5a:	a3          	inc dptr
  800c5b:	f0          	movx @dptr, a
  800c5c:	89 82       	mov dpl, r1
  800c5e:	8a 83       	mov dph, r2
  800c60:	c0 06       	push 0x06
  800c62:	c0 07       	push 0x07
  800c64:	c0 00       	push 00
  800c66:	12 06 ba    	lcall 8006ba <HW_set_32bit_reg_field>
  800c69:	d0 00       	pop 00
  800c6b:	d0 07       	pop 0x07
  800c6d:	d0 06       	pop 0x06
  800c6f:	8e 82       	mov dpl, r6
  800c71:	8f 83       	mov dph, r7
  800c73:	88 f0       	mov b, r0
  800c75:	12 61 48    	lcall 806148 <GPIO_clear_irq+0x2c9>
  800c78:	fa          	mov r2, a
  800c79:	a3          	inc dptr
  800c7a:	12 61 48    	lcall 806148 <GPIO_clear_irq+0x2c9>
  800c7d:	fb          	mov r3, a
  800c7e:	74 08       	mov a, #8
  800c80:	25 02       	add a, 0x02
  800c82:	fa          	mov r2, a
  800c83:	74 00       	mov a, #0
  800c85:	35 03       	addc a, 0x03
  800c87:	fb          	mov r3, a
  800c88:	90 00 ae    	mov dptr, #174
  800c8b:	74 00       	mov a, #0
  800c8d:	f0          	movx @dptr, a
  800c8e:	90 00 af    	mov dptr, #175
  800c91:	74 0f       	mov a, #15
  800c93:	f0          	movx @dptr, a
  800c94:	e4          	clr a
  800c95:	a3          	inc dptr
  800c96:	f0          	movx @dptr, a
  800c97:	a3          	inc dptr
  800c98:	f0          	movx @dptr, a
  800c99:	a3          	inc dptr
  800c9a:	f0          	movx @dptr, a
  800c9b:	90 00 b3    	mov dptr, #179
  800c9e:	e5 20       	mov a, 0x20
  800ca0:	f0          	movx @dptr, a
  800ca1:	a3          	inc dptr
  800ca2:	e5 21       	mov a, 0x21
  800ca4:	f0          	movx @dptr, a
  800ca5:	a3          	inc dptr
  800ca6:	e5 22       	mov a, 0x22
  800ca8:	f0          	movx @dptr, a
  800ca9:	a3          	inc dptr
  800caa:	e5 23       	mov a, 0x23
  800cac:	f0          	movx @dptr, a
  800cad:	8a 82       	mov dpl, r2
  800caf:	8b 83       	mov dph, r3
  800cb1:	c0 06       	push 0x06
  800cb3:	c0 07       	push 0x07
  800cb5:	c0 00       	push 00
  800cb7:	12 06 ba    	lcall 8006ba <HW_set_32bit_reg_field>
  800cba:	d0 00       	pop 00
  800cbc:	d0 07       	pop 0x07
  800cbe:	d0 06       	pop 0x06
  800cc0:	8e 82       	mov dpl, r6
  800cc2:	8f 83       	mov dph, r7
  800cc4:	88 f0       	mov b, r0
  800cc6:	12 61 48    	lcall 806148 <GPIO_clear_irq+0x2c9>
  800cc9:	fe          	mov r6, a
  800cca:	a3          	inc dptr
  800ccb:	12 61 48    	lcall 806148 <GPIO_clear_irq+0x2c9>
  800cce:	ff          	mov r7, a
  800ccf:	90 00 e8    	mov dptr, #232
  800cd2:	e0          	movx a, @dptr
  800cd3:	fa          	mov r2, a
  800cd4:	a3          	inc dptr
  800cd5:	e0          	movx a, @dptr
  800cd6:	fb          	mov r3, a
  800cd7:	a3          	inc dptr
  800cd8:	e0          	movx a, @dptr
  800cd9:	fc          	mov r4, a
  800cda:	a3          	inc dptr
  800cdb:	e0          	movx a, @dptr
  800cdc:	fd          	mov r5, a
  800cdd:	90 00 aa    	mov dptr, #170
  800ce0:	ea          	mov a, r2
  800ce1:	f0          	movx @dptr, a
  800ce2:	a3          	inc dptr
  800ce3:	eb          	mov a, r3
  800ce4:	f0          	movx @dptr, a
  800ce5:	a3          	inc dptr
  800ce6:	ec          	mov a, r4
  800ce7:	f0          	movx @dptr, a
  800ce8:	a3          	inc dptr
  800ce9:	ed          	mov a, r5
  800cea:	f0          	movx @dptr, a
  800ceb:	8e 82       	mov dpl, r6
  800ced:	8f 83       	mov dph, r7
  800cef:	12 06 62    	lcall 800662 <HW_set_32bit_reg>
  800cf2:	22          	ret

00800cf3 <WD_enable>:
  800cf3:	aa f0       	mov r2, b
  800cf5:	ab 83       	mov r3, dph
  800cf7:	e5 82       	mov a, dpl
  800cf9:	90 01 43    	mov dptr, #323
  800cfc:	f0          	movx @dptr, a
  800cfd:	a3          	inc dptr
  800cfe:	eb          	mov a, r3
  800cff:	f0          	movx @dptr, a
  800d00:	a3          	inc dptr
  800d01:	ea          	mov a, r2
  800d02:	f0          	movx @dptr, a
  800d03:	90 01 43    	mov dptr, #323
  800d06:	e0          	movx a, @dptr
  800d07:	fa          	mov r2, a
  800d08:	a3          	inc dptr
  800d09:	e0          	movx a, @dptr
  800d0a:	fb          	mov r3, a
  800d0b:	a3          	inc dptr
  800d0c:	e0          	movx a, @dptr
  800d0d:	fc          	mov r4, a
  800d0e:	90 00 e3    	mov dptr, #227
  800d11:	e0          	movx a, @dptr
  800d12:	fd          	mov r5, a
  800d13:	a3          	inc dptr
  800d14:	e0          	movx a, @dptr
  800d15:	fe          	mov r6, a
  800d16:	a3          	inc dptr
  800d17:	e0          	movx a, @dptr
  800d18:	ff          	mov r7, a
  800d19:	ea          	mov a, r2
  800d1a:	b5 05 0a    	cjne a, 0x05, 800d27
  800d1d:	eb          	mov a, r3
  800d1e:	b5 06 06    	cjne a, 0x06, 800d27
  800d21:	ec          	mov a, r4
  800d22:	b5 07 02    	cjne a, 0x07, 800d27
  800d25:	80 03       	sjmp 800d2a
  800d27:	02 0e 33    	ljmp 800e33 <WD_enable+0x140>
  800d2a:	90 01 46    	mov dptr, #326
  800d2d:	74 2e       	mov a, #46
  800d2f:	f0          	movx @dptr, a
  800d30:	90 01 47    	mov dptr, #327
  800d33:	74 2e       	mov a, #46
  800d35:	f0          	movx @dptr, a
  800d36:	90 01 48    	mov dptr, #328
  800d39:	74 2f       	mov a, #47
  800d3b:	f0          	movx @dptr, a
  800d3c:	90 01 49    	mov dptr, #329
  800d3f:	74 64       	mov a, #100
  800d41:	f0          	movx @dptr, a
  800d42:	90 01 4a    	mov dptr, #330
  800d45:	74 72       	mov a, #114
  800d47:	f0          	movx @dptr, a
  800d48:	90 01 4b    	mov dptr, #331
  800d4b:	74 69       	mov a, #105
  800d4d:	f0          	movx @dptr, a
  800d4e:	90 01 4c    	mov dptr, #332
  800d51:	74 76       	mov a, #118
  800d53:	f0          	movx @dptr, a
  800d54:	90 01 4d    	mov dptr, #333
  800d57:	74 65       	mov a, #101
  800d59:	f0          	movx @dptr, a
  800d5a:	90 01 4e    	mov dptr, #334
  800d5d:	74 72       	mov a, #114
  800d5f:	f0          	movx @dptr, a
  800d60:	90 01 4f    	mov dptr, #335
  800d63:	74 73       	mov a, #115
  800d65:	f0          	movx @dptr, a
  800d66:	90 01 50    	mov dptr, #336
  800d69:	74 2f       	mov a, #47
  800d6b:	f0          	movx @dptr, a
  800d6c:	90 01 51    	mov dptr, #337
  800d6f:	74 43       	mov a, #67
  800d71:	f0          	movx @dptr, a
  800d72:	90 01 52    	mov dptr, #338
  800d75:	74 6f       	mov a, #111
  800d77:	f0          	movx @dptr, a
  800d78:	90 01 53    	mov dptr, #339
  800d7b:	74 72       	mov a, #114
  800d7d:	f0          	movx @dptr, a
  800d7e:	90 01 54    	mov dptr, #340
  800d81:	74 65       	mov a, #101
  800d83:	f0          	movx @dptr, a
  800d84:	90 01 55    	mov dptr, #341
  800d87:	74 57       	mov a, #87
  800d89:	f0          	movx @dptr, a
  800d8a:	90 01 56    	mov dptr, #342
  800d8d:	74 61       	mov a, #97
  800d8f:	f0          	movx @dptr, a
  800d90:	90 01 57    	mov dptr, #343
  800d93:	74 74       	mov a, #116
  800d95:	f0          	movx @dptr, a
  800d96:	90 01 58    	mov dptr, #344
  800d99:	74 63       	mov a, #99
  800d9b:	f0          	movx @dptr, a
  800d9c:	90 01 59    	mov dptr, #345
  800d9f:	74 68       	mov a, #104
  800da1:	f0          	movx @dptr, a
  800da2:	90 01 5a    	mov dptr, #346
  800da5:	74 64       	mov a, #100
  800da7:	f0          	movx @dptr, a
  800da8:	90 01 5b    	mov dptr, #347
  800dab:	74 6f       	mov a, #111
  800dad:	f0          	movx @dptr, a
  800dae:	90 01 5c    	mov dptr, #348
  800db1:	74 67       	mov a, #103
  800db3:	f0          	movx @dptr, a
  800db4:	90 01 5d    	mov dptr, #349
  800db7:	74 2f       	mov a, #47
  800db9:	f0          	movx @dptr, a
  800dba:	90 01 5e    	mov dptr, #350
  800dbd:	74 63       	mov a, #99
  800dbf:	f0          	movx @dptr, a
  800dc0:	90 01 5f    	mov dptr, #351
  800dc3:	74 6f       	mov a, #111
  800dc5:	f0          	movx @dptr, a
  800dc6:	90 01 60    	mov dptr, #352
  800dc9:	74 72       	mov a, #114
  800dcb:	f0          	movx @dptr, a
  800dcc:	90 01 61    	mov dptr, #353
  800dcf:	74 65       	mov a, #101
  800dd1:	f0          	movx @dptr, a
  800dd2:	90 01 62    	mov dptr, #354
  800dd5:	74 5f       	mov a, #95
  800dd7:	f0          	movx @dptr, a
  800dd8:	90 01 63    	mov dptr, #355
  800ddb:	74 77       	mov a, #119
  800ddd:	f0          	movx @dptr, a
  800dde:	90 01 64    	mov dptr, #356
  800de1:	74 61       	mov a, #97
  800de3:	f0          	movx @dptr, a
  800de4:	90 01 65    	mov dptr, #357
  800de7:	74 74       	mov a, #116
  800de9:	f0          	movx @dptr, a
  800dea:	90 01 66    	mov dptr, #358
  800ded:	74 63       	mov a, #99
  800def:	f0          	movx @dptr, a
  800df0:	90 01 67    	mov dptr, #359
  800df3:	74 68       	mov a, #104
  800df5:	f0          	movx @dptr, a
  800df6:	90 01 68    	mov dptr, #360
  800df9:	74 64       	mov a, #100
  800dfb:	f0          	movx @dptr, a
  800dfc:	90 01 69    	mov dptr, #361
  800dff:	74 6f       	mov a, #111
  800e01:	f0          	movx @dptr, a
  800e02:	90 01 6a    	mov dptr, #362
  800e05:	74 67       	mov a, #103
  800e07:	f0          	movx @dptr, a
  800e08:	90 01 6b    	mov dptr, #363
  800e0b:	74 2e       	mov a, #46
  800e0d:	f0          	movx @dptr, a
  800e0e:	90 01 6c    	mov dptr, #364
  800e11:	74 63       	mov a, #99
  800e13:	f0          	movx @dptr, a
  800e14:	90 01 6d    	mov dptr, #365
  800e17:	74 00       	mov a, #0
  800e19:	f0          	movx @dptr, a
  800e1a:	90 00 8c    	mov dptr, #140
  800e1d:	74 39       	mov a, #57
  800e1f:	f0          	movx @dptr, a
  800e20:	e4          	clr a
  800e21:	a3          	inc dptr
  800e22:	f0          	movx @dptr, a
  800e23:	a3          	inc dptr
  800e24:	f0          	movx @dptr, a
  800e25:	a3          	inc dptr
  800e26:	f0          	movx @dptr, a
  800e27:	75 82 46    	mov dpl, #70
  800e2a:	75 83 01    	mov dph, #1
  800e2d:	75 f0 00    	mov b, #0
  800e30:	12 05 f6    	lcall 8005f6 <HAL_assert_fail>
  800e33:	90 01 43    	mov dptr, #323
  800e36:	e0          	movx a, @dptr
  800e37:	fa          	mov r2, a
  800e38:	a3          	inc dptr
  800e39:	e0          	movx a, @dptr
  800e3a:	fb          	mov r3, a
  800e3b:	a3          	inc dptr
  800e3c:	e0          	movx a, @dptr
  800e3d:	fc          	mov r4, a
  800e3e:	8a 82       	mov dpl, r2
  800e40:	8b 83       	mov dph, r3
  800e42:	8c f0       	mov b, r4
  800e44:	12 61 48    	lcall 806148 <GPIO_clear_irq+0x2c9>
  800e47:	fa          	mov r2, a
  800e48:	a3          	inc dptr
  800e49:	12 61 48    	lcall 806148 <GPIO_clear_irq+0x2c9>
  800e4c:	fb          	mov r3, a
  800e4d:	74 08       	mov a, #8
  800e4f:	25 02       	add a, 0x02
  800e51:	fa          	mov r2, a
  800e52:	74 00       	mov a, #0
  800e54:	35 03       	addc a, 0x03
  800e56:	fb          	mov r3, a
  800e57:	90 00 ae    	mov dptr, #174
  800e5a:	74 04       	mov a, #4
  800e5c:	f0          	movx @dptr, a
  800e5d:	90 00 af    	mov dptr, #175
  800e60:	74 10       	mov a, #16
  800e62:	f0          	movx @dptr, a
  800e63:	e4          	clr a
  800e64:	a3          	inc dptr
  800e65:	f0          	movx @dptr, a
  800e66:	a3          	inc dptr
  800e67:	f0          	movx @dptr, a
  800e68:	a3          	inc dptr
  800e69:	f0          	movx @dptr, a
  800e6a:	90 00 b3    	mov dptr, #179
  800e6d:	74 01       	mov a, #1
  800e6f:	f0          	movx @dptr, a
  800e70:	e4          	clr a
  800e71:	a3          	inc dptr
  800e72:	f0          	movx @dptr, a
  800e73:	a3          	inc dptr
  800e74:	f0          	movx @dptr, a
  800e75:	a3          	inc dptr
  800e76:	f0          	movx @dptr, a
  800e77:	8a 82       	mov dpl, r2
  800e79:	8b 83       	mov dph, r3
  800e7b:	12 06 ba    	lcall 8006ba <HW_set_32bit_reg_field>
  800e7e:	22          	ret

00800e7f <WD_disable>:
  800e7f:	aa f0       	mov r2, b
  800e81:	ab 83       	mov r3, dph
  800e83:	e5 82       	mov a, dpl
  800e85:	90 01 6e    	mov dptr, #366
  800e88:	f0          	movx @dptr, a
  800e89:	a3          	inc dptr
  800e8a:	eb          	mov a, r3
  800e8b:	f0          	movx @dptr, a
  800e8c:	a3          	inc dptr
  800e8d:	ea          	mov a, r2
  800e8e:	f0          	movx @dptr, a
  800e8f:	90 01 6e    	mov dptr, #366
  800e92:	e0          	movx a, @dptr
  800e93:	fa          	mov r2, a
  800e94:	a3          	inc dptr
  800e95:	e0          	movx a, @dptr
  800e96:	fb          	mov r3, a
  800e97:	a3          	inc dptr
  800e98:	e0          	movx a, @dptr
  800e99:	fc          	mov r4, a
  800e9a:	90 00 e3    	mov dptr, #227
  800e9d:	e0          	movx a, @dptr
  800e9e:	fd          	mov r5, a
  800e9f:	a3          	inc dptr
  800ea0:	e0          	movx a, @dptr
  800ea1:	fe          	mov r6, a
  800ea2:	a3          	inc dptr
  800ea3:	e0          	movx a, @dptr
  800ea4:	ff          	mov r7, a
  800ea5:	ea          	mov a, r2
  800ea6:	b5 05 0a    	cjne a, 0x05, 800eb3
  800ea9:	eb          	mov a, r3
  800eaa:	b5 06 06    	cjne a, 0x06, 800eb3
  800ead:	ec          	mov a, r4
  800eae:	b5 07 02    	cjne a, 0x07, 800eb3
  800eb1:	80 03       	sjmp 800eb6
  800eb3:	02 0f bf    	ljmp 800fbf <WD_disable+0x140>
  800eb6:	90 01 71    	mov dptr, #369
  800eb9:	74 2e       	mov a, #46
  800ebb:	f0          	movx @dptr, a
  800ebc:	90 01 72    	mov dptr, #370
  800ebf:	74 2e       	mov a, #46
  800ec1:	f0          	movx @dptr, a
  800ec2:	90 01 73    	mov dptr, #371
  800ec5:	74 2f       	mov a, #47
  800ec7:	f0          	movx @dptr, a
  800ec8:	90 01 74    	mov dptr, #372
  800ecb:	74 64       	mov a, #100
  800ecd:	f0          	movx @dptr, a
  800ece:	90 01 75    	mov dptr, #373
  800ed1:	74 72       	mov a, #114
  800ed3:	f0          	movx @dptr, a
  800ed4:	90 01 76    	mov dptr, #374
  800ed7:	74 69       	mov a, #105
  800ed9:	f0          	movx @dptr, a
  800eda:	90 01 77    	mov dptr, #375
  800edd:	74 76       	mov a, #118
  800edf:	f0          	movx @dptr, a
  800ee0:	90 01 78    	mov dptr, #376
  800ee3:	74 65       	mov a, #101
  800ee5:	f0          	movx @dptr, a
  800ee6:	90 01 79    	mov dptr, #377
  800ee9:	74 72       	mov a, #114
  800eeb:	f0          	movx @dptr, a
  800eec:	90 01 7a    	mov dptr, #378
  800eef:	74 73       	mov a, #115
  800ef1:	f0          	movx @dptr, a
  800ef2:	90 01 7b    	mov dptr, #379
  800ef5:	74 2f       	mov a, #47
  800ef7:	f0          	movx @dptr, a
  800ef8:	90 01 7c    	mov dptr, #380
  800efb:	74 43       	mov a, #67
  800efd:	f0          	movx @dptr, a
  800efe:	90 01 7d    	mov dptr, #381
  800f01:	74 6f       	mov a, #111
  800f03:	f0          	movx @dptr, a
  800f04:	90 01 7e    	mov dptr, #382
  800f07:	74 72       	mov a, #114
  800f09:	f0          	movx @dptr, a
  800f0a:	90 01 7f    	mov dptr, #383
  800f0d:	74 65       	mov a, #101
  800f0f:	f0          	movx @dptr, a
  800f10:	90 01 80    	mov dptr, #384
  800f13:	74 57       	mov a, #87
  800f15:	f0          	movx @dptr, a
  800f16:	90 01 81    	mov dptr, #385
  800f19:	74 61       	mov a, #97
  800f1b:	f0          	movx @dptr, a
  800f1c:	90 01 82    	mov dptr, #386
  800f1f:	74 74       	mov a, #116
  800f21:	f0          	movx @dptr, a
  800f22:	90 01 83    	mov dptr, #387
  800f25:	74 63       	mov a, #99
  800f27:	f0          	movx @dptr, a
  800f28:	90 01 84    	mov dptr, #388
  800f2b:	74 68       	mov a, #104
  800f2d:	f0          	movx @dptr, a
  800f2e:	90 01 85    	mov dptr, #389
  800f31:	74 64       	mov a, #100
  800f33:	f0          	movx @dptr, a
  800f34:	90 01 86    	mov dptr, #390
  800f37:	74 6f       	mov a, #111
  800f39:	f0          	movx @dptr, a
  800f3a:	90 01 87    	mov dptr, #391
  800f3d:	74 67       	mov a, #103
  800f3f:	f0          	movx @dptr, a
  800f40:	90 01 88    	mov dptr, #392
  800f43:	74 2f       	mov a, #47
  800f45:	f0          	movx @dptr, a
  800f46:	90 01 89    	mov dptr, #393
  800f49:	74 63       	mov a, #99
  800f4b:	f0          	movx @dptr, a
  800f4c:	90 01 8a    	mov dptr, #394
  800f4f:	74 6f       	mov a, #111
  800f51:	f0          	movx @dptr, a
  800f52:	90 01 8b    	mov dptr, #395
  800f55:	74 72       	mov a, #114
  800f57:	f0          	movx @dptr, a
  800f58:	90 01 8c    	mov dptr, #396
  800f5b:	74 65       	mov a, #101
  800f5d:	f0          	movx @dptr, a
  800f5e:	90 01 8d    	mov dptr, #397
  800f61:	74 5f       	mov a, #95
  800f63:	f0          	movx @dptr, a
  800f64:	90 01 8e    	mov dptr, #398
  800f67:	74 77       	mov a, #119
  800f69:	f0          	movx @dptr, a
  800f6a:	90 01 8f    	mov dptr, #399
  800f6d:	74 61       	mov a, #97
  800f6f:	f0          	movx @dptr, a
  800f70:	90 01 90    	mov dptr, #400
  800f73:	74 74       	mov a, #116
  800f75:	f0          	movx @dptr, a
  800f76:	90 01 91    	mov dptr, #401
  800f79:	74 63       	mov a, #99
  800f7b:	f0          	movx @dptr, a
  800f7c:	90 01 92    	mov dptr, #402
  800f7f:	74 68       	mov a, #104
  800f81:	f0          	movx @dptr, a
  800f82:	90 01 93    	mov dptr, #403
  800f85:	74 64       	mov a, #100
  800f87:	f0          	movx @dptr, a
  800f88:	90 01 94    	mov dptr, #404
  800f8b:	74 6f       	mov a, #111
  800f8d:	f0          	movx @dptr, a
  800f8e:	90 01 95    	mov dptr, #405
  800f91:	74 67       	mov a, #103
  800f93:	f0          	movx @dptr, a
  800f94:	90 01 96    	mov dptr, #406
  800f97:	74 2e       	mov a, #46
  800f99:	f0          	movx @dptr, a
  800f9a:	90 01 97    	mov dptr, #407
  800f9d:	74 63       	mov a, #99
  800f9f:	f0          	movx @dptr, a
  800fa0:	90 01 98    	mov dptr, #408
  800fa3:	74 00       	mov a, #0
  800fa5:	f0          	movx @dptr, a
  800fa6:	90 00 8c    	mov dptr, #140
  800fa9:	74 49       	mov a, #73
  800fab:	f0          	movx @dptr, a
  800fac:	e4          	clr a
  800fad:	a3          	inc dptr
  800fae:	f0          	movx @dptr, a
  800faf:	a3          	inc dptr
  800fb0:	f0          	movx @dptr, a
  800fb1:	a3          	inc dptr
  800fb2:	f0          	movx @dptr, a
  800fb3:	75 82 71    	mov dpl, #113
  800fb6:	75 83 01    	mov dph, #1
  800fb9:	75 f0 00    	mov b, #0
  800fbc:	12 05 f6    	lcall 8005f6 <HAL_assert_fail>
  800fbf:	90 01 6e    	mov dptr, #366
  800fc2:	e0          	movx a, @dptr
  800fc3:	fa          	mov r2, a
  800fc4:	a3          	inc dptr
  800fc5:	e0          	movx a, @dptr
  800fc6:	fb          	mov r3, a
  800fc7:	a3          	inc dptr
  800fc8:	e0          	movx a, @dptr
  800fc9:	fc          	mov r4, a
  800fca:	8a 82       	mov dpl, r2
  800fcc:	8b 83       	mov dph, r3
  800fce:	8c f0       	mov b, r4
  800fd0:	12 61 48    	lcall 806148 <GPIO_clear_irq+0x2c9>
  800fd3:	fa          	mov r2, a
  800fd4:	a3          	inc dptr
  800fd5:	12 61 48    	lcall 806148 <GPIO_clear_irq+0x2c9>
  800fd8:	fb          	mov r3, a
  800fd9:	74 08       	mov a, #8
  800fdb:	25 02       	add a, 0x02
  800fdd:	fa          	mov r2, a
  800fde:	74 00       	mov a, #0
  800fe0:	35 03       	addc a, 0x03
  800fe2:	fb          	mov r3, a
  800fe3:	90 00 ae    	mov dptr, #174
  800fe6:	74 04       	mov a, #4
  800fe8:	f0          	movx @dptr, a
  800fe9:	90 00 af    	mov dptr, #175
  800fec:	74 10       	mov a, #16
  800fee:	f0          	movx @dptr, a
  800fef:	e4          	clr a
  800ff0:	a3          	inc dptr
  800ff1:	f0          	movx @dptr, a
  800ff2:	a3          	inc dptr
  800ff3:	f0          	movx @dptr, a
  800ff4:	a3          	inc dptr
  800ff5:	f0          	movx @dptr, a
  800ff6:	90 00 b3    	mov dptr, #179
  800ff9:	e4          	clr a
  800ffa:	f0          	movx @dptr, a
  800ffb:	a3          	inc dptr
  800ffc:	f0          	movx @dptr, a
  800ffd:	a3          	inc dptr
  800ffe:	f0          	movx @dptr, a
  800fff:	a3          	inc dptr
  801000:	f0          	movx @dptr, a
  801001:	8a 82       	mov dpl, r2
  801003:	8b 83       	mov dph, r3
  801005:	12 06 ba    	lcall 8006ba <HW_set_32bit_reg_field>
  801008:	22          	ret

00801009 <WD_reload>:
  801009:	aa f0       	mov r2, b
  80100b:	ab 83       	mov r3, dph
  80100d:	e5 82       	mov a, dpl
  80100f:	90 01 99    	mov dptr, #409
  801012:	f0          	movx @dptr, a
  801013:	a3          	inc dptr
  801014:	eb          	mov a, r3
  801015:	f0          	movx @dptr, a
  801016:	a3          	inc dptr
  801017:	ea          	mov a, r2
  801018:	f0          	movx @dptr, a
  801019:	90 01 99    	mov dptr, #409
  80101c:	e0          	movx a, @dptr
  80101d:	fa          	mov r2, a
  80101e:	a3          	inc dptr
  80101f:	e0          	movx a, @dptr
  801020:	fb          	mov r3, a
  801021:	a3          	inc dptr
  801022:	e0          	movx a, @dptr
  801023:	fc          	mov r4, a
  801024:	90 00 e3    	mov dptr, #227
  801027:	e0          	movx a, @dptr
  801028:	fd          	mov r5, a
  801029:	a3          	inc dptr
  80102a:	e0          	movx a, @dptr
  80102b:	fe          	mov r6, a
  80102c:	a3          	inc dptr
  80102d:	e0          	movx a, @dptr
  80102e:	ff          	mov r7, a
  80102f:	ea          	mov a, r2
  801030:	b5 05 0a    	cjne a, 0x05, 80103d
  801033:	eb          	mov a, r3
  801034:	b5 06 06    	cjne a, 0x06, 80103d
  801037:	ec          	mov a, r4
  801038:	b5 07 02    	cjne a, 0x07, 80103d
  80103b:	80 03       	sjmp 801040
  80103d:	02 11 49    	ljmp 801149 <WD_reload+0x140>
  801040:	90 01 9c    	mov dptr, #412
  801043:	74 2e       	mov a, #46
  801045:	f0          	movx @dptr, a
  801046:	90 01 9d    	mov dptr, #413
  801049:	74 2e       	mov a, #46
  80104b:	f0          	movx @dptr, a
  80104c:	90 01 9e    	mov dptr, #414
  80104f:	74 2f       	mov a, #47
  801051:	f0          	movx @dptr, a
  801052:	90 01 9f    	mov dptr, #415
  801055:	74 64       	mov a, #100
  801057:	f0          	movx @dptr, a
  801058:	90 01 a0    	mov dptr, #416
  80105b:	74 72       	mov a, #114
  80105d:	f0          	movx @dptr, a
  80105e:	90 01 a1    	mov dptr, #417
  801061:	74 69       	mov a, #105
  801063:	f0          	movx @dptr, a
  801064:	90 01 a2    	mov dptr, #418
  801067:	74 76       	mov a, #118
  801069:	f0          	movx @dptr, a
  80106a:	90 01 a3    	mov dptr, #419
  80106d:	74 65       	mov a, #101
  80106f:	f0          	movx @dptr, a
  801070:	90 01 a4    	mov dptr, #420
  801073:	74 72       	mov a, #114
  801075:	f0          	movx @dptr, a
  801076:	90 01 a5    	mov dptr, #421
  801079:	74 73       	mov a, #115
  80107b:	f0          	movx @dptr, a
  80107c:	90 01 a6    	mov dptr, #422
  80107f:	74 2f       	mov a, #47
  801081:	f0          	movx @dptr, a
  801082:	90 01 a7    	mov dptr, #423
  801085:	74 43       	mov a, #67
  801087:	f0          	movx @dptr, a
  801088:	90 01 a8    	mov dptr, #424
  80108b:	74 6f       	mov a, #111
  80108d:	f0          	movx @dptr, a
  80108e:	90 01 a9    	mov dptr, #425
  801091:	74 72       	mov a, #114
  801093:	f0          	movx @dptr, a
  801094:	90 01 aa    	mov dptr, #426
  801097:	74 65       	mov a, #101
  801099:	f0          	movx @dptr, a
  80109a:	90 01 ab    	mov dptr, #427
  80109d:	74 57       	mov a, #87
  80109f:	f0          	movx @dptr, a
  8010a0:	90 01 ac    	mov dptr, #428
  8010a3:	74 61       	mov a, #97
  8010a5:	f0          	movx @dptr, a
  8010a6:	90 01 ad    	mov dptr, #429
  8010a9:	74 74       	mov a, #116
  8010ab:	f0          	movx @dptr, a
  8010ac:	90 01 ae    	mov dptr, #430
  8010af:	74 63       	mov a, #99
  8010b1:	f0          	movx @dptr, a
  8010b2:	90 01 af    	mov dptr, #431
  8010b5:	74 68       	mov a, #104
  8010b7:	f0          	movx @dptr, a
  8010b8:	90 01 b0    	mov dptr, #432
  8010bb:	74 64       	mov a, #100
  8010bd:	f0          	movx @dptr, a
  8010be:	90 01 b1    	mov dptr, #433
  8010c1:	74 6f       	mov a, #111
  8010c3:	f0          	movx @dptr, a
  8010c4:	90 01 b2    	mov dptr, #434
  8010c7:	74 67       	mov a, #103
  8010c9:	f0          	movx @dptr, a
  8010ca:	90 01 b3    	mov dptr, #435
  8010cd:	74 2f       	mov a, #47
  8010cf:	f0          	movx @dptr, a
  8010d0:	90 01 b4    	mov dptr, #436
  8010d3:	74 63       	mov a, #99
  8010d5:	f0          	movx @dptr, a
  8010d6:	90 01 b5    	mov dptr, #437
  8010d9:	74 6f       	mov a, #111
  8010db:	f0          	movx @dptr, a
  8010dc:	90 01 b6    	mov dptr, #438
  8010df:	74 72       	mov a, #114
  8010e1:	f0          	movx @dptr, a
  8010e2:	90 01 b7    	mov dptr, #439
  8010e5:	74 65       	mov a, #101
  8010e7:	f0          	movx @dptr, a
  8010e8:	90 01 b8    	mov dptr, #440
  8010eb:	74 5f       	mov a, #95
  8010ed:	f0          	movx @dptr, a
  8010ee:	90 01 b9    	mov dptr, #441
  8010f1:	74 77       	mov a, #119
  8010f3:	f0          	movx @dptr, a
  8010f4:	90 01 ba    	mov dptr, #442
  8010f7:	74 61       	mov a, #97
  8010f9:	f0          	movx @dptr, a
  8010fa:	90 01 bb    	mov dptr, #443
  8010fd:	74 74       	mov a, #116
  8010ff:	f0          	movx @dptr, a
  801100:	90 01 bc    	mov dptr, #444
  801103:	74 63       	mov a, #99
  801105:	f0          	movx @dptr, a
  801106:	90 01 bd    	mov dptr, #445
  801109:	74 68       	mov a, #104
  80110b:	f0          	movx @dptr, a
  80110c:	90 01 be    	mov dptr, #446
  80110f:	74 64       	mov a, #100
  801111:	f0          	movx @dptr, a
  801112:	90 01 bf    	mov dptr, #447
  801115:	74 6f       	mov a, #111
  801117:	f0          	movx @dptr, a
  801118:	90 01 c0    	mov dptr, #448
  80111b:	74 67       	mov a, #103
  80111d:	f0          	movx @dptr, a
  80111e:	90 01 c1    	mov dptr, #449
  801121:	74 2e       	mov a, #46
  801123:	f0          	movx @dptr, a
  801124:	90 01 c2    	mov dptr, #450
  801127:	74 63       	mov a, #99
  801129:	f0          	movx @dptr, a
  80112a:	90 01 c3    	mov dptr, #451
  80112d:	74 00       	mov a, #0
  80112f:	f0          	movx @dptr, a
  801130:	90 00 8c    	mov dptr, #140
  801133:	74 59       	mov a, #89
  801135:	f0          	movx @dptr, a
  801136:	e4          	clr a
  801137:	a3          	inc dptr
  801138:	f0          	movx @dptr, a
  801139:	a3          	inc dptr
  80113a:	f0          	movx @dptr, a
  80113b:	a3          	inc dptr
  80113c:	f0          	movx @dptr, a
  80113d:	75 82 9c    	mov dpl, #156
  801140:	75 83 01    	mov dph, #1
  801143:	75 f0 00    	mov b, #0
  801146:	12 05 f6    	lcall 8005f6 <HAL_assert_fail>
  801149:	90 01 99    	mov dptr, #409
  80114c:	e0          	movx a, @dptr
  80114d:	fa          	mov r2, a
  80114e:	a3          	inc dptr
  80114f:	e0          	movx a, @dptr
  801150:	fb          	mov r3, a
  801151:	a3          	inc dptr
  801152:	e0          	movx a, @dptr
  801153:	fc          	mov r4, a
  801154:	8a 82       	mov dpl, r2
  801156:	8b 83       	mov dph, r3
  801158:	8c f0       	mov b, r4
  80115a:	12 61 48    	lcall 806148 <GPIO_clear_irq+0x2c9>
  80115d:	fa          	mov r2, a
  80115e:	a3          	inc dptr
  80115f:	12 61 48    	lcall 806148 <GPIO_clear_irq+0x2c9>
  801162:	fb          	mov r3, a
  801163:	74 0c       	mov a, #12
  801165:	25 02       	add a, 0x02
  801167:	fa          	mov r2, a
  801168:	74 00       	mov a, #0
  80116a:	35 03       	addc a, 0x03
  80116c:	fb          	mov r3, a
  80116d:	90 00 aa    	mov dptr, #170
  801170:	74 01       	mov a, #1
  801172:	f0          	movx @dptr, a
  801173:	e4          	clr a
  801174:	a3          	inc dptr
  801175:	f0          	movx @dptr, a
  801176:	a3          	inc dptr
  801177:	f0          	movx @dptr, a
  801178:	a3          	inc dptr
  801179:	f0          	movx @dptr, a
  80117a:	8a 82       	mov dpl, r2
  80117c:	8b 83       	mov dph, r3
  80117e:	12 06 62    	lcall 800662 <HW_set_32bit_reg>
  801181:	22          	ret

00801182 <WD_current_value>:
  801182:	aa f0       	mov r2, b
  801184:	ab 83       	mov r3, dph
  801186:	e5 82       	mov a, dpl
  801188:	90 01 c4    	mov dptr, #452
  80118b:	f0          	movx @dptr, a
  80118c:	a3          	inc dptr
  80118d:	eb          	mov a, r3
  80118e:	f0          	movx @dptr, a
  80118f:	a3          	inc dptr
  801190:	ea          	mov a, r2
  801191:	f0          	movx @dptr, a
  801192:	90 01 c4    	mov dptr, #452
  801195:	e0          	movx a, @dptr
  801196:	fa          	mov r2, a
  801197:	a3          	inc dptr
  801198:	e0          	movx a, @dptr
  801199:	fb          	mov r3, a
  80119a:	a3          	inc dptr
  80119b:	e0          	movx a, @dptr
  80119c:	fc          	mov r4, a
  80119d:	90 00 e3    	mov dptr, #227
  8011a0:	e0          	movx a, @dptr
  8011a1:	fd          	mov r5, a
  8011a2:	a3          	inc dptr
  8011a3:	e0          	movx a, @dptr
  8011a4:	fe          	mov r6, a
  8011a5:	a3          	inc dptr
  8011a6:	e0          	movx a, @dptr
  8011a7:	ff          	mov r7, a
  8011a8:	ea          	mov a, r2
  8011a9:	b5 05 0a    	cjne a, 0x05, 8011b6
  8011ac:	eb          	mov a, r3
  8011ad:	b5 06 06    	cjne a, 0x06, 8011b6
  8011b0:	ec          	mov a, r4
  8011b1:	b5 07 02    	cjne a, 0x07, 8011b6
  8011b4:	80 03       	sjmp 8011b9
  8011b6:	02 12 c2    	ljmp 8012c2 <WD_current_value+0x140>
  8011b9:	90 01 c7    	mov dptr, #455
  8011bc:	74 2e       	mov a, #46
  8011be:	f0          	movx @dptr, a
  8011bf:	90 01 c8    	mov dptr, #456
  8011c2:	74 2e       	mov a, #46
  8011c4:	f0          	movx @dptr, a
  8011c5:	90 01 c9    	mov dptr, #457
  8011c8:	74 2f       	mov a, #47
  8011ca:	f0          	movx @dptr, a
  8011cb:	90 01 ca    	mov dptr, #458
  8011ce:	74 64       	mov a, #100
  8011d0:	f0          	movx @dptr, a
  8011d1:	90 01 cb    	mov dptr, #459
  8011d4:	74 72       	mov a, #114
  8011d6:	f0          	movx @dptr, a
  8011d7:	90 01 cc    	mov dptr, #460
  8011da:	74 69       	mov a, #105
  8011dc:	f0          	movx @dptr, a
  8011dd:	90 01 cd    	mov dptr, #461
  8011e0:	74 76       	mov a, #118
  8011e2:	f0          	movx @dptr, a
  8011e3:	90 01 ce    	mov dptr, #462
  8011e6:	74 65       	mov a, #101
  8011e8:	f0          	movx @dptr, a
  8011e9:	90 01 cf    	mov dptr, #463
  8011ec:	74 72       	mov a, #114
  8011ee:	f0          	movx @dptr, a
  8011ef:	90 01 d0    	mov dptr, #464
  8011f2:	74 73       	mov a, #115
  8011f4:	f0          	movx @dptr, a
  8011f5:	90 01 d1    	mov dptr, #465
  8011f8:	74 2f       	mov a, #47
  8011fa:	f0          	movx @dptr, a
  8011fb:	90 01 d2    	mov dptr, #466
  8011fe:	74 43       	mov a, #67
  801200:	f0          	movx @dptr, a
  801201:	90 01 d3    	mov dptr, #467
  801204:	74 6f       	mov a, #111
  801206:	f0          	movx @dptr, a
  801207:	90 01 d4    	mov dptr, #468
  80120a:	74 72       	mov a, #114
  80120c:	f0          	movx @dptr, a
  80120d:	90 01 d5    	mov dptr, #469
  801210:	74 65       	mov a, #101
  801212:	f0          	movx @dptr, a
  801213:	90 01 d6    	mov dptr, #470
  801216:	74 57       	mov a, #87
  801218:	f0          	movx @dptr, a
  801219:	90 01 d7    	mov dptr, #471
  80121c:	74 61       	mov a, #97
  80121e:	f0          	movx @dptr, a
  80121f:	90 01 d8    	mov dptr, #472
  801222:	74 74       	mov a, #116
  801224:	f0          	movx @dptr, a
  801225:	90 01 d9    	mov dptr, #473
  801228:	74 63       	mov a, #99
  80122a:	f0          	movx @dptr, a
  80122b:	90 01 da    	mov dptr, #474
  80122e:	74 68       	mov a, #104
  801230:	f0          	movx @dptr, a
  801231:	90 01 db    	mov dptr, #475
  801234:	74 64       	mov a, #100
  801236:	f0          	movx @dptr, a
  801237:	90 01 dc    	mov dptr, #476
  80123a:	74 6f       	mov a, #111
  80123c:	f0          	movx @dptr, a
  80123d:	90 01 dd    	mov dptr, #477
  801240:	74 67       	mov a, #103
  801242:	f0          	movx @dptr, a
  801243:	90 01 de    	mov dptr, #478
  801246:	74 2f       	mov a, #47
  801248:	f0          	movx @dptr, a
  801249:	90 01 df    	mov dptr, #479
  80124c:	74 63       	mov a, #99
  80124e:	f0          	movx @dptr, a
  80124f:	90 01 e0    	mov dptr, #480
  801252:	74 6f       	mov a, #111
  801254:	f0          	movx @dptr, a
  801255:	90 01 e1    	mov dptr, #481
  801258:	74 72       	mov a, #114
  80125a:	f0          	movx @dptr, a
  80125b:	90 01 e2    	mov dptr, #482
  80125e:	74 65       	mov a, #101
  801260:	f0          	movx @dptr, a
  801261:	90 01 e3    	mov dptr, #483
  801264:	74 5f       	mov a, #95
  801266:	f0          	movx @dptr, a
  801267:	90 01 e4    	mov dptr, #484
  80126a:	74 77       	mov a, #119
  80126c:	f0          	movx @dptr, a
  80126d:	90 01 e5    	mov dptr, #485
  801270:	74 61       	mov a, #97
  801272:	f0          	movx @dptr, a
  801273:	90 01 e6    	mov dptr, #486
  801276:	74 74       	mov a, #116
  801278:	f0          	movx @dptr, a
  801279:	90 01 e7    	mov dptr, #487
  80127c:	74 63       	mov a, #99
  80127e:	f0          	movx @dptr, a
  80127f:	90 01 e8    	mov dptr, #488
  801282:	74 68       	mov a, #104
  801284:	f0          	movx @dptr, a
  801285:	90 01 e9    	mov dptr, #489
  801288:	74 64       	mov a, #100
  80128a:	f0          	movx @dptr, a
  80128b:	90 01 ea    	mov dptr, #490
  80128e:	74 6f       	mov a, #111
  801290:	f0          	movx @dptr, a
  801291:	90 01 eb    	mov dptr, #491
  801294:	74 67       	mov a, #103
  801296:	f0          	movx @dptr, a
  801297:	90 01 ec    	mov dptr, #492
  80129a:	74 2e       	mov a, #46
  80129c:	f0          	movx @dptr, a
  80129d:	90 01 ed    	mov dptr, #493
  8012a0:	74 63       	mov a, #99
  8012a2:	f0          	movx @dptr, a
  8012a3:	90 01 ee    	mov dptr, #494
  8012a6:	74 00       	mov a, #0
  8012a8:	f0          	movx @dptr, a
  8012a9:	90 00 8c    	mov dptr, #140
  8012ac:	74 69       	mov a, #105
  8012ae:	f0          	movx @dptr, a
  8012af:	e4          	clr a
  8012b0:	a3          	inc dptr
  8012b1:	f0          	movx @dptr, a
  8012b2:	a3          	inc dptr
  8012b3:	f0          	movx @dptr, a
  8012b4:	a3          	inc dptr
  8012b5:	f0          	movx @dptr, a
  8012b6:	75 82 c7    	mov dpl, #199
  8012b9:	75 83 01    	mov dph, #1
  8012bc:	75 f0 00    	mov b, #0
  8012bf:	12 05 f6    	lcall 8005f6 <HAL_assert_fail>
  8012c2:	90 01 c4    	mov dptr, #452
  8012c5:	e0          	movx a, @dptr
  8012c6:	fa          	mov r2, a
  8012c7:	a3          	inc dptr
  8012c8:	e0          	movx a, @dptr
  8012c9:	fb          	mov r3, a
  8012ca:	a3          	inc dptr
  8012cb:	e0          	movx a, @dptr
  8012cc:	fc          	mov r4, a
  8012cd:	8a 82       	mov dpl, r2
  8012cf:	8b 83       	mov dph, r3
  8012d1:	8c f0       	mov b, r4
  8012d3:	12 61 48    	lcall 806148 <GPIO_clear_irq+0x2c9>
  8012d6:	fa          	mov r2, a
  8012d7:	a3          	inc dptr
  8012d8:	12 61 48    	lcall 806148 <GPIO_clear_irq+0x2c9>
  8012db:	fb          	mov r3, a
  8012dc:	74 04       	mov a, #4
  8012de:	25 02       	add a, 0x02
  8012e0:	fa          	mov r2, a
  8012e1:	74 00       	mov a, #0
  8012e3:	35 03       	addc a, 0x03
  8012e5:	fb          	mov r3, a
  8012e6:	8a 82       	mov dpl, r2
  8012e8:	8b 83       	mov dph, r3
  8012ea:	12 06 56    	lcall 800656 <HW_get_32bit_reg>
  8012ed:	aa 82       	mov r2, dpl
  8012ef:	ab 83       	mov r3, dph
  8012f1:	ac f0       	mov r4, b
  8012f3:	fd          	mov r5, a
  8012f4:	8a 82       	mov dpl, r2
  8012f6:	8b 83       	mov dph, r3
  8012f8:	8c f0       	mov b, r4
  8012fa:	ed          	mov a, r5
  8012fb:	22          	ret

008012fc <UART_init>:
  8012fc:	aa f0       	mov r2, b
  8012fe:	ab 83       	mov r3, dph
  801300:	e5 82       	mov a, dpl
  801302:	90 01 f4    	mov dptr, #500
  801305:	f0          	movx @dptr, a
  801306:	a3          	inc dptr
  801307:	eb          	mov a, r3
  801308:	f0          	movx @dptr, a
  801309:	a3          	inc dptr
  80130a:	ea          	mov a, r2
  80130b:	f0          	movx @dptr, a
  80130c:	90 01 f4    	mov dptr, #500
  80130f:	e0          	movx a, @dptr
  801310:	fa          	mov r2, a
  801311:	a3          	inc dptr
  801312:	e0          	movx a, @dptr
  801313:	fb          	mov r3, a
  801314:	a3          	inc dptr
  801315:	e0          	movx a, @dptr
  801316:	fc          	mov r4, a
  801317:	ba 00 08    	cjne r2, #0, 801322
  80131a:	bb 00 05    	cjne r3, #0, 801322
  80131d:	bc 00 02    	cjne r4, #0, 801322
  801320:	80 03       	sjmp 801325
  801322:	02 14 28    	ljmp 801428 <UART_init+0x12c>
  801325:	90 01 f8    	mov dptr, #504
  801328:	74 2e       	mov a, #46
  80132a:	f0          	movx @dptr, a
  80132b:	90 01 f9    	mov dptr, #505
  80132e:	74 2e       	mov a, #46
  801330:	f0          	movx @dptr, a
  801331:	90 01 fa    	mov dptr, #506
  801334:	74 2f       	mov a, #47
  801336:	f0          	movx @dptr, a
  801337:	90 01 fb    	mov dptr, #507
  80133a:	74 64       	mov a, #100
  80133c:	f0          	movx @dptr, a
  80133d:	90 01 fc    	mov dptr, #508
  801340:	74 72       	mov a, #114
  801342:	f0          	movx @dptr, a
  801343:	90 01 fd    	mov dptr, #509
  801346:	74 69       	mov a, #105
  801348:	f0          	movx @dptr, a
  801349:	90 01 fe    	mov dptr, #510
  80134c:	74 76       	mov a, #118
  80134e:	f0          	movx @dptr, a
  80134f:	90 01 ff    	mov dptr, #511
  801352:	74 65       	mov a, #101
  801354:	f0          	movx @dptr, a
  801355:	90 02 00    	mov dptr, #512
  801358:	74 72       	mov a, #114
  80135a:	f0          	movx @dptr, a
  80135b:	90 02 01    	mov dptr, #513
  80135e:	74 73       	mov a, #115
  801360:	f0          	movx @dptr, a
  801361:	90 02 02    	mov dptr, #514
  801364:	74 2f       	mov a, #47
  801366:	f0          	movx @dptr, a
  801367:	90 02 03    	mov dptr, #515
  80136a:	74 43       	mov a, #67
  80136c:	f0          	movx @dptr, a
  80136d:	90 02 04    	mov dptr, #516
  801370:	74 6f       	mov a, #111
  801372:	f0          	movx @dptr, a
  801373:	90 02 05    	mov dptr, #517
  801376:	74 72       	mov a, #114
  801378:	f0          	movx @dptr, a
  801379:	90 02 06    	mov dptr, #518
  80137c:	74 65       	mov a, #101
  80137e:	f0          	movx @dptr, a
  80137f:	90 02 07    	mov dptr, #519
  801382:	74 55       	mov a, #85
  801384:	f0          	movx @dptr, a
  801385:	90 02 08    	mov dptr, #520
  801388:	74 41       	mov a, #65
  80138a:	f0          	movx @dptr, a
  80138b:	90 02 09    	mov dptr, #521
  80138e:	74 52       	mov a, #82
  801390:	f0          	movx @dptr, a
  801391:	90 02 0a    	mov dptr, #522
  801394:	74 54       	mov a, #84
  801396:	f0          	movx @dptr, a
  801397:	90 02 0b    	mov dptr, #523
  80139a:	74 61       	mov a, #97
  80139c:	f0          	movx @dptr, a
  80139d:	90 02 0c    	mov dptr, #524
  8013a0:	74 70       	mov a, #112
  8013a2:	f0          	movx @dptr, a
  8013a3:	90 02 0d    	mov dptr, #525
  8013a6:	74 62       	mov a, #98
  8013a8:	f0          	movx @dptr, a
  8013a9:	90 02 0e    	mov dptr, #526
  8013ac:	74 2f       	mov a, #47
  8013ae:	f0          	movx @dptr, a
  8013af:	90 02 0f    	mov dptr, #527
  8013b2:	74 63       	mov a, #99
  8013b4:	f0          	movx @dptr, a
  8013b5:	90 02 10    	mov dptr, #528
  8013b8:	74 6f       	mov a, #111
  8013ba:	f0          	movx @dptr, a
  8013bb:	90 02 11    	mov dptr, #529
  8013be:	74 72       	mov a, #114
  8013c0:	f0          	movx @dptr, a
  8013c1:	90 02 12    	mov dptr, #530
  8013c4:	74 65       	mov a, #101
  8013c6:	f0          	movx @dptr, a
  8013c7:	90 02 13    	mov dptr, #531
  8013ca:	74 5f       	mov a, #95
  8013cc:	f0          	movx @dptr, a
  8013cd:	90 02 14    	mov dptr, #532
  8013d0:	74 75       	mov a, #117
  8013d2:	f0          	movx @dptr, a
  8013d3:	90 02 15    	mov dptr, #533
  8013d6:	74 61       	mov a, #97
  8013d8:	f0          	movx @dptr, a
  8013d9:	90 02 16    	mov dptr, #534
  8013dc:	74 72       	mov a, #114
  8013de:	f0          	movx @dptr, a
  8013df:	90 02 17    	mov dptr, #535
  8013e2:	74 74       	mov a, #116
  8013e4:	f0          	movx @dptr, a
  8013e5:	90 02 18    	mov dptr, #536
  8013e8:	74 5f       	mov a, #95
  8013ea:	f0          	movx @dptr, a
  8013eb:	90 02 19    	mov dptr, #537
  8013ee:	74 61       	mov a, #97
  8013f0:	f0          	movx @dptr, a
  8013f1:	90 02 1a    	mov dptr, #538
  8013f4:	74 70       	mov a, #112
  8013f6:	f0          	movx @dptr, a
  8013f7:	90 02 1b    	mov dptr, #539
  8013fa:	74 62       	mov a, #98
  8013fc:	f0          	movx @dptr, a
  8013fd:	90 02 1c    	mov dptr, #540
  801400:	74 2e       	mov a, #46
  801402:	f0          	movx @dptr, a
  801403:	90 02 1d    	mov dptr, #541
  801406:	74 63       	mov a, #99
  801408:	f0          	movx @dptr, a
  801409:	90 02 1e    	mov dptr, #542
  80140c:	74 00       	mov a, #0
  80140e:	f0          	movx @dptr, a
  80140f:	90 00 8c    	mov dptr, #140
  801412:	74 30       	mov a, #48
  801414:	f0          	movx @dptr, a
  801415:	e4          	clr a
  801416:	a3          	inc dptr
  801417:	f0          	movx @dptr, a
  801418:	a3          	inc dptr
  801419:	f0          	movx @dptr, a
  80141a:	a3          	inc dptr
  80141b:	f0          	movx @dptr, a
  80141c:	75 82 f8    	mov dpl, #248
  80141f:	75 83 01    	mov dph, #1
  801422:	75 f0 00    	mov b, #0
  801425:	12 05 f6    	lcall 8005f6 <HAL_assert_fail>
  801428:	90 01 f3    	mov dptr, #499
  80142b:	e0          	movx a, @dptr
  80142c:	f5 24       	mov 0x24, a
  80142e:	c3          	clr c
  80142f:	74 07       	mov a, #7
  801431:	95 24       	subb a, 0x24
  801433:	e4          	clr a
  801434:	33          	rlc a
  801435:	fb          	mov r3, a
  801436:	eb          	mov a, r3
  801437:	70 03       	jnz 80143c
  801439:	02 15 43    	ljmp 801543 <UART_init+0x247>
  80143c:	90 02 1f    	mov dptr, #543
  80143f:	74 2e       	mov a, #46
  801441:	f0          	movx @dptr, a
  801442:	90 02 20    	mov dptr, #544
  801445:	74 2e       	mov a, #46
  801447:	f0          	movx @dptr, a
  801448:	90 02 21    	mov dptr, #545
  80144b:	74 2f       	mov a, #47
  80144d:	f0          	movx @dptr, a
  80144e:	90 02 22    	mov dptr, #546
  801451:	74 64       	mov a, #100
  801453:	f0          	movx @dptr, a
  801454:	90 02 23    	mov dptr, #547
  801457:	74 72       	mov a, #114
  801459:	f0          	movx @dptr, a
  80145a:	90 02 24    	mov dptr, #548
  80145d:	74 69       	mov a, #105
  80145f:	f0          	movx @dptr, a
  801460:	90 02 25    	mov dptr, #549
  801463:	74 76       	mov a, #118
  801465:	f0          	movx @dptr, a
  801466:	90 02 26    	mov dptr, #550
  801469:	74 65       	mov a, #101
  80146b:	f0          	movx @dptr, a
  80146c:	90 02 27    	mov dptr, #551
  80146f:	74 72       	mov a, #114
  801471:	f0          	movx @dptr, a
  801472:	90 02 28    	mov dptr, #552
  801475:	74 73       	mov a, #115
  801477:	f0          	movx @dptr, a
  801478:	90 02 29    	mov dptr, #553
  80147b:	74 2f       	mov a, #47
  80147d:	f0          	movx @dptr, a
  80147e:	90 02 2a    	mov dptr, #554
  801481:	74 43       	mov a, #67
  801483:	f0          	movx @dptr, a
  801484:	90 02 2b    	mov dptr, #555
  801487:	74 6f       	mov a, #111
  801489:	f0          	movx @dptr, a
  80148a:	90 02 2c    	mov dptr, #556
  80148d:	74 72       	mov a, #114
  80148f:	f0          	movx @dptr, a
  801490:	90 02 2d    	mov dptr, #557
  801493:	74 65       	mov a, #101
  801495:	f0          	movx @dptr, a
  801496:	90 02 2e    	mov dptr, #558
  801499:	74 55       	mov a, #85
  80149b:	f0          	movx @dptr, a
  80149c:	90 02 2f    	mov dptr, #559
  80149f:	74 41       	mov a, #65
  8014a1:	f0          	movx @dptr, a
  8014a2:	90 02 30    	mov dptr, #560
  8014a5:	74 52       	mov a, #82
  8014a7:	f0          	movx @dptr, a
  8014a8:	90 02 31    	mov dptr, #561
  8014ab:	74 54       	mov a, #84
  8014ad:	f0          	movx @dptr, a
  8014ae:	90 02 32    	mov dptr, #562
  8014b1:	74 61       	mov a, #97
  8014b3:	f0          	movx @dptr, a
  8014b4:	90 02 33    	mov dptr, #563
  8014b7:	74 70       	mov a, #112
  8014b9:	f0          	movx @dptr, a
  8014ba:	90 02 34    	mov dptr, #564
  8014bd:	74 62       	mov a, #98
  8014bf:	f0          	movx @dptr, a
  8014c0:	90 02 35    	mov dptr, #565
  8014c3:	74 2f       	mov a, #47
  8014c5:	f0          	movx @dptr, a
  8014c6:	90 02 36    	mov dptr, #566
  8014c9:	74 63       	mov a, #99
  8014cb:	f0          	movx @dptr, a
  8014cc:	90 02 37    	mov dptr, #567
  8014cf:	74 6f       	mov a, #111
  8014d1:	f0          	movx @dptr, a
  8014d2:	90 02 38    	mov dptr, #568
  8014d5:	74 72       	mov a, #114
  8014d7:	f0          	movx @dptr, a
  8014d8:	90 02 39    	mov dptr, #569
  8014db:	74 65       	mov a, #101
  8014dd:	f0          	movx @dptr, a
  8014de:	90 02 3a    	mov dptr, #570
  8014e1:	74 5f       	mov a, #95
  8014e3:	f0          	movx @dptr, a
  8014e4:	90 02 3b    	mov dptr, #571
  8014e7:	74 75       	mov a, #117
  8014e9:	f0          	movx @dptr, a
  8014ea:	90 02 3c    	mov dptr, #572
  8014ed:	74 61       	mov a, #97
  8014ef:	f0          	movx @dptr, a
  8014f0:	90 02 3d    	mov dptr, #573
  8014f3:	74 72       	mov a, #114
  8014f5:	f0          	movx @dptr, a
  8014f6:	90 02 3e    	mov dptr, #574
  8014f9:	74 74       	mov a, #116
  8014fb:	f0          	movx @dptr, a
  8014fc:	90 02 3f    	mov dptr, #575
  8014ff:	74 5f       	mov a, #95
  801501:	f0          	movx @dptr, a
  801502:	90 02 40    	mov dptr, #576
  801505:	74 61       	mov a, #97
  801507:	f0          	movx @dptr, a
  801508:	90 02 41    	mov dptr, #577
  80150b:	74 70       	mov a, #112
  80150d:	f0          	movx @dptr, a
  80150e:	90 02 42    	mov dptr, #578
  801511:	74 62       	mov a, #98
  801513:	f0          	movx @dptr, a
  801514:	90 02 43    	mov dptr, #579
  801517:	74 2e       	mov a, #46
  801519:	f0          	movx @dptr, a
  80151a:	90 02 44    	mov dptr, #580
  80151d:	74 63       	mov a, #99
  80151f:	f0          	movx @dptr, a
  801520:	90 02 45    	mov dptr, #581
  801523:	74 00       	mov a, #0
  801525:	f0          	movx @dptr, a
  801526:	90 00 8c    	mov dptr, #140
  801529:	74 31       	mov a, #49
  80152b:	f0          	movx @dptr, a
  80152c:	e4          	clr a
  80152d:	a3          	inc dptr
  80152e:	f0          	movx @dptr, a
  80152f:	a3          	inc dptr
  801530:	f0          	movx @dptr, a
  801531:	a3          	inc dptr
  801532:	f0          	movx @dptr, a
  801533:	75 82 1f    	mov dpl, #31
  801536:	75 83 02    	mov dph, #2
  801539:	75 f0 00    	mov b, #0
  80153c:	c0 03       	push 0x03
  80153e:	12 05 f6    	lcall 8005f6 <HAL_assert_fail>
  801541:	d0 03       	pop 0x03
  801543:	90 01 f1    	mov dptr, #497
  801546:	e0          	movx a, @dptr
  801547:	fc          	mov r4, a
  801548:	a3          	inc dptr
  801549:	e0          	movx a, @dptr
  80154a:	fd          	mov r5, a
  80154b:	c3          	clr c
  80154c:	74 ff       	mov a, #255
  80154e:	9c          	subb a, r4
  80154f:	74 1f       	mov a, #31
  801551:	9d          	subb a, r5
  801552:	e4          	clr a
  801553:	33          	rlc a
  801554:	fe          	mov r6, a
  801555:	ee          	mov a, r6
  801556:	70 03       	jnz 80155b
  801558:	02 16 6e    	ljmp 80166e <UART_init+0x372>
  80155b:	90 02 46    	mov dptr, #582
  80155e:	74 2e       	mov a, #46
  801560:	f0          	movx @dptr, a
  801561:	90 02 47    	mov dptr, #583
  801564:	74 2e       	mov a, #46
  801566:	f0          	movx @dptr, a
  801567:	90 02 48    	mov dptr, #584
  80156a:	74 2f       	mov a, #47
  80156c:	f0          	movx @dptr, a
  80156d:	90 02 49    	mov dptr, #585
  801570:	74 64       	mov a, #100
  801572:	f0          	movx @dptr, a
  801573:	90 02 4a    	mov dptr, #586
  801576:	74 72       	mov a, #114
  801578:	f0          	movx @dptr, a
  801579:	90 02 4b    	mov dptr, #587
  80157c:	74 69       	mov a, #105
  80157e:	f0          	movx @dptr, a
  80157f:	90 02 4c    	mov dptr, #588
  801582:	74 76       	mov a, #118
  801584:	f0          	movx @dptr, a
  801585:	90 02 4d    	mov dptr, #589
  801588:	74 65       	mov a, #101
  80158a:	f0          	movx @dptr, a
  80158b:	90 02 4e    	mov dptr, #590
  80158e:	74 72       	mov a, #114
  801590:	f0          	movx @dptr, a
  801591:	90 02 4f    	mov dptr, #591
  801594:	74 73       	mov a, #115
  801596:	f0          	movx @dptr, a
  801597:	90 02 50    	mov dptr, #592
  80159a:	74 2f       	mov a, #47
  80159c:	f0          	movx @dptr, a
  80159d:	90 02 51    	mov dptr, #593
  8015a0:	74 43       	mov a, #67
  8015a2:	f0          	movx @dptr, a
  8015a3:	90 02 52    	mov dptr, #594
  8015a6:	74 6f       	mov a, #111
  8015a8:	f0          	movx @dptr, a
  8015a9:	90 02 53    	mov dptr, #595
  8015ac:	74 72       	mov a, #114
  8015ae:	f0          	movx @dptr, a
  8015af:	90 02 54    	mov dptr, #596
  8015b2:	74 65       	mov a, #101
  8015b4:	f0          	movx @dptr, a
  8015b5:	90 02 55    	mov dptr, #597
  8015b8:	74 55       	mov a, #85
  8015ba:	f0          	movx @dptr, a
  8015bb:	90 02 56    	mov dptr, #598
  8015be:	74 41       	mov a, #65
  8015c0:	f0          	movx @dptr, a
  8015c1:	90 02 57    	mov dptr, #599
  8015c4:	74 52       	mov a, #82
  8015c6:	f0          	movx @dptr, a
  8015c7:	90 02 58    	mov dptr, #600
  8015ca:	74 54       	mov a, #84
  8015cc:	f0          	movx @dptr, a
  8015cd:	90 02 59    	mov dptr, #601
  8015d0:	74 61       	mov a, #97
  8015d2:	f0          	movx @dptr, a
  8015d3:	90 02 5a    	mov dptr, #602
  8015d6:	74 70       	mov a, #112
  8015d8:	f0          	movx @dptr, a
  8015d9:	90 02 5b    	mov dptr, #603
  8015dc:	74 62       	mov a, #98
  8015de:	f0          	movx @dptr, a
  8015df:	90 02 5c    	mov dptr, #604
  8015e2:	74 2f       	mov a, #47
  8015e4:	f0          	movx @dptr, a
  8015e5:	90 02 5d    	mov dptr, #605
  8015e8:	74 63       	mov a, #99
  8015ea:	f0          	movx @dptr, a
  8015eb:	90 02 5e    	mov dptr, #606
  8015ee:	74 6f       	mov a, #111
  8015f0:	f0          	movx @dptr, a
  8015f1:	90 02 5f    	mov dptr, #607
  8015f4:	74 72       	mov a, #114
  8015f6:	f0          	movx @dptr, a
  8015f7:	90 02 60    	mov dptr, #608
  8015fa:	74 65       	mov a, #101
  8015fc:	f0          	movx @dptr, a
  8015fd:	90 02 61    	mov dptr, #609
  801600:	74 5f       	mov a, #95
  801602:	f0          	movx @dptr, a
  801603:	90 02 62    	mov dptr, #610
  801606:	74 75       	mov a, #117
  801608:	f0          	movx @dptr, a
  801609:	90 02 63    	mov dptr, #611
  80160c:	74 61       	mov a, #97
  80160e:	f0          	movx @dptr, a
  80160f:	90 02 64    	mov dptr, #612
  801612:	74 72       	mov a, #114
  801614:	f0          	movx @dptr, a
  801615:	90 02 65    	mov dptr, #613
  801618:	74 74       	mov a, #116
  80161a:	f0          	movx @dptr, a
  80161b:	90 02 66    	mov dptr, #614
  80161e:	74 5f       	mov a, #95
  801620:	f0          	movx @dptr, a
  801621:	90 02 67    	mov dptr, #615
  801624:	74 61       	mov a, #97
  801626:	f0          	movx @dptr, a
  801627:	90 02 68    	mov dptr, #616
  80162a:	74 70       	mov a, #112
  80162c:	f0          	movx @dptr, a
  80162d:	90 02 69    	mov dptr, #617
  801630:	74 62       	mov a, #98
  801632:	f0          	movx @dptr, a
  801633:	90 02 6a    	mov dptr, #618
  801636:	74 2e       	mov a, #46
  801638:	f0          	movx @dptr, a
  801639:	90 02 6b    	mov dptr, #619
  80163c:	74 63       	mov a, #99
  80163e:	f0          	movx @dptr, a
  80163f:	90 02 6c    	mov dptr, #620
  801642:	74 00       	mov a, #0
  801644:	f0          	movx @dptr, a
  801645:	90 00 8c    	mov dptr, #140
  801648:	74 32       	mov a, #50
  80164a:	f0          	movx @dptr, a
  80164b:	e4          	clr a
  80164c:	a3          	inc dptr
  80164d:	f0          	movx @dptr, a
  80164e:	a3          	inc dptr
  80164f:	f0          	movx @dptr, a
  801650:	a3          	inc dptr
  801651:	f0          	movx @dptr, a
  801652:	75 82 46    	mov dpl, #70
  801655:	75 83 02    	mov dph, #2
  801658:	75 f0 00    	mov b, #0
  80165b:	c0 03       	push 0x03
  80165d:	c0 04       	push 0x04
  80165f:	c0 05       	push 0x05
  801661:	c0 06       	push 0x06
  801663:	12 05 f6    	lcall 8005f6 <HAL_assert_fail>
  801666:	d0 06       	pop 0x06
  801668:	d0 05       	pop 0x05
  80166a:	d0 04       	pop 0x04
  80166c:	d0 03       	pop 0x03
  80166e:	90 01 f4    	mov dptr, #500
  801671:	e0          	movx a, @dptr
  801672:	ff          	mov r7, a
  801673:	a3          	inc dptr
  801674:	e0          	movx a, @dptr
  801675:	f8          	mov r0, a
  801676:	a3          	inc dptr
  801677:	e0          	movx a, @dptr
  801678:	f9          	mov r1, a
  801679:	bf 00 09    	cjne r7, #0, 801685
  80167c:	b8 00 06    	cjne r0, #0, 801685
  80167f:	b9 00 03    	cjne r1, #0, 801685
  801682:	02 1a 8f    	ljmp 801a8f <UART_init+0x793>
  801685:	eb          	mov a, r3
  801686:	60 03       	jz 80168b
  801688:	02 1a 8f    	ljmp 801a8f <UART_init+0x793>
  80168b:	ee          	mov a, r6
  80168c:	60 03       	jz 801691
  80168e:	02 1a 8f    	ljmp 801a8f <UART_init+0x793>
  801691:	90 01 ef    	mov dptr, #495
  801694:	e0          	movx a, @dptr
  801695:	f5 25       	mov 0x25, a
  801697:	a3          	inc dptr
  801698:	e0          	movx a, @dptr
  801699:	f5 26       	mov 0x26, a
  80169b:	74 08       	mov a, #8
  80169d:	25 25       	add a, 0x25
  80169f:	f5 27       	mov 0x27, a
  8016a1:	74 00       	mov a, #0
  8016a3:	35 26       	addc a, 0x26
  8016a5:	f5 28       	mov 0x28, a
  8016a7:	8c 06       	mov 0x06, r4
  8016a9:	7a 00       	mov r2, #0
  8016ab:	90 00 a9    	mov dptr, #169
  8016ae:	ee          	mov a, r6
  8016af:	f0          	movx @dptr, a
  8016b0:	85 27 82    	mov dpl, 0x27
  8016b3:	85 28 83    	mov dph, 0x28
  8016b6:	c0 04       	push 0x04
  8016b8:	c0 05       	push 0x05
  8016ba:	c0 07       	push 0x07
  8016bc:	c0 00       	push 00
  8016be:	c0 01       	push 0x01
  8016c0:	12 06 99    	lcall 800699 <HW_set_8bit_reg>
  8016c3:	d0 01       	pop 0x01
  8016c5:	d0 00       	pop 00
  8016c7:	d0 07       	pop 0x07
  8016c9:	d0 05       	pop 0x05
  8016cb:	d0 04       	pop 0x04
  8016cd:	74 0c       	mov a, #12
  8016cf:	25 25       	add a, 0x25
  8016d1:	f5 29       	mov 0x29, a
  8016d3:	74 00       	mov a, #0
  8016d5:	35 26       	addc a, 0x26
  8016d7:	f5 2a       	mov 0x2a, a
  8016d9:	7e 00       	mov r6, #0
  8016db:	8d 02       	mov 0x02, r5
  8016dd:	ea          	mov a, r2
  8016de:	c4          	swap a
  8016df:	03          	rr a
  8016e0:	ce          	xch a, r6
  8016e1:	c4          	swap a
  8016e2:	03          	rr a
  8016e3:	54 07       	anl a, #7
  8016e5:	6e          	xrl a, r6
  8016e6:	ce          	xch a, r6
  8016e7:	54 07       	anl a, #7
  8016e9:	ce          	xch a, r6
  8016ea:	6e          	xrl a, r6
  8016eb:	ce          	xch a, r6
  8016ec:	fa          	mov r2, a
  8016ed:	90 00 a9    	mov dptr, #169
  8016f0:	ee          	mov a, r6
  8016f1:	45 24       	orl a, 0x24
  8016f3:	f0          	movx @dptr, a
  8016f4:	85 29 82    	mov dpl, 0x29
  8016f7:	85 2a 83    	mov dph, 0x2a
  8016fa:	c0 04       	push 0x04
  8016fc:	c0 05       	push 0x05
  8016fe:	c0 07       	push 0x07
  801700:	c0 00       	push 00
  801702:	c0 01       	push 0x01
  801704:	12 06 99    	lcall 800699 <HW_set_8bit_reg>
  801707:	d0 01       	pop 0x01
  801709:	d0 00       	pop 00
  80170b:	d0 07       	pop 0x07
  80170d:	d0 05       	pop 0x05
  80170f:	d0 04       	pop 0x04
  801711:	8f 82       	mov dpl, r7
  801713:	88 83       	mov dph, r0
  801715:	89 f0       	mov b, r1
  801717:	e5 25       	mov a, 0x25
  801719:	12 61 2f    	lcall 80612f <GPIO_clear_irq+0x2b0>
  80171c:	a3          	inc dptr
  80171d:	e5 26       	mov a, 0x26
  80171f:	12 61 2f    	lcall 80612f <GPIO_clear_irq+0x2b0>
  801722:	85 27 82    	mov dpl, 0x27
  801725:	85 28 83    	mov dph, 0x28
  801728:	c0 04       	push 0x04
  80172a:	c0 05       	push 0x05
  80172c:	c0 07       	push 0x07
  80172e:	c0 00       	push 00
  801730:	c0 01       	push 0x01
  801732:	12 06 a7    	lcall 8006a7 <HW_get_8bit_reg>
  801735:	aa 82       	mov r2, dpl
  801737:	d0 01       	pop 0x01
  801739:	d0 00       	pop 00
  80173b:	d0 07       	pop 0x07
  80173d:	d0 05       	pop 0x05
  80173f:	d0 04       	pop 0x04
  801741:	7b 00       	mov r3, #0
  801743:	8f 82       	mov dpl, r7
  801745:	88 83       	mov dph, r0
  801747:	89 f0       	mov b, r1
  801749:	12 61 48    	lcall 806148 <GPIO_clear_irq+0x2c9>
  80174c:	ff          	mov r7, a
  80174d:	a3          	inc dptr
  80174e:	12 61 48    	lcall 806148 <GPIO_clear_irq+0x2c9>
  801751:	f8          	mov r0, a
  801752:	74 0c       	mov a, #12
  801754:	25 07       	add a, 0x07
  801756:	ff          	mov r7, a
  801757:	74 00       	mov a, #0
  801759:	35 00       	addc a, 00
  80175b:	f8          	mov r0, a
  80175c:	8f 82       	mov dpl, r7
  80175e:	88 83       	mov dph, r0
  801760:	c0 02       	push 0x02
  801762:	c0 03       	push 0x03
  801764:	c0 04       	push 0x04
  801766:	c0 05       	push 0x05
  801768:	12 06 a7    	lcall 8006a7 <HW_get_8bit_reg>
  80176b:	ae 82       	mov r6, dpl
  80176d:	d0 05       	pop 0x05
  80176f:	d0 04       	pop 0x04
  801771:	d0 03       	pop 0x03
  801773:	d0 02       	pop 0x02
  801775:	74 f8       	mov a, #248
  801777:	5e          	anl a, r6
  801778:	ff          	mov r7, a
  801779:	78 00       	mov r0, #0
  80177b:	e8          	mov a, r0
  80177c:	c4          	swap a
  80177d:	23          	rl a
  80177e:	54 e0       	anl a, #224
  801780:	cf          	xch a, r7
  801781:	c4          	swap a
  801782:	23          	rl a
  801783:	cf          	xch a, r7
  801784:	6f          	xrl a, r7
  801785:	cf          	xch a, r7
  801786:	54 e0       	anl a, #224
  801788:	cf          	xch a, r7
  801789:	6f          	xrl a, r7
  80178a:	f8          	mov r0, a
  80178b:	ef          	mov a, r7
  80178c:	42 02       	orl 0x02, a
  80178e:	e8          	mov a, r0
  80178f:	42 03       	orl 0x03, a
  801791:	53 06 07    	anl 0x06, #7
  801794:	ea          	mov a, r2
  801795:	b5 04 07    	cjne a, 0x04, 80179f
  801798:	eb          	mov a, r3
  801799:	b5 05 03    	cjne a, 0x05, 80179f
  80179c:	02 18 a6    	ljmp 8018a6 <UART_init+0x5aa>
  80179f:	90 02 6d    	mov dptr, #621
  8017a2:	74 2e       	mov a, #46
  8017a4:	f0          	movx @dptr, a
  8017a5:	90 02 6e    	mov dptr, #622
  8017a8:	74 2e       	mov a, #46
  8017aa:	f0          	movx @dptr, a
  8017ab:	90 02 6f    	mov dptr, #623
  8017ae:	74 2f       	mov a, #47
  8017b0:	f0          	movx @dptr, a
  8017b1:	90 02 70    	mov dptr, #624
  8017b4:	74 64       	mov a, #100
  8017b6:	f0          	movx @dptr, a
  8017b7:	90 02 71    	mov dptr, #625
  8017ba:	74 72       	mov a, #114
  8017bc:	f0          	movx @dptr, a
  8017bd:	90 02 72    	mov dptr, #626
  8017c0:	74 69       	mov a, #105
  8017c2:	f0          	movx @dptr, a
  8017c3:	90 02 73    	mov dptr, #627
  8017c6:	74 76       	mov a, #118
  8017c8:	f0          	movx @dptr, a
  8017c9:	90 02 74    	mov dptr, #628
  8017cc:	74 65       	mov a, #101
  8017ce:	f0          	movx @dptr, a
  8017cf:	90 02 75    	mov dptr, #629
  8017d2:	74 72       	mov a, #114
  8017d4:	f0          	movx @dptr, a
  8017d5:	90 02 76    	mov dptr, #630
  8017d8:	74 73       	mov a, #115
  8017da:	f0          	movx @dptr, a
  8017db:	90 02 77    	mov dptr, #631
  8017de:	74 2f       	mov a, #47
  8017e0:	f0          	movx @dptr, a
  8017e1:	90 02 78    	mov dptr, #632
  8017e4:	74 43       	mov a, #67
  8017e6:	f0          	movx @dptr, a
  8017e7:	90 02 79    	mov dptr, #633
  8017ea:	74 6f       	mov a, #111
  8017ec:	f0          	movx @dptr, a
  8017ed:	90 02 7a    	mov dptr, #634
  8017f0:	74 72       	mov a, #114
  8017f2:	f0          	movx @dptr, a
  8017f3:	90 02 7b    	mov dptr, #635
  8017f6:	74 65       	mov a, #101
  8017f8:	f0          	movx @dptr, a
  8017f9:	90 02 7c    	mov dptr, #636
  8017fc:	74 55       	mov a, #85
  8017fe:	f0          	movx @dptr, a
  8017ff:	90 02 7d    	mov dptr, #637
  801802:	74 41       	mov a, #65
  801804:	f0          	movx @dptr, a
  801805:	90 02 7e    	mov dptr, #638
  801808:	74 52       	mov a, #82
  80180a:	f0          	movx @dptr, a
  80180b:	90 02 7f    	mov dptr, #639
  80180e:	74 54       	mov a, #84
  801810:	f0          	movx @dptr, a
  801811:	90 02 80    	mov dptr, #640
  801814:	74 61       	mov a, #97
  801816:	f0          	movx @dptr, a
  801817:	90 02 81    	mov dptr, #641
  80181a:	74 70       	mov a, #112
  80181c:	f0          	movx @dptr, a
  80181d:	90 02 82    	mov dptr, #642
  801820:	74 62       	mov a, #98
  801822:	f0          	movx @dptr, a
  801823:	90 02 83    	mov dptr, #643
  801826:	74 2f       	mov a, #47
  801828:	f0          	movx @dptr, a
  801829:	90 02 84    	mov dptr, #644
  80182c:	74 63       	mov a, #99
  80182e:	f0          	movx @dptr, a
  80182f:	90 02 85    	mov dptr, #645
  801832:	74 6f       	mov a, #111
  801834:	f0          	movx @dptr, a
  801835:	90 02 86    	mov dptr, #646
  801838:	74 72       	mov a, #114
  80183a:	f0          	movx @dptr, a
  80183b:	90 02 87    	mov dptr, #647
  80183e:	74 65       	mov a, #101
  801840:	f0          	movx @dptr, a
  801841:	90 02 88    	mov dptr, #648
  801844:	74 5f       	mov a, #95
  801846:	f0          	movx @dptr, a
  801847:	90 02 89    	mov dptr, #649
  80184a:	74 75       	mov a, #117
  80184c:	f0          	movx @dptr, a
  80184d:	90 02 8a    	mov dptr, #650
  801850:	74 61       	mov a, #97
  801852:	f0          	movx @dptr, a
  801853:	90 02 8b    	mov dptr, #651
  801856:	74 72       	mov a, #114
  801858:	f0          	movx @dptr, a
  801859:	90 02 8c    	mov dptr, #652
  80185c:	74 74       	mov a, #116
  80185e:	f0          	movx @dptr, a
  80185f:	90 02 8d    	mov dptr, #653
  801862:	74 5f       	mov a, #95
  801864:	f0          	movx @dptr, a
  801865:	90 02 8e    	mov dptr, #654
  801868:	74 61       	mov a, #97
  80186a:	f0          	movx @dptr, a
  80186b:	90 02 8f    	mov dptr, #655
  80186e:	74 70       	mov a, #112
  801870:	f0          	movx @dptr, a
  801871:	90 02 90    	mov dptr, #656
  801874:	74 62       	mov a, #98
  801876:	f0          	movx @dptr, a
  801877:	90 02 91    	mov dptr, #657
  80187a:	74 2e       	mov a, #46
  80187c:	f0          	movx @dptr, a
  80187d:	90 02 92    	mov dptr, #658
  801880:	74 63       	mov a, #99
  801882:	f0          	movx @dptr, a
  801883:	90 02 93    	mov dptr, #659
  801886:	74 00       	mov a, #0
  801888:	f0          	movx @dptr, a
  801889:	90 00 8c    	mov dptr, #140
  80188c:	74 54       	mov a, #84
  80188e:	f0          	movx @dptr, a
  80188f:	e4          	clr a
  801890:	a3          	inc dptr
  801891:	f0          	movx @dptr, a
  801892:	a3          	inc dptr
  801893:	f0          	movx @dptr, a
  801894:	a3          	inc dptr
  801895:	f0          	movx @dptr, a
  801896:	75 82 6d    	mov dpl, #109
  801899:	75 83 02    	mov dph, #2
  80189c:	75 f0 00    	mov b, #0
  80189f:	c0 06       	push 0x06
  8018a1:	12 05 f6    	lcall 8005f6 <HAL_assert_fail>
  8018a4:	d0 06       	pop 0x06
  8018a6:	ee          	mov a, r6
  8018a7:	b5 24 03    	cjne a, 0x24, 8018ad
  8018aa:	02 19 b0    	ljmp 8019b0 <UART_init+0x6b4>
  8018ad:	90 02 94    	mov dptr, #660
  8018b0:	74 2e       	mov a, #46
  8018b2:	f0          	movx @dptr, a
  8018b3:	90 02 95    	mov dptr, #661
  8018b6:	74 2e       	mov a, #46
  8018b8:	f0          	movx @dptr, a
  8018b9:	90 02 96    	mov dptr, #662
  8018bc:	74 2f       	mov a, #47
  8018be:	f0          	movx @dptr, a
  8018bf:	90 02 97    	mov dptr, #663
  8018c2:	74 64       	mov a, #100
  8018c4:	f0          	movx @dptr, a
  8018c5:	90 02 98    	mov dptr, #664
  8018c8:	74 72       	mov a, #114
  8018ca:	f0          	movx @dptr, a
  8018cb:	90 02 99    	mov dptr, #665
  8018ce:	74 69       	mov a, #105
  8018d0:	f0          	movx @dptr, a
  8018d1:	90 02 9a    	mov dptr, #666
  8018d4:	74 76       	mov a, #118
  8018d6:	f0          	movx @dptr, a
  8018d7:	90 02 9b    	mov dptr, #667
  8018da:	74 65       	mov a, #101
  8018dc:	f0          	movx @dptr, a
  8018dd:	90 02 9c    	mov dptr, #668
  8018e0:	74 72       	mov a, #114
  8018e2:	f0          	movx @dptr, a
  8018e3:	90 02 9d    	mov dptr, #669
  8018e6:	74 73       	mov a, #115
  8018e8:	f0          	movx @dptr, a
  8018e9:	90 02 9e    	mov dptr, #670
  8018ec:	74 2f       	mov a, #47
  8018ee:	f0          	movx @dptr, a
  8018ef:	90 02 9f    	mov dptr, #671
  8018f2:	74 43       	mov a, #67
  8018f4:	f0          	movx @dptr, a
  8018f5:	90 02 a0    	mov dptr, #672
  8018f8:	74 6f       	mov a, #111
  8018fa:	f0          	movx @dptr, a
  8018fb:	90 02 a1    	mov dptr, #673
  8018fe:	74 72       	mov a, #114
  801900:	f0          	movx @dptr, a
  801901:	90 02 a2    	mov dptr, #674
  801904:	74 65       	mov a, #101
  801906:	f0          	movx @dptr, a
  801907:	90 02 a3    	mov dptr, #675
  80190a:	74 55       	mov a, #85
  80190c:	f0          	movx @dptr, a
  80190d:	90 02 a4    	mov dptr, #676
  801910:	74 41       	mov a, #65
  801912:	f0          	movx @dptr, a
  801913:	90 02 a5    	mov dptr, #677
  801916:	74 52       	mov a, #82
  801918:	f0          	movx @dptr, a
  801919:	90 02 a6    	mov dptr, #678
  80191c:	74 54       	mov a, #84
  80191e:	f0          	movx @dptr, a
  80191f:	90 02 a7    	mov dptr, #679
  801922:	74 61       	mov a, #97
  801924:	f0          	movx @dptr, a
  801925:	90 02 a8    	mov dptr, #680
  801928:	74 70       	mov a, #112
  80192a:	f0          	movx @dptr, a
  80192b:	90 02 a9    	mov dptr, #681
  80192e:	74 62       	mov a, #98
  801930:	f0          	movx @dptr, a
  801931:	90 02 aa    	mov dptr, #682
  801934:	74 2f       	mov a, #47
  801936:	f0          	movx @dptr, a
  801937:	90 02 ab    	mov dptr, #683
  80193a:	74 63       	mov a, #99
  80193c:	f0          	movx @dptr, a
  80193d:	90 02 ac    	mov dptr, #684
  801940:	74 6f       	mov a, #111
  801942:	f0          	movx @dptr, a
  801943:	90 02 ad    	mov dptr, #685
  801946:	74 72       	mov a, #114
  801948:	f0          	movx @dptr, a
  801949:	90 02 ae    	mov dptr, #686
  80194c:	74 65       	mov a, #101
  80194e:	f0          	movx @dptr, a
  80194f:	90 02 af    	mov dptr, #687
  801952:	74 5f       	mov a, #95
  801954:	f0          	movx @dptr, a
  801955:	90 02 b0    	mov dptr, #688
  801958:	74 75       	mov a, #117
  80195a:	f0          	movx @dptr, a
  80195b:	90 02 b1    	mov dptr, #689
  80195e:	74 61       	mov a, #97
  801960:	f0          	movx @dptr, a
  801961:	90 02 b2    	mov dptr, #690
  801964:	74 72       	mov a, #114
  801966:	f0          	movx @dptr, a
  801967:	90 02 b3    	mov dptr, #691
  80196a:	74 74       	mov a, #116
  80196c:	f0          	movx @dptr, a
  80196d:	90 02 b4    	mov dptr, #692
  801970:	74 5f       	mov a, #95
  801972:	f0          	movx @dptr, a
  801973:	90 02 b5    	mov dptr, #693
  801976:	74 61       	mov a, #97
  801978:	f0          	movx @dptr, a
  801979:	90 02 b6    	mov dptr, #694
  80197c:	74 70       	mov a, #112
  80197e:	f0          	movx @dptr, a
  80197f:	90 02 b7    	mov dptr, #695
  801982:	74 62       	mov a, #98
  801984:	f0          	movx @dptr, a
  801985:	90 02 b8    	mov dptr, #696
  801988:	74 2e       	mov a, #46
  80198a:	f0          	movx @dptr, a
  80198b:	90 02 b9    	mov dptr, #697
  80198e:	74 63       	mov a, #99
  801990:	f0          	movx @dptr, a
  801991:	90 02 ba    	mov dptr, #698
  801994:	74 00       	mov a, #0
  801996:	f0          	movx @dptr, a
  801997:	90 00 8c    	mov dptr, #140
  80199a:	74 55       	mov a, #85
  80199c:	f0          	movx @dptr, a
  80199d:	e4          	clr a
  80199e:	a3          	inc dptr
  80199f:	f0          	movx @dptr, a
  8019a0:	a3          	inc dptr
  8019a1:	f0          	movx @dptr, a
  8019a2:	a3          	inc dptr
  8019a3:	f0          	movx @dptr, a
  8019a4:	75 82 94    	mov dpl, #148
  8019a7:	75 83 02    	mov dph, #2
  8019aa:	75 f0 00    	mov b, #0
  8019ad:	12 05 f6    	lcall 8005f6 <HAL_assert_fail>
  8019b0:	90 01 f4    	mov dptr, #500
  8019b3:	e0          	movx a, @dptr
  8019b4:	fa          	mov r2, a
  8019b5:	a3          	inc dptr
  8019b6:	e0          	movx a, @dptr
  8019b7:	fb          	mov r3, a
  8019b8:	a3          	inc dptr
  8019b9:	e0          	movx a, @dptr
  8019ba:	fc          	mov r4, a
  8019bb:	8a 82       	mov dpl, r2
  8019bd:	8b 83       	mov dph, r3
  8019bf:	8c f0       	mov b, r4
  8019c1:	12 61 48    	lcall 806148 <GPIO_clear_irq+0x2c9>
  8019c4:	fd          	mov r5, a
  8019c5:	a3          	inc dptr
  8019c6:	12 61 48    	lcall 806148 <GPIO_clear_irq+0x2c9>
  8019c9:	fe          	mov r6, a
  8019ca:	74 10       	mov a, #16
  8019cc:	25 05       	add a, 0x05
  8019ce:	fd          	mov r5, a
  8019cf:	74 00       	mov a, #0
  8019d1:	35 06       	addc a, 0x06
  8019d3:	fe          	mov r6, a
  8019d4:	8d 82       	mov dpl, r5
  8019d6:	8e 83       	mov dph, r6
  8019d8:	c0 02       	push 0x02
  8019da:	c0 03       	push 0x03
  8019dc:	c0 04       	push 0x04
  8019de:	12 06 a7    	lcall 8006a7 <HW_get_8bit_reg>
  8019e1:	ad 82       	mov r5, dpl
  8019e3:	d0 04       	pop 0x04
  8019e5:	d0 03       	pop 0x03
  8019e7:	d0 02       	pop 0x02
  8019e9:	7e 00       	mov r6, #0
  8019eb:	53 05 02    	anl 0x05, #2
  8019ee:	7e 00       	mov r6, #0
  8019f0:	90 01 f7    	mov dptr, #503
  8019f3:	ed          	mov a, r5
  8019f4:	f0          	movx @dptr, a
  8019f5:	90 01 f7    	mov dptr, #503
  8019f8:	e0          	movx a, @dptr
  8019f9:	fd          	mov r5, a
  8019fa:	ed          	mov a, r5
  8019fb:	70 03       	jnz 801a00
  8019fd:	02 1a 6f    	ljmp 801a6f <UART_init+0x773>
  801a00:	8a 82       	mov dpl, r2
  801a02:	8b 83       	mov dph, r3
  801a04:	8c f0       	mov b, r4
  801a06:	12 61 48    	lcall 806148 <GPIO_clear_irq+0x2c9>
  801a09:	fd          	mov r5, a
  801a0a:	a3          	inc dptr
  801a0b:	12 61 48    	lcall 806148 <GPIO_clear_irq+0x2c9>
  801a0e:	fe          	mov r6, a
  801a0f:	74 04       	mov a, #4
  801a11:	25 05       	add a, 0x05
  801a13:	fd          	mov r5, a
  801a14:	74 00       	mov a, #0
  801a16:	35 06       	addc a, 0x06
  801a18:	fe          	mov r6, a
  801a19:	8d 82       	mov dpl, r5
  801a1b:	8e 83       	mov dph, r6
  801a1d:	c0 02       	push 0x02
  801a1f:	c0 03       	push 0x03
  801a21:	c0 04       	push 0x04
  801a23:	12 06 a7    	lcall 8006a7 <HW_get_8bit_reg>
  801a26:	e5 82       	mov a, dpl
  801a28:	d0 04       	pop 0x04
  801a2a:	d0 03       	pop 0x03
  801a2c:	d0 02       	pop 0x02
  801a2e:	90 02 bb    	mov dptr, #699
  801a31:	f0          	movx @dptr, a
  801a32:	8a 82       	mov dpl, r2
  801a34:	8b 83       	mov dph, r3
  801a36:	8c f0       	mov b, r4
  801a38:	12 61 48    	lcall 806148 <GPIO_clear_irq+0x2c9>
  801a3b:	fd          	mov r5, a
  801a3c:	a3          	inc dptr
  801a3d:	12 61 48    	lcall 806148 <GPIO_clear_irq+0x2c9>
  801a40:	fe          	mov r6, a
  801a41:	74 10       	mov a, #16
  801a43:	25 05       	add a, 0x05
  801a45:	fd          	mov r5, a
  801a46:	74 00       	mov a, #0
  801a48:	35 06       	addc a, 0x06
  801a4a:	fe          	mov r6, a
  801a4b:	8d 82       	mov dpl, r5
  801a4d:	8e 83       	mov dph, r6
  801a4f:	c0 02       	push 0x02
  801a51:	c0 03       	push 0x03
  801a53:	c0 04       	push 0x04
  801a55:	12 06 a7    	lcall 8006a7 <HW_get_8bit_reg>
  801a58:	ad 82       	mov r5, dpl
  801a5a:	d0 04       	pop 0x04
  801a5c:	d0 03       	pop 0x03
  801a5e:	d0 02       	pop 0x02
  801a60:	7e 00       	mov r6, #0
  801a62:	53 05 02    	anl 0x05, #2
  801a65:	7e 00       	mov r6, #0
  801a67:	90 01 f7    	mov dptr, #503
  801a6a:	ed          	mov a, r5
  801a6b:	f0          	movx @dptr, a
  801a6c:	02 19 f5    	ljmp 8019f5 <UART_init+0x6f9>
  801a6f:	90 01 f4    	mov dptr, #500
  801a72:	e0          	movx a, @dptr
  801a73:	fa          	mov r2, a
  801a74:	a3          	inc dptr
  801a75:	e0          	movx a, @dptr
  801a76:	fb          	mov r3, a
  801a77:	a3          	inc dptr
  801a78:	e0          	movx a, @dptr
  801a79:	fc          	mov r4, a
  801a7a:	74 02       	mov a, #2
  801a7c:	25 02       	add a, 0x02
  801a7e:	fa          	mov r2, a
  801a7f:	74 00       	mov a, #0
  801a81:	35 03       	addc a, 0x03
  801a83:	fb          	mov r3, a
  801a84:	8a 82       	mov dpl, r2
  801a86:	8b 83       	mov dph, r3
  801a88:	8c f0       	mov b, r4
  801a8a:	74 00       	mov a, #0
  801a8c:	12 61 2f    	lcall 80612f <GPIO_clear_irq+0x2b0>
  801a8f:	22          	ret

00801a90 <UART_send>:
  801a90:	aa f0       	mov r2, b
  801a92:	ab 83       	mov r3, dph
  801a94:	e5 82       	mov a, dpl
  801a96:	90 02 c1    	mov dptr, #705
  801a99:	f0          	movx @dptr, a
  801a9a:	a3          	inc dptr
  801a9b:	eb          	mov a, r3
  801a9c:	f0          	movx @dptr, a
  801a9d:	a3          	inc dptr
  801a9e:	ea          	mov a, r2
  801a9f:	f0          	movx @dptr, a
  801aa0:	90 02 c1    	mov dptr, #705
  801aa3:	e0          	movx a, @dptr
  801aa4:	fa          	mov r2, a
  801aa5:	a3          	inc dptr
  801aa6:	e0          	movx a, @dptr
  801aa7:	fb          	mov r3, a
  801aa8:	a3          	inc dptr
  801aa9:	e0          	movx a, @dptr
  801aaa:	fc          	mov r4, a
  801aab:	ba 00 08    	cjne r2, #0, 801ab6
  801aae:	bb 00 05    	cjne r3, #0, 801ab6
  801ab1:	bc 00 02    	cjne r4, #0, 801ab6
  801ab4:	80 03       	sjmp 801ab9
  801ab6:	02 1b bc    	ljmp 801bbc <UART_send+0x12c>
  801ab9:	90 02 c6    	mov dptr, #710
  801abc:	74 2e       	mov a, #46
  801abe:	f0          	movx @dptr, a
  801abf:	90 02 c7    	mov dptr, #711
  801ac2:	74 2e       	mov a, #46
  801ac4:	f0          	movx @dptr, a
  801ac5:	90 02 c8    	mov dptr, #712
  801ac8:	74 2f       	mov a, #47
  801aca:	f0          	movx @dptr, a
  801acb:	90 02 c9    	mov dptr, #713
  801ace:	74 64       	mov a, #100
  801ad0:	f0          	movx @dptr, a
  801ad1:	90 02 ca    	mov dptr, #714
  801ad4:	74 72       	mov a, #114
  801ad6:	f0          	movx @dptr, a
  801ad7:	90 02 cb    	mov dptr, #715
  801ada:	74 69       	mov a, #105
  801adc:	f0          	movx @dptr, a
  801add:	90 02 cc    	mov dptr, #716
  801ae0:	74 76       	mov a, #118
  801ae2:	f0          	movx @dptr, a
  801ae3:	90 02 cd    	mov dptr, #717
  801ae6:	74 65       	mov a, #101
  801ae8:	f0          	movx @dptr, a
  801ae9:	90 02 ce    	mov dptr, #718
  801aec:	74 72       	mov a, #114
  801aee:	f0          	movx @dptr, a
  801aef:	90 02 cf    	mov dptr, #719
  801af2:	74 73       	mov a, #115
  801af4:	f0          	movx @dptr, a
  801af5:	90 02 d0    	mov dptr, #720
  801af8:	74 2f       	mov a, #47
  801afa:	f0          	movx @dptr, a
  801afb:	90 02 d1    	mov dptr, #721
  801afe:	74 43       	mov a, #67
  801b00:	f0          	movx @dptr, a
  801b01:	90 02 d2    	mov dptr, #722
  801b04:	74 6f       	mov a, #111
  801b06:	f0          	movx @dptr, a
  801b07:	90 02 d3    	mov dptr, #723
  801b0a:	74 72       	mov a, #114
  801b0c:	f0          	movx @dptr, a
  801b0d:	90 02 d4    	mov dptr, #724
  801b10:	74 65       	mov a, #101
  801b12:	f0          	movx @dptr, a
  801b13:	90 02 d5    	mov dptr, #725
  801b16:	74 55       	mov a, #85
  801b18:	f0          	movx @dptr, a
  801b19:	90 02 d6    	mov dptr, #726
  801b1c:	74 41       	mov a, #65
  801b1e:	f0          	movx @dptr, a
  801b1f:	90 02 d7    	mov dptr, #727
  801b22:	74 52       	mov a, #82
  801b24:	f0          	movx @dptr, a
  801b25:	90 02 d8    	mov dptr, #728
  801b28:	74 54       	mov a, #84
  801b2a:	f0          	movx @dptr, a
  801b2b:	90 02 d9    	mov dptr, #729
  801b2e:	74 61       	mov a, #97
  801b30:	f0          	movx @dptr, a
  801b31:	90 02 da    	mov dptr, #730
  801b34:	74 70       	mov a, #112
  801b36:	f0          	movx @dptr, a
  801b37:	90 02 db    	mov dptr, #731
  801b3a:	74 62       	mov a, #98
  801b3c:	f0          	movx @dptr, a
  801b3d:	90 02 dc    	mov dptr, #732
  801b40:	74 2f       	mov a, #47
  801b42:	f0          	movx @dptr, a
  801b43:	90 02 dd    	mov dptr, #733
  801b46:	74 63       	mov a, #99
  801b48:	f0          	movx @dptr, a
  801b49:	90 02 de    	mov dptr, #734
  801b4c:	74 6f       	mov a, #111
  801b4e:	f0          	movx @dptr, a
  801b4f:	90 02 df    	mov dptr, #735
  801b52:	74 72       	mov a, #114
  801b54:	f0          	movx @dptr, a
  801b55:	90 02 e0    	mov dptr, #736
  801b58:	74 65       	mov a, #101
  801b5a:	f0          	movx @dptr, a
  801b5b:	90 02 e1    	mov dptr, #737
  801b5e:	74 5f       	mov a, #95
  801b60:	f0          	movx @dptr, a
  801b61:	90 02 e2    	mov dptr, #738
  801b64:	74 75       	mov a, #117
  801b66:	f0          	movx @dptr, a
  801b67:	90 02 e3    	mov dptr, #739
  801b6a:	74 61       	mov a, #97
  801b6c:	f0          	movx @dptr, a
  801b6d:	90 02 e4    	mov dptr, #740
  801b70:	74 72       	mov a, #114
  801b72:	f0          	movx @dptr, a
  801b73:	90 02 e5    	mov dptr, #741
  801b76:	74 74       	mov a, #116
  801b78:	f0          	movx @dptr, a
  801b79:	90 02 e6    	mov dptr, #742
  801b7c:	74 5f       	mov a, #95
  801b7e:	f0          	movx @dptr, a
  801b7f:	90 02 e7    	mov dptr, #743
  801b82:	74 61       	mov a, #97
  801b84:	f0          	movx @dptr, a
  801b85:	90 02 e8    	mov dptr, #744
  801b88:	74 70       	mov a, #112
  801b8a:	f0          	movx @dptr, a
  801b8b:	90 02 e9    	mov dptr, #745
  801b8e:	74 62       	mov a, #98
  801b90:	f0          	movx @dptr, a
  801b91:	90 02 ea    	mov dptr, #746
  801b94:	74 2e       	mov a, #46
  801b96:	f0          	movx @dptr, a
  801b97:	90 02 eb    	mov dptr, #747
  801b9a:	74 63       	mov a, #99
  801b9c:	f0          	movx @dptr, a
  801b9d:	90 02 ec    	mov dptr, #748
  801ba0:	74 00       	mov a, #0
  801ba2:	f0          	movx @dptr, a
  801ba3:	90 00 8c    	mov dptr, #140
  801ba6:	74 7d       	mov a, #125
  801ba8:	f0          	movx @dptr, a
  801ba9:	e4          	clr a
  801baa:	a3          	inc dptr
  801bab:	f0          	movx @dptr, a
  801bac:	a3          	inc dptr
  801bad:	f0          	movx @dptr, a
  801bae:	a3          	inc dptr
  801baf:	f0          	movx @dptr, a
  801bb0:	75 82 c6    	mov dpl, #198
  801bb3:	75 83 02    	mov dph, #2
  801bb6:	75 f0 00    	mov b, #0
  801bb9:	12 05 f6    	lcall 8005f6 <HAL_assert_fail>
  801bbc:	90 02 bc    	mov dptr, #700
  801bbf:	e0          	movx a, @dptr
  801bc0:	f5 2e       	mov 0x2e, a
  801bc2:	a3          	inc dptr
  801bc3:	e0          	movx a, @dptr
  801bc4:	f5 2f       	mov 0x2f, a
  801bc6:	a3          	inc dptr
  801bc7:	e0          	movx a, @dptr
  801bc8:	f5 30       	mov 0x30, a
  801bca:	e5 2e       	mov a, 0x2e
  801bcc:	70 0c       	jnz 801bda
  801bce:	e5 2f       	mov a, 0x2f
  801bd0:	70 08       	jnz 801bda
  801bd2:	e5 30       	mov a, 0x30
  801bd4:	70 04       	jnz 801bda
  801bd6:	74 01       	mov a, #1
  801bd8:	80 01       	sjmp 801bdb
  801bda:	e4          	clr a
  801bdb:	fd          	mov r5, a
  801bdc:	ed          	mov a, r5
  801bdd:	70 03       	jnz 801be2
  801bdf:	02 1c e9    	ljmp 801ce9 <UART_send+0x259>
  801be2:	90 02 ed    	mov dptr, #749
  801be5:	74 2e       	mov a, #46
  801be7:	f0          	movx @dptr, a
  801be8:	90 02 ee    	mov dptr, #750
  801beb:	74 2e       	mov a, #46
  801bed:	f0          	movx @dptr, a
  801bee:	90 02 ef    	mov dptr, #751
  801bf1:	74 2f       	mov a, #47
  801bf3:	f0          	movx @dptr, a
  801bf4:	90 02 f0    	mov dptr, #752
  801bf7:	74 64       	mov a, #100
  801bf9:	f0          	movx @dptr, a
  801bfa:	90 02 f1    	mov dptr, #753
  801bfd:	74 72       	mov a, #114
  801bff:	f0          	movx @dptr, a
  801c00:	90 02 f2    	mov dptr, #754
  801c03:	74 69       	mov a, #105
  801c05:	f0          	movx @dptr, a
  801c06:	90 02 f3    	mov dptr, #755
  801c09:	74 76       	mov a, #118
  801c0b:	f0          	movx @dptr, a
  801c0c:	90 02 f4    	mov dptr, #756
  801c0f:	74 65       	mov a, #101
  801c11:	f0          	movx @dptr, a
  801c12:	90 02 f5    	mov dptr, #757
  801c15:	74 72       	mov a, #114
  801c17:	f0          	movx @dptr, a
  801c18:	90 02 f6    	mov dptr, #758
  801c1b:	74 73       	mov a, #115
  801c1d:	f0          	movx @dptr, a
  801c1e:	90 02 f7    	mov dptr, #759
  801c21:	74 2f       	mov a, #47
  801c23:	f0          	movx @dptr, a
  801c24:	90 02 f8    	mov dptr, #760
  801c27:	74 43       	mov a, #67
  801c29:	f0          	movx @dptr, a
  801c2a:	90 02 f9    	mov dptr, #761
  801c2d:	74 6f       	mov a, #111
  801c2f:	f0          	movx @dptr, a
  801c30:	90 02 fa    	mov dptr, #762
  801c33:	74 72       	mov a, #114
  801c35:	f0          	movx @dptr, a
  801c36:	90 02 fb    	mov dptr, #763
  801c39:	74 65       	mov a, #101
  801c3b:	f0          	movx @dptr, a
  801c3c:	90 02 fc    	mov dptr, #764
  801c3f:	74 55       	mov a, #85
  801c41:	f0          	movx @dptr, a
  801c42:	90 02 fd    	mov dptr, #765
  801c45:	74 41       	mov a, #65
  801c47:	f0          	movx @dptr, a
  801c48:	90 02 fe    	mov dptr, #766
  801c4b:	74 52       	mov a, #82
  801c4d:	f0          	movx @dptr, a
  801c4e:	90 02 ff    	mov dptr, #767
  801c51:	74 54       	mov a, #84
  801c53:	f0          	movx @dptr, a
  801c54:	90 03 00    	mov dptr, #768
  801c57:	74 61       	mov a, #97
  801c59:	f0          	movx @dptr, a
  801c5a:	90 03 01    	mov dptr, #769
  801c5d:	74 70       	mov a, #112
  801c5f:	f0          	movx @dptr, a
  801c60:	90 03 02    	mov dptr, #770
  801c63:	74 62       	mov a, #98
  801c65:	f0          	movx @dptr, a
  801c66:	90 03 03    	mov dptr, #771
  801c69:	74 2f       	mov a, #47
  801c6b:	f0          	movx @dptr, a
  801c6c:	90 03 04    	mov dptr, #772
  801c6f:	74 63       	mov a, #99
  801c71:	f0          	movx @dptr, a
  801c72:	90 03 05    	mov dptr, #773
  801c75:	74 6f       	mov a, #111
  801c77:	f0          	movx @dptr, a
  801c78:	90 03 06    	mov dptr, #774
  801c7b:	74 72       	mov a, #114
  801c7d:	f0          	movx @dptr, a
  801c7e:	90 03 07    	mov dptr, #775
  801c81:	74 65       	mov a, #101
  801c83:	f0          	movx @dptr, a
  801c84:	90 03 08    	mov dptr, #776
  801c87:	74 5f       	mov a, #95
  801c89:	f0          	movx @dptr, a
  801c8a:	90 03 09    	mov dptr, #777
  801c8d:	74 75       	mov a, #117
  801c8f:	f0          	movx @dptr, a
  801c90:	90 03 0a    	mov dptr, #778
  801c93:	74 61       	mov a, #97
  801c95:	f0          	movx @dptr, a
  801c96:	90 03 0b    	mov dptr, #779
  801c99:	74 72       	mov a, #114
  801c9b:	f0          	movx @dptr, a
  801c9c:	90 03 0c    	mov dptr, #780
  801c9f:	74 74       	mov a, #116
  801ca1:	f0          	movx @dptr, a
  801ca2:	90 03 0d    	mov dptr, #781
  801ca5:	74 5f       	mov a, #95
  801ca7:	f0          	movx @dptr, a
  801ca8:	90 03 0e    	mov dptr, #782
  801cab:	74 61       	mov a, #97
  801cad:	f0          	movx @dptr, a
  801cae:	90 03 0f    	mov dptr, #783
  801cb1:	74 70       	mov a, #112
  801cb3:	f0          	movx @dptr, a
  801cb4:	90 03 10    	mov dptr, #784
  801cb7:	74 62       	mov a, #98
  801cb9:	f0          	movx @dptr, a
  801cba:	90 03 11    	mov dptr, #785
  801cbd:	74 2e       	mov a, #46
  801cbf:	f0          	movx @dptr, a
  801cc0:	90 03 12    	mov dptr, #786
  801cc3:	74 63       	mov a, #99
  801cc5:	f0          	movx @dptr, a
  801cc6:	90 03 13    	mov dptr, #787
  801cc9:	74 00       	mov a, #0
  801ccb:	f0          	movx @dptr, a
  801ccc:	90 00 8c    	mov dptr, #140
  801ccf:	74 7e       	mov a, #126
  801cd1:	f0          	movx @dptr, a
  801cd2:	e4          	clr a
  801cd3:	a3          	inc dptr
  801cd4:	f0          	movx @dptr, a
  801cd5:	a3          	inc dptr
  801cd6:	f0          	movx @dptr, a
  801cd7:	a3          	inc dptr
  801cd8:	f0          	movx @dptr, a
  801cd9:	75 82 ed    	mov dpl, #237
  801cdc:	75 83 02    	mov dph, #2
  801cdf:	75 f0 00    	mov b, #0
  801ce2:	c0 05       	push 0x05
  801ce4:	12 05 f6    	lcall 8005f6 <HAL_assert_fail>
  801ce7:	d0 05       	pop 0x05
  801ce9:	90 02 bf    	mov dptr, #703
  801cec:	e0          	movx a, @dptr
  801ced:	fe          	mov r6, a
  801cee:	a3          	inc dptr
  801cef:	e0          	movx a, @dptr
  801cf0:	ff          	mov r7, a
  801cf1:	ee          	mov a, r6
  801cf2:	4f          	orl a, r7
  801cf3:	60 03       	jz 801cf8
  801cf5:	02 1e 07    	ljmp 801e07 <UART_send+0x377>
  801cf8:	90 03 14    	mov dptr, #788
  801cfb:	74 2e       	mov a, #46
  801cfd:	f0          	movx @dptr, a
  801cfe:	90 03 15    	mov dptr, #789
  801d01:	74 2e       	mov a, #46
  801d03:	f0          	movx @dptr, a
  801d04:	90 03 16    	mov dptr, #790
  801d07:	74 2f       	mov a, #47
  801d09:	f0          	movx @dptr, a
  801d0a:	90 03 17    	mov dptr, #791
  801d0d:	74 64       	mov a, #100
  801d0f:	f0          	movx @dptr, a
  801d10:	90 03 18    	mov dptr, #792
  801d13:	74 72       	mov a, #114
  801d15:	f0          	movx @dptr, a
  801d16:	90 03 19    	mov dptr, #793
  801d19:	74 69       	mov a, #105
  801d1b:	f0          	movx @dptr, a
  801d1c:	90 03 1a    	mov dptr, #794
  801d1f:	74 76       	mov a, #118
  801d21:	f0          	movx @dptr, a
  801d22:	90 03 1b    	mov dptr, #795
  801d25:	74 65       	mov a, #101
  801d27:	f0          	movx @dptr, a
  801d28:	90 03 1c    	mov dptr, #796
  801d2b:	74 72       	mov a, #114
  801d2d:	f0          	movx @dptr, a
  801d2e:	90 03 1d    	mov dptr, #797
  801d31:	74 73       	mov a, #115
  801d33:	f0          	movx @dptr, a
  801d34:	90 03 1e    	mov dptr, #798
  801d37:	74 2f       	mov a, #47
  801d39:	f0          	movx @dptr, a
  801d3a:	90 03 1f    	mov dptr, #799
  801d3d:	74 43       	mov a, #67
  801d3f:	f0          	movx @dptr, a
  801d40:	90 03 20    	mov dptr, #800
  801d43:	74 6f       	mov a, #111
  801d45:	f0          	movx @dptr, a
  801d46:	90 03 21    	mov dptr, #801
  801d49:	74 72       	mov a, #114
  801d4b:	f0          	movx @dptr, a
  801d4c:	90 03 22    	mov dptr, #802
  801d4f:	74 65       	mov a, #101
  801d51:	f0          	movx @dptr, a
  801d52:	90 03 23    	mov dptr, #803
  801d55:	74 55       	mov a, #85
  801d57:	f0          	movx @dptr, a
  801d58:	90 03 24    	mov dptr, #804
  801d5b:	74 41       	mov a, #65
  801d5d:	f0          	movx @dptr, a
  801d5e:	90 03 25    	mov dptr, #805
  801d61:	74 52       	mov a, #82
  801d63:	f0          	movx @dptr, a
  801d64:	90 03 26    	mov dptr, #806
  801d67:	74 54       	mov a, #84
  801d69:	f0          	movx @dptr, a
  801d6a:	90 03 27    	mov dptr, #807
  801d6d:	74 61       	mov a, #97
  801d6f:	f0          	movx @dptr, a
  801d70:	90 03 28    	mov dptr, #808
  801d73:	74 70       	mov a, #112
  801d75:	f0          	movx @dptr, a
  801d76:	90 03 29    	mov dptr, #809
  801d79:	74 62       	mov a, #98
  801d7b:	f0          	movx @dptr, a
  801d7c:	90 03 2a    	mov dptr, #810
  801d7f:	74 2f       	mov a, #47
  801d81:	f0          	movx @dptr, a
  801d82:	90 03 2b    	mov dptr, #811
  801d85:	74 63       	mov a, #99
  801d87:	f0          	movx @dptr, a
  801d88:	90 03 2c    	mov dptr, #812
  801d8b:	74 6f       	mov a, #111
  801d8d:	f0          	movx @dptr, a
  801d8e:	90 03 2d    	mov dptr, #813
  801d91:	74 72       	mov a, #114
  801d93:	f0          	movx @dptr, a
  801d94:	90 03 2e    	mov dptr, #814
  801d97:	74 65       	mov a, #101
  801d99:	f0          	movx @dptr, a
  801d9a:	90 03 2f    	mov dptr, #815
  801d9d:	74 5f       	mov a, #95
  801d9f:	f0          	movx @dptr, a
  801da0:	90 03 30    	mov dptr, #816
  801da3:	74 75       	mov a, #117
  801da5:	f0          	movx @dptr, a
  801da6:	90 03 31    	mov dptr, #817
  801da9:	74 61       	mov a, #97
  801dab:	f0          	movx @dptr, a
  801dac:	90 03 32    	mov dptr, #818
  801daf:	74 72       	mov a, #114
  801db1:	f0          	movx @dptr, a
  801db2:	90 03 33    	mov dptr, #819
  801db5:	74 74       	mov a, #116
  801db7:	f0          	movx @dptr, a
  801db8:	90 03 34    	mov dptr, #820
  801dbb:	74 5f       	mov a, #95
  801dbd:	f0          	movx @dptr, a
  801dbe:	90 03 35    	mov dptr, #821
  801dc1:	74 61       	mov a, #97
  801dc3:	f0          	movx @dptr, a
  801dc4:	90 03 36    	mov dptr, #822
  801dc7:	74 70       	mov a, #112
  801dc9:	f0          	movx @dptr, a
  801dca:	90 03 37    	mov dptr, #823
  801dcd:	74 62       	mov a, #98
  801dcf:	f0          	movx @dptr, a
  801dd0:	90 03 38    	mov dptr, #824
  801dd3:	74 2e       	mov a, #46
  801dd5:	f0          	movx @dptr, a
  801dd6:	90 03 39    	mov dptr, #825
  801dd9:	74 63       	mov a, #99
  801ddb:	f0          	movx @dptr, a
  801ddc:	90 03 3a    	mov dptr, #826
  801ddf:	74 00       	mov a, #0
  801de1:	f0          	movx @dptr, a
  801de2:	90 00 8c    	mov dptr, #140
  801de5:	74 7f       	mov a, #127
  801de7:	f0          	movx @dptr, a
  801de8:	e4          	clr a
  801de9:	a3          	inc dptr
  801dea:	f0          	movx @dptr, a
  801deb:	a3          	inc dptr
  801dec:	f0          	movx @dptr, a
  801ded:	a3          	inc dptr
  801dee:	f0          	movx @dptr, a
  801def:	75 82 14    	mov dpl, #20
  801df2:	75 83 03    	mov dph, #3
  801df5:	75 f0 00    	mov b, #0
  801df8:	c0 05       	push 0x05
  801dfa:	c0 06       	push 0x06
  801dfc:	c0 07       	push 0x07
  801dfe:	12 05 f6    	lcall 8005f6 <HAL_assert_fail>
  801e01:	d0 07       	pop 0x07
  801e03:	d0 06       	pop 0x06
  801e05:	d0 05       	pop 0x05
  801e07:	90 02 c1    	mov dptr, #705
  801e0a:	e0          	movx a, @dptr
  801e0b:	fa          	mov r2, a
  801e0c:	a3          	inc dptr
  801e0d:	e0          	movx a, @dptr
  801e0e:	fb          	mov r3, a
  801e0f:	a3          	inc dptr
  801e10:	e0          	movx a, @dptr
  801e11:	fc          	mov r4, a
  801e12:	ba 00 09    	cjne r2, #0, 801e1e
  801e15:	bb 00 06    	cjne r3, #0, 801e1e
  801e18:	bc 00 03    	cjne r4, #0, 801e1e
  801e1b:	02 1e f9    	ljmp 801ef9 <UART_send+0x469>
  801e1e:	ed          	mov a, r5
  801e1f:	60 03       	jz 801e24
  801e21:	02 1e f9    	ljmp 801ef9 <UART_send+0x469>
  801e24:	ee          	mov a, r6
  801e25:	4f          	orl a, r7
  801e26:	70 03       	jnz 801e2b
  801e28:	02 1e f9    	ljmp 801ef9 <UART_send+0x469>
  801e2b:	90 02 c4    	mov dptr, #708
  801e2e:	e4          	clr a
  801e2f:	f0          	movx @dptr, a
  801e30:	a3          	inc dptr
  801e31:	f0          	movx @dptr, a
  801e32:	8a 05       	mov 0x05, r2
  801e34:	8b 00       	mov 00, r3
  801e36:	8c 01       	mov 0x01, r4
  801e38:	90 02 c4    	mov dptr, #708
  801e3b:	e0          	movx a, @dptr
  801e3c:	fa          	mov r2, a
  801e3d:	a3          	inc dptr
  801e3e:	e0          	movx a, @dptr
  801e3f:	fb          	mov r3, a
  801e40:	c3          	clr c
  801e41:	ea          	mov a, r2
  801e42:	9e          	subb a, r6
  801e43:	eb          	mov a, r3
  801e44:	9f          	subb a, r7
  801e45:	e4          	clr a
  801e46:	33          	rlc a
  801e47:	70 03       	jnz 801e4c
  801e49:	02 1e f9    	ljmp 801ef9 <UART_send+0x469>
  801e4c:	8d 82       	mov dpl, r5
  801e4e:	88 83       	mov dph, r0
  801e50:	89 f0       	mov b, r1
  801e52:	12 61 48    	lcall 806148 <GPIO_clear_irq+0x2c9>
  801e55:	fa          	mov r2, a
  801e56:	a3          	inc dptr
  801e57:	12 61 48    	lcall 806148 <GPIO_clear_irq+0x2c9>
  801e5a:	fb          	mov r3, a
  801e5b:	74 10       	mov a, #16
  801e5d:	25 02       	add a, 0x02
  801e5f:	fa          	mov r2, a
  801e60:	74 00       	mov a, #0
  801e62:	35 03       	addc a, 0x03
  801e64:	fb          	mov r3, a
  801e65:	8a 82       	mov dpl, r2
  801e67:	8b 83       	mov dph, r3
  801e69:	c0 05       	push 0x05
  801e6b:	c0 06       	push 0x06
  801e6d:	c0 07       	push 0x07
  801e6f:	c0 00       	push 00
  801e71:	c0 01       	push 0x01
  801e73:	12 06 a7    	lcall 8006a7 <HW_get_8bit_reg>
  801e76:	aa 82       	mov r2, dpl
  801e78:	d0 01       	pop 0x01
  801e7a:	d0 00       	pop 00
  801e7c:	d0 07       	pop 0x07
  801e7e:	d0 06       	pop 0x06
  801e80:	d0 05       	pop 0x05
  801e82:	7b 00       	mov r3, #0
  801e84:	53 02 01    	anl 0x02, #1
  801e87:	7b 00       	mov r3, #0
  801e89:	ea          	mov a, r2
  801e8a:	70 03       	jnz 801e8f
  801e8c:	02 1e 4c    	ljmp 801e4c <UART_send+0x3bc>
  801e8f:	c0 06       	push 0x06
  801e91:	c0 07       	push 0x07
  801e93:	8d 82       	mov dpl, r5
  801e95:	88 83       	mov dph, r0
  801e97:	89 f0       	mov b, r1
  801e99:	12 61 48    	lcall 806148 <GPIO_clear_irq+0x2c9>
  801e9c:	f5 2b       	mov 0x2b, a
  801e9e:	a3          	inc dptr
  801e9f:	12 61 48    	lcall 806148 <GPIO_clear_irq+0x2c9>
  801ea2:	f5 2c       	mov 0x2c, a
  801ea4:	90 02 c4    	mov dptr, #708
  801ea7:	e0          	movx a, @dptr
  801ea8:	fe          	mov r6, a
  801ea9:	a3          	inc dptr
  801eaa:	e0          	movx a, @dptr
  801eab:	ff          	mov r7, a
  801eac:	e5 06       	mov a, 0x06
  801eae:	25 2e       	add a, 0x2e
  801eb0:	fa          	mov r2, a
  801eb1:	e5 07       	mov a, 0x07
  801eb3:	35 2f       	addc a, 0x2f
  801eb5:	fb          	mov r3, a
  801eb6:	ac 30       	mov r4, 0x30
  801eb8:	8a 82       	mov dpl, r2
  801eba:	8b 83       	mov dph, r3
  801ebc:	8c f0       	mov b, r4
  801ebe:	12 61 48    	lcall 806148 <GPIO_clear_irq+0x2c9>
  801ec1:	fa          	mov r2, a
  801ec2:	90 00 a9    	mov dptr, #169
  801ec5:	ea          	mov a, r2
  801ec6:	f0          	movx @dptr, a
  801ec7:	85 2b 82    	mov dpl, 0x2b
  801eca:	85 2c 83    	mov dph, 0x2c
  801ecd:	c0 05       	push 0x05
  801ecf:	c0 06       	push 0x06
  801ed1:	c0 07       	push 0x07
  801ed3:	c0 00       	push 00
  801ed5:	c0 01       	push 0x01
  801ed7:	12 06 99    	lcall 800699 <HW_set_8bit_reg>
  801eda:	d0 01       	pop 0x01
  801edc:	d0 00       	pop 00
  801ede:	d0 07       	pop 0x07
  801ee0:	d0 06       	pop 0x06
  801ee2:	d0 05       	pop 0x05
  801ee4:	90 02 c4    	mov dptr, #708
  801ee7:	74 01       	mov a, #1
  801ee9:	25 06       	add a, 0x06
  801eeb:	f0          	movx @dptr, a
  801eec:	74 00       	mov a, #0
  801eee:	35 07       	addc a, 0x07
  801ef0:	a3          	inc dptr
  801ef1:	f0          	movx @dptr, a
  801ef2:	d0 07       	pop 0x07
  801ef4:	d0 06       	pop 0x06
  801ef6:	02 1e 38    	ljmp 801e38 <UART_send+0x3a8>
  801ef9:	22          	ret

00801efa <UART_fill_tx_fifo>:
  801efa:	aa f0       	mov r2, b
  801efc:	ab 83       	mov r3, dph
  801efe:	e5 82       	mov a, dpl
  801f00:	90 03 40    	mov dptr, #832
  801f03:	f0          	movx @dptr, a
  801f04:	a3          	inc dptr
  801f05:	eb          	mov a, r3
  801f06:	f0          	movx @dptr, a
  801f07:	a3          	inc dptr
  801f08:	ea          	mov a, r2
  801f09:	f0          	movx @dptr, a
  801f0a:	90 03 43    	mov dptr, #835
  801f0d:	e4          	clr a
  801f0e:	f0          	movx @dptr, a
  801f0f:	a3          	inc dptr
  801f10:	f0          	movx @dptr, a
  801f11:	90 03 40    	mov dptr, #832
  801f14:	e0          	movx a, @dptr
  801f15:	fa          	mov r2, a
  801f16:	a3          	inc dptr
  801f17:	e0          	movx a, @dptr
  801f18:	fb          	mov r3, a
  801f19:	a3          	inc dptr
  801f1a:	e0          	movx a, @dptr
  801f1b:	fc          	mov r4, a
  801f1c:	ba 00 08    	cjne r2, #0, 801f27
  801f1f:	bb 00 05    	cjne r3, #0, 801f27
  801f22:	bc 00 02    	cjne r4, #0, 801f27
  801f25:	80 03       	sjmp 801f2a
  801f27:	02 20 2d    	ljmp 80202d <UART_fill_tx_fifo+0x133>
  801f2a:	90 03 45    	mov dptr, #837
  801f2d:	74 2e       	mov a, #46
  801f2f:	f0          	movx @dptr, a
  801f30:	90 03 46    	mov dptr, #838
  801f33:	74 2e       	mov a, #46
  801f35:	f0          	movx @dptr, a
  801f36:	90 03 47    	mov dptr, #839
  801f39:	74 2f       	mov a, #47
  801f3b:	f0          	movx @dptr, a
  801f3c:	90 03 48    	mov dptr, #840
  801f3f:	74 64       	mov a, #100
  801f41:	f0          	movx @dptr, a
  801f42:	90 03 49    	mov dptr, #841
  801f45:	74 72       	mov a, #114
  801f47:	f0          	movx @dptr, a
  801f48:	90 03 4a    	mov dptr, #842
  801f4b:	74 69       	mov a, #105
  801f4d:	f0          	movx @dptr, a
  801f4e:	90 03 4b    	mov dptr, #843
  801f51:	74 76       	mov a, #118
  801f53:	f0          	movx @dptr, a
  801f54:	90 03 4c    	mov dptr, #844
  801f57:	74 65       	mov a, #101
  801f59:	f0          	movx @dptr, a
  801f5a:	90 03 4d    	mov dptr, #845
  801f5d:	74 72       	mov a, #114
  801f5f:	f0          	movx @dptr, a
  801f60:	90 03 4e    	mov dptr, #846
  801f63:	74 73       	mov a, #115
  801f65:	f0          	movx @dptr, a
  801f66:	90 03 4f    	mov dptr, #847
  801f69:	74 2f       	mov a, #47
  801f6b:	f0          	movx @dptr, a
  801f6c:	90 03 50    	mov dptr, #848
  801f6f:	74 43       	mov a, #67
  801f71:	f0          	movx @dptr, a
  801f72:	90 03 51    	mov dptr, #849
  801f75:	74 6f       	mov a, #111
  801f77:	f0          	movx @dptr, a
  801f78:	90 03 52    	mov dptr, #850
  801f7b:	74 72       	mov a, #114
  801f7d:	f0          	movx @dptr, a
  801f7e:	90 03 53    	mov dptr, #851
  801f81:	74 65       	mov a, #101
  801f83:	f0          	movx @dptr, a
  801f84:	90 03 54    	mov dptr, #852
  801f87:	74 55       	mov a, #85
  801f89:	f0          	movx @dptr, a
  801f8a:	90 03 55    	mov dptr, #853
  801f8d:	74 41       	mov a, #65
  801f8f:	f0          	movx @dptr, a
  801f90:	90 03 56    	mov dptr, #854
  801f93:	74 52       	mov a, #82
  801f95:	f0          	movx @dptr, a
  801f96:	90 03 57    	mov dptr, #855
  801f99:	74 54       	mov a, #84
  801f9b:	f0          	movx @dptr, a
  801f9c:	90 03 58    	mov dptr, #856
  801f9f:	74 61       	mov a, #97
  801fa1:	f0          	movx @dptr, a
  801fa2:	90 03 59    	mov dptr, #857
  801fa5:	74 70       	mov a, #112
  801fa7:	f0          	movx @dptr, a
  801fa8:	90 03 5a    	mov dptr, #858
  801fab:	74 62       	mov a, #98
  801fad:	f0          	movx @dptr, a
  801fae:	90 03 5b    	mov dptr, #859
  801fb1:	74 2f       	mov a, #47
  801fb3:	f0          	movx @dptr, a
  801fb4:	90 03 5c    	mov dptr, #860
  801fb7:	74 63       	mov a, #99
  801fb9:	f0          	movx @dptr, a
  801fba:	90 03 5d    	mov dptr, #861
  801fbd:	74 6f       	mov a, #111
  801fbf:	f0          	movx @dptr, a
  801fc0:	90 03 5e    	mov dptr, #862
  801fc3:	74 72       	mov a, #114
  801fc5:	f0          	movx @dptr, a
  801fc6:	90 03 5f    	mov dptr, #863
  801fc9:	74 65       	mov a, #101
  801fcb:	f0          	movx @dptr, a
  801fcc:	90 03 60    	mov dptr, #864
  801fcf:	74 5f       	mov a, #95
  801fd1:	f0          	movx @dptr, a
  801fd2:	90 03 61    	mov dptr, #865
  801fd5:	74 75       	mov a, #117
  801fd7:	f0          	movx @dptr, a
  801fd8:	90 03 62    	mov dptr, #866
  801fdb:	74 61       	mov a, #97
  801fdd:	f0          	movx @dptr, a
  801fde:	90 03 63    	mov dptr, #867
  801fe1:	74 72       	mov a, #114
  801fe3:	f0          	movx @dptr, a
  801fe4:	90 03 64    	mov dptr, #868
  801fe7:	74 74       	mov a, #116
  801fe9:	f0          	movx @dptr, a
  801fea:	90 03 65    	mov dptr, #869
  801fed:	74 5f       	mov a, #95
  801fef:	f0          	movx @dptr, a
  801ff0:	90 03 66    	mov dptr, #870
  801ff3:	74 61       	mov a, #97
  801ff5:	f0          	movx @dptr, a
  801ff6:	90 03 67    	mov dptr, #871
  801ff9:	74 70       	mov a, #112
  801ffb:	f0          	movx @dptr, a
  801ffc:	90 03 68    	mov dptr, #872
  801fff:	74 62       	mov a, #98
  802001:	f0          	movx @dptr, a
  802002:	90 03 69    	mov dptr, #873
  802005:	74 2e       	mov a, #46
  802007:	f0          	movx @dptr, a
  802008:	90 03 6a    	mov dptr, #874
  80200b:	74 63       	mov a, #99
  80200d:	f0          	movx @dptr, a
  80200e:	90 03 6b    	mov dptr, #875
  802011:	74 00       	mov a, #0
  802013:	f0          	movx @dptr, a
  802014:	90 00 8c    	mov dptr, #140
  802017:	74 a2       	mov a, #162
  802019:	f0          	movx @dptr, a
  80201a:	e4          	clr a
  80201b:	a3          	inc dptr
  80201c:	f0          	movx @dptr, a
  80201d:	a3          	inc dptr
  80201e:	f0          	movx @dptr, a
  80201f:	a3          	inc dptr
  802020:	f0          	movx @dptr, a
  802021:	75 82 45    	mov dpl, #69
  802024:	75 83 03    	mov dph, #3
  802027:	75 f0 00    	mov b, #0
  80202a:	12 05 f6    	lcall 8005f6 <HAL_assert_fail>
  80202d:	90 03 3b    	mov dptr, #827
  802030:	e0          	movx a, @dptr
  802031:	f5 34       	mov 0x34, a
  802033:	a3          	inc dptr
  802034:	e0          	movx a, @dptr
  802035:	f5 35       	mov 0x35, a
  802037:	a3          	inc dptr
  802038:	e0          	movx a, @dptr
  802039:	f5 36       	mov 0x36, a
  80203b:	e5 34       	mov a, 0x34
  80203d:	70 0c       	jnz 80204b
  80203f:	e5 35       	mov a, 0x35
  802041:	70 08       	jnz 80204b
  802043:	e5 36       	mov a, 0x36
  802045:	70 04       	jnz 80204b
  802047:	74 01       	mov a, #1
  802049:	80 01       	sjmp 80204c
  80204b:	e4          	clr a
  80204c:	fd          	mov r5, a
  80204d:	ed          	mov a, r5
  80204e:	70 03       	jnz 802053
  802050:	02 21 5a    	ljmp 80215a <UART_fill_tx_fifo+0x260>
  802053:	90 03 6c    	mov dptr, #876
  802056:	74 2e       	mov a, #46
  802058:	f0          	movx @dptr, a
  802059:	90 03 6d    	mov dptr, #877
  80205c:	74 2e       	mov a, #46
  80205e:	f0          	movx @dptr, a
  80205f:	90 03 6e    	mov dptr, #878
  802062:	74 2f       	mov a, #47
  802064:	f0          	movx @dptr, a
  802065:	90 03 6f    	mov dptr, #879
  802068:	74 64       	mov a, #100
  80206a:	f0          	movx @dptr, a
  80206b:	90 03 70    	mov dptr, #880
  80206e:	74 72       	mov a, #114
  802070:	f0          	movx @dptr, a
  802071:	90 03 71    	mov dptr, #881
  802074:	74 69       	mov a, #105
  802076:	f0          	movx @dptr, a
  802077:	90 03 72    	mov dptr, #882
  80207a:	74 76       	mov a, #118
  80207c:	f0          	movx @dptr, a
  80207d:	90 03 73    	mov dptr, #883
  802080:	74 65       	mov a, #101
  802082:	f0          	movx @dptr, a
  802083:	90 03 74    	mov dptr, #884
  802086:	74 72       	mov a, #114
  802088:	f0          	movx @dptr, a
  802089:	90 03 75    	mov dptr, #885
  80208c:	74 73       	mov a, #115
  80208e:	f0          	movx @dptr, a
  80208f:	90 03 76    	mov dptr, #886
  802092:	74 2f       	mov a, #47
  802094:	f0          	movx @dptr, a
  802095:	90 03 77    	mov dptr, #887
  802098:	74 43       	mov a, #67
  80209a:	f0          	movx @dptr, a
  80209b:	90 03 78    	mov dptr, #888
  80209e:	74 6f       	mov a, #111
  8020a0:	f0          	movx @dptr, a
  8020a1:	90 03 79    	mov dptr, #889
  8020a4:	74 72       	mov a, #114
  8020a6:	f0          	movx @dptr, a
  8020a7:	90 03 7a    	mov dptr, #890
  8020aa:	74 65       	mov a, #101
  8020ac:	f0          	movx @dptr, a
  8020ad:	90 03 7b    	mov dptr, #891
  8020b0:	74 55       	mov a, #85
  8020b2:	f0          	movx @dptr, a
  8020b3:	90 03 7c    	mov dptr, #892
  8020b6:	74 41       	mov a, #65
  8020b8:	f0          	movx @dptr, a
  8020b9:	90 03 7d    	mov dptr, #893
  8020bc:	74 52       	mov a, #82
  8020be:	f0          	movx @dptr, a
  8020bf:	90 03 7e    	mov dptr, #894
  8020c2:	74 54       	mov a, #84
  8020c4:	f0          	movx @dptr, a
  8020c5:	90 03 7f    	mov dptr, #895
  8020c8:	74 61       	mov a, #97
  8020ca:	f0          	movx @dptr, a
  8020cb:	90 03 80    	mov dptr, #896
  8020ce:	74 70       	mov a, #112
  8020d0:	f0          	movx @dptr, a
  8020d1:	90 03 81    	mov dptr, #897
  8020d4:	74 62       	mov a, #98
  8020d6:	f0          	movx @dptr, a
  8020d7:	90 03 82    	mov dptr, #898
  8020da:	74 2f       	mov a, #47
  8020dc:	f0          	movx @dptr, a
  8020dd:	90 03 83    	mov dptr, #899
  8020e0:	74 63       	mov a, #99
  8020e2:	f0          	movx @dptr, a
  8020e3:	90 03 84    	mov dptr, #900
  8020e6:	74 6f       	mov a, #111
  8020e8:	f0          	movx @dptr, a
  8020e9:	90 03 85    	mov dptr, #901
  8020ec:	74 72       	mov a, #114
  8020ee:	f0          	movx @dptr, a
  8020ef:	90 03 86    	mov dptr, #902
  8020f2:	74 65       	mov a, #101
  8020f4:	f0          	movx @dptr, a
  8020f5:	90 03 87    	mov dptr, #903
  8020f8:	74 5f       	mov a, #95
  8020fa:	f0          	movx @dptr, a
  8020fb:	90 03 88    	mov dptr, #904
  8020fe:	74 75       	mov a, #117
  802100:	f0          	movx @dptr, a
  802101:	90 03 89    	mov dptr, #905
  802104:	74 61       	mov a, #97
  802106:	f0          	movx @dptr, a
  802107:	90 03 8a    	mov dptr, #906
  80210a:	74 72       	mov a, #114
  80210c:	f0          	movx @dptr, a
  80210d:	90 03 8b    	mov dptr, #907
  802110:	74 74       	mov a, #116
  802112:	f0          	movx @dptr, a
  802113:	90 03 8c    	mov dptr, #908
  802116:	74 5f       	mov a, #95
  802118:	f0          	movx @dptr, a
  802119:	90 03 8d    	mov dptr, #909
  80211c:	74 61       	mov a, #97
  80211e:	f0          	movx @dptr, a
  80211f:	90 03 8e    	mov dptr, #910
  802122:	74 70       	mov a, #112
  802124:	f0          	movx @dptr, a
  802125:	90 03 8f    	mov dptr, #911
  802128:	74 62       	mov a, #98
  80212a:	f0          	movx @dptr, a
  80212b:	90 03 90    	mov dptr, #912
  80212e:	74 2e       	mov a, #46
  802130:	f0          	movx @dptr, a
  802131:	90 03 91    	mov dptr, #913
  802134:	74 63       	mov a, #99
  802136:	f0          	movx @dptr, a
  802137:	90 03 92    	mov dptr, #914
  80213a:	74 00       	mov a, #0
  80213c:	f0          	movx @dptr, a
  80213d:	90 00 8c    	mov dptr, #140
  802140:	74 a3       	mov a, #163
  802142:	f0          	movx @dptr, a
  802143:	e4          	clr a
  802144:	a3          	inc dptr
  802145:	f0          	movx @dptr, a
  802146:	a3          	inc dptr
  802147:	f0          	movx @dptr, a
  802148:	a3          	inc dptr
  802149:	f0          	movx @dptr, a
  80214a:	75 82 6c    	mov dpl, #108
  80214d:	75 83 03    	mov dph, #3
  802150:	75 f0 00    	mov b, #0
  802153:	c0 05       	push 0x05
  802155:	12 05 f6    	lcall 8005f6 <HAL_assert_fail>
  802158:	d0 05       	pop 0x05
  80215a:	90 03 3e    	mov dptr, #830
  80215d:	e0          	movx a, @dptr
  80215e:	fe          	mov r6, a
  80215f:	a3          	inc dptr
  802160:	e0          	movx a, @dptr
  802161:	ff          	mov r7, a
  802162:	ee          	mov a, r6
  802163:	4f          	orl a, r7
  802164:	60 03       	jz 802169
  802166:	02 22 78    	ljmp 802278 <UART_fill_tx_fifo+0x37e>
  802169:	90 03 93    	mov dptr, #915
  80216c:	74 2e       	mov a, #46
  80216e:	f0          	movx @dptr, a
  80216f:	90 03 94    	mov dptr, #916
  802172:	74 2e       	mov a, #46
  802174:	f0          	movx @dptr, a
  802175:	90 03 95    	mov dptr, #917
  802178:	74 2f       	mov a, #47
  80217a:	f0          	movx @dptr, a
  80217b:	90 03 96    	mov dptr, #918
  80217e:	74 64       	mov a, #100
  802180:	f0          	movx @dptr, a
  802181:	90 03 97    	mov dptr, #919
  802184:	74 72       	mov a, #114
  802186:	f0          	movx @dptr, a
  802187:	90 03 98    	mov dptr, #920
  80218a:	74 69       	mov a, #105
  80218c:	f0          	movx @dptr, a
  80218d:	90 03 99    	mov dptr, #921
  802190:	74 76       	mov a, #118
  802192:	f0          	movx @dptr, a
  802193:	90 03 9a    	mov dptr, #922
  802196:	74 65       	mov a, #101
  802198:	f0          	movx @dptr, a
  802199:	90 03 9b    	mov dptr, #923
  80219c:	74 72       	mov a, #114
  80219e:	f0          	movx @dptr, a
  80219f:	90 03 9c    	mov dptr, #924
  8021a2:	74 73       	mov a, #115
  8021a4:	f0          	movx @dptr, a
  8021a5:	90 03 9d    	mov dptr, #925
  8021a8:	74 2f       	mov a, #47
  8021aa:	f0          	movx @dptr, a
  8021ab:	90 03 9e    	mov dptr, #926
  8021ae:	74 43       	mov a, #67
  8021b0:	f0          	movx @dptr, a
  8021b1:	90 03 9f    	mov dptr, #927
  8021b4:	74 6f       	mov a, #111
  8021b6:	f0          	movx @dptr, a
  8021b7:	90 03 a0    	mov dptr, #928
  8021ba:	74 72       	mov a, #114
  8021bc:	f0          	movx @dptr, a
  8021bd:	90 03 a1    	mov dptr, #929
  8021c0:	74 65       	mov a, #101
  8021c2:	f0          	movx @dptr, a
  8021c3:	90 03 a2    	mov dptr, #930
  8021c6:	74 55       	mov a, #85
  8021c8:	f0          	movx @dptr, a
  8021c9:	90 03 a3    	mov dptr, #931
  8021cc:	74 41       	mov a, #65
  8021ce:	f0          	movx @dptr, a
  8021cf:	90 03 a4    	mov dptr, #932
  8021d2:	74 52       	mov a, #82
  8021d4:	f0          	movx @dptr, a
  8021d5:	90 03 a5    	mov dptr, #933
  8021d8:	74 54       	mov a, #84
  8021da:	f0          	movx @dptr, a
  8021db:	90 03 a6    	mov dptr, #934
  8021de:	74 61       	mov a, #97
  8021e0:	f0          	movx @dptr, a
  8021e1:	90 03 a7    	mov dptr, #935
  8021e4:	74 70       	mov a, #112
  8021e6:	f0          	movx @dptr, a
  8021e7:	90 03 a8    	mov dptr, #936
  8021ea:	74 62       	mov a, #98
  8021ec:	f0          	movx @dptr, a
  8021ed:	90 03 a9    	mov dptr, #937
  8021f0:	74 2f       	mov a, #47
  8021f2:	f0          	movx @dptr, a
  8021f3:	90 03 aa    	mov dptr, #938
  8021f6:	74 63       	mov a, #99
  8021f8:	f0          	movx @dptr, a
  8021f9:	90 03 ab    	mov dptr, #939
  8021fc:	74 6f       	mov a, #111
  8021fe:	f0          	movx @dptr, a
  8021ff:	90 03 ac    	mov dptr, #940
  802202:	74 72       	mov a, #114
  802204:	f0          	movx @dptr, a
  802205:	90 03 ad    	mov dptr, #941
  802208:	74 65       	mov a, #101
  80220a:	f0          	movx @dptr, a
  80220b:	90 03 ae    	mov dptr, #942
  80220e:	74 5f       	mov a, #95
  802210:	f0          	movx @dptr, a
  802211:	90 03 af    	mov dptr, #943
  802214:	74 75       	mov a, #117
  802216:	f0          	movx @dptr, a
  802217:	90 03 b0    	mov dptr, #944
  80221a:	74 61       	mov a, #97
  80221c:	f0          	movx @dptr, a
  80221d:	90 03 b1    	mov dptr, #945
  802220:	74 72       	mov a, #114
  802222:	f0          	movx @dptr, a
  802223:	90 03 b2    	mov dptr, #946
  802226:	74 74       	mov a, #116
  802228:	f0          	movx @dptr, a
  802229:	90 03 b3    	mov dptr, #947
  80222c:	74 5f       	mov a, #95
  80222e:	f0          	movx @dptr, a
  80222f:	90 03 b4    	mov dptr, #948
  802232:	74 61       	mov a, #97
  802234:	f0          	movx @dptr, a
  802235:	90 03 b5    	mov dptr, #949
  802238:	74 70       	mov a, #112
  80223a:	f0          	movx @dptr, a
  80223b:	90 03 b6    	mov dptr, #950
  80223e:	74 62       	mov a, #98
  802240:	f0          	movx @dptr, a
  802241:	90 03 b7    	mov dptr, #951
  802244:	74 2e       	mov a, #46
  802246:	f0          	movx @dptr, a
  802247:	90 03 b8    	mov dptr, #952
  80224a:	74 63       	mov a, #99
  80224c:	f0          	movx @dptr, a
  80224d:	90 03 b9    	mov dptr, #953
  802250:	74 00       	mov a, #0
  802252:	f0          	movx @dptr, a
  802253:	90 00 8c    	mov dptr, #140
  802256:	74 a4       	mov a, #164
  802258:	f0          	movx @dptr, a
  802259:	e4          	clr a
  80225a:	a3          	inc dptr
  80225b:	f0          	movx @dptr, a
  80225c:	a3          	inc dptr
  80225d:	f0          	movx @dptr, a
  80225e:	a3          	inc dptr
  80225f:	f0          	movx @dptr, a
  802260:	75 82 93    	mov dpl, #147
  802263:	75 83 03    	mov dph, #3
  802266:	75 f0 00    	mov b, #0
  802269:	c0 05       	push 0x05
  80226b:	c0 06       	push 0x06
  80226d:	c0 07       	push 0x07
  80226f:	12 05 f6    	lcall 8005f6 <HAL_assert_fail>
  802272:	d0 07       	pop 0x07
  802274:	d0 06       	pop 0x06
  802276:	d0 05       	pop 0x05
  802278:	90 03 40    	mov dptr, #832
  80227b:	e0          	movx a, @dptr
  80227c:	fa          	mov r2, a
  80227d:	a3          	inc dptr
  80227e:	e0          	movx a, @dptr
  80227f:	fb          	mov r3, a
  802280:	a3          	inc dptr
  802281:	e0          	movx a, @dptr
  802282:	fc          	mov r4, a
  802283:	ba 00 09    	cjne r2, #0, 80228f
  802286:	bb 00 06    	cjne r3, #0, 80228f
  802289:	bc 00 03    	cjne r4, #0, 80228f
  80228c:	02 23 a1    	ljmp 8023a1 <UART_fill_tx_fifo+0x4a7>
  80228f:	ed          	mov a, r5
  802290:	60 03       	jz 802295
  802292:	02 23 a1    	ljmp 8023a1 <UART_fill_tx_fifo+0x4a7>
  802295:	ee          	mov a, r6
  802296:	4f          	orl a, r7
  802297:	70 03       	jnz 80229c
  802299:	02 23 a1    	ljmp 8023a1 <UART_fill_tx_fifo+0x4a7>
  80229c:	8a 82       	mov dpl, r2
  80229e:	8b 83       	mov dph, r3
  8022a0:	8c f0       	mov b, r4
  8022a2:	12 61 48    	lcall 806148 <GPIO_clear_irq+0x2c9>
  8022a5:	fd          	mov r5, a
  8022a6:	a3          	inc dptr
  8022a7:	12 61 48    	lcall 806148 <GPIO_clear_irq+0x2c9>
  8022aa:	f8          	mov r0, a
  8022ab:	74 10       	mov a, #16
  8022ad:	25 05       	add a, 0x05
  8022af:	fd          	mov r5, a
  8022b0:	74 00       	mov a, #0
  8022b2:	35 00       	addc a, 00
  8022b4:	f8          	mov r0, a
  8022b5:	8d 82       	mov dpl, r5
  8022b7:	88 83       	mov dph, r0
  8022b9:	c0 02       	push 0x02
  8022bb:	c0 03       	push 0x03
  8022bd:	c0 04       	push 0x04
  8022bf:	c0 06       	push 0x06
  8022c1:	c0 07       	push 0x07
  8022c3:	12 06 a7    	lcall 8006a7 <HW_get_8bit_reg>
  8022c6:	ad 82       	mov r5, dpl
  8022c8:	d0 07       	pop 0x07
  8022ca:	d0 06       	pop 0x06
  8022cc:	d0 04       	pop 0x04
  8022ce:	d0 03       	pop 0x03
  8022d0:	d0 02       	pop 0x02
  8022d2:	78 00       	mov r0, #0
  8022d4:	53 05 01    	anl 0x05, #1
  8022d7:	78 00       	mov r0, #0
  8022d9:	ed          	mov a, r5
  8022da:	70 03       	jnz 8022df
  8022dc:	02 23 a1    	ljmp 8023a1 <UART_fill_tx_fifo+0x4a7>
  8022df:	8a 05       	mov 0x05, r2
  8022e1:	8b 00       	mov 00, r3
  8022e3:	8c 01       	mov 0x01, r4
  8022e5:	c0 06       	push 0x06
  8022e7:	c0 07       	push 0x07
  8022e9:	8d 82       	mov dpl, r5
  8022eb:	88 83       	mov dph, r0
  8022ed:	89 f0       	mov b, r1
  8022ef:	12 61 48    	lcall 806148 <GPIO_clear_irq+0x2c9>
  8022f2:	f5 31       	mov 0x31, a
  8022f4:	a3          	inc dptr
  8022f5:	12 61 48    	lcall 806148 <GPIO_clear_irq+0x2c9>
  8022f8:	f5 32       	mov 0x32, a
  8022fa:	90 03 43    	mov dptr, #835
  8022fd:	e0          	movx a, @dptr
  8022fe:	fe          	mov r6, a
  8022ff:	a3          	inc dptr
  802300:	e0          	movx a, @dptr
  802301:	ff          	mov r7, a
  802302:	e5 06       	mov a, 0x06
  802304:	25 34       	add a, 0x34
  802306:	fa          	mov r2, a
  802307:	e5 07       	mov a, 0x07
  802309:	35 35       	addc a, 0x35
  80230b:	fb          	mov r3, a
  80230c:	ac 36       	mov r4, 0x36
  80230e:	8a 82       	mov dpl, r2
  802310:	8b 83       	mov dph, r3
  802312:	8c f0       	mov b, r4
  802314:	12 61 48    	lcall 806148 <GPIO_clear_irq+0x2c9>
  802317:	fa          	mov r2, a
  802318:	90 00 a9    	mov dptr, #169
  80231b:	ea          	mov a, r2
  80231c:	f0          	movx @dptr, a
  80231d:	85 31 82    	mov dpl, 0x31
  802320:	85 32 83    	mov dph, 0x32
  802323:	c0 05       	push 0x05
  802325:	c0 06       	push 0x06
  802327:	c0 07       	push 0x07
  802329:	c0 00       	push 00
  80232b:	c0 01       	push 0x01
  80232d:	12 06 99    	lcall 800699 <HW_set_8bit_reg>
  802330:	d0 01       	pop 0x01
  802332:	d0 00       	pop 00
  802334:	d0 07       	pop 0x07
  802336:	d0 06       	pop 0x06
  802338:	d0 05       	pop 0x05
  80233a:	90 03 43    	mov dptr, #835
  80233d:	74 01       	mov a, #1
  80233f:	25 06       	add a, 0x06
  802341:	f0          	movx @dptr, a
  802342:	74 00       	mov a, #0
  802344:	35 07       	addc a, 0x07
  802346:	a3          	inc dptr
  802347:	f0          	movx @dptr, a
  802348:	8d 82       	mov dpl, r5
  80234a:	88 83       	mov dph, r0
  80234c:	89 f0       	mov b, r1
  80234e:	12 61 48    	lcall 806148 <GPIO_clear_irq+0x2c9>
  802351:	fa          	mov r2, a
  802352:	a3          	inc dptr
  802353:	12 61 48    	lcall 806148 <GPIO_clear_irq+0x2c9>
  802356:	fb          	mov r3, a
  802357:	74 10       	mov a, #16
  802359:	25 02       	add a, 0x02
  80235b:	fa          	mov r2, a
  80235c:	74 00       	mov a, #0
  80235e:	35 03       	addc a, 0x03
  802360:	fb          	mov r3, a
  802361:	8a 82       	mov dpl, r2
  802363:	8b 83       	mov dph, r3
  802365:	c0 05       	push 0x05
  802367:	c0 06       	push 0x06
  802369:	c0 07       	push 0x07
  80236b:	c0 00       	push 00
  80236d:	c0 01       	push 0x01
  80236f:	12 06 a7    	lcall 8006a7 <HW_get_8bit_reg>
  802372:	aa 82       	mov r2, dpl
  802374:	d0 01       	pop 0x01
  802376:	d0 00       	pop 00
  802378:	d0 07       	pop 0x07
  80237a:	d0 06       	pop 0x06
  80237c:	d0 05       	pop 0x05
  80237e:	7b 00       	mov r3, #0
  802380:	53 02 01    	anl 0x02, #1
  802383:	7b 00       	mov r3, #0
  802385:	d0 07       	pop 0x07
  802387:	d0 06       	pop 0x06
  802389:	ea          	mov a, r2
  80238a:	70 03       	jnz 80238f
  80238c:	02 23 a1    	ljmp 8023a1 <UART_fill_tx_fifo+0x4a7>
  80238f:	90 03 43    	mov dptr, #835
  802392:	e0          	movx a, @dptr
  802393:	fa          	mov r2, a
  802394:	a3          	inc dptr
  802395:	e0          	movx a, @dptr
  802396:	fb          	mov r3, a
  802397:	c3          	clr c
  802398:	ea          	mov a, r2
  802399:	9e          	subb a, r6
  80239a:	eb          	mov a, r3
  80239b:	9f          	subb a, r7
  80239c:	50 03       	jnc 8023a1
  80239e:	02 22 e5    	ljmp 8022e5 <UART_fill_tx_fifo+0x3eb>
  8023a1:	90 03 43    	mov dptr, #835
  8023a4:	e0          	movx a, @dptr
  8023a5:	fa          	mov r2, a
  8023a6:	a3          	inc dptr
  8023a7:	e0          	movx a, @dptr
  8023a8:	fb          	mov r3, a
  8023a9:	8a 82       	mov dpl, r2
  8023ab:	8b 83       	mov dph, r3
  8023ad:	22          	ret

008023ae <UART_get_rx>:
  8023ae:	aa f0       	mov r2, b
  8023b0:	ab 83       	mov r3, dph
  8023b2:	e5 82       	mov a, dpl
  8023b4:	90 03 bf    	mov dptr, #959
  8023b7:	f0          	movx @dptr, a
  8023b8:	a3          	inc dptr
  8023b9:	eb          	mov a, r3
  8023ba:	f0          	movx @dptr, a
  8023bb:	a3          	inc dptr
  8023bc:	ea          	mov a, r2
  8023bd:	f0          	movx @dptr, a
  8023be:	90 03 c3    	mov dptr, #963
  8023c1:	e4          	clr a
  8023c2:	f0          	movx @dptr, a
  8023c3:	a3          	inc dptr
  8023c4:	f0          	movx @dptr, a
  8023c5:	90 03 bf    	mov dptr, #959
  8023c8:	e0          	movx a, @dptr
  8023c9:	fa          	mov r2, a
  8023ca:	a3          	inc dptr
  8023cb:	e0          	movx a, @dptr
  8023cc:	fb          	mov r3, a
  8023cd:	a3          	inc dptr
  8023ce:	e0          	movx a, @dptr
  8023cf:	fc          	mov r4, a
  8023d0:	ba 00 08    	cjne r2, #0, 8023db
  8023d3:	bb 00 05    	cjne r3, #0, 8023db
  8023d6:	bc 00 02    	cjne r4, #0, 8023db
  8023d9:	80 03       	sjmp 8023de
  8023db:	02 24 e1    	ljmp 8024e1 <UART_get_rx+0x133>
  8023de:	90 03 c5    	mov dptr, #965
  8023e1:	74 2e       	mov a, #46
  8023e3:	f0          	movx @dptr, a
  8023e4:	90 03 c6    	mov dptr, #966
  8023e7:	74 2e       	mov a, #46
  8023e9:	f0          	movx @dptr, a
  8023ea:	90 03 c7    	mov dptr, #967
  8023ed:	74 2f       	mov a, #47
  8023ef:	f0          	movx @dptr, a
  8023f0:	90 03 c8    	mov dptr, #968
  8023f3:	74 64       	mov a, #100
  8023f5:	f0          	movx @dptr, a
  8023f6:	90 03 c9    	mov dptr, #969
  8023f9:	74 72       	mov a, #114
  8023fb:	f0          	movx @dptr, a
  8023fc:	90 03 ca    	mov dptr, #970
  8023ff:	74 69       	mov a, #105
  802401:	f0          	movx @dptr, a
  802402:	90 03 cb    	mov dptr, #971
  802405:	74 76       	mov a, #118
  802407:	f0          	movx @dptr, a
  802408:	90 03 cc    	mov dptr, #972
  80240b:	74 65       	mov a, #101
  80240d:	f0          	movx @dptr, a
  80240e:	90 03 cd    	mov dptr, #973
  802411:	74 72       	mov a, #114
  802413:	f0          	movx @dptr, a
  802414:	90 03 ce    	mov dptr, #974
  802417:	74 73       	mov a, #115
  802419:	f0          	movx @dptr, a
  80241a:	90 03 cf    	mov dptr, #975
  80241d:	74 2f       	mov a, #47
  80241f:	f0          	movx @dptr, a
  802420:	90 03 d0    	mov dptr, #976
  802423:	74 43       	mov a, #67
  802425:	f0          	movx @dptr, a
  802426:	90 03 d1    	mov dptr, #977
  802429:	74 6f       	mov a, #111
  80242b:	f0          	movx @dptr, a
  80242c:	90 03 d2    	mov dptr, #978
  80242f:	74 72       	mov a, #114
  802431:	f0          	movx @dptr, a
  802432:	90 03 d3    	mov dptr, #979
  802435:	74 65       	mov a, #101
  802437:	f0          	movx @dptr, a
  802438:	90 03 d4    	mov dptr, #980
  80243b:	74 55       	mov a, #85
  80243d:	f0          	movx @dptr, a
  80243e:	90 03 d5    	mov dptr, #981
  802441:	74 41       	mov a, #65
  802443:	f0          	movx @dptr, a
  802444:	90 03 d6    	mov dptr, #982
  802447:	74 52       	mov a, #82
  802449:	f0          	movx @dptr, a
  80244a:	90 03 d7    	mov dptr, #983
  80244d:	74 54       	mov a, #84
  80244f:	f0          	movx @dptr, a
  802450:	90 03 d8    	mov dptr, #984
  802453:	74 61       	mov a, #97
  802455:	f0          	movx @dptr, a
  802456:	90 03 d9    	mov dptr, #985
  802459:	74 70       	mov a, #112
  80245b:	f0          	movx @dptr, a
  80245c:	90 03 da    	mov dptr, #986
  80245f:	74 62       	mov a, #98
  802461:	f0          	movx @dptr, a
  802462:	90 03 db    	mov dptr, #987
  802465:	74 2f       	mov a, #47
  802467:	f0          	movx @dptr, a
  802468:	90 03 dc    	mov dptr, #988
  80246b:	74 63       	mov a, #99
  80246d:	f0          	movx @dptr, a
  80246e:	90 03 dd    	mov dptr, #989
  802471:	74 6f       	mov a, #111
  802473:	f0          	movx @dptr, a
  802474:	90 03 de    	mov dptr, #990
  802477:	74 72       	mov a, #114
  802479:	f0          	movx @dptr, a
  80247a:	90 03 df    	mov dptr, #991
  80247d:	74 65       	mov a, #101
  80247f:	f0          	movx @dptr, a
  802480:	90 03 e0    	mov dptr, #992
  802483:	74 5f       	mov a, #95
  802485:	f0          	movx @dptr, a
  802486:	90 03 e1    	mov dptr, #993
  802489:	74 75       	mov a, #117
  80248b:	f0          	movx @dptr, a
  80248c:	90 03 e2    	mov dptr, #994
  80248f:	74 61       	mov a, #97
  802491:	f0          	movx @dptr, a
  802492:	90 03 e3    	mov dptr, #995
  802495:	74 72       	mov a, #114
  802497:	f0          	movx @dptr, a
  802498:	90 03 e4    	mov dptr, #996
  80249b:	74 74       	mov a, #116
  80249d:	f0          	movx @dptr, a
  80249e:	90 03 e5    	mov dptr, #997
  8024a1:	74 5f       	mov a, #95
  8024a3:	f0          	movx @dptr, a
  8024a4:	90 03 e6    	mov dptr, #998
  8024a7:	74 61       	mov a, #97
  8024a9:	f0          	movx @dptr, a
  8024aa:	90 03 e7    	mov dptr, #999
  8024ad:	74 70       	mov a, #112
  8024af:	f0          	movx @dptr, a
  8024b0:	90 03 e8    	mov dptr, #1000
  8024b3:	74 62       	mov a, #98
  8024b5:	f0          	movx @dptr, a
  8024b6:	90 03 e9    	mov dptr, #1001
  8024b9:	74 2e       	mov a, #46
  8024bb:	f0          	movx @dptr, a
  8024bc:	90 03 ea    	mov dptr, #1002
  8024bf:	74 63       	mov a, #99
  8024c1:	f0          	movx @dptr, a
  8024c2:	90 03 eb    	mov dptr, #1003
  8024c5:	74 00       	mov a, #0
  8024c7:	f0          	movx @dptr, a
  8024c8:	90 00 8c    	mov dptr, #140
  8024cb:	74 cc       	mov a, #204
  8024cd:	f0          	movx @dptr, a
  8024ce:	e4          	clr a
  8024cf:	a3          	inc dptr
  8024d0:	f0          	movx @dptr, a
  8024d1:	a3          	inc dptr
  8024d2:	f0          	movx @dptr, a
  8024d3:	a3          	inc dptr
  8024d4:	f0          	movx @dptr, a
  8024d5:	75 82 c5    	mov dpl, #197
  8024d8:	75 83 03    	mov dph, #3
  8024db:	75 f0 00    	mov b, #0
  8024de:	12 05 f6    	lcall 8005f6 <HAL_assert_fail>
  8024e1:	90 03 ba    	mov dptr, #954
  8024e4:	e0          	movx a, @dptr
  8024e5:	f5 3a       	mov 0x3a, a
  8024e7:	a3          	inc dptr
  8024e8:	e0          	movx a, @dptr
  8024e9:	f5 3b       	mov 0x3b, a
  8024eb:	a3          	inc dptr
  8024ec:	e0          	movx a, @dptr
  8024ed:	f5 3c       	mov 0x3c, a
  8024ef:	e5 3a       	mov a, 0x3a
  8024f1:	70 0c       	jnz 8024ff
  8024f3:	e5 3b       	mov a, 0x3b
  8024f5:	70 08       	jnz 8024ff
  8024f7:	e5 3c       	mov a, 0x3c
  8024f9:	70 04       	jnz 8024ff
  8024fb:	74 01       	mov a, #1
  8024fd:	80 01       	sjmp 802500
  8024ff:	e4          	clr a
  802500:	fd          	mov r5, a
  802501:	ed          	mov a, r5
  802502:	70 03       	jnz 802507
  802504:	02 26 0e    	ljmp 80260e <UART_get_rx+0x260>
  802507:	90 03 ec    	mov dptr, #1004
  80250a:	74 2e       	mov a, #46
  80250c:	f0          	movx @dptr, a
  80250d:	90 03 ed    	mov dptr, #1005
  802510:	74 2e       	mov a, #46
  802512:	f0          	movx @dptr, a
  802513:	90 03 ee    	mov dptr, #1006
  802516:	74 2f       	mov a, #47
  802518:	f0          	movx @dptr, a
  802519:	90 03 ef    	mov dptr, #1007
  80251c:	74 64       	mov a, #100
  80251e:	f0          	movx @dptr, a
  80251f:	90 03 f0    	mov dptr, #1008
  802522:	74 72       	mov a, #114
  802524:	f0          	movx @dptr, a
  802525:	90 03 f1    	mov dptr, #1009
  802528:	74 69       	mov a, #105
  80252a:	f0          	movx @dptr, a
  80252b:	90 03 f2    	mov dptr, #1010
  80252e:	74 76       	mov a, #118
  802530:	f0          	movx @dptr, a
  802531:	90 03 f3    	mov dptr, #1011
  802534:	74 65       	mov a, #101
  802536:	f0          	movx @dptr, a
  802537:	90 03 f4    	mov dptr, #1012
  80253a:	74 72       	mov a, #114
  80253c:	f0          	movx @dptr, a
  80253d:	90 03 f5    	mov dptr, #1013
  802540:	74 73       	mov a, #115
  802542:	f0          	movx @dptr, a
  802543:	90 03 f6    	mov dptr, #1014
  802546:	74 2f       	mov a, #47
  802548:	f0          	movx @dptr, a
  802549:	90 03 f7    	mov dptr, #1015
  80254c:	74 43       	mov a, #67
  80254e:	f0          	movx @dptr, a
  80254f:	90 03 f8    	mov dptr, #1016
  802552:	74 6f       	mov a, #111
  802554:	f0          	movx @dptr, a
  802555:	90 03 f9    	mov dptr, #1017
  802558:	74 72       	mov a, #114
  80255a:	f0          	movx @dptr, a
  80255b:	90 03 fa    	mov dptr, #1018
  80255e:	74 65       	mov a, #101
  802560:	f0          	movx @dptr, a
  802561:	90 03 fb    	mov dptr, #1019
  802564:	74 55       	mov a, #85
  802566:	f0          	movx @dptr, a
  802567:	90 03 fc    	mov dptr, #1020
  80256a:	74 41       	mov a, #65
  80256c:	f0          	movx @dptr, a
  80256d:	90 03 fd    	mov dptr, #1021
  802570:	74 52       	mov a, #82
  802572:	f0          	movx @dptr, a
  802573:	90 03 fe    	mov dptr, #1022
  802576:	74 54       	mov a, #84
  802578:	f0          	movx @dptr, a
  802579:	90 03 ff    	mov dptr, #1023
  80257c:	74 61       	mov a, #97
  80257e:	f0          	movx @dptr, a
  80257f:	90 04 00    	mov dptr, #1024
  802582:	74 70       	mov a, #112
  802584:	f0          	movx @dptr, a
  802585:	90 04 01    	mov dptr, #1025
  802588:	74 62       	mov a, #98
  80258a:	f0          	movx @dptr, a
  80258b:	90 04 02    	mov dptr, #1026
  80258e:	74 2f       	mov a, #47
  802590:	f0          	movx @dptr, a
  802591:	90 04 03    	mov dptr, #1027
  802594:	74 63       	mov a, #99
  802596:	f0          	movx @dptr, a
  802597:	90 04 04    	mov dptr, #1028
  80259a:	74 6f       	mov a, #111
  80259c:	f0          	movx @dptr, a
  80259d:	90 04 05    	mov dptr, #1029
  8025a0:	74 72       	mov a, #114
  8025a2:	f0          	movx @dptr, a
  8025a3:	90 04 06    	mov dptr, #1030
  8025a6:	74 65       	mov a, #101
  8025a8:	f0          	movx @dptr, a
  8025a9:	90 04 07    	mov dptr, #1031
  8025ac:	74 5f       	mov a, #95
  8025ae:	f0          	movx @dptr, a
  8025af:	90 04 08    	mov dptr, #1032
  8025b2:	74 75       	mov a, #117
  8025b4:	f0          	movx @dptr, a
  8025b5:	90 04 09    	mov dptr, #1033
  8025b8:	74 61       	mov a, #97
  8025ba:	f0          	movx @dptr, a
  8025bb:	90 04 0a    	mov dptr, #1034
  8025be:	74 72       	mov a, #114
  8025c0:	f0          	movx @dptr, a
  8025c1:	90 04 0b    	mov dptr, #1035
  8025c4:	74 74       	mov a, #116
  8025c6:	f0          	movx @dptr, a
  8025c7:	90 04 0c    	mov dptr, #1036
  8025ca:	74 5f       	mov a, #95
  8025cc:	f0          	movx @dptr, a
  8025cd:	90 04 0d    	mov dptr, #1037
  8025d0:	74 61       	mov a, #97
  8025d2:	f0          	movx @dptr, a
  8025d3:	90 04 0e    	mov dptr, #1038
  8025d6:	74 70       	mov a, #112
  8025d8:	f0          	movx @dptr, a
  8025d9:	90 04 0f    	mov dptr, #1039
  8025dc:	74 62       	mov a, #98
  8025de:	f0          	movx @dptr, a
  8025df:	90 04 10    	mov dptr, #1040
  8025e2:	74 2e       	mov a, #46
  8025e4:	f0          	movx @dptr, a
  8025e5:	90 04 11    	mov dptr, #1041
  8025e8:	74 63       	mov a, #99
  8025ea:	f0          	movx @dptr, a
  8025eb:	90 04 12    	mov dptr, #1042
  8025ee:	74 00       	mov a, #0
  8025f0:	f0          	movx @dptr, a
  8025f1:	90 00 8c    	mov dptr, #140
  8025f4:	74 cd       	mov a, #205
  8025f6:	f0          	movx @dptr, a
  8025f7:	e4          	clr a
  8025f8:	a3          	inc dptr
  8025f9:	f0          	movx @dptr, a
  8025fa:	a3          	inc dptr
  8025fb:	f0          	movx @dptr, a
  8025fc:	a3          	inc dptr
  8025fd:	f0          	movx @dptr, a
  8025fe:	75 82 ec    	mov dpl, #236
  802601:	75 83 03    	mov dph, #3
  802604:	75 f0 00    	mov b, #0
  802607:	c0 05       	push 0x05
  802609:	12 05 f6    	lcall 8005f6 <HAL_assert_fail>
  80260c:	d0 05       	pop 0x05
  80260e:	90 03 bd    	mov dptr, #957
  802611:	e0          	movx a, @dptr
  802612:	fe          	mov r6, a
  802613:	a3          	inc dptr
  802614:	e0          	movx a, @dptr
  802615:	ff          	mov r7, a
  802616:	ee          	mov a, r6
  802617:	4f          	orl a, r7
  802618:	60 03       	jz 80261d
  80261a:	02 27 2c    	ljmp 80272c <UART_get_rx+0x37e>
  80261d:	90 04 13    	mov dptr, #1043
  802620:	74 2e       	mov a, #46
  802622:	f0          	movx @dptr, a
  802623:	90 04 14    	mov dptr, #1044
  802626:	74 2e       	mov a, #46
  802628:	f0          	movx @dptr, a
  802629:	90 04 15    	mov dptr, #1045
  80262c:	74 2f       	mov a, #47
  80262e:	f0          	movx @dptr, a
  80262f:	90 04 16    	mov dptr, #1046
  802632:	74 64       	mov a, #100
  802634:	f0          	movx @dptr, a
  802635:	90 04 17    	mov dptr, #1047
  802638:	74 72       	mov a, #114
  80263a:	f0          	movx @dptr, a
  80263b:	90 04 18    	mov dptr, #1048
  80263e:	74 69       	mov a, #105
  802640:	f0          	movx @dptr, a
  802641:	90 04 19    	mov dptr, #1049
  802644:	74 76       	mov a, #118
  802646:	f0          	movx @dptr, a
  802647:	90 04 1a    	mov dptr, #1050
  80264a:	74 65       	mov a, #101
  80264c:	f0          	movx @dptr, a
  80264d:	90 04 1b    	mov dptr, #1051
  802650:	74 72       	mov a, #114
  802652:	f0          	movx @dptr, a
  802653:	90 04 1c    	mov dptr, #1052
  802656:	74 73       	mov a, #115
  802658:	f0          	movx @dptr, a
  802659:	90 04 1d    	mov dptr, #1053
  80265c:	74 2f       	mov a, #47
  80265e:	f0          	movx @dptr, a
  80265f:	90 04 1e    	mov dptr, #1054
  802662:	74 43       	mov a, #67
  802664:	f0          	movx @dptr, a
  802665:	90 04 1f    	mov dptr, #1055
  802668:	74 6f       	mov a, #111
  80266a:	f0          	movx @dptr, a
  80266b:	90 04 20    	mov dptr, #1056
  80266e:	74 72       	mov a, #114
  802670:	f0          	movx @dptr, a
  802671:	90 04 21    	mov dptr, #1057
  802674:	74 65       	mov a, #101
  802676:	f0          	movx @dptr, a
  802677:	90 04 22    	mov dptr, #1058
  80267a:	74 55       	mov a, #85
  80267c:	f0          	movx @dptr, a
  80267d:	90 04 23    	mov dptr, #1059
  802680:	74 41       	mov a, #65
  802682:	f0          	movx @dptr, a
  802683:	90 04 24    	mov dptr, #1060
  802686:	74 52       	mov a, #82
  802688:	f0          	movx @dptr, a
  802689:	90 04 25    	mov dptr, #1061
  80268c:	74 54       	mov a, #84
  80268e:	f0          	movx @dptr, a
  80268f:	90 04 26    	mov dptr, #1062
  802692:	74 61       	mov a, #97
  802694:	f0          	movx @dptr, a
  802695:	90 04 27    	mov dptr, #1063
  802698:	74 70       	mov a, #112
  80269a:	f0          	movx @dptr, a
  80269b:	90 04 28    	mov dptr, #1064
  80269e:	74 62       	mov a, #98
  8026a0:	f0          	movx @dptr, a
  8026a1:	90 04 29    	mov dptr, #1065
  8026a4:	74 2f       	mov a, #47
  8026a6:	f0          	movx @dptr, a
  8026a7:	90 04 2a    	mov dptr, #1066
  8026aa:	74 63       	mov a, #99
  8026ac:	f0          	movx @dptr, a
  8026ad:	90 04 2b    	mov dptr, #1067
  8026b0:	74 6f       	mov a, #111
  8026b2:	f0          	movx @dptr, a
  8026b3:	90 04 2c    	mov dptr, #1068
  8026b6:	74 72       	mov a, #114
  8026b8:	f0          	movx @dptr, a
  8026b9:	90 04 2d    	mov dptr, #1069
  8026bc:	74 65       	mov a, #101
  8026be:	f0          	movx @dptr, a
  8026bf:	90 04 2e    	mov dptr, #1070
  8026c2:	74 5f       	mov a, #95
  8026c4:	f0          	movx @dptr, a
  8026c5:	90 04 2f    	mov dptr, #1071
  8026c8:	74 75       	mov a, #117
  8026ca:	f0          	movx @dptr, a
  8026cb:	90 04 30    	mov dptr, #1072
  8026ce:	74 61       	mov a, #97
  8026d0:	f0          	movx @dptr, a
  8026d1:	90 04 31    	mov dptr, #1073
  8026d4:	74 72       	mov a, #114
  8026d6:	f0          	movx @dptr, a
  8026d7:	90 04 32    	mov dptr, #1074
  8026da:	74 74       	mov a, #116
  8026dc:	f0          	movx @dptr, a
  8026dd:	90 04 33    	mov dptr, #1075
  8026e0:	74 5f       	mov a, #95
  8026e2:	f0          	movx @dptr, a
  8026e3:	90 04 34    	mov dptr, #1076
  8026e6:	74 61       	mov a, #97
  8026e8:	f0          	movx @dptr, a
  8026e9:	90 04 35    	mov dptr, #1077
  8026ec:	74 70       	mov a, #112
  8026ee:	f0          	movx @dptr, a
  8026ef:	90 04 36    	mov dptr, #1078
  8026f2:	74 62       	mov a, #98
  8026f4:	f0          	movx @dptr, a
  8026f5:	90 04 37    	mov dptr, #1079
  8026f8:	74 2e       	mov a, #46
  8026fa:	f0          	movx @dptr, a
  8026fb:	90 04 38    	mov dptr, #1080
  8026fe:	74 63       	mov a, #99
  802700:	f0          	movx @dptr, a
  802701:	90 04 39    	mov dptr, #1081
  802704:	74 00       	mov a, #0
  802706:	f0          	movx @dptr, a
  802707:	90 00 8c    	mov dptr, #140
  80270a:	74 ce       	mov a, #206
  80270c:	f0          	movx @dptr, a
  80270d:	e4          	clr a
  80270e:	a3          	inc dptr
  80270f:	f0          	movx @dptr, a
  802710:	a3          	inc dptr
  802711:	f0          	movx @dptr, a
  802712:	a3          	inc dptr
  802713:	f0          	movx @dptr, a
  802714:	75 82 13    	mov dpl, #19
  802717:	75 83 04    	mov dph, #4
  80271a:	75 f0 00    	mov b, #0
  80271d:	c0 05       	push 0x05
  80271f:	c0 06       	push 0x06
  802721:	c0 07       	push 0x07
  802723:	12 05 f6    	lcall 8005f6 <HAL_assert_fail>
  802726:	d0 07       	pop 0x07
  802728:	d0 06       	pop 0x06
  80272a:	d0 05       	pop 0x05
  80272c:	90 03 bf    	mov dptr, #959
  80272f:	e0          	movx a, @dptr
  802730:	f5 37       	mov 0x37, a
  802732:	a3          	inc dptr
  802733:	e0          	movx a, @dptr
  802734:	f5 38       	mov 0x38, a
  802736:	a3          	inc dptr
  802737:	e0          	movx a, @dptr
  802738:	f5 39       	mov 0x39, a
  80273a:	e5 37       	mov a, 0x37
  80273c:	70 0b       	jnz 802749
  80273e:	e5 38       	mov a, 0x38
  802740:	70 07       	jnz 802749
  802742:	e5 39       	mov a, 0x39
  802744:	70 03       	jnz 802749
  802746:	02 28 b4    	ljmp 8028b4 <UART_get_rx+0x506>
  802749:	ed          	mov a, r5
  80274a:	60 03       	jz 80274f
  80274c:	02 28 b4    	ljmp 8028b4 <UART_get_rx+0x506>
  80274f:	ee          	mov a, r6
  802750:	4f          	orl a, r7
  802751:	70 03       	jnz 802756
  802753:	02 28 b4    	ljmp 8028b4 <UART_get_rx+0x506>
  802756:	90 03 c3    	mov dptr, #963
  802759:	e4          	clr a
  80275a:	f0          	movx @dptr, a
  80275b:	a3          	inc dptr
  80275c:	f0          	movx @dptr, a
  80275d:	85 37 82    	mov dpl, 0x37
  802760:	85 38 83    	mov dph, 0x38
  802763:	85 39 f0    	mov b, 0x39
  802766:	12 61 48    	lcall 806148 <GPIO_clear_irq+0x2c9>
  802769:	fd          	mov r5, a
  80276a:	a3          	inc dptr
  80276b:	12 61 48    	lcall 806148 <GPIO_clear_irq+0x2c9>
  80276e:	f8          	mov r0, a
  80276f:	74 10       	mov a, #16
  802771:	25 05       	add a, 0x05
  802773:	fd          	mov r5, a
  802774:	74 00       	mov a, #0
  802776:	35 00       	addc a, 00
  802778:	f8          	mov r0, a
  802779:	8d 82       	mov dpl, r5
  80277b:	88 83       	mov dph, r0
  80277d:	c0 06       	push 0x06
  80277f:	c0 07       	push 0x07
  802781:	12 06 a7    	lcall 8006a7 <HW_get_8bit_reg>
  802784:	ad 82       	mov r5, dpl
  802786:	d0 07       	pop 0x07
  802788:	d0 06       	pop 0x06
  80278a:	74 02       	mov a, #2
  80278c:	25 37       	add a, 0x37
  80278e:	f8          	mov r0, a
  80278f:	74 00       	mov a, #0
  802791:	35 38       	addc a, 0x38
  802793:	f9          	mov r1, a
  802794:	aa 39       	mov r2, 0x39
  802796:	88 82       	mov dpl, r0
  802798:	89 83       	mov dph, r1
  80279a:	8a f0       	mov b, r2
  80279c:	12 61 48    	lcall 806148 <GPIO_clear_irq+0x2c9>
  80279f:	fb          	mov r3, a
  8027a0:	ed          	mov a, r5
  8027a1:	42 03       	orl 0x03, a
  8027a3:	88 82       	mov dpl, r0
  8027a5:	89 83       	mov dph, r1
  8027a7:	8a f0       	mov b, r2
  8027a9:	eb          	mov a, r3
  8027aa:	12 61 2f    	lcall 80612f <GPIO_clear_irq+0x2b0>
  8027ad:	7a 00       	mov r2, #0
  8027af:	53 05 02    	anl 0x05, #2
  8027b2:	7a 00       	mov r2, #0
  8027b4:	90 03 c2    	mov dptr, #962
  8027b7:	ed          	mov a, r5
  8027b8:	f0          	movx @dptr, a
  8027b9:	ad 37       	mov r5, 0x37
  8027bb:	a8 38       	mov r0, 0x38
  8027bd:	a9 39       	mov r1, 0x39
  8027bf:	90 03 c2    	mov dptr, #962
  8027c2:	e0          	movx a, @dptr
  8027c3:	fa          	mov r2, a
  8027c4:	ea          	mov a, r2
  8027c5:	70 03       	jnz 8027ca
  8027c7:	02 28 b4    	ljmp 8028b4 <UART_get_rx+0x506>
  8027ca:	90 03 c3    	mov dptr, #963
  8027cd:	e0          	movx a, @dptr
  8027ce:	fa          	mov r2, a
  8027cf:	a3          	inc dptr
  8027d0:	e0          	movx a, @dptr
  8027d1:	fb          	mov r3, a
  8027d2:	c3          	clr c
  8027d3:	ea          	mov a, r2
  8027d4:	9e          	subb a, r6
  8027d5:	eb          	mov a, r3
  8027d6:	9f          	subb a, r7
  8027d7:	40 03       	jc 8027dc
  8027d9:	02 28 b4    	ljmp 8028b4 <UART_get_rx+0x506>
  8027dc:	c0 06       	push 0x06
  8027de:	c0 07       	push 0x07
  8027e0:	e5 02       	mov a, 0x02
  8027e2:	25 3a       	add a, 0x3a
  8027e4:	f5 37       	mov 0x37, a
  8027e6:	e5 03       	mov a, 0x03
  8027e8:	35 3b       	addc a, 0x3b
  8027ea:	f5 38       	mov 0x38, a
  8027ec:	85 3c 39    	mov 0x39, 0x3c
  8027ef:	8d 82       	mov dpl, r5
  8027f1:	88 83       	mov dph, r0
  8027f3:	89 f0       	mov b, r1
  8027f5:	12 61 48    	lcall 806148 <GPIO_clear_irq+0x2c9>
  8027f8:	fc          	mov r4, a
  8027f9:	a3          	inc dptr
  8027fa:	12 61 48    	lcall 806148 <GPIO_clear_irq+0x2c9>
  8027fd:	fe          	mov r6, a
  8027fe:	74 04       	mov a, #4
  802800:	25 04       	add a, 0x04
  802802:	fc          	mov r4, a
  802803:	74 00       	mov a, #0
  802805:	35 06       	addc a, 0x06
  802807:	fe          	mov r6, a
  802808:	8c 82       	mov dpl, r4
  80280a:	8e 83       	mov dph, r6
  80280c:	c0 02       	push 0x02
  80280e:	c0 03       	push 0x03
  802810:	c0 05       	push 0x05
  802812:	c0 06       	push 0x06
  802814:	c0 07       	push 0x07
  802816:	c0 00       	push 00
  802818:	c0 01       	push 0x01
  80281a:	12 06 a7    	lcall 8006a7 <HW_get_8bit_reg>
  80281d:	ac 82       	mov r4, dpl
  80281f:	d0 01       	pop 0x01
  802821:	d0 00       	pop 00
  802823:	d0 07       	pop 0x07
  802825:	d0 06       	pop 0x06
  802827:	d0 05       	pop 0x05
  802829:	d0 03       	pop 0x03
  80282b:	d0 02       	pop 0x02
  80282d:	85 37 82    	mov dpl, 0x37
  802830:	85 38 83    	mov dph, 0x38
  802833:	85 39 f0    	mov b, 0x39
  802836:	ec          	mov a, r4
  802837:	12 61 2f    	lcall 80612f <GPIO_clear_irq+0x2b0>
  80283a:	90 03 c3    	mov dptr, #963
  80283d:	74 01       	mov a, #1
  80283f:	25 02       	add a, 0x02
  802841:	f0          	movx @dptr, a
  802842:	74 00       	mov a, #0
  802844:	35 03       	addc a, 0x03
  802846:	a3          	inc dptr
  802847:	f0          	movx @dptr, a
  802848:	8d 82       	mov dpl, r5
  80284a:	88 83       	mov dph, r0
  80284c:	89 f0       	mov b, r1
  80284e:	12 61 48    	lcall 806148 <GPIO_clear_irq+0x2c9>
  802851:	fa          	mov r2, a
  802852:	a3          	inc dptr
  802853:	12 61 48    	lcall 806148 <GPIO_clear_irq+0x2c9>
  802856:	fb          	mov r3, a
  802857:	74 10       	mov a, #16
  802859:	25 02       	add a, 0x02
  80285b:	fa          	mov r2, a
  80285c:	74 00       	mov a, #0
  80285e:	35 03       	addc a, 0x03
  802860:	fb          	mov r3, a
  802861:	8a 82       	mov dpl, r2
  802863:	8b 83       	mov dph, r3
  802865:	c0 05       	push 0x05
  802867:	c0 06       	push 0x06
  802869:	c0 07       	push 0x07
  80286b:	c0 00       	push 00
  80286d:	c0 01       	push 0x01
  80286f:	12 06 a7    	lcall 8006a7 <HW_get_8bit_reg>
  802872:	aa 82       	mov r2, dpl
  802874:	d0 01       	pop 0x01
  802876:	d0 00       	pop 00
  802878:	d0 07       	pop 0x07
  80287a:	d0 06       	pop 0x06
  80287c:	d0 05       	pop 0x05
  80287e:	74 02       	mov a, #2
  802880:	25 05       	add a, 0x05
  802882:	fb          	mov r3, a
  802883:	74 00       	mov a, #0
  802885:	35 00       	addc a, 00
  802887:	fc          	mov r4, a
  802888:	89 06       	mov 0x06, r1
  80288a:	8b 82       	mov dpl, r3
  80288c:	8c 83       	mov dph, r4
  80288e:	8e f0       	mov b, r6
  802890:	12 61 48    	lcall 806148 <GPIO_clear_irq+0x2c9>
  802893:	ff          	mov r7, a
  802894:	ea          	mov a, r2
  802895:	42 07       	orl 0x07, a
  802897:	8b 82       	mov dpl, r3
  802899:	8c 83       	mov dph, r4
  80289b:	8e f0       	mov b, r6
  80289d:	ef          	mov a, r7
  80289e:	12 61 2f    	lcall 80612f <GPIO_clear_irq+0x2b0>
  8028a1:	7b 00       	mov r3, #0
  8028a3:	53 02 02    	anl 0x02, #2
  8028a6:	7b 00       	mov r3, #0
  8028a8:	90 03 c2    	mov dptr, #962
  8028ab:	ea          	mov a, r2
  8028ac:	f0          	movx @dptr, a
  8028ad:	d0 07       	pop 0x07
  8028af:	d0 06       	pop 0x06
  8028b1:	02 27 bf    	ljmp 8027bf <UART_get_rx+0x411>
  8028b4:	90 03 c3    	mov dptr, #963
  8028b7:	e0          	movx a, @dptr
  8028b8:	fa          	mov r2, a
  8028b9:	a3          	inc dptr
  8028ba:	e0          	movx a, @dptr
  8028bb:	fb          	mov r3, a
  8028bc:	8a 82       	mov dpl, r2
  8028be:	8b 83       	mov dph, r3
  8028c0:	22          	ret

008028c1 <UART_polled_tx_string>:
  8028c1:	aa f0       	mov r2, b
  8028c3:	ab 83       	mov r3, dph
  8028c5:	e5 82       	mov a, dpl
  8028c7:	90 04 3d    	mov dptr, #1085
  8028ca:	f0          	movx @dptr, a
  8028cb:	a3          	inc dptr
  8028cc:	eb          	mov a, r3
  8028cd:	f0          	movx @dptr, a
  8028ce:	a3          	inc dptr
  8028cf:	ea          	mov a, r2
  8028d0:	f0          	movx @dptr, a
  8028d1:	90 04 3d    	mov dptr, #1085
  8028d4:	e0          	movx a, @dptr
  8028d5:	fa          	mov r2, a
  8028d6:	a3          	inc dptr
  8028d7:	e0          	movx a, @dptr
  8028d8:	fb          	mov r3, a
  8028d9:	a3          	inc dptr
  8028da:	e0          	movx a, @dptr
  8028db:	fc          	mov r4, a
  8028dc:	ba 00 08    	cjne r2, #0, 8028e7
  8028df:	bb 00 05    	cjne r3, #0, 8028e7
  8028e2:	bc 00 02    	cjne r4, #0, 8028e7
  8028e5:	80 03       	sjmp 8028ea
  8028e7:	02 29 ed    	ljmp 8029ed <UART_polled_tx_string+0x12c>
  8028ea:	90 04 44    	mov dptr, #1092
  8028ed:	74 2e       	mov a, #46
  8028ef:	f0          	movx @dptr, a
  8028f0:	90 04 45    	mov dptr, #1093
  8028f3:	74 2e       	mov a, #46
  8028f5:	f0          	movx @dptr, a
  8028f6:	90 04 46    	mov dptr, #1094
  8028f9:	74 2f       	mov a, #47
  8028fb:	f0          	movx @dptr, a
  8028fc:	90 04 47    	mov dptr, #1095
  8028ff:	74 64       	mov a, #100
  802901:	f0          	movx @dptr, a
  802902:	90 04 48    	mov dptr, #1096
  802905:	74 72       	mov a, #114
  802907:	f0          	movx @dptr, a
  802908:	90 04 49    	mov dptr, #1097
  80290b:	74 69       	mov a, #105
  80290d:	f0          	movx @dptr, a
  80290e:	90 04 4a    	mov dptr, #1098
  802911:	74 76       	mov a, #118
  802913:	f0          	movx @dptr, a
  802914:	90 04 4b    	mov dptr, #1099
  802917:	74 65       	mov a, #101
  802919:	f0          	movx @dptr, a
  80291a:	90 04 4c    	mov dptr, #1100
  80291d:	74 72       	mov a, #114
  80291f:	f0          	movx @dptr, a
  802920:	90 04 4d    	mov dptr, #1101
  802923:	74 73       	mov a, #115
  802925:	f0          	movx @dptr, a
  802926:	90 04 4e    	mov dptr, #1102
  802929:	74 2f       	mov a, #47
  80292b:	f0          	movx @dptr, a
  80292c:	90 04 4f    	mov dptr, #1103
  80292f:	74 43       	mov a, #67
  802931:	f0          	movx @dptr, a
  802932:	90 04 50    	mov dptr, #1104
  802935:	74 6f       	mov a, #111
  802937:	f0          	movx @dptr, a
  802938:	90 04 51    	mov dptr, #1105
  80293b:	74 72       	mov a, #114
  80293d:	f0          	movx @dptr, a
  80293e:	90 04 52    	mov dptr, #1106
  802941:	74 65       	mov a, #101
  802943:	f0          	movx @dptr, a
  802944:	90 04 53    	mov dptr, #1107
  802947:	74 55       	mov a, #85
  802949:	f0          	movx @dptr, a
  80294a:	90 04 54    	mov dptr, #1108
  80294d:	74 41       	mov a, #65
  80294f:	f0          	movx @dptr, a
  802950:	90 04 55    	mov dptr, #1109
  802953:	74 52       	mov a, #82
  802955:	f0          	movx @dptr, a
  802956:	90 04 56    	mov dptr, #1110
  802959:	74 54       	mov a, #84
  80295b:	f0          	movx @dptr, a
  80295c:	90 04 57    	mov dptr, #1111
  80295f:	74 61       	mov a, #97
  802961:	f0          	movx @dptr, a
  802962:	90 04 58    	mov dptr, #1112
  802965:	74 70       	mov a, #112
  802967:	f0          	movx @dptr, a
  802968:	90 04 59    	mov dptr, #1113
  80296b:	74 62       	mov a, #98
  80296d:	f0          	movx @dptr, a
  80296e:	90 04 5a    	mov dptr, #1114
  802971:	74 2f       	mov a, #47
  802973:	f0          	movx @dptr, a
  802974:	90 04 5b    	mov dptr, #1115
  802977:	74 63       	mov a, #99
  802979:	f0          	movx @dptr, a
  80297a:	90 04 5c    	mov dptr, #1116
  80297d:	74 6f       	mov a, #111
  80297f:	f0          	movx @dptr, a
  802980:	90 04 5d    	mov dptr, #1117
  802983:	74 72       	mov a, #114
  802985:	f0          	movx @dptr, a
  802986:	90 04 5e    	mov dptr, #1118
  802989:	74 65       	mov a, #101
  80298b:	f0          	movx @dptr, a
  80298c:	90 04 5f    	mov dptr, #1119
  80298f:	74 5f       	mov a, #95
  802991:	f0          	movx @dptr, a
  802992:	90 04 60    	mov dptr, #1120
  802995:	74 75       	mov a, #117
  802997:	f0          	movx @dptr, a
  802998:	90 04 61    	mov dptr, #1121
  80299b:	74 61       	mov a, #97
  80299d:	f0          	movx @dptr, a
  80299e:	90 04 62    	mov dptr, #1122
  8029a1:	74 72       	mov a, #114
  8029a3:	f0          	movx @dptr, a
  8029a4:	90 04 63    	mov dptr, #1123
  8029a7:	74 74       	mov a, #116
  8029a9:	f0          	movx @dptr, a
  8029aa:	90 04 64    	mov dptr, #1124
  8029ad:	74 5f       	mov a, #95
  8029af:	f0          	movx @dptr, a
  8029b0:	90 04 65    	mov dptr, #1125
  8029b3:	74 61       	mov a, #97
  8029b5:	f0          	movx @dptr, a
  8029b6:	90 04 66    	mov dptr, #1126
  8029b9:	74 70       	mov a, #112
  8029bb:	f0          	movx @dptr, a
  8029bc:	90 04 67    	mov dptr, #1127
  8029bf:	74 62       	mov a, #98
  8029c1:	f0          	movx @dptr, a
  8029c2:	90 04 68    	mov dptr, #1128
  8029c5:	74 2e       	mov a, #46
  8029c7:	f0          	movx @dptr, a
  8029c8:	90 04 69    	mov dptr, #1129
  8029cb:	74 63       	mov a, #99
  8029cd:	f0          	movx @dptr, a
  8029ce:	90 04 6a    	mov dptr, #1130
  8029d1:	74 00       	mov a, #0
  8029d3:	f0          	movx @dptr, a
  8029d4:	90 00 8c    	mov dptr, #140
  8029d7:	74 f3       	mov a, #243
  8029d9:	f0          	movx @dptr, a
  8029da:	e4          	clr a
  8029db:	a3          	inc dptr
  8029dc:	f0          	movx @dptr, a
  8029dd:	a3          	inc dptr
  8029de:	f0          	movx @dptr, a
  8029df:	a3          	inc dptr
  8029e0:	f0          	movx @dptr, a
  8029e1:	75 82 44    	mov dpl, #68
  8029e4:	75 83 04    	mov dph, #4
  8029e7:	75 f0 00    	mov b, #0
  8029ea:	12 05 f6    	lcall 8005f6 <HAL_assert_fail>
  8029ed:	90 04 3a    	mov dptr, #1082
  8029f0:	e0          	movx a, @dptr
  8029f1:	fa          	mov r2, a
  8029f2:	a3          	inc dptr
  8029f3:	e0          	movx a, @dptr
  8029f4:	fb          	mov r3, a
  8029f5:	a3          	inc dptr
  8029f6:	e0          	movx a, @dptr
  8029f7:	fc          	mov r4, a
  8029f8:	ba 00 0a    	cjne r2, #0, 802a05
  8029fb:	bb 00 07    	cjne r3, #0, 802a05
  8029fe:	bc 00 04    	cjne r4, #0, 802a05
  802a01:	74 01       	mov a, #1
  802a03:	80 01       	sjmp 802a06
  802a05:	e4          	clr a
  802a06:	fd          	mov r5, a
  802a07:	ed          	mov a, r5
  802a08:	70 03       	jnz 802a0d
  802a0a:	02 2b 20    	ljmp 802b20 <UART_polled_tx_string+0x25f>
  802a0d:	90 04 6b    	mov dptr, #1131
  802a10:	74 2e       	mov a, #46
  802a12:	f0          	movx @dptr, a
  802a13:	90 04 6c    	mov dptr, #1132
  802a16:	74 2e       	mov a, #46
  802a18:	f0          	movx @dptr, a
  802a19:	90 04 6d    	mov dptr, #1133
  802a1c:	74 2f       	mov a, #47
  802a1e:	f0          	movx @dptr, a
  802a1f:	90 04 6e    	mov dptr, #1134
  802a22:	74 64       	mov a, #100
  802a24:	f0          	movx @dptr, a
  802a25:	90 04 6f    	mov dptr, #1135
  802a28:	74 72       	mov a, #114
  802a2a:	f0          	movx @dptr, a
  802a2b:	90 04 70    	mov dptr, #1136
  802a2e:	74 69       	mov a, #105
  802a30:	f0          	movx @dptr, a
  802a31:	90 04 71    	mov dptr, #1137
  802a34:	74 76       	mov a, #118
  802a36:	f0          	movx @dptr, a
  802a37:	90 04 72    	mov dptr, #1138
  802a3a:	74 65       	mov a, #101
  802a3c:	f0          	movx @dptr, a
  802a3d:	90 04 73    	mov dptr, #1139
  802a40:	74 72       	mov a, #114
  802a42:	f0          	movx @dptr, a
  802a43:	90 04 74    	mov dptr, #1140
  802a46:	74 73       	mov a, #115
  802a48:	f0          	movx @dptr, a
  802a49:	90 04 75    	mov dptr, #1141
  802a4c:	74 2f       	mov a, #47
  802a4e:	f0          	movx @dptr, a
  802a4f:	90 04 76    	mov dptr, #1142
  802a52:	74 43       	mov a, #67
  802a54:	f0          	movx @dptr, a
  802a55:	90 04 77    	mov dptr, #1143
  802a58:	74 6f       	mov a, #111
  802a5a:	f0          	movx @dptr, a
  802a5b:	90 04 78    	mov dptr, #1144
  802a5e:	74 72       	mov a, #114
  802a60:	f0          	movx @dptr, a
  802a61:	90 04 79    	mov dptr, #1145
  802a64:	74 65       	mov a, #101
  802a66:	f0          	movx @dptr, a
  802a67:	90 04 7a    	mov dptr, #1146
  802a6a:	74 55       	mov a, #85
  802a6c:	f0          	movx @dptr, a
  802a6d:	90 04 7b    	mov dptr, #1147
  802a70:	74 41       	mov a, #65
  802a72:	f0          	movx @dptr, a
  802a73:	90 04 7c    	mov dptr, #1148
  802a76:	74 52       	mov a, #82
  802a78:	f0          	movx @dptr, a
  802a79:	90 04 7d    	mov dptr, #1149
  802a7c:	74 54       	mov a, #84
  802a7e:	f0          	movx @dptr, a
  802a7f:	90 04 7e    	mov dptr, #1150
  802a82:	74 61       	mov a, #97
  802a84:	f0          	movx @dptr, a
  802a85:	90 04 7f    	mov dptr, #1151
  802a88:	74 70       	mov a, #112
  802a8a:	f0          	movx @dptr, a
  802a8b:	90 04 80    	mov dptr, #1152
  802a8e:	74 62       	mov a, #98
  802a90:	f0          	movx @dptr, a
  802a91:	90 04 81    	mov dptr, #1153
  802a94:	74 2f       	mov a, #47
  802a96:	f0          	movx @dptr, a
  802a97:	90 04 82    	mov dptr, #1154
  802a9a:	74 63       	mov a, #99
  802a9c:	f0          	movx @dptr, a
  802a9d:	90 04 83    	mov dptr, #1155
  802aa0:	74 6f       	mov a, #111
  802aa2:	f0          	movx @dptr, a
  802aa3:	90 04 84    	mov dptr, #1156
  802aa6:	74 72       	mov a, #114
  802aa8:	f0          	movx @dptr, a
  802aa9:	90 04 85    	mov dptr, #1157
  802aac:	74 65       	mov a, #101
  802aae:	f0          	movx @dptr, a
  802aaf:	90 04 86    	mov dptr, #1158
  802ab2:	74 5f       	mov a, #95
  802ab4:	f0          	movx @dptr, a
  802ab5:	90 04 87    	mov dptr, #1159
  802ab8:	74 75       	mov a, #117
  802aba:	f0          	movx @dptr, a
  802abb:	90 04 88    	mov dptr, #1160
  802abe:	74 61       	mov a, #97
  802ac0:	f0          	movx @dptr, a
  802ac1:	90 04 89    	mov dptr, #1161
  802ac4:	74 72       	mov a, #114
  802ac6:	f0          	movx @dptr, a
  802ac7:	90 04 8a    	mov dptr, #1162
  802aca:	74 74       	mov a, #116
  802acc:	f0          	movx @dptr, a
  802acd:	90 04 8b    	mov dptr, #1163
  802ad0:	74 5f       	mov a, #95
  802ad2:	f0          	movx @dptr, a
  802ad3:	90 04 8c    	mov dptr, #1164
  802ad6:	74 61       	mov a, #97
  802ad8:	f0          	movx @dptr, a
  802ad9:	90 04 8d    	mov dptr, #1165
  802adc:	74 70       	mov a, #112
  802ade:	f0          	movx @dptr, a
  802adf:	90 04 8e    	mov dptr, #1166
  802ae2:	74 62       	mov a, #98
  802ae4:	f0          	movx @dptr, a
  802ae5:	90 04 8f    	mov dptr, #1167
  802ae8:	74 2e       	mov a, #46
  802aea:	f0          	movx @dptr, a
  802aeb:	90 04 90    	mov dptr, #1168
  802aee:	74 63       	mov a, #99
  802af0:	f0          	movx @dptr, a
  802af1:	90 04 91    	mov dptr, #1169
  802af4:	74 00       	mov a, #0
  802af6:	f0          	movx @dptr, a
  802af7:	90 00 8c    	mov dptr, #140
  802afa:	74 f4       	mov a, #244
  802afc:	f0          	movx @dptr, a
  802afd:	e4          	clr a
  802afe:	a3          	inc dptr
  802aff:	f0          	movx @dptr, a
  802b00:	a3          	inc dptr
  802b01:	f0          	movx @dptr, a
  802b02:	a3          	inc dptr
  802b03:	f0          	movx @dptr, a
  802b04:	75 82 6b    	mov dpl, #107
  802b07:	75 83 04    	mov dph, #4
  802b0a:	75 f0 00    	mov b, #0
  802b0d:	c0 02       	push 0x02
  802b0f:	c0 03       	push 0x03
  802b11:	c0 04       	push 0x04
  802b13:	c0 05       	push 0x05
  802b15:	12 05 f6    	lcall 8005f6 <HAL_assert_fail>
  802b18:	d0 05       	pop 0x05
  802b1a:	d0 04       	pop 0x04
  802b1c:	d0 03       	pop 0x03
  802b1e:	d0 02       	pop 0x02
  802b20:	90 04 3d    	mov dptr, #1085
  802b23:	e0          	movx a, @dptr
  802b24:	fe          	mov r6, a
  802b25:	a3          	inc dptr
  802b26:	e0          	movx a, @dptr
  802b27:	ff          	mov r7, a
  802b28:	a3          	inc dptr
  802b29:	e0          	movx a, @dptr
  802b2a:	f8          	mov r0, a
  802b2b:	be 00 09    	cjne r6, #0, 802b37
  802b2e:	bf 00 06    	cjne r7, #0, 802b37
  802b31:	b8 00 03    	cjne r0, #0, 802b37
  802b34:	02 2c 5b    	ljmp 802c5b <UART_polled_tx_string+0x39a>
  802b37:	ed          	mov a, r5
  802b38:	60 03       	jz 802b3d
  802b3a:	02 2c 5b    	ljmp 802c5b <UART_polled_tx_string+0x39a>
  802b3d:	90 04 40    	mov dptr, #1088
  802b40:	e4          	clr a
  802b41:	f0          	movx @dptr, a
  802b42:	a3          	inc dptr
  802b43:	f0          	movx @dptr, a
  802b44:	a3          	inc dptr
  802b45:	f0          	movx @dptr, a
  802b46:	a3          	inc dptr
  802b47:	f0          	movx @dptr, a
  802b48:	88 05       	mov 0x05, r0
  802b4a:	c0 06       	push 0x06
  802b4c:	c0 07       	push 0x07
  802b4e:	c0 05       	push 0x05
  802b50:	90 04 40    	mov dptr, #1088
  802b53:	e0          	movx a, @dptr
  802b54:	f8          	mov r0, a
  802b55:	a3          	inc dptr
  802b56:	e0          	movx a, @dptr
  802b57:	f9          	mov r1, a
  802b58:	a3          	inc dptr
  802b59:	e0          	movx a, @dptr
  802b5a:	fd          	mov r5, a
  802b5b:	a3          	inc dptr
  802b5c:	e0          	movx a, @dptr
  802b5d:	fe          	mov r6, a
  802b5e:	e5 00       	mov a, 00
  802b60:	25 02       	add a, 0x02
  802b62:	f8          	mov r0, a
  802b63:	e5 01       	mov a, 0x01
  802b65:	35 03       	addc a, 0x03
  802b67:	f9          	mov r1, a
  802b68:	8c 05       	mov 0x05, r4
  802b6a:	88 82       	mov dpl, r0
  802b6c:	89 83       	mov dph, r1
  802b6e:	8d f0       	mov b, r5
  802b70:	12 61 48    	lcall 806148 <GPIO_clear_irq+0x2c9>
  802b73:	f8          	mov r0, a
  802b74:	7d 00       	mov r5, #0
  802b76:	b8 00 07    	cjne r0, #0, 802b80
  802b79:	bd 00 04    	cjne r5, #0, 802b80
  802b7c:	74 01       	mov a, #1
  802b7e:	80 01       	sjmp 802b81
  802b80:	e4          	clr a
  802b81:	d0 05       	pop 0x05
  802b83:	d0 07       	pop 0x07
  802b85:	d0 06       	pop 0x06
  802b87:	60 03       	jz 802b8c
  802b89:	02 2c 5b    	ljmp 802c5b <UART_polled_tx_string+0x39a>
  802b8c:	8e 82       	mov dpl, r6
  802b8e:	8f 83       	mov dph, r7
  802b90:	8d f0       	mov b, r5
  802b92:	12 61 48    	lcall 806148 <GPIO_clear_irq+0x2c9>
  802b95:	f8          	mov r0, a
  802b96:	a3          	inc dptr
  802b97:	12 61 48    	lcall 806148 <GPIO_clear_irq+0x2c9>
  802b9a:	f9          	mov r1, a
  802b9b:	74 10       	mov a, #16
  802b9d:	25 00       	add a, 00
  802b9f:	f8          	mov r0, a
  802ba0:	74 00       	mov a, #0
  802ba2:	35 01       	addc a, 0x01
  802ba4:	f9          	mov r1, a
  802ba5:	88 82       	mov dpl, r0
  802ba7:	89 83       	mov dph, r1
  802ba9:	c0 02       	push 0x02
  802bab:	c0 03       	push 0x03
  802bad:	c0 04       	push 0x04
  802baf:	c0 05       	push 0x05
  802bb1:	c0 06       	push 0x06
  802bb3:	c0 07       	push 0x07
  802bb5:	12 06 a7    	lcall 8006a7 <HW_get_8bit_reg>
  802bb8:	a8 82       	mov r0, dpl
  802bba:	d0 07       	pop 0x07
  802bbc:	d0 06       	pop 0x06
  802bbe:	d0 05       	pop 0x05
  802bc0:	d0 04       	pop 0x04
  802bc2:	d0 03       	pop 0x03
  802bc4:	d0 02       	pop 0x02
  802bc6:	79 00       	mov r1, #0
  802bc8:	53 00 01    	anl 00, #1
  802bcb:	79 00       	mov r1, #0
  802bcd:	e8          	mov a, r0
  802bce:	70 03       	jnz 802bd3
  802bd0:	02 2b 8c    	ljmp 802b8c <UART_polled_tx_string+0x2cb>
  802bd3:	8e 82       	mov dpl, r6
  802bd5:	8f 83       	mov dph, r7
  802bd7:	8d f0       	mov b, r5
  802bd9:	12 61 48    	lcall 806148 <GPIO_clear_irq+0x2c9>
  802bdc:	f5 3d       	mov 0x3d, a
  802bde:	a3          	inc dptr
  802bdf:	12 61 48    	lcall 806148 <GPIO_clear_irq+0x2c9>
  802be2:	f5 3e       	mov 0x3e, a
  802be4:	c0 06       	push 0x06
  802be6:	c0 07       	push 0x07
  802be8:	c0 05       	push 0x05
  802bea:	90 04 40    	mov dptr, #1088
  802bed:	e0          	movx a, @dptr
  802bee:	f5 3f       	mov 0x3f, a
  802bf0:	a3          	inc dptr
  802bf1:	e0          	movx a, @dptr
  802bf2:	f5 40       	mov 0x40, a
  802bf4:	a3          	inc dptr
  802bf5:	e0          	movx a, @dptr
  802bf6:	f5 41       	mov 0x41, a
  802bf8:	a3          	inc dptr
  802bf9:	e0          	movx a, @dptr
  802bfa:	f5 42       	mov 0x42, a
  802bfc:	e5 3f       	mov a, 0x3f
  802bfe:	25 02       	add a, 0x02
  802c00:	f9          	mov r1, a
  802c01:	e5 40       	mov a, 0x40
  802c03:	35 03       	addc a, 0x03
  802c05:	fd          	mov r5, a
  802c06:	8c 06       	mov 0x06, r4
  802c08:	89 82       	mov dpl, r1
  802c0a:	8d 83       	mov dph, r5
  802c0c:	8e f0       	mov b, r6
  802c0e:	12 61 48    	lcall 806148 <GPIO_clear_irq+0x2c9>
  802c11:	f9          	mov r1, a
  802c12:	90 00 a9    	mov dptr, #169
  802c15:	e9          	mov a, r1
  802c16:	f0          	movx @dptr, a
  802c17:	85 3d 82    	mov dpl, 0x3d
  802c1a:	85 3e 83    	mov dph, 0x3e
  802c1d:	c0 02       	push 0x02
  802c1f:	c0 03       	push 0x03
  802c21:	c0 04       	push 0x04
  802c23:	c0 05       	push 0x05
  802c25:	c0 06       	push 0x06
  802c27:	c0 07       	push 0x07
  802c29:	12 06 99    	lcall 800699 <HW_set_8bit_reg>
  802c2c:	d0 07       	pop 0x07
  802c2e:	d0 06       	pop 0x06
  802c30:	d0 05       	pop 0x05
  802c32:	d0 04       	pop 0x04
  802c34:	d0 03       	pop 0x03
  802c36:	d0 02       	pop 0x02
  802c38:	90 04 40    	mov dptr, #1088
  802c3b:	74 01       	mov a, #1
  802c3d:	25 3f       	add a, 0x3f
  802c3f:	f0          	movx @dptr, a
  802c40:	74 00       	mov a, #0
  802c42:	35 40       	addc a, 0x40
  802c44:	a3          	inc dptr
  802c45:	f0          	movx @dptr, a
  802c46:	74 00       	mov a, #0
  802c48:	35 41       	addc a, 0x41
  802c4a:	a3          	inc dptr
  802c4b:	f0          	movx @dptr, a
  802c4c:	74 00       	mov a, #0
  802c4e:	35 42       	addc a, 0x42
  802c50:	a3          	inc dptr
  802c51:	f0          	movx @dptr, a
  802c52:	d0 05       	pop 0x05
  802c54:	d0 07       	pop 0x07
  802c56:	d0 06       	pop 0x06
  802c58:	02 2b 4a    	ljmp 802b4a <UART_polled_tx_string+0x289>
  802c5b:	22          	ret

00802c5c <UART_get_rx_status>:
  802c5c:	aa f0       	mov r2, b
  802c5e:	ab 83       	mov r3, dph
  802c60:	e5 82       	mov a, dpl
  802c62:	90 04 92    	mov dptr, #1170
  802c65:	f0          	movx @dptr, a
  802c66:	a3          	inc dptr
  802c67:	eb          	mov a, r3
  802c68:	f0          	movx @dptr, a
  802c69:	a3          	inc dptr
  802c6a:	ea          	mov a, r2
  802c6b:	f0          	movx @dptr, a
  802c6c:	90 04 95    	mov dptr, #1173
  802c6f:	74 ff       	mov a, #255
  802c71:	f0          	movx @dptr, a
  802c72:	90 04 92    	mov dptr, #1170
  802c75:	e0          	movx a, @dptr
  802c76:	fa          	mov r2, a
  802c77:	a3          	inc dptr
  802c78:	e0          	movx a, @dptr
  802c79:	fb          	mov r3, a
  802c7a:	a3          	inc dptr
  802c7b:	e0          	movx a, @dptr
  802c7c:	fc          	mov r4, a
  802c7d:	ba 00 08    	cjne r2, #0, 802c88
  802c80:	bb 00 05    	cjne r3, #0, 802c88
  802c83:	bc 00 02    	cjne r4, #0, 802c88
  802c86:	80 03       	sjmp 802c8b
  802c88:	02 2d 93    	ljmp 802d93 <UART_get_rx_status+0x137>
  802c8b:	90 04 96    	mov dptr, #1174
  802c8e:	74 2e       	mov a, #46
  802c90:	f0          	movx @dptr, a
  802c91:	90 04 97    	mov dptr, #1175
  802c94:	74 2e       	mov a, #46
  802c96:	f0          	movx @dptr, a
  802c97:	90 04 98    	mov dptr, #1176
  802c9a:	74 2f       	mov a, #47
  802c9c:	f0          	movx @dptr, a
  802c9d:	90 04 99    	mov dptr, #1177
  802ca0:	74 64       	mov a, #100
  802ca2:	f0          	movx @dptr, a
  802ca3:	90 04 9a    	mov dptr, #1178
  802ca6:	74 72       	mov a, #114
  802ca8:	f0          	movx @dptr, a
  802ca9:	90 04 9b    	mov dptr, #1179
  802cac:	74 69       	mov a, #105
  802cae:	f0          	movx @dptr, a
  802caf:	90 04 9c    	mov dptr, #1180
  802cb2:	74 76       	mov a, #118
  802cb4:	f0          	movx @dptr, a
  802cb5:	90 04 9d    	mov dptr, #1181
  802cb8:	74 65       	mov a, #101
  802cba:	f0          	movx @dptr, a
  802cbb:	90 04 9e    	mov dptr, #1182
  802cbe:	74 72       	mov a, #114
  802cc0:	f0          	movx @dptr, a
  802cc1:	90 04 9f    	mov dptr, #1183
  802cc4:	74 73       	mov a, #115
  802cc6:	f0          	movx @dptr, a
  802cc7:	90 04 a0    	mov dptr, #1184
  802cca:	74 2f       	mov a, #47
  802ccc:	f0          	movx @dptr, a
  802ccd:	90 04 a1    	mov dptr, #1185
  802cd0:	74 43       	mov a, #67
  802cd2:	f0          	movx @dptr, a
  802cd3:	90 04 a2    	mov dptr, #1186
  802cd6:	74 6f       	mov a, #111
  802cd8:	f0          	movx @dptr, a
  802cd9:	90 04 a3    	mov dptr, #1187
  802cdc:	74 72       	mov a, #114
  802cde:	f0          	movx @dptr, a
  802cdf:	90 04 a4    	mov dptr, #1188
  802ce2:	74 65       	mov a, #101
  802ce4:	f0          	movx @dptr, a
  802ce5:	90 04 a5    	mov dptr, #1189
  802ce8:	74 55       	mov a, #85
  802cea:	f0          	movx @dptr, a
  802ceb:	90 04 a6    	mov dptr, #1190
  802cee:	74 41       	mov a, #65
  802cf0:	f0          	movx @dptr, a
  802cf1:	90 04 a7    	mov dptr, #1191
  802cf4:	74 52       	mov a, #82
  802cf6:	f0          	movx @dptr, a
  802cf7:	90 04 a8    	mov dptr, #1192
  802cfa:	74 54       	mov a, #84
  802cfc:	f0          	movx @dptr, a
  802cfd:	90 04 a9    	mov dptr, #1193
  802d00:	74 61       	mov a, #97
  802d02:	f0          	movx @dptr, a
  802d03:	90 04 aa    	mov dptr, #1194
  802d06:	74 70       	mov a, #112
  802d08:	f0          	movx @dptr, a
  802d09:	90 04 ab    	mov dptr, #1195
  802d0c:	74 62       	mov a, #98
  802d0e:	f0          	movx @dptr, a
  802d0f:	90 04 ac    	mov dptr, #1196
  802d12:	74 2f       	mov a, #47
  802d14:	f0          	movx @dptr, a
  802d15:	90 04 ad    	mov dptr, #1197
  802d18:	74 63       	mov a, #99
  802d1a:	f0          	movx @dptr, a
  802d1b:	90 04 ae    	mov dptr, #1198
  802d1e:	74 6f       	mov a, #111
  802d20:	f0          	movx @dptr, a
  802d21:	90 04 af    	mov dptr, #1199
  802d24:	74 72       	mov a, #114
  802d26:	f0          	movx @dptr, a
  802d27:	90 04 b0    	mov dptr, #1200
  802d2a:	74 65       	mov a, #101
  802d2c:	f0          	movx @dptr, a
  802d2d:	90 04 b1    	mov dptr, #1201
  802d30:	74 5f       	mov a, #95
  802d32:	f0          	movx @dptr, a
  802d33:	90 04 b2    	mov dptr, #1202
  802d36:	74 75       	mov a, #117
  802d38:	f0          	movx @dptr, a
  802d39:	90 04 b3    	mov dptr, #1203
  802d3c:	74 61       	mov a, #97
  802d3e:	f0          	movx @dptr, a
  802d3f:	90 04 b4    	mov dptr, #1204
  802d42:	74 72       	mov a, #114
  802d44:	f0          	movx @dptr, a
  802d45:	90 04 b5    	mov dptr, #1205
  802d48:	74 74       	mov a, #116
  802d4a:	f0          	movx @dptr, a
  802d4b:	90 04 b6    	mov dptr, #1206
  802d4e:	74 5f       	mov a, #95
  802d50:	f0          	movx @dptr, a
  802d51:	90 04 b7    	mov dptr, #1207
  802d54:	74 61       	mov a, #97
  802d56:	f0          	movx @dptr, a
  802d57:	90 04 b8    	mov dptr, #1208
  802d5a:	74 70       	mov a, #112
  802d5c:	f0          	movx @dptr, a
  802d5d:	90 04 b9    	mov dptr, #1209
  802d60:	74 62       	mov a, #98
  802d62:	f0          	movx @dptr, a
  802d63:	90 04 ba    	mov dptr, #1210
  802d66:	74 2e       	mov a, #46
  802d68:	f0          	movx @dptr, a
  802d69:	90 04 bb    	mov dptr, #1211
  802d6c:	74 63       	mov a, #99
  802d6e:	f0          	movx @dptr, a
  802d6f:	90 04 bc    	mov dptr, #1212
  802d72:	74 00       	mov a, #0
  802d74:	f0          	movx @dptr, a
  802d75:	90 00 8c    	mov dptr, #140
  802d78:	74 14       	mov a, #20
  802d7a:	f0          	movx @dptr, a
  802d7b:	a3          	inc dptr
  802d7c:	74 01       	mov a, #1
  802d7e:	f0          	movx @dptr, a
  802d7f:	a3          	inc dptr
  802d80:	74 00       	mov a, #0
  802d82:	f0          	movx @dptr, a
  802d83:	a3          	inc dptr
  802d84:	74 00       	mov a, #0
  802d86:	f0          	movx @dptr, a
  802d87:	75 82 96    	mov dpl, #150
  802d8a:	75 83 04    	mov dph, #4
  802d8d:	75 f0 00    	mov b, #0
  802d90:	12 05 f6    	lcall 8005f6 <HAL_assert_fail>
  802d93:	90 04 92    	mov dptr, #1170
  802d96:	e0          	movx a, @dptr
  802d97:	fa          	mov r2, a
  802d98:	a3          	inc dptr
  802d99:	e0          	movx a, @dptr
  802d9a:	fb          	mov r3, a
  802d9b:	a3          	inc dptr
  802d9c:	e0          	movx a, @dptr
  802d9d:	fc          	mov r4, a
  802d9e:	ba 00 09    	cjne r2, #0, 802daa
  802da1:	bb 00 06    	cjne r3, #0, 802daa
  802da4:	bc 00 03    	cjne r4, #0, 802daa
  802da7:	02 2d d7    	ljmp 802dd7 <UART_get_rx_status+0x17b>
  802daa:	74 02       	mov a, #2
  802dac:	25 02       	add a, 0x02
  802dae:	fa          	mov r2, a
  802daf:	74 00       	mov a, #0
  802db1:	35 03       	addc a, 0x03
  802db3:	fb          	mov r3, a
  802db4:	8a 82       	mov dpl, r2
  802db6:	8b 83       	mov dph, r3
  802db8:	8c f0       	mov b, r4
  802dba:	12 61 48    	lcall 806148 <GPIO_clear_irq+0x2c9>
  802dbd:	fd          	mov r5, a
  802dbe:	53 05 1c    	anl 0x05, #28
  802dc1:	ed          	mov a, r5
  802dc2:	03          	rr a
  802dc3:	03          	rr a
  802dc4:	54 3f       	anl a, #63
  802dc6:	fd          	mov r5, a
  802dc7:	90 04 95    	mov dptr, #1173
  802dca:	ed          	mov a, r5
  802dcb:	f0          	movx @dptr, a
  802dcc:	8a 82       	mov dpl, r2
  802dce:	8b 83       	mov dph, r3
  802dd0:	8c f0       	mov b, r4
  802dd2:	74 00       	mov a, #0
  802dd4:	12 61 2f    	lcall 80612f <GPIO_clear_irq+0x2b0>
  802dd7:	90 04 95    	mov dptr, #1173
  802dda:	e0          	movx a, @dptr
  802ddb:	fa          	mov r2, a
  802ddc:	8a 82       	mov dpl, r2
  802dde:	22          	ret

00802ddf <TMR_init>:
  802ddf:	aa f0       	mov r2, b
  802de1:	ab 83       	mov r3, dph
  802de3:	e5 82       	mov a, dpl
  802de5:	90 04 cb    	mov dptr, #1227
  802de8:	f0          	movx @dptr, a
  802de9:	a3          	inc dptr
  802dea:	eb          	mov a, r3
  802deb:	f0          	movx @dptr, a
  802dec:	a3          	inc dptr
  802ded:	ea          	mov a, r2
  802dee:	f0          	movx @dptr, a
  802def:	90 04 cb    	mov dptr, #1227
  802df2:	e0          	movx a, @dptr
  802df3:	fa          	mov r2, a
  802df4:	a3          	inc dptr
  802df5:	e0          	movx a, @dptr
  802df6:	fb          	mov r3, a
  802df7:	a3          	inc dptr
  802df8:	e0          	movx a, @dptr
  802df9:	fc          	mov r4, a
  802dfa:	90 04 bd    	mov dptr, #1213
  802dfd:	e0          	movx a, @dptr
  802dfe:	fd          	mov r5, a
  802dff:	a3          	inc dptr
  802e00:	e0          	movx a, @dptr
  802e01:	fe          	mov r6, a
  802e02:	a3          	inc dptr
  802e03:	e0          	movx a, @dptr
  802e04:	ff          	mov r7, a
  802e05:	ea          	mov a, r2
  802e06:	b5 05 0a    	cjne a, 0x05, 802e13
  802e09:	eb          	mov a, r3
  802e0a:	b5 06 06    	cjne a, 0x06, 802e13
  802e0d:	ec          	mov a, r4
  802e0e:	b5 07 02    	cjne a, 0x07, 802e13
  802e11:	80 03       	sjmp 802e16
  802e13:	02 2e fb    	ljmp 802efb <TMR_init+0x11c>
  802e16:	90 04 ce    	mov dptr, #1230
  802e19:	74 2e       	mov a, #46
  802e1b:	f0          	movx @dptr, a
  802e1c:	90 04 cf    	mov dptr, #1231
  802e1f:	74 2e       	mov a, #46
  802e21:	f0          	movx @dptr, a
  802e22:	90 04 d0    	mov dptr, #1232
  802e25:	74 2f       	mov a, #47
  802e27:	f0          	movx @dptr, a
  802e28:	90 04 d1    	mov dptr, #1233
  802e2b:	74 64       	mov a, #100
  802e2d:	f0          	movx @dptr, a
  802e2e:	90 04 d2    	mov dptr, #1234
  802e31:	74 72       	mov a, #114
  802e33:	f0          	movx @dptr, a
  802e34:	90 04 d3    	mov dptr, #1235
  802e37:	74 69       	mov a, #105
  802e39:	f0          	movx @dptr, a
  802e3a:	90 04 d4    	mov dptr, #1236
  802e3d:	74 76       	mov a, #118
  802e3f:	f0          	movx @dptr, a
  802e40:	90 04 d5    	mov dptr, #1237
  802e43:	74 65       	mov a, #101
  802e45:	f0          	movx @dptr, a
  802e46:	90 04 d6    	mov dptr, #1238
  802e49:	74 72       	mov a, #114
  802e4b:	f0          	movx @dptr, a
  802e4c:	90 04 d7    	mov dptr, #1239
  802e4f:	74 73       	mov a, #115
  802e51:	f0          	movx @dptr, a
  802e52:	90 04 d8    	mov dptr, #1240
  802e55:	74 2f       	mov a, #47
  802e57:	f0          	movx @dptr, a
  802e58:	90 04 d9    	mov dptr, #1241
  802e5b:	74 43       	mov a, #67
  802e5d:	f0          	movx @dptr, a
  802e5e:	90 04 da    	mov dptr, #1242
  802e61:	74 6f       	mov a, #111
  802e63:	f0          	movx @dptr, a
  802e64:	90 04 db    	mov dptr, #1243
  802e67:	74 72       	mov a, #114
  802e69:	f0          	movx @dptr, a
  802e6a:	90 04 dc    	mov dptr, #1244
  802e6d:	74 65       	mov a, #101
  802e6f:	f0          	movx @dptr, a
  802e70:	90 04 dd    	mov dptr, #1245
  802e73:	74 54       	mov a, #84
  802e75:	f0          	movx @dptr, a
  802e76:	90 04 de    	mov dptr, #1246
  802e79:	74 69       	mov a, #105
  802e7b:	f0          	movx @dptr, a
  802e7c:	90 04 df    	mov dptr, #1247
  802e7f:	74 6d       	mov a, #109
  802e81:	f0          	movx @dptr, a
  802e82:	90 04 e0    	mov dptr, #1248
  802e85:	74 65       	mov a, #101
  802e87:	f0          	movx @dptr, a
  802e88:	90 04 e1    	mov dptr, #1249
  802e8b:	74 72       	mov a, #114
  802e8d:	f0          	movx @dptr, a
  802e8e:	90 04 e2    	mov dptr, #1250
  802e91:	74 2f       	mov a, #47
  802e93:	f0          	movx @dptr, a
  802e94:	90 04 e3    	mov dptr, #1251
  802e97:	74 63       	mov a, #99
  802e99:	f0          	movx @dptr, a
  802e9a:	90 04 e4    	mov dptr, #1252
  802e9d:	74 6f       	mov a, #111
  802e9f:	f0          	movx @dptr, a
  802ea0:	90 04 e5    	mov dptr, #1253
  802ea3:	74 72       	mov a, #114
  802ea5:	f0          	movx @dptr, a
  802ea6:	90 04 e6    	mov dptr, #1254
  802ea9:	74 65       	mov a, #101
  802eab:	f0          	movx @dptr, a
  802eac:	90 04 e7    	mov dptr, #1255
  802eaf:	74 5f       	mov a, #95
  802eb1:	f0          	movx @dptr, a
  802eb2:	90 04 e8    	mov dptr, #1256
  802eb5:	74 74       	mov a, #116
  802eb7:	f0          	movx @dptr, a
  802eb8:	90 04 e9    	mov dptr, #1257
  802ebb:	74 69       	mov a, #105
  802ebd:	f0          	movx @dptr, a
  802ebe:	90 04 ea    	mov dptr, #1258
  802ec1:	74 6d       	mov a, #109
  802ec3:	f0          	movx @dptr, a
  802ec4:	90 04 eb    	mov dptr, #1259
  802ec7:	74 65       	mov a, #101
  802ec9:	f0          	movx @dptr, a
  802eca:	90 04 ec    	mov dptr, #1260
  802ecd:	74 72       	mov a, #114
  802ecf:	f0          	movx @dptr, a
  802ed0:	90 04 ed    	mov dptr, #1261
  802ed3:	74 2e       	mov a, #46
  802ed5:	f0          	movx @dptr, a
  802ed6:	90 04 ee    	mov dptr, #1262
  802ed9:	74 63       	mov a, #99
  802edb:	f0          	movx @dptr, a
  802edc:	90 04 ef    	mov dptr, #1263
  802edf:	74 00       	mov a, #0
  802ee1:	f0          	movx @dptr, a
  802ee2:	90 00 8c    	mov dptr, #140
  802ee5:	74 21       	mov a, #33
  802ee7:	f0          	movx @dptr, a
  802ee8:	e4          	clr a
  802ee9:	a3          	inc dptr
  802eea:	f0          	movx @dptr, a
  802eeb:	a3          	inc dptr
  802eec:	f0          	movx @dptr, a
  802eed:	a3          	inc dptr
  802eee:	f0          	movx @dptr, a
  802eef:	75 82 ce    	mov dpl, #206
  802ef2:	75 83 04    	mov dph, #4
  802ef5:	75 f0 00    	mov b, #0
  802ef8:	12 05 f6    	lcall 8005f6 <HAL_assert_fail>
  802efb:	90 04 c3    	mov dptr, #1219
  802efe:	e0          	movx a, @dptr
  802eff:	fa          	mov r2, a
  802f00:	a3          	inc dptr
  802f01:	e0          	movx a, @dptr
  802f02:	fb          	mov r3, a
  802f03:	a3          	inc dptr
  802f04:	e0          	movx a, @dptr
  802f05:	fc          	mov r4, a
  802f06:	a3          	inc dptr
  802f07:	e0          	movx a, @dptr
  802f08:	fd          	mov r5, a
  802f09:	c3          	clr c
  802f0a:	74 09       	mov a, #9
  802f0c:	9a          	subb a, r2
  802f0d:	74 00       	mov a, #0
  802f0f:	9b          	subb a, r3
  802f10:	74 00       	mov a, #0
  802f12:	9c          	subb a, r4
  802f13:	74 00       	mov a, #0
  802f15:	9d          	subb a, r5
  802f16:	40 03       	jc 802f1b
  802f18:	02 30 10    	ljmp 803010 <TMR_init+0x231>
  802f1b:	90 04 f0    	mov dptr, #1264
  802f1e:	74 2e       	mov a, #46
  802f20:	f0          	movx @dptr, a
  802f21:	90 04 f1    	mov dptr, #1265
  802f24:	74 2e       	mov a, #46
  802f26:	f0          	movx @dptr, a
  802f27:	90 04 f2    	mov dptr, #1266
  802f2a:	74 2f       	mov a, #47
  802f2c:	f0          	movx @dptr, a
  802f2d:	90 04 f3    	mov dptr, #1267
  802f30:	74 64       	mov a, #100
  802f32:	f0          	movx @dptr, a
  802f33:	90 04 f4    	mov dptr, #1268
  802f36:	74 72       	mov a, #114
  802f38:	f0          	movx @dptr, a
  802f39:	90 04 f5    	mov dptr, #1269
  802f3c:	74 69       	mov a, #105
  802f3e:	f0          	movx @dptr, a
  802f3f:	90 04 f6    	mov dptr, #1270
  802f42:	74 76       	mov a, #118
  802f44:	f0          	movx @dptr, a
  802f45:	90 04 f7    	mov dptr, #1271
  802f48:	74 65       	mov a, #101
  802f4a:	f0          	movx @dptr, a
  802f4b:	90 04 f8    	mov dptr, #1272
  802f4e:	74 72       	mov a, #114
  802f50:	f0          	movx @dptr, a
  802f51:	90 04 f9    	mov dptr, #1273
  802f54:	74 73       	mov a, #115
  802f56:	f0          	movx @dptr, a
  802f57:	90 04 fa    	mov dptr, #1274
  802f5a:	74 2f       	mov a, #47
  802f5c:	f0          	movx @dptr, a
  802f5d:	90 04 fb    	mov dptr, #1275
  802f60:	74 43       	mov a, #67
  802f62:	f0          	movx @dptr, a
  802f63:	90 04 fc    	mov dptr, #1276
  802f66:	74 6f       	mov a, #111
  802f68:	f0          	movx @dptr, a
  802f69:	90 04 fd    	mov dptr, #1277
  802f6c:	74 72       	mov a, #114
  802f6e:	f0          	movx @dptr, a
  802f6f:	90 04 fe    	mov dptr, #1278
  802f72:	74 65       	mov a, #101
  802f74:	f0          	movx @dptr, a
  802f75:	90 04 ff    	mov dptr, #1279
  802f78:	74 54       	mov a, #84
  802f7a:	f0          	movx @dptr, a
  802f7b:	90 05 00    	mov dptr, #1280
  802f7e:	74 69       	mov a, #105
  802f80:	f0          	movx @dptr, a
  802f81:	90 05 01    	mov dptr, #1281
  802f84:	74 6d       	mov a, #109
  802f86:	f0          	movx @dptr, a
  802f87:	90 05 02    	mov dptr, #1282
  802f8a:	74 65       	mov a, #101
  802f8c:	f0          	movx @dptr, a
  802f8d:	90 05 03    	mov dptr, #1283
  802f90:	74 72       	mov a, #114
  802f92:	f0          	movx @dptr, a
  802f93:	90 05 04    	mov dptr, #1284
  802f96:	74 2f       	mov a, #47
  802f98:	f0          	movx @dptr, a
  802f99:	90 05 05    	mov dptr, #1285
  802f9c:	74 63       	mov a, #99
  802f9e:	f0          	movx @dptr, a
  802f9f:	90 05 06    	mov dptr, #1286
  802fa2:	74 6f       	mov a, #111
  802fa4:	f0          	movx @dptr, a
  802fa5:	90 05 07    	mov dptr, #1287
  802fa8:	74 72       	mov a, #114
  802faa:	f0          	movx @dptr, a
  802fab:	90 05 08    	mov dptr, #1288
  802fae:	74 65       	mov a, #101
  802fb0:	f0          	movx @dptr, a
  802fb1:	90 05 09    	mov dptr, #1289
  802fb4:	74 5f       	mov a, #95
  802fb6:	f0          	movx @dptr, a
  802fb7:	90 05 0a    	mov dptr, #1290
  802fba:	74 74       	mov a, #116
  802fbc:	f0          	movx @dptr, a
  802fbd:	90 05 0b    	mov dptr, #1291
  802fc0:	74 69       	mov a, #105
  802fc2:	f0          	movx @dptr, a
  802fc3:	90 05 0c    	mov dptr, #1292
  802fc6:	74 6d       	mov a, #109
  802fc8:	f0          	movx @dptr, a
  802fc9:	90 05 0d    	mov dptr, #1293
  802fcc:	74 65       	mov a, #101
  802fce:	f0          	movx @dptr, a
  802fcf:	90 05 0e    	mov dptr, #1294
  802fd2:	74 72       	mov a, #114
  802fd4:	f0          	movx @dptr, a
  802fd5:	90 05 0f    	mov dptr, #1295
  802fd8:	74 2e       	mov a, #46
  802fda:	f0          	movx @dptr, a
  802fdb:	90 05 10    	mov dptr, #1296
  802fde:	74 63       	mov a, #99
  802fe0:	f0          	movx @dptr, a
  802fe1:	90 05 11    	mov dptr, #1297
  802fe4:	74 00       	mov a, #0
  802fe6:	f0          	movx @dptr, a
  802fe7:	90 00 8c    	mov dptr, #140
  802fea:	74 22       	mov a, #34
  802fec:	f0          	movx @dptr, a
  802fed:	e4          	clr a
  802fee:	a3          	inc dptr
  802fef:	f0          	movx @dptr, a
  802ff0:	a3          	inc dptr
  802ff1:	f0          	movx @dptr, a
  802ff2:	a3          	inc dptr
  802ff3:	f0          	movx @dptr, a
  802ff4:	75 82 f0    	mov dpl, #240
  802ff7:	75 83 04    	mov dph, #4
  802ffa:	75 f0 00    	mov b, #0
  802ffd:	c0 02       	push 0x02
  802fff:	c0 03       	push 0x03
  803001:	c0 04       	push 0x04
  803003:	c0 05       	push 0x05
  803005:	12 05 f6    	lcall 8005f6 <HAL_assert_fail>
  803008:	d0 05       	pop 0x05
  80300a:	d0 04       	pop 0x04
  80300c:	d0 03       	pop 0x03
  80300e:	d0 02       	pop 0x02
  803010:	90 04 c7    	mov dptr, #1223
  803013:	e0          	movx a, @dptr
  803014:	f5 43       	mov 0x43, a
  803016:	a3          	inc dptr
  803017:	e0          	movx a, @dptr
  803018:	f5 44       	mov 0x44, a
  80301a:	a3          	inc dptr
  80301b:	e0          	movx a, @dptr
  80301c:	f5 45       	mov 0x45, a
  80301e:	a3          	inc dptr
  80301f:	e0          	movx a, @dptr
  803020:	f5 46       	mov 0x46, a
  803022:	e5 43       	mov a, 0x43
  803024:	70 0e       	jnz 803034
  803026:	e5 44       	mov a, 0x44
  803028:	70 0a       	jnz 803034
  80302a:	e5 45       	mov a, 0x45
  80302c:	70 06       	jnz 803034
  80302e:	e5 46       	mov a, 0x46
  803030:	70 02       	jnz 803034
  803032:	80 03       	sjmp 803037
  803034:	02 31 2c    	ljmp 80312c <TMR_init+0x34d>
  803037:	90 05 12    	mov dptr, #1298
  80303a:	74 2e       	mov a, #46
  80303c:	f0          	movx @dptr, a
  80303d:	90 05 13    	mov dptr, #1299
  803040:	74 2e       	mov a, #46
  803042:	f0          	movx @dptr, a
  803043:	90 05 14    	mov dptr, #1300
  803046:	74 2f       	mov a, #47
  803048:	f0          	movx @dptr, a
  803049:	90 05 15    	mov dptr, #1301
  80304c:	74 64       	mov a, #100
  80304e:	f0          	movx @dptr, a
  80304f:	90 05 16    	mov dptr, #1302
  803052:	74 72       	mov a, #114
  803054:	f0          	movx @dptr, a
  803055:	90 05 17    	mov dptr, #1303
  803058:	74 69       	mov a, #105
  80305a:	f0          	movx @dptr, a
  80305b:	90 05 18    	mov dptr, #1304
  80305e:	74 76       	mov a, #118
  803060:	f0          	movx @dptr, a
  803061:	90 05 19    	mov dptr, #1305
  803064:	74 65       	mov a, #101
  803066:	f0          	movx @dptr, a
  803067:	90 05 1a    	mov dptr, #1306
  80306a:	74 72       	mov a, #114
  80306c:	f0          	movx @dptr, a
  80306d:	90 05 1b    	mov dptr, #1307
  803070:	74 73       	mov a, #115
  803072:	f0          	movx @dptr, a
  803073:	90 05 1c    	mov dptr, #1308
  803076:	74 2f       	mov a, #47
  803078:	f0          	movx @dptr, a
  803079:	90 05 1d    	mov dptr, #1309
  80307c:	74 43       	mov a, #67
  80307e:	f0          	movx @dptr, a
  80307f:	90 05 1e    	mov dptr, #1310
  803082:	74 6f       	mov a, #111
  803084:	f0          	movx @dptr, a
  803085:	90 05 1f    	mov dptr, #1311
  803088:	74 72       	mov a, #114
  80308a:	f0          	movx @dptr, a
  80308b:	90 05 20    	mov dptr, #1312
  80308e:	74 65       	mov a, #101
  803090:	f0          	movx @dptr, a
  803091:	90 05 21    	mov dptr, #1313
  803094:	74 54       	mov a, #84
  803096:	f0          	movx @dptr, a
  803097:	90 05 22    	mov dptr, #1314
  80309a:	74 69       	mov a, #105
  80309c:	f0          	movx @dptr, a
  80309d:	90 05 23    	mov dptr, #1315
  8030a0:	74 6d       	mov a, #109
  8030a2:	f0          	movx @dptr, a
  8030a3:	90 05 24    	mov dptr, #1316
  8030a6:	74 65       	mov a, #101
  8030a8:	f0          	movx @dptr, a
  8030a9:	90 05 25    	mov dptr, #1317
  8030ac:	74 72       	mov a, #114
  8030ae:	f0          	movx @dptr, a
  8030af:	90 05 26    	mov dptr, #1318
  8030b2:	74 2f       	mov a, #47
  8030b4:	f0          	movx @dptr, a
  8030b5:	90 05 27    	mov dptr, #1319
  8030b8:	74 63       	mov a, #99
  8030ba:	f0          	movx @dptr, a
  8030bb:	90 05 28    	mov dptr, #1320
  8030be:	74 6f       	mov a, #111
  8030c0:	f0          	movx @dptr, a
  8030c1:	90 05 29    	mov dptr, #1321
  8030c4:	74 72       	mov a, #114
  8030c6:	f0          	movx @dptr, a
  8030c7:	90 05 2a    	mov dptr, #1322
  8030ca:	74 65       	mov a, #101
  8030cc:	f0          	movx @dptr, a
  8030cd:	90 05 2b    	mov dptr, #1323
  8030d0:	74 5f       	mov a, #95
  8030d2:	f0          	movx @dptr, a
  8030d3:	90 05 2c    	mov dptr, #1324
  8030d6:	74 74       	mov a, #116
  8030d8:	f0          	movx @dptr, a
  8030d9:	90 05 2d    	mov dptr, #1325
  8030dc:	74 69       	mov a, #105
  8030de:	f0          	movx @dptr, a
  8030df:	90 05 2e    	mov dptr, #1326
  8030e2:	74 6d       	mov a, #109
  8030e4:	f0          	movx @dptr, a
  8030e5:	90 05 2f    	mov dptr, #1327
  8030e8:	74 65       	mov a, #101
  8030ea:	f0          	movx @dptr, a
  8030eb:	90 05 30    	mov dptr, #1328
  8030ee:	74 72       	mov a, #114
  8030f0:	f0          	movx @dptr, a
  8030f1:	90 05 31    	mov dptr, #1329
  8030f4:	74 2e       	mov a, #46
  8030f6:	f0          	movx @dptr, a
  8030f7:	90 05 32    	mov dptr, #1330
  8030fa:	74 63       	mov a, #99
  8030fc:	f0          	movx @dptr, a
  8030fd:	90 05 33    	mov dptr, #1331
  803100:	74 00       	mov a, #0
  803102:	f0          	movx @dptr, a
  803103:	90 00 8c    	mov dptr, #140
  803106:	74 23       	mov a, #35
  803108:	f0          	movx @dptr, a
  803109:	e4          	clr a
  80310a:	a3          	inc dptr
  80310b:	f0          	movx @dptr, a
  80310c:	a3          	inc dptr
  80310d:	f0          	movx @dptr, a
  80310e:	a3          	inc dptr
  80310f:	f0          	movx @dptr, a
  803110:	75 82 12    	mov dpl, #18
  803113:	75 83 05    	mov dph, #5
  803116:	75 f0 00    	mov b, #0
  803119:	c0 02       	push 0x02
  80311b:	c0 03       	push 0x03
  80311d:	c0 04       	push 0x04
  80311f:	c0 05       	push 0x05
  803121:	12 05 f6    	lcall 8005f6 <HAL_assert_fail>
  803124:	d0 05       	pop 0x05
  803126:	d0 04       	pop 0x04
  803128:	d0 03       	pop 0x03
  80312a:	d0 02       	pop 0x02
  80312c:	90 04 cb    	mov dptr, #1227
  80312f:	e0          	movx a, @dptr
  803130:	fe          	mov r6, a
  803131:	a3          	inc dptr
  803132:	e0          	movx a, @dptr
  803133:	ff          	mov r7, a
  803134:	a3          	inc dptr
  803135:	e0          	movx a, @dptr
  803136:	f8          	mov r0, a
  803137:	90 04 c0    	mov dptr, #1216
  80313a:	e0          	movx a, @dptr
  80313b:	f5 47       	mov 0x47, a
  80313d:	a3          	inc dptr
  80313e:	e0          	movx a, @dptr
  80313f:	f5 48       	mov 0x48, a
  803141:	8e 82       	mov dpl, r6
  803143:	8f 83       	mov dph, r7
  803145:	88 f0       	mov b, r0
  803147:	e5 47       	mov a, 0x47
  803149:	12 61 2f    	lcall 80612f <GPIO_clear_irq+0x2b0>
  80314c:	a3          	inc dptr
  80314d:	e5 48       	mov a, 0x48
  80314f:	12 61 2f    	lcall 80612f <GPIO_clear_irq+0x2b0>
  803152:	74 08       	mov a, #8
  803154:	25 47       	add a, 0x47
  803156:	fe          	mov r6, a
  803157:	74 00       	mov a, #0
  803159:	35 48       	addc a, 0x48
  80315b:	ff          	mov r7, a
  80315c:	90 00 ae    	mov dptr, #174
  80315f:	74 01       	mov a, #1
  803161:	f0          	movx @dptr, a
  803162:	90 00 af    	mov dptr, #175
  803165:	74 02       	mov a, #2
  803167:	f0          	movx @dptr, a
  803168:	e4          	clr a
  803169:	a3          	inc dptr
  80316a:	f0          	movx @dptr, a
  80316b:	a3          	inc dptr
  80316c:	f0          	movx @dptr, a
  80316d:	a3          	inc dptr
  80316e:	f0          	movx @dptr, a
  80316f:	90 00 b3    	mov dptr, #179
  803172:	e4          	clr a
  803173:	f0          	movx @dptr, a
  803174:	a3          	inc dptr
  803175:	f0          	movx @dptr, a
  803176:	a3          	inc dptr
  803177:	f0          	movx @dptr, a
  803178:	a3          	inc dptr
  803179:	f0          	movx @dptr, a
  80317a:	8e 82       	mov dpl, r6
  80317c:	8f 83       	mov dph, r7
  80317e:	c0 02       	push 0x02
  803180:	c0 03       	push 0x03
  803182:	c0 04       	push 0x04
  803184:	c0 05       	push 0x05
  803186:	c0 06       	push 0x06
  803188:	c0 07       	push 0x07
  80318a:	12 06 ba    	lcall 8006ba <HW_set_32bit_reg_field>
  80318d:	d0 07       	pop 0x07
  80318f:	d0 06       	pop 0x06
  803191:	d0 05       	pop 0x05
  803193:	d0 04       	pop 0x04
  803195:	d0 03       	pop 0x03
  803197:	d0 02       	pop 0x02
  803199:	90 00 ae    	mov dptr, #174
  80319c:	74 00       	mov a, #0
  80319e:	f0          	movx @dptr, a
  80319f:	90 00 af    	mov dptr, #175
  8031a2:	74 01       	mov a, #1
  8031a4:	f0          	movx @dptr, a
  8031a5:	e4          	clr a
  8031a6:	a3          	inc dptr
  8031a7:	f0          	movx @dptr, a
  8031a8:	a3          	inc dptr
  8031a9:	f0          	movx @dptr, a
  8031aa:	a3          	inc dptr
  8031ab:	f0          	movx @dptr, a
  8031ac:	90 00 b3    	mov dptr, #179
  8031af:	e4          	clr a
  8031b0:	f0          	movx @dptr, a
  8031b1:	a3          	inc dptr
  8031b2:	f0          	movx @dptr, a
  8031b3:	a3          	inc dptr
  8031b4:	f0          	movx @dptr, a
  8031b5:	a3          	inc dptr
  8031b6:	f0          	movx @dptr, a
  8031b7:	8e 82       	mov dpl, r6
  8031b9:	8f 83       	mov dph, r7
  8031bb:	c0 02       	push 0x02
  8031bd:	c0 03       	push 0x03
  8031bf:	c0 04       	push 0x04
  8031c1:	c0 05       	push 0x05
  8031c3:	12 06 ba    	lcall 8006ba <HW_set_32bit_reg_field>
  8031c6:	d0 05       	pop 0x05
  8031c8:	d0 04       	pop 0x04
  8031ca:	d0 03       	pop 0x03
  8031cc:	d0 02       	pop 0x02
  8031ce:	74 10       	mov a, #16
  8031d0:	25 47       	add a, 0x47
  8031d2:	fe          	mov r6, a
  8031d3:	74 00       	mov a, #0
  8031d5:	35 48       	addc a, 0x48
  8031d7:	ff          	mov r7, a
  8031d8:	90 00 aa    	mov dptr, #170
  8031db:	74 01       	mov a, #1
  8031dd:	f0          	movx @dptr, a
  8031de:	e4          	clr a
  8031df:	a3          	inc dptr
  8031e0:	f0          	movx @dptr, a
  8031e1:	a3          	inc dptr
  8031e2:	f0          	movx @dptr, a
  8031e3:	a3          	inc dptr
  8031e4:	f0          	movx @dptr, a
  8031e5:	8e 82       	mov dpl, r6
  8031e7:	8f 83       	mov dph, r7
  8031e9:	c0 02       	push 0x02
  8031eb:	c0 03       	push 0x03
  8031ed:	c0 04       	push 0x04
  8031ef:	c0 05       	push 0x05
  8031f1:	12 06 62    	lcall 800662 <HW_set_32bit_reg>
  8031f4:	d0 05       	pop 0x05
  8031f6:	d0 04       	pop 0x04
  8031f8:	d0 03       	pop 0x03
  8031fa:	d0 02       	pop 0x02
  8031fc:	74 0c       	mov a, #12
  8031fe:	25 47       	add a, 0x47
  803200:	fe          	mov r6, a
  803201:	74 00       	mov a, #0
  803203:	35 48       	addc a, 0x48
  803205:	ff          	mov r7, a
  803206:	90 00 aa    	mov dptr, #170
  803209:	ea          	mov a, r2
  80320a:	f0          	movx @dptr, a
  80320b:	a3          	inc dptr
  80320c:	eb          	mov a, r3
  80320d:	f0          	movx @dptr, a
  80320e:	a3          	inc dptr
  80320f:	ec          	mov a, r4
  803210:	f0          	movx @dptr, a
  803211:	a3          	inc dptr
  803212:	ed          	mov a, r5
  803213:	f0          	movx @dptr, a
  803214:	8e 82       	mov dpl, r6
  803216:	8f 83       	mov dph, r7
  803218:	12 06 62    	lcall 800662 <HW_set_32bit_reg>
  80321b:	90 00 aa    	mov dptr, #170
  80321e:	e5 43       	mov a, 0x43
  803220:	f0          	movx @dptr, a
  803221:	a3          	inc dptr
  803222:	e5 44       	mov a, 0x44
  803224:	f0          	movx @dptr, a
  803225:	a3          	inc dptr
  803226:	e5 45       	mov a, 0x45
  803228:	f0          	movx @dptr, a
  803229:	a3          	inc dptr
  80322a:	e5 46       	mov a, 0x46
  80322c:	f0          	movx @dptr, a
  80322d:	85 47 82    	mov dpl, 0x47
  803230:	85 48 83    	mov dph, 0x48
  803233:	12 06 62    	lcall 800662 <HW_set_32bit_reg>
  803236:	90 04 c2    	mov dptr, #1218
  803239:	e0          	movx a, @dptr
  80323a:	fa          	mov r2, a
  80323b:	ea          	mov a, r2
  80323c:	60 03       	jz 803241
  80323e:	02 32 73    	ljmp 803273 <TMR_init+0x494>
  803241:	74 08       	mov a, #8
  803243:	25 47       	add a, 0x47
  803245:	fa          	mov r2, a
  803246:	74 00       	mov a, #0
  803248:	35 48       	addc a, 0x48
  80324a:	fb          	mov r3, a
  80324b:	90 00 ae    	mov dptr, #174
  80324e:	74 02       	mov a, #2
  803250:	f0          	movx @dptr, a
  803251:	90 00 af    	mov dptr, #175
  803254:	74 04       	mov a, #4
  803256:	f0          	movx @dptr, a
  803257:	e4          	clr a
  803258:	a3          	inc dptr
  803259:	f0          	movx @dptr, a
  80325a:	a3          	inc dptr
  80325b:	f0          	movx @dptr, a
  80325c:	a3          	inc dptr
  80325d:	f0          	movx @dptr, a
  80325e:	90 00 b3    	mov dptr, #179
  803261:	e4          	clr a
  803262:	f0          	movx @dptr, a
  803263:	a3          	inc dptr
  803264:	f0          	movx @dptr, a
  803265:	a3          	inc dptr
  803266:	f0          	movx @dptr, a
  803267:	a3          	inc dptr
  803268:	f0          	movx @dptr, a
  803269:	8a 82       	mov dpl, r2
  80326b:	8b 83       	mov dph, r3
  80326d:	12 06 ba    	lcall 8006ba <HW_set_32bit_reg_field>
  803270:	02 32 a4    	ljmp 8032a4 <TMR_init+0x4c5>
  803273:	74 08       	mov a, #8
  803275:	25 47       	add a, 0x47
  803277:	fa          	mov r2, a
  803278:	74 00       	mov a, #0
  80327a:	35 48       	addc a, 0x48
  80327c:	fb          	mov r3, a
  80327d:	90 00 ae    	mov dptr, #174
  803280:	74 02       	mov a, #2
  803282:	f0          	movx @dptr, a
  803283:	90 00 af    	mov dptr, #175
  803286:	74 04       	mov a, #4
  803288:	f0          	movx @dptr, a
  803289:	e4          	clr a
  80328a:	a3          	inc dptr
  80328b:	f0          	movx @dptr, a
  80328c:	a3          	inc dptr
  80328d:	f0          	movx @dptr, a
  80328e:	a3          	inc dptr
  80328f:	f0          	movx @dptr, a
  803290:	90 00 b3    	mov dptr, #179
  803293:	74 01       	mov a, #1
  803295:	f0          	movx @dptr, a
  803296:	e4          	clr a
  803297:	a3          	inc dptr
  803298:	f0          	movx @dptr, a
  803299:	a3          	inc dptr
  80329a:	f0          	movx @dptr, a
  80329b:	a3          	inc dptr
  80329c:	f0          	movx @dptr, a
  80329d:	8a 82       	mov dpl, r2
  80329f:	8b 83       	mov dph, r3
  8032a1:	12 06 ba    	lcall 8006ba <HW_set_32bit_reg_field>
  8032a4:	22          	ret

008032a5 <TMR_start>:
  8032a5:	aa f0       	mov r2, b
  8032a7:	ab 83       	mov r3, dph
  8032a9:	e5 82       	mov a, dpl
  8032ab:	90 05 34    	mov dptr, #1332
  8032ae:	f0          	movx @dptr, a
  8032af:	a3          	inc dptr
  8032b0:	eb          	mov a, r3
  8032b1:	f0          	movx @dptr, a
  8032b2:	a3          	inc dptr
  8032b3:	ea          	mov a, r2
  8032b4:	f0          	movx @dptr, a
  8032b5:	90 05 34    	mov dptr, #1332
  8032b8:	e0          	movx a, @dptr
  8032b9:	fa          	mov r2, a
  8032ba:	a3          	inc dptr
  8032bb:	e0          	movx a, @dptr
  8032bc:	fb          	mov r3, a
  8032bd:	a3          	inc dptr
  8032be:	e0          	movx a, @dptr
  8032bf:	fc          	mov r4, a
  8032c0:	90 04 bd    	mov dptr, #1213
  8032c3:	e0          	movx a, @dptr
  8032c4:	fd          	mov r5, a
  8032c5:	a3          	inc dptr
  8032c6:	e0          	movx a, @dptr
  8032c7:	fe          	mov r6, a
  8032c8:	a3          	inc dptr
  8032c9:	e0          	movx a, @dptr
  8032ca:	ff          	mov r7, a
  8032cb:	ea          	mov a, r2
  8032cc:	b5 05 0a    	cjne a, 0x05, 8032d9
  8032cf:	eb          	mov a, r3
  8032d0:	b5 06 06    	cjne a, 0x06, 8032d9
  8032d3:	ec          	mov a, r4
  8032d4:	b5 07 02    	cjne a, 0x07, 8032d9
  8032d7:	80 03       	sjmp 8032dc
  8032d9:	02 33 c1    	ljmp 8033c1 <TMR_start+0x11c>
  8032dc:	90 05 37    	mov dptr, #1335
  8032df:	74 2e       	mov a, #46
  8032e1:	f0          	movx @dptr, a
  8032e2:	90 05 38    	mov dptr, #1336
  8032e5:	74 2e       	mov a, #46
  8032e7:	f0          	movx @dptr, a
  8032e8:	90 05 39    	mov dptr, #1337
  8032eb:	74 2f       	mov a, #47
  8032ed:	f0          	movx @dptr, a
  8032ee:	90 05 3a    	mov dptr, #1338
  8032f1:	74 64       	mov a, #100
  8032f3:	f0          	movx @dptr, a
  8032f4:	90 05 3b    	mov dptr, #1339
  8032f7:	74 72       	mov a, #114
  8032f9:	f0          	movx @dptr, a
  8032fa:	90 05 3c    	mov dptr, #1340
  8032fd:	74 69       	mov a, #105
  8032ff:	f0          	movx @dptr, a
  803300:	90 05 3d    	mov dptr, #1341
  803303:	74 76       	mov a, #118
  803305:	f0          	movx @dptr, a
  803306:	90 05 3e    	mov dptr, #1342
  803309:	74 65       	mov a, #101
  80330b:	f0          	movx @dptr, a
  80330c:	90 05 3f    	mov dptr, #1343
  80330f:	74 72       	mov a, #114
  803311:	f0          	movx @dptr, a
  803312:	90 05 40    	mov dptr, #1344
  803315:	74 73       	mov a, #115
  803317:	f0          	movx @dptr, a
  803318:	90 05 41    	mov dptr, #1345
  80331b:	74 2f       	mov a, #47
  80331d:	f0          	movx @dptr, a
  80331e:	90 05 42    	mov dptr, #1346
  803321:	74 43       	mov a, #67
  803323:	f0          	movx @dptr, a
  803324:	90 05 43    	mov dptr, #1347
  803327:	74 6f       	mov a, #111
  803329:	f0          	movx @dptr, a
  80332a:	90 05 44    	mov dptr, #1348
  80332d:	74 72       	mov a, #114
  80332f:	f0          	movx @dptr, a
  803330:	90 05 45    	mov dptr, #1349
  803333:	74 65       	mov a, #101
  803335:	f0          	movx @dptr, a
  803336:	90 05 46    	mov dptr, #1350
  803339:	74 54       	mov a, #84
  80333b:	f0          	movx @dptr, a
  80333c:	90 05 47    	mov dptr, #1351
  80333f:	74 69       	mov a, #105
  803341:	f0          	movx @dptr, a
  803342:	90 05 48    	mov dptr, #1352
  803345:	74 6d       	mov a, #109
  803347:	f0          	movx @dptr, a
  803348:	90 05 49    	mov dptr, #1353
  80334b:	74 65       	mov a, #101
  80334d:	f0          	movx @dptr, a
  80334e:	90 05 4a    	mov dptr, #1354
  803351:	74 72       	mov a, #114
  803353:	f0          	movx @dptr, a
  803354:	90 05 4b    	mov dptr, #1355
  803357:	74 2f       	mov a, #47
  803359:	f0          	movx @dptr, a
  80335a:	90 05 4c    	mov dptr, #1356
  80335d:	74 63       	mov a, #99
  80335f:	f0          	movx @dptr, a
  803360:	90 05 4d    	mov dptr, #1357
  803363:	74 6f       	mov a, #111
  803365:	f0          	movx @dptr, a
  803366:	90 05 4e    	mov dptr, #1358
  803369:	74 72       	mov a, #114
  80336b:	f0          	movx @dptr, a
  80336c:	90 05 4f    	mov dptr, #1359
  80336f:	74 65       	mov a, #101
  803371:	f0          	movx @dptr, a
  803372:	90 05 50    	mov dptr, #1360
  803375:	74 5f       	mov a, #95
  803377:	f0          	movx @dptr, a
  803378:	90 05 51    	mov dptr, #1361
  80337b:	74 74       	mov a, #116
  80337d:	f0          	movx @dptr, a
  80337e:	90 05 52    	mov dptr, #1362
  803381:	74 69       	mov a, #105
  803383:	f0          	movx @dptr, a
  803384:	90 05 53    	mov dptr, #1363
  803387:	74 6d       	mov a, #109
  803389:	f0          	movx @dptr, a
  80338a:	90 05 54    	mov dptr, #1364
  80338d:	74 65       	mov a, #101
  80338f:	f0          	movx @dptr, a
  803390:	90 05 55    	mov dptr, #1365
  803393:	74 72       	mov a, #114
  803395:	f0          	movx @dptr, a
  803396:	90 05 56    	mov dptr, #1366
  803399:	74 2e       	mov a, #46
  80339b:	f0          	movx @dptr, a
  80339c:	90 05 57    	mov dptr, #1367
  80339f:	74 63       	mov a, #99
  8033a1:	f0          	movx @dptr, a
  8033a2:	90 05 58    	mov dptr, #1368
  8033a5:	74 00       	mov a, #0
  8033a7:	f0          	movx @dptr, a
  8033a8:	90 00 8c    	mov dptr, #140
  8033ab:	74 4a       	mov a, #74
  8033ad:	f0          	movx @dptr, a
  8033ae:	e4          	clr a
  8033af:	a3          	inc dptr
  8033b0:	f0          	movx @dptr, a
  8033b1:	a3          	inc dptr
  8033b2:	f0          	movx @dptr, a
  8033b3:	a3          	inc dptr
  8033b4:	f0          	movx @dptr, a
  8033b5:	75 82 37    	mov dpl, #55
  8033b8:	75 83 05    	mov dph, #5
  8033bb:	75 f0 00    	mov b, #0
  8033be:	12 05 f6    	lcall 8005f6 <HAL_assert_fail>
  8033c1:	90 05 34    	mov dptr, #1332
  8033c4:	e0          	movx a, @dptr
  8033c5:	fa          	mov r2, a
  8033c6:	a3          	inc dptr
  8033c7:	e0          	movx a, @dptr
  8033c8:	fb          	mov r3, a
  8033c9:	a3          	inc dptr
  8033ca:	e0          	movx a, @dptr
  8033cb:	fc          	mov r4, a
  8033cc:	8a 82       	mov dpl, r2
  8033ce:	8b 83       	mov dph, r3
  8033d0:	8c f0       	mov b, r4
  8033d2:	12 61 48    	lcall 806148 <GPIO_clear_irq+0x2c9>
  8033d5:	fa          	mov r2, a
  8033d6:	a3          	inc dptr
  8033d7:	12 61 48    	lcall 806148 <GPIO_clear_irq+0x2c9>
  8033da:	fb          	mov r3, a
  8033db:	74 08       	mov a, #8
  8033dd:	25 02       	add a, 0x02
  8033df:	fa          	mov r2, a
  8033e0:	74 00       	mov a, #0
  8033e2:	35 03       	addc a, 0x03
  8033e4:	fb          	mov r3, a
  8033e5:	90 00 ae    	mov dptr, #174
  8033e8:	74 00       	mov a, #0
  8033ea:	f0          	movx @dptr, a
  8033eb:	90 00 af    	mov dptr, #175
  8033ee:	74 01       	mov a, #1
  8033f0:	f0          	movx @dptr, a
  8033f1:	e4          	clr a
  8033f2:	a3          	inc dptr
  8033f3:	f0          	movx @dptr, a
  8033f4:	a3          	inc dptr
  8033f5:	f0          	movx @dptr, a
  8033f6:	a3          	inc dptr
  8033f7:	f0          	movx @dptr, a
  8033f8:	90 00 b3    	mov dptr, #179
  8033fb:	74 01       	mov a, #1
  8033fd:	f0          	movx @dptr, a
  8033fe:	e4          	clr a
  8033ff:	a3          	inc dptr
  803400:	f0          	movx @dptr, a
  803401:	a3          	inc dptr
  803402:	f0          	movx @dptr, a
  803403:	a3          	inc dptr
  803404:	f0          	movx @dptr, a
  803405:	8a 82       	mov dpl, r2
  803407:	8b 83       	mov dph, r3
  803409:	12 06 ba    	lcall 8006ba <HW_set_32bit_reg_field>
  80340c:	22          	ret

0080340d <TMR_stop>:
  80340d:	aa f0       	mov r2, b
  80340f:	ab 83       	mov r3, dph
  803411:	e5 82       	mov a, dpl
  803413:	90 05 59    	mov dptr, #1369
  803416:	f0          	movx @dptr, a
  803417:	a3          	inc dptr
  803418:	eb          	mov a, r3
  803419:	f0          	movx @dptr, a
  80341a:	a3          	inc dptr
  80341b:	ea          	mov a, r2
  80341c:	f0          	movx @dptr, a
  80341d:	90 05 59    	mov dptr, #1369
  803420:	e0          	movx a, @dptr
  803421:	fa          	mov r2, a
  803422:	a3          	inc dptr
  803423:	e0          	movx a, @dptr
  803424:	fb          	mov r3, a
  803425:	a3          	inc dptr
  803426:	e0          	movx a, @dptr
  803427:	fc          	mov r4, a
  803428:	90 04 bd    	mov dptr, #1213
  80342b:	e0          	movx a, @dptr
  80342c:	fd          	mov r5, a
  80342d:	a3          	inc dptr
  80342e:	e0          	movx a, @dptr
  80342f:	fe          	mov r6, a
  803430:	a3          	inc dptr
  803431:	e0          	movx a, @dptr
  803432:	ff          	mov r7, a
  803433:	ea          	mov a, r2
  803434:	b5 05 0a    	cjne a, 0x05, 803441
  803437:	eb          	mov a, r3
  803438:	b5 06 06    	cjne a, 0x06, 803441
  80343b:	ec          	mov a, r4
  80343c:	b5 07 02    	cjne a, 0x07, 803441
  80343f:	80 03       	sjmp 803444
  803441:	02 35 29    	ljmp 803529 <TMR_stop+0x11c>
  803444:	90 05 5c    	mov dptr, #1372
  803447:	74 2e       	mov a, #46
  803449:	f0          	movx @dptr, a
  80344a:	90 05 5d    	mov dptr, #1373
  80344d:	74 2e       	mov a, #46
  80344f:	f0          	movx @dptr, a
  803450:	90 05 5e    	mov dptr, #1374
  803453:	74 2f       	mov a, #47
  803455:	f0          	movx @dptr, a
  803456:	90 05 5f    	mov dptr, #1375
  803459:	74 64       	mov a, #100
  80345b:	f0          	movx @dptr, a
  80345c:	90 05 60    	mov dptr, #1376
  80345f:	74 72       	mov a, #114
  803461:	f0          	movx @dptr, a
  803462:	90 05 61    	mov dptr, #1377
  803465:	74 69       	mov a, #105
  803467:	f0          	movx @dptr, a
  803468:	90 05 62    	mov dptr, #1378
  80346b:	74 76       	mov a, #118
  80346d:	f0          	movx @dptr, a
  80346e:	90 05 63    	mov dptr, #1379
  803471:	74 65       	mov a, #101
  803473:	f0          	movx @dptr, a
  803474:	90 05 64    	mov dptr, #1380
  803477:	74 72       	mov a, #114
  803479:	f0          	movx @dptr, a
  80347a:	90 05 65    	mov dptr, #1381
  80347d:	74 73       	mov a, #115
  80347f:	f0          	movx @dptr, a
  803480:	90 05 66    	mov dptr, #1382
  803483:	74 2f       	mov a, #47
  803485:	f0          	movx @dptr, a
  803486:	90 05 67    	mov dptr, #1383
  803489:	74 43       	mov a, #67
  80348b:	f0          	movx @dptr, a
  80348c:	90 05 68    	mov dptr, #1384
  80348f:	74 6f       	mov a, #111
  803491:	f0          	movx @dptr, a
  803492:	90 05 69    	mov dptr, #1385
  803495:	74 72       	mov a, #114
  803497:	f0          	movx @dptr, a
  803498:	90 05 6a    	mov dptr, #1386
  80349b:	74 65       	mov a, #101
  80349d:	f0          	movx @dptr, a
  80349e:	90 05 6b    	mov dptr, #1387
  8034a1:	74 54       	mov a, #84
  8034a3:	f0          	movx @dptr, a
  8034a4:	90 05 6c    	mov dptr, #1388
  8034a7:	74 69       	mov a, #105
  8034a9:	f0          	movx @dptr, a
  8034aa:	90 05 6d    	mov dptr, #1389
  8034ad:	74 6d       	mov a, #109
  8034af:	f0          	movx @dptr, a
  8034b0:	90 05 6e    	mov dptr, #1390
  8034b3:	74 65       	mov a, #101
  8034b5:	f0          	movx @dptr, a
  8034b6:	90 05 6f    	mov dptr, #1391
  8034b9:	74 72       	mov a, #114
  8034bb:	f0          	movx @dptr, a
  8034bc:	90 05 70    	mov dptr, #1392
  8034bf:	74 2f       	mov a, #47
  8034c1:	f0          	movx @dptr, a
  8034c2:	90 05 71    	mov dptr, #1393
  8034c5:	74 63       	mov a, #99
  8034c7:	f0          	movx @dptr, a
  8034c8:	90 05 72    	mov dptr, #1394
  8034cb:	74 6f       	mov a, #111
  8034cd:	f0          	movx @dptr, a
  8034ce:	90 05 73    	mov dptr, #1395
  8034d1:	74 72       	mov a, #114
  8034d3:	f0          	movx @dptr, a
  8034d4:	90 05 74    	mov dptr, #1396
  8034d7:	74 65       	mov a, #101
  8034d9:	f0          	movx @dptr, a
  8034da:	90 05 75    	mov dptr, #1397
  8034dd:	74 5f       	mov a, #95
  8034df:	f0          	movx @dptr, a
  8034e0:	90 05 76    	mov dptr, #1398
  8034e3:	74 74       	mov a, #116
  8034e5:	f0          	movx @dptr, a
  8034e6:	90 05 77    	mov dptr, #1399
  8034e9:	74 69       	mov a, #105
  8034eb:	f0          	movx @dptr, a
  8034ec:	90 05 78    	mov dptr, #1400
  8034ef:	74 6d       	mov a, #109
  8034f1:	f0          	movx @dptr, a
  8034f2:	90 05 79    	mov dptr, #1401
  8034f5:	74 65       	mov a, #101
  8034f7:	f0          	movx @dptr, a
  8034f8:	90 05 7a    	mov dptr, #1402
  8034fb:	74 72       	mov a, #114
  8034fd:	f0          	movx @dptr, a
  8034fe:	90 05 7b    	mov dptr, #1403
  803501:	74 2e       	mov a, #46
  803503:	f0          	movx @dptr, a
  803504:	90 05 7c    	mov dptr, #1404
  803507:	74 63       	mov a, #99
  803509:	f0          	movx @dptr, a
  80350a:	90 05 7d    	mov dptr, #1405
  80350d:	74 00       	mov a, #0
  80350f:	f0          	movx @dptr, a
  803510:	90 00 8c    	mov dptr, #140
  803513:	74 59       	mov a, #89
  803515:	f0          	movx @dptr, a
  803516:	e4          	clr a
  803517:	a3          	inc dptr
  803518:	f0          	movx @dptr, a
  803519:	a3          	inc dptr
  80351a:	f0          	movx @dptr, a
  80351b:	a3          	inc dptr
  80351c:	f0          	movx @dptr, a
  80351d:	75 82 5c    	mov dpl, #92
  803520:	75 83 05    	mov dph, #5
  803523:	75 f0 00    	mov b, #0
  803526:	12 05 f6    	lcall 8005f6 <HAL_assert_fail>
  803529:	90 05 59    	mov dptr, #1369
  80352c:	e0          	movx a, @dptr
  80352d:	fa          	mov r2, a
  80352e:	a3          	inc dptr
  80352f:	e0          	movx a, @dptr
  803530:	fb          	mov r3, a
  803531:	a3          	inc dptr
  803532:	e0          	movx a, @dptr
  803533:	fc          	mov r4, a
  803534:	8a 82       	mov dpl, r2
  803536:	8b 83       	mov dph, r3
  803538:	8c f0       	mov b, r4
  80353a:	12 61 48    	lcall 806148 <GPIO_clear_irq+0x2c9>
  80353d:	fa          	mov r2, a
  80353e:	a3          	inc dptr
  80353f:	12 61 48    	lcall 806148 <GPIO_clear_irq+0x2c9>
  803542:	fb          	mov r3, a
  803543:	74 08       	mov a, #8
  803545:	25 02       	add a, 0x02
  803547:	fa          	mov r2, a
  803548:	74 00       	mov a, #0
  80354a:	35 03       	addc a, 0x03
  80354c:	fb          	mov r3, a
  80354d:	90 00 ae    	mov dptr, #174
  803550:	74 00       	mov a, #0
  803552:	f0          	movx @dptr, a
  803553:	90 00 af    	mov dptr, #175
  803556:	74 01       	mov a, #1
  803558:	f0          	movx @dptr, a
  803559:	e4          	clr a
  80355a:	a3          	inc dptr
  80355b:	f0          	movx @dptr, a
  80355c:	a3          	inc dptr
  80355d:	f0          	movx @dptr, a
  80355e:	a3          	inc dptr
  80355f:	f0          	movx @dptr, a
  803560:	90 00 b3    	mov dptr, #179
  803563:	e4          	clr a
  803564:	f0          	movx @dptr, a
  803565:	a3          	inc dptr
  803566:	f0          	movx @dptr, a
  803567:	a3          	inc dptr
  803568:	f0          	movx @dptr, a
  803569:	a3          	inc dptr
  80356a:	f0          	movx @dptr, a
  80356b:	8a 82       	mov dpl, r2
  80356d:	8b 83       	mov dph, r3
  80356f:	12 06 ba    	lcall 8006ba <HW_set_32bit_reg_field>
  803572:	22          	ret

00803573 <TMR_enable_int>:
  803573:	aa f0       	mov r2, b
  803575:	ab 83       	mov r3, dph
  803577:	e5 82       	mov a, dpl
  803579:	90 05 7e    	mov dptr, #1406
  80357c:	f0          	movx @dptr, a
  80357d:	a3          	inc dptr
  80357e:	eb          	mov a, r3
  80357f:	f0          	movx @dptr, a
  803580:	a3          	inc dptr
  803581:	ea          	mov a, r2
  803582:	f0          	movx @dptr, a
  803583:	90 05 7e    	mov dptr, #1406
  803586:	e0          	movx a, @dptr
  803587:	fa          	mov r2, a
  803588:	a3          	inc dptr
  803589:	e0          	movx a, @dptr
  80358a:	fb          	mov r3, a
  80358b:	a3          	inc dptr
  80358c:	e0          	movx a, @dptr
  80358d:	fc          	mov r4, a
  80358e:	90 04 bd    	mov dptr, #1213
  803591:	e0          	movx a, @dptr
  803592:	fd          	mov r5, a
  803593:	a3          	inc dptr
  803594:	e0          	movx a, @dptr
  803595:	fe          	mov r6, a
  803596:	a3          	inc dptr
  803597:	e0          	movx a, @dptr
  803598:	ff          	mov r7, a
  803599:	ea          	mov a, r2
  80359a:	b5 05 0a    	cjne a, 0x05, 8035a7
  80359d:	eb          	mov a, r3
  80359e:	b5 06 06    	cjne a, 0x06, 8035a7
  8035a1:	ec          	mov a, r4
  8035a2:	b5 07 02    	cjne a, 0x07, 8035a7
  8035a5:	80 03       	sjmp 8035aa
  8035a7:	02 36 8f    	ljmp 80368f <TMR_enable_int+0x11c>
  8035aa:	90 05 81    	mov dptr, #1409
  8035ad:	74 2e       	mov a, #46
  8035af:	f0          	movx @dptr, a
  8035b0:	90 05 82    	mov dptr, #1410
  8035b3:	74 2e       	mov a, #46
  8035b5:	f0          	movx @dptr, a
  8035b6:	90 05 83    	mov dptr, #1411
  8035b9:	74 2f       	mov a, #47
  8035bb:	f0          	movx @dptr, a
  8035bc:	90 05 84    	mov dptr, #1412
  8035bf:	74 64       	mov a, #100
  8035c1:	f0          	movx @dptr, a
  8035c2:	90 05 85    	mov dptr, #1413
  8035c5:	74 72       	mov a, #114
  8035c7:	f0          	movx @dptr, a
  8035c8:	90 05 86    	mov dptr, #1414
  8035cb:	74 69       	mov a, #105
  8035cd:	f0          	movx @dptr, a
  8035ce:	90 05 87    	mov dptr, #1415
  8035d1:	74 76       	mov a, #118
  8035d3:	f0          	movx @dptr, a
  8035d4:	90 05 88    	mov dptr, #1416
  8035d7:	74 65       	mov a, #101
  8035d9:	f0          	movx @dptr, a
  8035da:	90 05 89    	mov dptr, #1417
  8035dd:	74 72       	mov a, #114
  8035df:	f0          	movx @dptr, a
  8035e0:	90 05 8a    	mov dptr, #1418
  8035e3:	74 73       	mov a, #115
  8035e5:	f0          	movx @dptr, a
  8035e6:	90 05 8b    	mov dptr, #1419
  8035e9:	74 2f       	mov a, #47
  8035eb:	f0          	movx @dptr, a
  8035ec:	90 05 8c    	mov dptr, #1420
  8035ef:	74 43       	mov a, #67
  8035f1:	f0          	movx @dptr, a
  8035f2:	90 05 8d    	mov dptr, #1421
  8035f5:	74 6f       	mov a, #111
  8035f7:	f0          	movx @dptr, a
  8035f8:	90 05 8e    	mov dptr, #1422
  8035fb:	74 72       	mov a, #114
  8035fd:	f0          	movx @dptr, a
  8035fe:	90 05 8f    	mov dptr, #1423
  803601:	74 65       	mov a, #101
  803603:	f0          	movx @dptr, a
  803604:	90 05 90    	mov dptr, #1424
  803607:	74 54       	mov a, #84
  803609:	f0          	movx @dptr, a
  80360a:	90 05 91    	mov dptr, #1425
  80360d:	74 69       	mov a, #105
  80360f:	f0          	movx @dptr, a
  803610:	90 05 92    	mov dptr, #1426
  803613:	74 6d       	mov a, #109
  803615:	f0          	movx @dptr, a
  803616:	90 05 93    	mov dptr, #1427
  803619:	74 65       	mov a, #101
  80361b:	f0          	movx @dptr, a
  80361c:	90 05 94    	mov dptr, #1428
  80361f:	74 72       	mov a, #114
  803621:	f0          	movx @dptr, a
  803622:	90 05 95    	mov dptr, #1429
  803625:	74 2f       	mov a, #47
  803627:	f0          	movx @dptr, a
  803628:	90 05 96    	mov dptr, #1430
  80362b:	74 63       	mov a, #99
  80362d:	f0          	movx @dptr, a
  80362e:	90 05 97    	mov dptr, #1431
  803631:	74 6f       	mov a, #111
  803633:	f0          	movx @dptr, a
  803634:	90 05 98    	mov dptr, #1432
  803637:	74 72       	mov a, #114
  803639:	f0          	movx @dptr, a
  80363a:	90 05 99    	mov dptr, #1433
  80363d:	74 65       	mov a, #101
  80363f:	f0          	movx @dptr, a
  803640:	90 05 9a    	mov dptr, #1434
  803643:	74 5f       	mov a, #95
  803645:	f0          	movx @dptr, a
  803646:	90 05 9b    	mov dptr, #1435
  803649:	74 74       	mov a, #116
  80364b:	f0          	movx @dptr, a
  80364c:	90 05 9c    	mov dptr, #1436
  80364f:	74 69       	mov a, #105
  803651:	f0          	movx @dptr, a
  803652:	90 05 9d    	mov dptr, #1437
  803655:	74 6d       	mov a, #109
  803657:	f0          	movx @dptr, a
  803658:	90 05 9e    	mov dptr, #1438
  80365b:	74 65       	mov a, #101
  80365d:	f0          	movx @dptr, a
  80365e:	90 05 9f    	mov dptr, #1439
  803661:	74 72       	mov a, #114
  803663:	f0          	movx @dptr, a
  803664:	90 05 a0    	mov dptr, #1440
  803667:	74 2e       	mov a, #46
  803669:	f0          	movx @dptr, a
  80366a:	90 05 a1    	mov dptr, #1441
  80366d:	74 63       	mov a, #99
  80366f:	f0          	movx @dptr, a
  803670:	90 05 a2    	mov dptr, #1442
  803673:	74 00       	mov a, #0
  803675:	f0          	movx @dptr, a
  803676:	90 00 8c    	mov dptr, #140
  803679:	74 69       	mov a, #105
  80367b:	f0          	movx @dptr, a
  80367c:	e4          	clr a
  80367d:	a3          	inc dptr
  80367e:	f0          	movx @dptr, a
  80367f:	a3          	inc dptr
  803680:	f0          	movx @dptr, a
  803681:	a3          	inc dptr
  803682:	f0          	movx @dptr, a
  803683:	75 82 81    	mov dpl, #129
  803686:	75 83 05    	mov dph, #5
  803689:	75 f0 00    	mov b, #0
  80368c:	12 05 f6    	lcall 8005f6 <HAL_assert_fail>
  80368f:	90 05 7e    	mov dptr, #1406
  803692:	e0          	movx a, @dptr
  803693:	fa          	mov r2, a
  803694:	a3          	inc dptr
  803695:	e0          	movx a, @dptr
  803696:	fb          	mov r3, a
  803697:	a3          	inc dptr
  803698:	e0          	movx a, @dptr
  803699:	fc          	mov r4, a
  80369a:	8a 82       	mov dpl, r2
  80369c:	8b 83       	mov dph, r3
  80369e:	8c f0       	mov b, r4
  8036a0:	12 61 48    	lcall 806148 <GPIO_clear_irq+0x2c9>
  8036a3:	fa          	mov r2, a
  8036a4:	a3          	inc dptr
  8036a5:	12 61 48    	lcall 806148 <GPIO_clear_irq+0x2c9>
  8036a8:	fb          	mov r3, a
  8036a9:	74 08       	mov a, #8
  8036ab:	25 02       	add a, 0x02
  8036ad:	fa          	mov r2, a
  8036ae:	74 00       	mov a, #0
  8036b0:	35 03       	addc a, 0x03
  8036b2:	fb          	mov r3, a
  8036b3:	90 00 ae    	mov dptr, #174
  8036b6:	74 01       	mov a, #1
  8036b8:	f0          	movx @dptr, a
  8036b9:	90 00 af    	mov dptr, #175
  8036bc:	74 02       	mov a, #2
  8036be:	f0          	movx @dptr, a
  8036bf:	e4          	clr a
  8036c0:	a3          	inc dptr
  8036c1:	f0          	movx @dptr, a
  8036c2:	a3          	inc dptr
  8036c3:	f0          	movx @dptr, a
  8036c4:	a3          	inc dptr
  8036c5:	f0          	movx @dptr, a
  8036c6:	90 00 b3    	mov dptr, #179
  8036c9:	74 01       	mov a, #1
  8036cb:	f0          	movx @dptr, a
  8036cc:	e4          	clr a
  8036cd:	a3          	inc dptr
  8036ce:	f0          	movx @dptr, a
  8036cf:	a3          	inc dptr
  8036d0:	f0          	movx @dptr, a
  8036d1:	a3          	inc dptr
  8036d2:	f0          	movx @dptr, a
  8036d3:	8a 82       	mov dpl, r2
  8036d5:	8b 83       	mov dph, r3
  8036d7:	12 06 ba    	lcall 8006ba <HW_set_32bit_reg_field>
  8036da:	22          	ret

008036db <TMR_clear_int>:
  8036db:	aa f0       	mov r2, b
  8036dd:	ab 83       	mov r3, dph
  8036df:	e5 82       	mov a, dpl
  8036e1:	90 05 a3    	mov dptr, #1443
  8036e4:	f0          	movx @dptr, a
  8036e5:	a3          	inc dptr
  8036e6:	eb          	mov a, r3
  8036e7:	f0          	movx @dptr, a
  8036e8:	a3          	inc dptr
  8036e9:	ea          	mov a, r2
  8036ea:	f0          	movx @dptr, a
  8036eb:	90 05 a3    	mov dptr, #1443
  8036ee:	e0          	movx a, @dptr
  8036ef:	fa          	mov r2, a
  8036f0:	a3          	inc dptr
  8036f1:	e0          	movx a, @dptr
  8036f2:	fb          	mov r3, a
  8036f3:	a3          	inc dptr
  8036f4:	e0          	movx a, @dptr
  8036f5:	fc          	mov r4, a
  8036f6:	90 04 bd    	mov dptr, #1213
  8036f9:	e0          	movx a, @dptr
  8036fa:	fd          	mov r5, a
  8036fb:	a3          	inc dptr
  8036fc:	e0          	movx a, @dptr
  8036fd:	fe          	mov r6, a
  8036fe:	a3          	inc dptr
  8036ff:	e0          	movx a, @dptr
  803700:	ff          	mov r7, a
  803701:	ea          	mov a, r2
  803702:	b5 05 0a    	cjne a, 0x05, 80370f
  803705:	eb          	mov a, r3
  803706:	b5 06 06    	cjne a, 0x06, 80370f
  803709:	ec          	mov a, r4
  80370a:	b5 07 02    	cjne a, 0x07, 80370f
  80370d:	80 03       	sjmp 803712
  80370f:	02 37 f7    	ljmp 8037f7 <TMR_clear_int+0x11c>
  803712:	90 05 a6    	mov dptr, #1446
  803715:	74 2e       	mov a, #46
  803717:	f0          	movx @dptr, a
  803718:	90 05 a7    	mov dptr, #1447
  80371b:	74 2e       	mov a, #46
  80371d:	f0          	movx @dptr, a
  80371e:	90 05 a8    	mov dptr, #1448
  803721:	74 2f       	mov a, #47
  803723:	f0          	movx @dptr, a
  803724:	90 05 a9    	mov dptr, #1449
  803727:	74 64       	mov a, #100
  803729:	f0          	movx @dptr, a
  80372a:	90 05 aa    	mov dptr, #1450
  80372d:	74 72       	mov a, #114
  80372f:	f0          	movx @dptr, a
  803730:	90 05 ab    	mov dptr, #1451
  803733:	74 69       	mov a, #105
  803735:	f0          	movx @dptr, a
  803736:	90 05 ac    	mov dptr, #1452
  803739:	74 76       	mov a, #118
  80373b:	f0          	movx @dptr, a
  80373c:	90 05 ad    	mov dptr, #1453
  80373f:	74 65       	mov a, #101
  803741:	f0          	movx @dptr, a
  803742:	90 05 ae    	mov dptr, #1454
  803745:	74 72       	mov a, #114
  803747:	f0          	movx @dptr, a
  803748:	90 05 af    	mov dptr, #1455
  80374b:	74 73       	mov a, #115
  80374d:	f0          	movx @dptr, a
  80374e:	90 05 b0    	mov dptr, #1456
  803751:	74 2f       	mov a, #47
  803753:	f0          	movx @dptr, a
  803754:	90 05 b1    	mov dptr, #1457
  803757:	74 43       	mov a, #67
  803759:	f0          	movx @dptr, a
  80375a:	90 05 b2    	mov dptr, #1458
  80375d:	74 6f       	mov a, #111
  80375f:	f0          	movx @dptr, a
  803760:	90 05 b3    	mov dptr, #1459
  803763:	74 72       	mov a, #114
  803765:	f0          	movx @dptr, a
  803766:	90 05 b4    	mov dptr, #1460
  803769:	74 65       	mov a, #101
  80376b:	f0          	movx @dptr, a
  80376c:	90 05 b5    	mov dptr, #1461
  80376f:	74 54       	mov a, #84
  803771:	f0          	movx @dptr, a
  803772:	90 05 b6    	mov dptr, #1462
  803775:	74 69       	mov a, #105
  803777:	f0          	movx @dptr, a
  803778:	90 05 b7    	mov dptr, #1463
  80377b:	74 6d       	mov a, #109
  80377d:	f0          	movx @dptr, a
  80377e:	90 05 b8    	mov dptr, #1464
  803781:	74 65       	mov a, #101
  803783:	f0          	movx @dptr, a
  803784:	90 05 b9    	mov dptr, #1465
  803787:	74 72       	mov a, #114
  803789:	f0          	movx @dptr, a
  80378a:	90 05 ba    	mov dptr, #1466
  80378d:	74 2f       	mov a, #47
  80378f:	f0          	movx @dptr, a
  803790:	90 05 bb    	mov dptr, #1467
  803793:	74 63       	mov a, #99
  803795:	f0          	movx @dptr, a
  803796:	90 05 bc    	mov dptr, #1468
  803799:	74 6f       	mov a, #111
  80379b:	f0          	movx @dptr, a
  80379c:	90 05 bd    	mov dptr, #1469
  80379f:	74 72       	mov a, #114
  8037a1:	f0          	movx @dptr, a
  8037a2:	90 05 be    	mov dptr, #1470
  8037a5:	74 65       	mov a, #101
  8037a7:	f0          	movx @dptr, a
  8037a8:	90 05 bf    	mov dptr, #1471
  8037ab:	74 5f       	mov a, #95
  8037ad:	f0          	movx @dptr, a
  8037ae:	90 05 c0    	mov dptr, #1472
  8037b1:	74 74       	mov a, #116
  8037b3:	f0          	movx @dptr, a
  8037b4:	90 05 c1    	mov dptr, #1473
  8037b7:	74 69       	mov a, #105
  8037b9:	f0          	movx @dptr, a
  8037ba:	90 05 c2    	mov dptr, #1474
  8037bd:	74 6d       	mov a, #109
  8037bf:	f0          	movx @dptr, a
  8037c0:	90 05 c3    	mov dptr, #1475
  8037c3:	74 65       	mov a, #101
  8037c5:	f0          	movx @dptr, a
  8037c6:	90 05 c4    	mov dptr, #1476
  8037c9:	74 72       	mov a, #114
  8037cb:	f0          	movx @dptr, a
  8037cc:	90 05 c5    	mov dptr, #1477
  8037cf:	74 2e       	mov a, #46
  8037d1:	f0          	movx @dptr, a
  8037d2:	90 05 c6    	mov dptr, #1478
  8037d5:	74 63       	mov a, #99
  8037d7:	f0          	movx @dptr, a
  8037d8:	90 05 c7    	mov dptr, #1479
  8037db:	74 00       	mov a, #0
  8037dd:	f0          	movx @dptr, a
  8037de:	90 00 8c    	mov dptr, #140
  8037e1:	74 78       	mov a, #120
  8037e3:	f0          	movx @dptr, a
  8037e4:	e4          	clr a
  8037e5:	a3          	inc dptr
  8037e6:	f0          	movx @dptr, a
  8037e7:	a3          	inc dptr
  8037e8:	f0          	movx @dptr, a
  8037e9:	a3          	inc dptr
  8037ea:	f0          	movx @dptr, a
  8037eb:	75 82 a6    	mov dpl, #166
  8037ee:	75 83 05    	mov dph, #5
  8037f1:	75 f0 00    	mov b, #0
  8037f4:	12 05 f6    	lcall 8005f6 <HAL_assert_fail>
  8037f7:	90 05 a3    	mov dptr, #1443
  8037fa:	e0          	movx a, @dptr
  8037fb:	fa          	mov r2, a
  8037fc:	a3          	inc dptr
  8037fd:	e0          	movx a, @dptr
  8037fe:	fb          	mov r3, a
  8037ff:	a3          	inc dptr
  803800:	e0          	movx a, @dptr
  803801:	fc          	mov r4, a
  803802:	8a 82       	mov dpl, r2
  803804:	8b 83       	mov dph, r3
  803806:	8c f0       	mov b, r4
  803808:	12 61 48    	lcall 806148 <GPIO_clear_irq+0x2c9>
  80380b:	fa          	mov r2, a
  80380c:	a3          	inc dptr
  80380d:	12 61 48    	lcall 806148 <GPIO_clear_irq+0x2c9>
  803810:	fb          	mov r3, a
  803811:	74 10       	mov a, #16
  803813:	25 02       	add a, 0x02
  803815:	fa          	mov r2, a
  803816:	74 00       	mov a, #0
  803818:	35 03       	addc a, 0x03
  80381a:	fb          	mov r3, a
  80381b:	90 00 aa    	mov dptr, #170
  80381e:	74 01       	mov a, #1
  803820:	f0          	movx @dptr, a
  803821:	e4          	clr a
  803822:	a3          	inc dptr
  803823:	f0          	movx @dptr, a
  803824:	a3          	inc dptr
  803825:	f0          	movx @dptr, a
  803826:	a3          	inc dptr
  803827:	f0          	movx @dptr, a
  803828:	8a 82       	mov dpl, r2
  80382a:	8b 83       	mov dph, r3
  80382c:	12 06 62    	lcall 800662 <HW_set_32bit_reg>
  80382f:	22          	ret

00803830 <TMR_current_value>:
  803830:	aa f0       	mov r2, b
  803832:	ab 83       	mov r3, dph
  803834:	e5 82       	mov a, dpl
  803836:	90 05 c8    	mov dptr, #1480
  803839:	f0          	movx @dptr, a
  80383a:	a3          	inc dptr
  80383b:	eb          	mov a, r3
  80383c:	f0          	movx @dptr, a
  80383d:	a3          	inc dptr
  80383e:	ea          	mov a, r2
  80383f:	f0          	movx @dptr, a
  803840:	90 05 c8    	mov dptr, #1480
  803843:	e0          	movx a, @dptr
  803844:	fa          	mov r2, a
  803845:	a3          	inc dptr
  803846:	e0          	movx a, @dptr
  803847:	fb          	mov r3, a
  803848:	a3          	inc dptr
  803849:	e0          	movx a, @dptr
  80384a:	fc          	mov r4, a
  80384b:	90 04 bd    	mov dptr, #1213
  80384e:	e0          	movx a, @dptr
  80384f:	fd          	mov r5, a
  803850:	a3          	inc dptr
  803851:	e0          	movx a, @dptr
  803852:	fe          	mov r6, a
  803853:	a3          	inc dptr
  803854:	e0          	movx a, @dptr
  803855:	ff          	mov r7, a
  803856:	ea          	mov a, r2
  803857:	b5 05 0a    	cjne a, 0x05, 803864
  80385a:	eb          	mov a, r3
  80385b:	b5 06 06    	cjne a, 0x06, 803864
  80385e:	ec          	mov a, r4
  80385f:	b5 07 02    	cjne a, 0x07, 803864
  803862:	80 03       	sjmp 803867
  803864:	02 39 4c    	ljmp 80394c <TMR_current_value+0x11c>
  803867:	90 05 cb    	mov dptr, #1483
  80386a:	74 2e       	mov a, #46
  80386c:	f0          	movx @dptr, a
  80386d:	90 05 cc    	mov dptr, #1484
  803870:	74 2e       	mov a, #46
  803872:	f0          	movx @dptr, a
  803873:	90 05 cd    	mov dptr, #1485
  803876:	74 2f       	mov a, #47
  803878:	f0          	movx @dptr, a
  803879:	90 05 ce    	mov dptr, #1486
  80387c:	74 64       	mov a, #100
  80387e:	f0          	movx @dptr, a
  80387f:	90 05 cf    	mov dptr, #1487
  803882:	74 72       	mov a, #114
  803884:	f0          	movx @dptr, a
  803885:	90 05 d0    	mov dptr, #1488
  803888:	74 69       	mov a, #105
  80388a:	f0          	movx @dptr, a
  80388b:	90 05 d1    	mov dptr, #1489
  80388e:	74 76       	mov a, #118
  803890:	f0          	movx @dptr, a
  803891:	90 05 d2    	mov dptr, #1490
  803894:	74 65       	mov a, #101
  803896:	f0          	movx @dptr, a
  803897:	90 05 d3    	mov dptr, #1491
  80389a:	74 72       	mov a, #114
  80389c:	f0          	movx @dptr, a
  80389d:	90 05 d4    	mov dptr, #1492
  8038a0:	74 73       	mov a, #115
  8038a2:	f0          	movx @dptr, a
  8038a3:	90 05 d5    	mov dptr, #1493
  8038a6:	74 2f       	mov a, #47
  8038a8:	f0          	movx @dptr, a
  8038a9:	90 05 d6    	mov dptr, #1494
  8038ac:	74 43       	mov a, #67
  8038ae:	f0          	movx @dptr, a
  8038af:	90 05 d7    	mov dptr, #1495
  8038b2:	74 6f       	mov a, #111
  8038b4:	f0          	movx @dptr, a
  8038b5:	90 05 d8    	mov dptr, #1496
  8038b8:	74 72       	mov a, #114
  8038ba:	f0          	movx @dptr, a
  8038bb:	90 05 d9    	mov dptr, #1497
  8038be:	74 65       	mov a, #101
  8038c0:	f0          	movx @dptr, a
  8038c1:	90 05 da    	mov dptr, #1498
  8038c4:	74 54       	mov a, #84
  8038c6:	f0          	movx @dptr, a
  8038c7:	90 05 db    	mov dptr, #1499
  8038ca:	74 69       	mov a, #105
  8038cc:	f0          	movx @dptr, a
  8038cd:	90 05 dc    	mov dptr, #1500
  8038d0:	74 6d       	mov a, #109
  8038d2:	f0          	movx @dptr, a
  8038d3:	90 05 dd    	mov dptr, #1501
  8038d6:	74 65       	mov a, #101
  8038d8:	f0          	movx @dptr, a
  8038d9:	90 05 de    	mov dptr, #1502
  8038dc:	74 72       	mov a, #114
  8038de:	f0          	movx @dptr, a
  8038df:	90 05 df    	mov dptr, #1503
  8038e2:	74 2f       	mov a, #47
  8038e4:	f0          	movx @dptr, a
  8038e5:	90 05 e0    	mov dptr, #1504
  8038e8:	74 63       	mov a, #99
  8038ea:	f0          	movx @dptr, a
  8038eb:	90 05 e1    	mov dptr, #1505
  8038ee:	74 6f       	mov a, #111
  8038f0:	f0          	movx @dptr, a
  8038f1:	90 05 e2    	mov dptr, #1506
  8038f4:	74 72       	mov a, #114
  8038f6:	f0          	movx @dptr, a
  8038f7:	90 05 e3    	mov dptr, #1507
  8038fa:	74 65       	mov a, #101
  8038fc:	f0          	movx @dptr, a
  8038fd:	90 05 e4    	mov dptr, #1508
  803900:	74 5f       	mov a, #95
  803902:	f0          	movx @dptr, a
  803903:	90 05 e5    	mov dptr, #1509
  803906:	74 74       	mov a, #116
  803908:	f0          	movx @dptr, a
  803909:	90 05 e6    	mov dptr, #1510
  80390c:	74 69       	mov a, #105
  80390e:	f0          	movx @dptr, a
  80390f:	90 05 e7    	mov dptr, #1511
  803912:	74 6d       	mov a, #109
  803914:	f0          	movx @dptr, a
  803915:	90 05 e8    	mov dptr, #1512
  803918:	74 65       	mov a, #101
  80391a:	f0          	movx @dptr, a
  80391b:	90 05 e9    	mov dptr, #1513
  80391e:	74 72       	mov a, #114
  803920:	f0          	movx @dptr, a
  803921:	90 05 ea    	mov dptr, #1514
  803924:	74 2e       	mov a, #46
  803926:	f0          	movx @dptr, a
  803927:	90 05 eb    	mov dptr, #1515
  80392a:	74 63       	mov a, #99
  80392c:	f0          	movx @dptr, a
  80392d:	90 05 ec    	mov dptr, #1516
  803930:	74 00       	mov a, #0
  803932:	f0          	movx @dptr, a
  803933:	90 00 8c    	mov dptr, #140
  803936:	74 88       	mov a, #136
  803938:	f0          	movx @dptr, a
  803939:	e4          	clr a
  80393a:	a3          	inc dptr
  80393b:	f0          	movx @dptr, a
  80393c:	a3          	inc dptr
  80393d:	f0          	movx @dptr, a
  80393e:	a3          	inc dptr
  80393f:	f0          	movx @dptr, a
  803940:	75 82 cb    	mov dpl, #203
  803943:	75 83 05    	mov dph, #5
  803946:	75 f0 00    	mov b, #0
  803949:	12 05 f6    	lcall 8005f6 <HAL_assert_fail>
  80394c:	90 05 c8    	mov dptr, #1480
  80394f:	e0          	movx a, @dptr
  803950:	fa          	mov r2, a
  803951:	a3          	inc dptr
  803952:	e0          	movx a, @dptr
  803953:	fb          	mov r3, a
  803954:	a3          	inc dptr
  803955:	e0          	movx a, @dptr
  803956:	fc          	mov r4, a
  803957:	8a 82       	mov dpl, r2
  803959:	8b 83       	mov dph, r3
  80395b:	8c f0       	mov b, r4
  80395d:	12 61 48    	lcall 806148 <GPIO_clear_irq+0x2c9>
  803960:	fa          	mov r2, a
  803961:	a3          	inc dptr
  803962:	12 61 48    	lcall 806148 <GPIO_clear_irq+0x2c9>
  803965:	fb          	mov r3, a
  803966:	74 04       	mov a, #4
  803968:	25 02       	add a, 0x02
  80396a:	fa          	mov r2, a
  80396b:	74 00       	mov a, #0
  80396d:	35 03       	addc a, 0x03
  80396f:	fb          	mov r3, a
  803970:	8a 82       	mov dpl, r2
  803972:	8b 83       	mov dph, r3
  803974:	12 06 56    	lcall 800656 <HW_get_32bit_reg>
  803977:	aa 82       	mov r2, dpl
  803979:	ab 83       	mov r3, dph
  80397b:	ac f0       	mov r4, b
  80397d:	fd          	mov r5, a
  80397e:	8a 82       	mov dpl, r2
  803980:	8b 83       	mov dph, r3
  803982:	8c f0       	mov b, r4
  803984:	ed          	mov a, r5
  803985:	22          	ret

00803986 <TMR_reload>:
  803986:	aa f0       	mov r2, b
  803988:	ab 83       	mov r3, dph
  80398a:	e5 82       	mov a, dpl
  80398c:	90 05 f1    	mov dptr, #1521
  80398f:	f0          	movx @dptr, a
  803990:	a3          	inc dptr
  803991:	eb          	mov a, r3
  803992:	f0          	movx @dptr, a
  803993:	a3          	inc dptr
  803994:	ea          	mov a, r2
  803995:	f0          	movx @dptr, a
  803996:	90 05 f1    	mov dptr, #1521
  803999:	e0          	movx a, @dptr
  80399a:	fa          	mov r2, a
  80399b:	a3          	inc dptr
  80399c:	e0          	movx a, @dptr
  80399d:	fb          	mov r3, a
  80399e:	a3          	inc dptr
  80399f:	e0          	movx a, @dptr
  8039a0:	fc          	mov r4, a
  8039a1:	90 04 bd    	mov dptr, #1213
  8039a4:	e0          	movx a, @dptr
  8039a5:	fd          	mov r5, a
  8039a6:	a3          	inc dptr
  8039a7:	e0          	movx a, @dptr
  8039a8:	fe          	mov r6, a
  8039a9:	a3          	inc dptr
  8039aa:	e0          	movx a, @dptr
  8039ab:	ff          	mov r7, a
  8039ac:	ea          	mov a, r2
  8039ad:	b5 05 0a    	cjne a, 0x05, 8039ba
  8039b0:	eb          	mov a, r3
  8039b1:	b5 06 06    	cjne a, 0x06, 8039ba
  8039b4:	ec          	mov a, r4
  8039b5:	b5 07 02    	cjne a, 0x07, 8039ba
  8039b8:	80 03       	sjmp 8039bd
  8039ba:	02 3a a2    	ljmp 803aa2 <TMR_reload+0x11c>
  8039bd:	90 05 f4    	mov dptr, #1524
  8039c0:	74 2e       	mov a, #46
  8039c2:	f0          	movx @dptr, a
  8039c3:	90 05 f5    	mov dptr, #1525
  8039c6:	74 2e       	mov a, #46
  8039c8:	f0          	movx @dptr, a
  8039c9:	90 05 f6    	mov dptr, #1526
  8039cc:	74 2f       	mov a, #47
  8039ce:	f0          	movx @dptr, a
  8039cf:	90 05 f7    	mov dptr, #1527
  8039d2:	74 64       	mov a, #100
  8039d4:	f0          	movx @dptr, a
  8039d5:	90 05 f8    	mov dptr, #1528
  8039d8:	74 72       	mov a, #114
  8039da:	f0          	movx @dptr, a
  8039db:	90 05 f9    	mov dptr, #1529
  8039de:	74 69       	mov a, #105
  8039e0:	f0          	movx @dptr, a
  8039e1:	90 05 fa    	mov dptr, #1530
  8039e4:	74 76       	mov a, #118
  8039e6:	f0          	movx @dptr, a
  8039e7:	90 05 fb    	mov dptr, #1531
  8039ea:	74 65       	mov a, #101
  8039ec:	f0          	movx @dptr, a
  8039ed:	90 05 fc    	mov dptr, #1532
  8039f0:	74 72       	mov a, #114
  8039f2:	f0          	movx @dptr, a
  8039f3:	90 05 fd    	mov dptr, #1533
  8039f6:	74 73       	mov a, #115
  8039f8:	f0          	movx @dptr, a
  8039f9:	90 05 fe    	mov dptr, #1534
  8039fc:	74 2f       	mov a, #47
  8039fe:	f0          	movx @dptr, a
  8039ff:	90 05 ff    	mov dptr, #1535
  803a02:	74 43       	mov a, #67
  803a04:	f0          	movx @dptr, a
  803a05:	90 06 00    	mov dptr, #1536
  803a08:	74 6f       	mov a, #111
  803a0a:	f0          	movx @dptr, a
  803a0b:	90 06 01    	mov dptr, #1537
  803a0e:	74 72       	mov a, #114
  803a10:	f0          	movx @dptr, a
  803a11:	90 06 02    	mov dptr, #1538
  803a14:	74 65       	mov a, #101
  803a16:	f0          	movx @dptr, a
  803a17:	90 06 03    	mov dptr, #1539
  803a1a:	74 54       	mov a, #84
  803a1c:	f0          	movx @dptr, a
  803a1d:	90 06 04    	mov dptr, #1540
  803a20:	74 69       	mov a, #105
  803a22:	f0          	movx @dptr, a
  803a23:	90 06 05    	mov dptr, #1541
  803a26:	74 6d       	mov a, #109
  803a28:	f0          	movx @dptr, a
  803a29:	90 06 06    	mov dptr, #1542
  803a2c:	74 65       	mov a, #101
  803a2e:	f0          	movx @dptr, a
  803a2f:	90 06 07    	mov dptr, #1543
  803a32:	74 72       	mov a, #114
  803a34:	f0          	movx @dptr, a
  803a35:	90 06 08    	mov dptr, #1544
  803a38:	74 2f       	mov a, #47
  803a3a:	f0          	movx @dptr, a
  803a3b:	90 06 09    	mov dptr, #1545
  803a3e:	74 63       	mov a, #99
  803a40:	f0          	movx @dptr, a
  803a41:	90 06 0a    	mov dptr, #1546
  803a44:	74 6f       	mov a, #111
  803a46:	f0          	movx @dptr, a
  803a47:	90 06 0b    	mov dptr, #1547
  803a4a:	74 72       	mov a, #114
  803a4c:	f0          	movx @dptr, a
  803a4d:	90 06 0c    	mov dptr, #1548
  803a50:	74 65       	mov a, #101
  803a52:	f0          	movx @dptr, a
  803a53:	90 06 0d    	mov dptr, #1549
  803a56:	74 5f       	mov a, #95
  803a58:	f0          	movx @dptr, a
  803a59:	90 06 0e    	mov dptr, #1550
  803a5c:	74 74       	mov a, #116
  803a5e:	f0          	movx @dptr, a
  803a5f:	90 06 0f    	mov dptr, #1551
  803a62:	74 69       	mov a, #105
  803a64:	f0          	movx @dptr, a
  803a65:	90 06 10    	mov dptr, #1552
  803a68:	74 6d       	mov a, #109
  803a6a:	f0          	movx @dptr, a
  803a6b:	90 06 11    	mov dptr, #1553
  803a6e:	74 65       	mov a, #101
  803a70:	f0          	movx @dptr, a
  803a71:	90 06 12    	mov dptr, #1554
  803a74:	74 72       	mov a, #114
  803a76:	f0          	movx @dptr, a
  803a77:	90 06 13    	mov dptr, #1555
  803a7a:	74 2e       	mov a, #46
  803a7c:	f0          	movx @dptr, a
  803a7d:	90 06 14    	mov dptr, #1556
  803a80:	74 63       	mov a, #99
  803a82:	f0          	movx @dptr, a
  803a83:	90 06 15    	mov dptr, #1557
  803a86:	74 00       	mov a, #0
  803a88:	f0          	movx @dptr, a
  803a89:	90 00 8c    	mov dptr, #140
  803a8c:	74 99       	mov a, #153
  803a8e:	f0          	movx @dptr, a
  803a8f:	e4          	clr a
  803a90:	a3          	inc dptr
  803a91:	f0          	movx @dptr, a
  803a92:	a3          	inc dptr
  803a93:	f0          	movx @dptr, a
  803a94:	a3          	inc dptr
  803a95:	f0          	movx @dptr, a
  803a96:	75 82 f4    	mov dpl, #244
  803a99:	75 83 05    	mov dph, #5
  803a9c:	75 f0 00    	mov b, #0
  803a9f:	12 05 f6    	lcall 8005f6 <HAL_assert_fail>
  803aa2:	90 05 ed    	mov dptr, #1517
  803aa5:	e0          	movx a, @dptr
  803aa6:	fa          	mov r2, a
  803aa7:	a3          	inc dptr
  803aa8:	e0          	movx a, @dptr
  803aa9:	fb          	mov r3, a
  803aaa:	a3          	inc dptr
  803aab:	e0          	movx a, @dptr
  803aac:	fc          	mov r4, a
  803aad:	a3          	inc dptr
  803aae:	e0          	movx a, @dptr
  803aaf:	fd          	mov r5, a
  803ab0:	ba 00 0b    	cjne r2, #0, 803abe
  803ab3:	bb 00 08    	cjne r3, #0, 803abe
  803ab6:	bc 00 05    	cjne r4, #0, 803abe
  803ab9:	bd 00 02    	cjne r5, #0, 803abe
  803abc:	80 03       	sjmp 803ac1
  803abe:	02 3b b6    	ljmp 803bb6 <TMR_reload+0x230>
  803ac1:	90 06 16    	mov dptr, #1558
  803ac4:	74 2e       	mov a, #46
  803ac6:	f0          	movx @dptr, a
  803ac7:	90 06 17    	mov dptr, #1559
  803aca:	74 2e       	mov a, #46
  803acc:	f0          	movx @dptr, a
  803acd:	90 06 18    	mov dptr, #1560
  803ad0:	74 2f       	mov a, #47
  803ad2:	f0          	movx @dptr, a
  803ad3:	90 06 19    	mov dptr, #1561
  803ad6:	74 64       	mov a, #100
  803ad8:	f0          	movx @dptr, a
  803ad9:	90 06 1a    	mov dptr, #1562
  803adc:	74 72       	mov a, #114
  803ade:	f0          	movx @dptr, a
  803adf:	90 06 1b    	mov dptr, #1563
  803ae2:	74 69       	mov a, #105
  803ae4:	f0          	movx @dptr, a
  803ae5:	90 06 1c    	mov dptr, #1564
  803ae8:	74 76       	mov a, #118
  803aea:	f0          	movx @dptr, a
  803aeb:	90 06 1d    	mov dptr, #1565
  803aee:	74 65       	mov a, #101
  803af0:	f0          	movx @dptr, a
  803af1:	90 06 1e    	mov dptr, #1566
  803af4:	74 72       	mov a, #114
  803af6:	f0          	movx @dptr, a
  803af7:	90 06 1f    	mov dptr, #1567
  803afa:	74 73       	mov a, #115
  803afc:	f0          	movx @dptr, a
  803afd:	90 06 20    	mov dptr, #1568
  803b00:	74 2f       	mov a, #47
  803b02:	f0          	movx @dptr, a
  803b03:	90 06 21    	mov dptr, #1569
  803b06:	74 43       	mov a, #67
  803b08:	f0          	movx @dptr, a
  803b09:	90 06 22    	mov dptr, #1570
  803b0c:	74 6f       	mov a, #111
  803b0e:	f0          	movx @dptr, a
  803b0f:	90 06 23    	mov dptr, #1571
  803b12:	74 72       	mov a, #114
  803b14:	f0          	movx @dptr, a
  803b15:	90 06 24    	mov dptr, #1572
  803b18:	74 65       	mov a, #101
  803b1a:	f0          	movx @dptr, a
  803b1b:	90 06 25    	mov dptr, #1573
  803b1e:	74 54       	mov a, #84
  803b20:	f0          	movx @dptr, a
  803b21:	90 06 26    	mov dptr, #1574
  803b24:	74 69       	mov a, #105
  803b26:	f0          	movx @dptr, a
  803b27:	90 06 27    	mov dptr, #1575
  803b2a:	74 6d       	mov a, #109
  803b2c:	f0          	movx @dptr, a
  803b2d:	90 06 28    	mov dptr, #1576
  803b30:	74 65       	mov a, #101
  803b32:	f0          	movx @dptr, a
  803b33:	90 06 29    	mov dptr, #1577
  803b36:	74 72       	mov a, #114
  803b38:	f0          	movx @dptr, a
  803b39:	90 06 2a    	mov dptr, #1578
  803b3c:	74 2f       	mov a, #47
  803b3e:	f0          	movx @dptr, a
  803b3f:	90 06 2b    	mov dptr, #1579
  803b42:	74 63       	mov a, #99
  803b44:	f0          	movx @dptr, a
  803b45:	90 06 2c    	mov dptr, #1580
  803b48:	74 6f       	mov a, #111
  803b4a:	f0          	movx @dptr, a
  803b4b:	90 06 2d    	mov dptr, #1581
  803b4e:	74 72       	mov a, #114
  803b50:	f0          	movx @dptr, a
  803b51:	90 06 2e    	mov dptr, #1582
  803b54:	74 65       	mov a, #101
  803b56:	f0          	movx @dptr, a
  803b57:	90 06 2f    	mov dptr, #1583
  803b5a:	74 5f       	mov a, #95
  803b5c:	f0          	movx @dptr, a
  803b5d:	90 06 30    	mov dptr, #1584
  803b60:	74 74       	mov a, #116
  803b62:	f0          	movx @dptr, a
  803b63:	90 06 31    	mov dptr, #1585
  803b66:	74 69       	mov a, #105
  803b68:	f0          	movx @dptr, a
  803b69:	90 06 32    	mov dptr, #1586
  803b6c:	74 6d       	mov a, #109
  803b6e:	f0          	movx @dptr, a
  803b6f:	90 06 33    	mov dptr, #1587
  803b72:	74 65       	mov a, #101
  803b74:	f0          	movx @dptr, a
  803b75:	90 06 34    	mov dptr, #1588
  803b78:	74 72       	mov a, #114
  803b7a:	f0          	movx @dptr, a
  803b7b:	90 06 35    	mov dptr, #1589
  803b7e:	74 2e       	mov a, #46
  803b80:	f0          	movx @dptr, a
  803b81:	90 06 36    	mov dptr, #1590
  803b84:	74 63       	mov a, #99
  803b86:	f0          	movx @dptr, a
  803b87:	90 06 37    	mov dptr, #1591
  803b8a:	74 00       	mov a, #0
  803b8c:	f0          	movx @dptr, a
  803b8d:	90 00 8c    	mov dptr, #140
  803b90:	74 9a       	mov a, #154
  803b92:	f0          	movx @dptr, a
  803b93:	e4          	clr a
  803b94:	a3          	inc dptr
  803b95:	f0          	movx @dptr, a
  803b96:	a3          	inc dptr
  803b97:	f0          	movx @dptr, a
  803b98:	a3          	inc dptr
  803b99:	f0          	movx @dptr, a
  803b9a:	75 82 16    	mov dpl, #22
  803b9d:	75 83 06    	mov dph, #6
  803ba0:	75 f0 00    	mov b, #0
  803ba3:	c0 02       	push 0x02
  803ba5:	c0 03       	push 0x03
  803ba7:	c0 04       	push 0x04
  803ba9:	c0 05       	push 0x05
  803bab:	12 05 f6    	lcall 8005f6 <HAL_assert_fail>
  803bae:	d0 05       	pop 0x05
  803bb0:	d0 04       	pop 0x04
  803bb2:	d0 03       	pop 0x03
  803bb4:	d0 02       	pop 0x02
  803bb6:	90 05 f1    	mov dptr, #1521
  803bb9:	e0          	movx a, @dptr
  803bba:	fe          	mov r6, a
  803bbb:	a3          	inc dptr
  803bbc:	e0          	movx a, @dptr
  803bbd:	ff          	mov r7, a
  803bbe:	a3          	inc dptr
  803bbf:	e0          	movx a, @dptr
  803bc0:	f8          	mov r0, a
  803bc1:	8e 82       	mov dpl, r6
  803bc3:	8f 83       	mov dph, r7
  803bc5:	88 f0       	mov b, r0
  803bc7:	12 61 48    	lcall 806148 <GPIO_clear_irq+0x2c9>
  803bca:	fe          	mov r6, a
  803bcb:	a3          	inc dptr
  803bcc:	12 61 48    	lcall 806148 <GPIO_clear_irq+0x2c9>
  803bcf:	ff          	mov r7, a
  803bd0:	90 00 aa    	mov dptr, #170
  803bd3:	ea          	mov a, r2
  803bd4:	f0          	movx @dptr, a
  803bd5:	a3          	inc dptr
  803bd6:	eb          	mov a, r3
  803bd7:	f0          	movx @dptr, a
  803bd8:	a3          	inc dptr
  803bd9:	ec          	mov a, r4
  803bda:	f0          	movx @dptr, a
  803bdb:	a3          	inc dptr
  803bdc:	ed          	mov a, r5
  803bdd:	f0          	movx @dptr, a
  803bde:	8e 82       	mov dpl, r6
  803be0:	8f 83       	mov dph, r7
  803be2:	12 06 62    	lcall 800662 <HW_set_32bit_reg>
  803be5:	22          	ret

00803be6 <CIC_init>:
  803be6:	aa 83       	mov r2, dph
  803be8:	e5 82       	mov a, dpl
  803bea:	90 06 78    	mov dptr, #1656
  803bed:	f0          	movx @dptr, a
  803bee:	a3          	inc dptr
  803bef:	ea          	mov a, r2
  803bf0:	f0          	movx @dptr, a
  803bf1:	90 06 78    	mov dptr, #1656
  803bf4:	e0          	movx a, @dptr
  803bf5:	fa          	mov r2, a
  803bf6:	a3          	inc dptr
  803bf7:	e0          	movx a, @dptr
  803bf8:	fb          	mov r3, a
  803bf9:	90 09 89    	mov dptr, #2441
  803bfc:	ea          	mov a, r2
  803bfd:	f0          	movx @dptr, a
  803bfe:	a3          	inc dptr
  803bff:	eb          	mov a, r3
  803c00:	f0          	movx @dptr, a
  803c01:	74 0c       	mov a, #12
  803c03:	25 02       	add a, 0x02
  803c05:	fa          	mov r2, a
  803c06:	74 00       	mov a, #0
  803c08:	35 03       	addc a, 0x03
  803c0a:	fb          	mov r3, a
  803c0b:	90 00 aa    	mov dptr, #170
  803c0e:	74 ff       	mov a, #255
  803c10:	f0          	movx @dptr, a
  803c11:	a3          	inc dptr
  803c12:	74 ff       	mov a, #255
  803c14:	f0          	movx @dptr, a
  803c15:	a3          	inc dptr
  803c16:	74 ff       	mov a, #255
  803c18:	f0          	movx @dptr, a
  803c19:	a3          	inc dptr
  803c1a:	74 ff       	mov a, #255
  803c1c:	f0          	movx @dptr, a
  803c1d:	8a 82       	mov dpl, r2
  803c1f:	8b 83       	mov dph, r3
  803c21:	12 06 62    	lcall 800662 <HW_set_32bit_reg>
  803c24:	90 09 89    	mov dptr, #2441
  803c27:	e0          	movx a, @dptr
  803c28:	fa          	mov r2, a
  803c29:	a3          	inc dptr
  803c2a:	e0          	movx a, @dptr
  803c2b:	fb          	mov r3, a
  803c2c:	74 24       	mov a, #36
  803c2e:	25 02       	add a, 0x02
  803c30:	fa          	mov r2, a
  803c31:	74 00       	mov a, #0
  803c33:	35 03       	addc a, 0x03
  803c35:	fb          	mov r3, a
  803c36:	90 00 aa    	mov dptr, #170
  803c39:	74 ff       	mov a, #255
  803c3b:	f0          	movx @dptr, a
  803c3c:	a3          	inc dptr
  803c3d:	74 ff       	mov a, #255
  803c3f:	f0          	movx @dptr, a
  803c40:	a3          	inc dptr
  803c41:	74 ff       	mov a, #255
  803c43:	f0          	movx @dptr, a
  803c44:	a3          	inc dptr
  803c45:	74 ff       	mov a, #255
  803c47:	f0          	movx @dptr, a
  803c48:	8a 82       	mov dpl, r2
  803c4a:	8b 83       	mov dph, r3
  803c4c:	12 06 62    	lcall 800662 <HW_set_32bit_reg>
  803c4f:	90 06 7a    	mov dptr, #1658
  803c52:	74 00       	mov a, #0
  803c54:	f0          	movx @dptr, a
  803c55:	90 06 7a    	mov dptr, #1658
  803c58:	e0          	movx a, @dptr
  803c59:	fa          	mov r2, a
  803c5a:	ba 20 00    	cjne r2, #32, 803c5d
  803c5d:	40 03       	jc 803c62
  803c5f:	02 3c 82    	ljmp 803c82 <CIC_init+0x9c>
  803c62:	ea          	mov a, r2
  803c63:	25 e0       	add a, acc
  803c65:	fb          	mov r3, a
  803c66:	e5 03       	mov a, 0x03
  803c68:	24 38       	add a, #56
  803c6a:	f5 82       	mov dpl, a
  803c6c:	74 00       	mov a, #0
  803c6e:	34 06       	addc a, #6
  803c70:	f5 83       	mov dph, a
  803c72:	74 00       	mov a, #0
  803c74:	f0          	movx @dptr, a
  803c75:	a3          	inc dptr
  803c76:	74 00       	mov a, #0
  803c78:	f0          	movx @dptr, a
  803c79:	90 06 7a    	mov dptr, #1658
  803c7c:	ea          	mov a, r2
  803c7d:	04          	inc a
  803c7e:	f0          	movx @dptr, a
  803c7f:	02 3c 55    	ljmp 803c55 <CIC_init+0x6f>
  803c82:	22          	ret

00803c83 <CIC_set_irq_handler>:
  803c83:	e5 82       	mov a, dpl
  803c85:	90 06 7d    	mov dptr, #1661
  803c88:	f0          	movx @dptr, a
  803c89:	90 06 7d    	mov dptr, #1661
  803c8c:	e0          	movx a, @dptr
  803c8d:	fa          	mov r2, a
  803c8e:	ba 20 00    	cjne r2, #32, 803c91
  803c91:	50 03       	jnc 803c96
  803c93:	02 3d a5    	ljmp 803da5 <CIC_set_irq_handler+0x122>
  803c96:	90 06 7e    	mov dptr, #1662
  803c99:	74 2e       	mov a, #46
  803c9b:	f0          	movx @dptr, a
  803c9c:	90 06 7f    	mov dptr, #1663
  803c9f:	74 2e       	mov a, #46
  803ca1:	f0          	movx @dptr, a
  803ca2:	90 06 80    	mov dptr, #1664
  803ca5:	74 2f       	mov a, #47
  803ca7:	f0          	movx @dptr, a
  803ca8:	90 06 81    	mov dptr, #1665
  803cab:	74 64       	mov a, #100
  803cad:	f0          	movx @dptr, a
  803cae:	90 06 82    	mov dptr, #1666
  803cb1:	74 72       	mov a, #114
  803cb3:	f0          	movx @dptr, a
  803cb4:	90 06 83    	mov dptr, #1667
  803cb7:	74 69       	mov a, #105
  803cb9:	f0          	movx @dptr, a
  803cba:	90 06 84    	mov dptr, #1668
  803cbd:	74 76       	mov a, #118
  803cbf:	f0          	movx @dptr, a
  803cc0:	90 06 85    	mov dptr, #1669
  803cc3:	74 65       	mov a, #101
  803cc5:	f0          	movx @dptr, a
  803cc6:	90 06 86    	mov dptr, #1670
  803cc9:	74 72       	mov a, #114
  803ccb:	f0          	movx @dptr, a
  803ccc:	90 06 87    	mov dptr, #1671
  803ccf:	74 73       	mov a, #115
  803cd1:	f0          	movx @dptr, a
  803cd2:	90 06 88    	mov dptr, #1672
  803cd5:	74 2f       	mov a, #47
  803cd7:	f0          	movx @dptr, a
  803cd8:	90 06 89    	mov dptr, #1673
  803cdb:	74 43       	mov a, #67
  803cdd:	f0          	movx @dptr, a
  803cde:	90 06 8a    	mov dptr, #1674
  803ce1:	74 6f       	mov a, #111
  803ce3:	f0          	movx @dptr, a
  803ce4:	90 06 8b    	mov dptr, #1675
  803ce7:	74 72       	mov a, #114
  803ce9:	f0          	movx @dptr, a
  803cea:	90 06 8c    	mov dptr, #1676
  803ced:	74 65       	mov a, #101
  803cef:	f0          	movx @dptr, a
  803cf0:	90 06 8d    	mov dptr, #1677
  803cf3:	74 49       	mov a, #73
  803cf5:	f0          	movx @dptr, a
  803cf6:	90 06 8e    	mov dptr, #1678
  803cf9:	74 6e       	mov a, #110
  803cfb:	f0          	movx @dptr, a
  803cfc:	90 06 8f    	mov dptr, #1679
  803cff:	74 74       	mov a, #116
  803d01:	f0          	movx @dptr, a
  803d02:	90 06 90    	mov dptr, #1680
  803d05:	74 65       	mov a, #101
  803d07:	f0          	movx @dptr, a
  803d08:	90 06 91    	mov dptr, #1681
  803d0b:	74 72       	mov a, #114
  803d0d:	f0          	movx @dptr, a
  803d0e:	90 06 92    	mov dptr, #1682
  803d11:	74 72       	mov a, #114
  803d13:	f0          	movx @dptr, a
  803d14:	90 06 93    	mov dptr, #1683
  803d17:	74 75       	mov a, #117
  803d19:	f0          	movx @dptr, a
  803d1a:	90 06 94    	mov dptr, #1684
  803d1d:	74 70       	mov a, #112
  803d1f:	f0          	movx @dptr, a
  803d20:	90 06 95    	mov dptr, #1685
  803d23:	74 74       	mov a, #116
  803d25:	f0          	movx @dptr, a
  803d26:	90 06 96    	mov dptr, #1686
  803d29:	74 2f       	mov a, #47
  803d2b:	f0          	movx @dptr, a
  803d2c:	90 06 97    	mov dptr, #1687
  803d2f:	74 63       	mov a, #99
  803d31:	f0          	movx @dptr, a
  803d32:	90 06 98    	mov dptr, #1688
  803d35:	74 6f       	mov a, #111
  803d37:	f0          	movx @dptr, a
  803d38:	90 06 99    	mov dptr, #1689
  803d3b:	74 72       	mov a, #114
  803d3d:	f0          	movx @dptr, a
  803d3e:	90 06 9a    	mov dptr, #1690
  803d41:	74 65       	mov a, #101
  803d43:	f0          	movx @dptr, a
  803d44:	90 06 9b    	mov dptr, #1691
  803d47:	74 5f       	mov a, #95
  803d49:	f0          	movx @dptr, a
  803d4a:	90 06 9c    	mov dptr, #1692
  803d4d:	74 69       	mov a, #105
  803d4f:	f0          	movx @dptr, a
  803d50:	90 06 9d    	mov dptr, #1693
  803d53:	74 72       	mov a, #114
  803d55:	f0          	movx @dptr, a
  803d56:	90 06 9e    	mov dptr, #1694
  803d59:	74 71       	mov a, #113
  803d5b:	f0          	movx @dptr, a
  803d5c:	90 06 9f    	mov dptr, #1695
  803d5f:	74 5f       	mov a, #95
  803d61:	f0          	movx @dptr, a
  803d62:	90 06 a0    	mov dptr, #1696
  803d65:	74 63       	mov a, #99
  803d67:	f0          	movx @dptr, a
  803d68:	90 06 a1    	mov dptr, #1697
  803d6b:	74 74       	mov a, #116
  803d6d:	f0          	movx @dptr, a
  803d6e:	90 06 a2    	mov dptr, #1698
  803d71:	74 72       	mov a, #114
  803d73:	f0          	movx @dptr, a
  803d74:	90 06 a3    	mov dptr, #1699
  803d77:	74 6c       	mov a, #108
  803d79:	f0          	movx @dptr, a
  803d7a:	90 06 a4    	mov dptr, #1700
  803d7d:	74 2e       	mov a, #46
  803d7f:	f0          	movx @dptr, a
  803d80:	90 06 a5    	mov dptr, #1701
  803d83:	74 63       	mov a, #99
  803d85:	f0          	movx @dptr, a
  803d86:	90 06 a6    	mov dptr, #1702
  803d89:	74 00       	mov a, #0
  803d8b:	f0          	movx @dptr, a
  803d8c:	90 00 8c    	mov dptr, #140
  803d8f:	74 49       	mov a, #73
  803d91:	f0          	movx @dptr, a
  803d92:	e4          	clr a
  803d93:	a3          	inc dptr
  803d94:	f0          	movx @dptr, a
  803d95:	a3          	inc dptr
  803d96:	f0          	movx @dptr, a
  803d97:	a3          	inc dptr
  803d98:	f0          	movx @dptr, a
  803d99:	75 82 7e    	mov dpl, #126
  803d9c:	75 83 06    	mov dph, #6
  803d9f:	75 f0 00    	mov b, #0
  803da2:	12 05 f6    	lcall 8005f6 <HAL_assert_fail>
  803da5:	90 06 7d    	mov dptr, #1661
  803da8:	e0          	movx a, @dptr
  803da9:	fa          	mov r2, a
  803daa:	ea          	mov a, r2
  803dab:	25 e0       	add a, acc
  803dad:	fa          	mov r2, a
  803dae:	e5 02       	mov a, 0x02
  803db0:	24 38       	add a, #56
  803db2:	fa          	mov r2, a
  803db3:	74 00       	mov a, #0
  803db5:	34 06       	addc a, #6
  803db7:	fb          	mov r3, a
  803db8:	90 06 7b    	mov dptr, #1659
  803dbb:	e0          	movx a, @dptr
  803dbc:	fc          	mov r4, a
  803dbd:	a3          	inc dptr
  803dbe:	e0          	movx a, @dptr
  803dbf:	fd          	mov r5, a
  803dc0:	8a 82       	mov dpl, r2
  803dc2:	8b 83       	mov dph, r3
  803dc4:	ec          	mov a, r4
  803dc5:	f0          	movx @dptr, a
  803dc6:	a3          	inc dptr
  803dc7:	ed          	mov a, r5
  803dc8:	f0          	movx @dptr, a
  803dc9:	22          	ret

00803dca <CIC_get_irq_status>:
  803dca:	90 09 89    	mov dptr, #2441
  803dcd:	e0          	movx a, @dptr
  803dce:	fa          	mov r2, a
  803dcf:	a3          	inc dptr
  803dd0:	e0          	movx a, @dptr
  803dd1:	fb          	mov r3, a
  803dd2:	74 2c       	mov a, #44
  803dd4:	25 02       	add a, 0x02
  803dd6:	fa          	mov r2, a
  803dd7:	74 00       	mov a, #0
  803dd9:	35 03       	addc a, 0x03
  803ddb:	fb          	mov r3, a
  803ddc:	8a 82       	mov dpl, r2
  803dde:	8b 83       	mov dph, r3
  803de0:	12 06 56    	lcall 800656 <HW_get_32bit_reg>
  803de3:	aa 82       	mov r2, dpl
  803de5:	ab 83       	mov r3, dph
  803de7:	ac f0       	mov r4, b
  803de9:	fd          	mov r5, a
  803dea:	8a 82       	mov dpl, r2
  803dec:	8b 83       	mov dph, r3
  803dee:	8c f0       	mov b, r4
  803df0:	ed          	mov a, r5
  803df1:	22          	ret

00803df2 <CIC_enable_irq>:
  803df2:	e5 82       	mov a, dpl
  803df4:	90 06 a7    	mov dptr, #1703
  803df7:	f0          	movx @dptr, a
  803df8:	90 06 a7    	mov dptr, #1703
  803dfb:	e0          	movx a, @dptr
  803dfc:	fa          	mov r2, a
  803dfd:	ba 20 00    	cjne r2, #32, 803e00
  803e00:	50 03       	jnc 803e05
  803e02:	02 3f 14    	ljmp 803f14 <CIC_enable_irq+0x122>
  803e05:	90 06 a8    	mov dptr, #1704
  803e08:	74 2e       	mov a, #46
  803e0a:	f0          	movx @dptr, a
  803e0b:	90 06 a9    	mov dptr, #1705
  803e0e:	74 2e       	mov a, #46
  803e10:	f0          	movx @dptr, a
  803e11:	90 06 aa    	mov dptr, #1706
  803e14:	74 2f       	mov a, #47
  803e16:	f0          	movx @dptr, a
  803e17:	90 06 ab    	mov dptr, #1707
  803e1a:	74 64       	mov a, #100
  803e1c:	f0          	movx @dptr, a
  803e1d:	90 06 ac    	mov dptr, #1708
  803e20:	74 72       	mov a, #114
  803e22:	f0          	movx @dptr, a
  803e23:	90 06 ad    	mov dptr, #1709
  803e26:	74 69       	mov a, #105
  803e28:	f0          	movx @dptr, a
  803e29:	90 06 ae    	mov dptr, #1710
  803e2c:	74 76       	mov a, #118
  803e2e:	f0          	movx @dptr, a
  803e2f:	90 06 af    	mov dptr, #1711
  803e32:	74 65       	mov a, #101
  803e34:	f0          	movx @dptr, a
  803e35:	90 06 b0    	mov dptr, #1712
  803e38:	74 72       	mov a, #114
  803e3a:	f0          	movx @dptr, a
  803e3b:	90 06 b1    	mov dptr, #1713
  803e3e:	74 73       	mov a, #115
  803e40:	f0          	movx @dptr, a
  803e41:	90 06 b2    	mov dptr, #1714
  803e44:	74 2f       	mov a, #47
  803e46:	f0          	movx @dptr, a
  803e47:	90 06 b3    	mov dptr, #1715
  803e4a:	74 43       	mov a, #67
  803e4c:	f0          	movx @dptr, a
  803e4d:	90 06 b4    	mov dptr, #1716
  803e50:	74 6f       	mov a, #111
  803e52:	f0          	movx @dptr, a
  803e53:	90 06 b5    	mov dptr, #1717
  803e56:	74 72       	mov a, #114
  803e58:	f0          	movx @dptr, a
  803e59:	90 06 b6    	mov dptr, #1718
  803e5c:	74 65       	mov a, #101
  803e5e:	f0          	movx @dptr, a
  803e5f:	90 06 b7    	mov dptr, #1719
  803e62:	74 49       	mov a, #73
  803e64:	f0          	movx @dptr, a
  803e65:	90 06 b8    	mov dptr, #1720
  803e68:	74 6e       	mov a, #110
  803e6a:	f0          	movx @dptr, a
  803e6b:	90 06 b9    	mov dptr, #1721
  803e6e:	74 74       	mov a, #116
  803e70:	f0          	movx @dptr, a
  803e71:	90 06 ba    	mov dptr, #1722
  803e74:	74 65       	mov a, #101
  803e76:	f0          	movx @dptr, a
  803e77:	90 06 bb    	mov dptr, #1723
  803e7a:	74 72       	mov a, #114
  803e7c:	f0          	movx @dptr, a
  803e7d:	90 06 bc    	mov dptr, #1724
  803e80:	74 72       	mov a, #114
  803e82:	f0          	movx @dptr, a
  803e83:	90 06 bd    	mov dptr, #1725
  803e86:	74 75       	mov a, #117
  803e88:	f0          	movx @dptr, a
  803e89:	90 06 be    	mov dptr, #1726
  803e8c:	74 70       	mov a, #112
  803e8e:	f0          	movx @dptr, a
  803e8f:	90 06 bf    	mov dptr, #1727
  803e92:	74 74       	mov a, #116
  803e94:	f0          	movx @dptr, a
  803e95:	90 06 c0    	mov dptr, #1728
  803e98:	74 2f       	mov a, #47
  803e9a:	f0          	movx @dptr, a
  803e9b:	90 06 c1    	mov dptr, #1729
  803e9e:	74 63       	mov a, #99
  803ea0:	f0          	movx @dptr, a
  803ea1:	90 06 c2    	mov dptr, #1730
  803ea4:	74 6f       	mov a, #111
  803ea6:	f0          	movx @dptr, a
  803ea7:	90 06 c3    	mov dptr, #1731
  803eaa:	74 72       	mov a, #114
  803eac:	f0          	movx @dptr, a
  803ead:	90 06 c4    	mov dptr, #1732
  803eb0:	74 65       	mov a, #101
  803eb2:	f0          	movx @dptr, a
  803eb3:	90 06 c5    	mov dptr, #1733
  803eb6:	74 5f       	mov a, #95
  803eb8:	f0          	movx @dptr, a
  803eb9:	90 06 c6    	mov dptr, #1734
  803ebc:	74 69       	mov a, #105
  803ebe:	f0          	movx @dptr, a
  803ebf:	90 06 c7    	mov dptr, #1735
  803ec2:	74 72       	mov a, #114
  803ec4:	f0          	movx @dptr, a
  803ec5:	90 06 c8    	mov dptr, #1736
  803ec8:	74 71       	mov a, #113
  803eca:	f0          	movx @dptr, a
  803ecb:	90 06 c9    	mov dptr, #1737
  803ece:	74 5f       	mov a, #95
  803ed0:	f0          	movx @dptr, a
  803ed1:	90 06 ca    	mov dptr, #1738
  803ed4:	74 63       	mov a, #99
  803ed6:	f0          	movx @dptr, a
  803ed7:	90 06 cb    	mov dptr, #1739
  803eda:	74 74       	mov a, #116
  803edc:	f0          	movx @dptr, a
  803edd:	90 06 cc    	mov dptr, #1740
  803ee0:	74 72       	mov a, #114
  803ee2:	f0          	movx @dptr, a
  803ee3:	90 06 cd    	mov dptr, #1741
  803ee6:	74 6c       	mov a, #108
  803ee8:	f0          	movx @dptr, a
  803ee9:	90 06 ce    	mov dptr, #1742
  803eec:	74 2e       	mov a, #46
  803eee:	f0          	movx @dptr, a
  803eef:	90 06 cf    	mov dptr, #1743
  803ef2:	74 63       	mov a, #99
  803ef4:	f0          	movx @dptr, a
  803ef5:	90 06 d0    	mov dptr, #1744
  803ef8:	74 00       	mov a, #0
  803efa:	f0          	movx @dptr, a
  803efb:	90 00 8c    	mov dptr, #140
  803efe:	74 6b       	mov a, #107
  803f00:	f0          	movx @dptr, a
  803f01:	e4          	clr a
  803f02:	a3          	inc dptr
  803f03:	f0          	movx @dptr, a
  803f04:	a3          	inc dptr
  803f05:	f0          	movx @dptr, a
  803f06:	a3          	inc dptr
  803f07:	f0          	movx @dptr, a
  803f08:	75 82 a8    	mov dpl, #168
  803f0b:	75 83 06    	mov dph, #6
  803f0e:	75 f0 00    	mov b, #0
  803f11:	12 05 f6    	lcall 8005f6 <HAL_assert_fail>
  803f14:	90 09 89    	mov dptr, #2441
  803f17:	e0          	movx a, @dptr
  803f18:	fa          	mov r2, a
  803f19:	a3          	inc dptr
  803f1a:	e0          	movx a, @dptr
  803f1b:	fb          	mov r3, a
  803f1c:	74 20       	mov a, #32
  803f1e:	25 02       	add a, 0x02
  803f20:	fa          	mov r2, a
  803f21:	74 00       	mov a, #0
  803f23:	35 03       	addc a, 0x03
  803f25:	fb          	mov r3, a
  803f26:	8a 82       	mov dpl, r2
  803f28:	8b 83       	mov dph, r3
  803f2a:	12 06 56    	lcall 800656 <HW_get_32bit_reg>
  803f2d:	aa 82       	mov r2, dpl
  803f2f:	ab 83       	mov r3, dph
  803f31:	ac f0       	mov r4, b
  803f33:	fd          	mov r5, a
  803f34:	90 06 a7    	mov dptr, #1703
  803f37:	e0          	movx a, @dptr
  803f38:	fe          	mov r6, a
  803f39:	8e f0       	mov b, r6
  803f3b:	05 f0       	inc b
  803f3d:	7e 01       	mov r6, #1
  803f3f:	7f 00       	mov r7, #0
  803f41:	80 07       	sjmp 803f4a
  803f43:	ee          	mov a, r6
  803f44:	25 e0       	add a, acc
  803f46:	fe          	mov r6, a
  803f47:	ef          	mov a, r7
  803f48:	33          	rlc a
  803f49:	ff          	mov r7, a
  803f4a:	d5 f0 f6    	djnz b, 803f43
  803f4d:	ef          	mov a, r7
  803f4e:	33          	rlc a
  803f4f:	95 e0       	subb a, acc
  803f51:	f8          	mov r0, a
  803f52:	f9          	mov r1, a
  803f53:	ee          	mov a, r6
  803f54:	42 02       	orl 0x02, a
  803f56:	ef          	mov a, r7
  803f57:	42 03       	orl 0x03, a
  803f59:	e8          	mov a, r0
  803f5a:	42 04       	orl 0x04, a
  803f5c:	e9          	mov a, r1
  803f5d:	42 05       	orl 0x05, a
  803f5f:	90 09 89    	mov dptr, #2441
  803f62:	e0          	movx a, @dptr
  803f63:	fe          	mov r6, a
  803f64:	a3          	inc dptr
  803f65:	e0          	movx a, @dptr
  803f66:	ff          	mov r7, a
  803f67:	74 20       	mov a, #32
  803f69:	25 06       	add a, 0x06
  803f6b:	fe          	mov r6, a
  803f6c:	74 00       	mov a, #0
  803f6e:	35 07       	addc a, 0x07
  803f70:	ff          	mov r7, a
  803f71:	90 00 aa    	mov dptr, #170
  803f74:	ea          	mov a, r2
  803f75:	f0          	movx @dptr, a
  803f76:	a3          	inc dptr
  803f77:	eb          	mov a, r3
  803f78:	f0          	movx @dptr, a
  803f79:	a3          	inc dptr
  803f7a:	ec          	mov a, r4
  803f7b:	f0          	movx @dptr, a
  803f7c:	a3          	inc dptr
  803f7d:	ed          	mov a, r5
  803f7e:	f0          	movx @dptr, a
  803f7f:	8e 82       	mov dpl, r6
  803f81:	8f 83       	mov dph, r7
  803f83:	12 06 62    	lcall 800662 <HW_set_32bit_reg>
  803f86:	22          	ret

00803f87 <CIC_disable_irq>:
  803f87:	e5 82       	mov a, dpl
  803f89:	90 06 d1    	mov dptr, #1745
  803f8c:	f0          	movx @dptr, a
  803f8d:	90 06 d1    	mov dptr, #1745
  803f90:	e0          	movx a, @dptr
  803f91:	fa          	mov r2, a
  803f92:	ba 20 00    	cjne r2, #32, 803f95
  803f95:	50 03       	jnc 803f9a
  803f97:	02 40 a9    	ljmp 8040a9 <CIC_disable_irq+0x122>
  803f9a:	90 06 d2    	mov dptr, #1746
  803f9d:	74 2e       	mov a, #46
  803f9f:	f0          	movx @dptr, a
  803fa0:	90 06 d3    	mov dptr, #1747
  803fa3:	74 2e       	mov a, #46
  803fa5:	f0          	movx @dptr, a
  803fa6:	90 06 d4    	mov dptr, #1748
  803fa9:	74 2f       	mov a, #47
  803fab:	f0          	movx @dptr, a
  803fac:	90 06 d5    	mov dptr, #1749
  803faf:	74 64       	mov a, #100
  803fb1:	f0          	movx @dptr, a
  803fb2:	90 06 d6    	mov dptr, #1750
  803fb5:	74 72       	mov a, #114
  803fb7:	f0          	movx @dptr, a
  803fb8:	90 06 d7    	mov dptr, #1751
  803fbb:	74 69       	mov a, #105
  803fbd:	f0          	movx @dptr, a
  803fbe:	90 06 d8    	mov dptr, #1752
  803fc1:	74 76       	mov a, #118
  803fc3:	f0          	movx @dptr, a
  803fc4:	90 06 d9    	mov dptr, #1753
  803fc7:	74 65       	mov a, #101
  803fc9:	f0          	movx @dptr, a
  803fca:	90 06 da    	mov dptr, #1754
  803fcd:	74 72       	mov a, #114
  803fcf:	f0          	movx @dptr, a
  803fd0:	90 06 db    	mov dptr, #1755
  803fd3:	74 73       	mov a, #115
  803fd5:	f0          	movx @dptr, a
  803fd6:	90 06 dc    	mov dptr, #1756
  803fd9:	74 2f       	mov a, #47
  803fdb:	f0          	movx @dptr, a
  803fdc:	90 06 dd    	mov dptr, #1757
  803fdf:	74 43       	mov a, #67
  803fe1:	f0          	movx @dptr, a
  803fe2:	90 06 de    	mov dptr, #1758
  803fe5:	74 6f       	mov a, #111
  803fe7:	f0          	movx @dptr, a
  803fe8:	90 06 df    	mov dptr, #1759
  803feb:	74 72       	mov a, #114
  803fed:	f0          	movx @dptr, a
  803fee:	90 06 e0    	mov dptr, #1760
  803ff1:	74 65       	mov a, #101
  803ff3:	f0          	movx @dptr, a
  803ff4:	90 06 e1    	mov dptr, #1761
  803ff7:	74 49       	mov a, #73
  803ff9:	f0          	movx @dptr, a
  803ffa:	90 06 e2    	mov dptr, #1762
  803ffd:	74 6e       	mov a, #110
  803fff:	f0          	movx @dptr, a
  804000:	90 06 e3    	mov dptr, #1763
  804003:	74 74       	mov a, #116
  804005:	f0          	movx @dptr, a
  804006:	90 06 e4    	mov dptr, #1764
  804009:	74 65       	mov a, #101
  80400b:	f0          	movx @dptr, a
  80400c:	90 06 e5    	mov dptr, #1765
  80400f:	74 72       	mov a, #114
  804011:	f0          	movx @dptr, a
  804012:	90 06 e6    	mov dptr, #1766
  804015:	74 72       	mov a, #114
  804017:	f0          	movx @dptr, a
  804018:	90 06 e7    	mov dptr, #1767
  80401b:	74 75       	mov a, #117
  80401d:	f0          	movx @dptr, a
  80401e:	90 06 e8    	mov dptr, #1768
  804021:	74 70       	mov a, #112
  804023:	f0          	movx @dptr, a
  804024:	90 06 e9    	mov dptr, #1769
  804027:	74 74       	mov a, #116
  804029:	f0          	movx @dptr, a
  80402a:	90 06 ea    	mov dptr, #1770
  80402d:	74 2f       	mov a, #47
  80402f:	f0          	movx @dptr, a
  804030:	90 06 eb    	mov dptr, #1771
  804033:	74 63       	mov a, #99
  804035:	f0          	movx @dptr, a
  804036:	90 06 ec    	mov dptr, #1772
  804039:	74 6f       	mov a, #111
  80403b:	f0          	movx @dptr, a
  80403c:	90 06 ed    	mov dptr, #1773
  80403f:	74 72       	mov a, #114
  804041:	f0          	movx @dptr, a
  804042:	90 06 ee    	mov dptr, #1774
  804045:	74 65       	mov a, #101
  804047:	f0          	movx @dptr, a
  804048:	90 06 ef    	mov dptr, #1775
  80404b:	74 5f       	mov a, #95
  80404d:	f0          	movx @dptr, a
  80404e:	90 06 f0    	mov dptr, #1776
  804051:	74 69       	mov a, #105
  804053:	f0          	movx @dptr, a
  804054:	90 06 f1    	mov dptr, #1777
  804057:	74 72       	mov a, #114
  804059:	f0          	movx @dptr, a
  80405a:	90 06 f2    	mov dptr, #1778
  80405d:	74 71       	mov a, #113
  80405f:	f0          	movx @dptr, a
  804060:	90 06 f3    	mov dptr, #1779
  804063:	74 5f       	mov a, #95
  804065:	f0          	movx @dptr, a
  804066:	90 06 f4    	mov dptr, #1780
  804069:	74 63       	mov a, #99
  80406b:	f0          	movx @dptr, a
  80406c:	90 06 f5    	mov dptr, #1781
  80406f:	74 74       	mov a, #116
  804071:	f0          	movx @dptr, a
  804072:	90 06 f6    	mov dptr, #1782
  804075:	74 72       	mov a, #114
  804077:	f0          	movx @dptr, a
  804078:	90 06 f7    	mov dptr, #1783
  80407b:	74 6c       	mov a, #108
  80407d:	f0          	movx @dptr, a
  80407e:	90 06 f8    	mov dptr, #1784
  804081:	74 2e       	mov a, #46
  804083:	f0          	movx @dptr, a
  804084:	90 06 f9    	mov dptr, #1785
  804087:	74 63       	mov a, #99
  804089:	f0          	movx @dptr, a
  80408a:	90 06 fa    	mov dptr, #1786
  80408d:	74 00       	mov a, #0
  80408f:	f0          	movx @dptr, a
  804090:	90 00 8c    	mov dptr, #140
  804093:	74 7e       	mov a, #126
  804095:	f0          	movx @dptr, a
  804096:	e4          	clr a
  804097:	a3          	inc dptr
  804098:	f0          	movx @dptr, a
  804099:	a3          	inc dptr
  80409a:	f0          	movx @dptr, a
  80409b:	a3          	inc dptr
  80409c:	f0          	movx @dptr, a
  80409d:	75 82 d2    	mov dpl, #210
  8040a0:	75 83 06    	mov dph, #6
  8040a3:	75 f0 00    	mov b, #0
  8040a6:	12 05 f6    	lcall 8005f6 <HAL_assert_fail>
  8040a9:	90 06 d1    	mov dptr, #1745
  8040ac:	e0          	movx a, @dptr
  8040ad:	fa          	mov r2, a
  8040ae:	8a f0       	mov b, r2
  8040b0:	05 f0       	inc b
  8040b2:	7a 01       	mov r2, #1
  8040b4:	7b 00       	mov r3, #0
  8040b6:	80 07       	sjmp 8040bf
  8040b8:	ea          	mov a, r2
  8040b9:	25 e0       	add a, acc
  8040bb:	fa          	mov r2, a
  8040bc:	eb          	mov a, r3
  8040bd:	33          	rlc a
  8040be:	fb          	mov r3, a
  8040bf:	d5 f0 f6    	djnz b, 8040b8
  8040c2:	eb          	mov a, r3
  8040c3:	33          	rlc a
  8040c4:	95 e0       	subb a, acc
  8040c6:	fc          	mov r4, a
  8040c7:	fd          	mov r5, a
  8040c8:	90 09 89    	mov dptr, #2441
  8040cb:	e0          	movx a, @dptr
  8040cc:	fe          	mov r6, a
  8040cd:	a3          	inc dptr
  8040ce:	e0          	movx a, @dptr
  8040cf:	ff          	mov r7, a
  8040d0:	74 24       	mov a, #36
  8040d2:	25 06       	add a, 0x06
  8040d4:	fe          	mov r6, a
  8040d5:	74 00       	mov a, #0
  8040d7:	35 07       	addc a, 0x07
  8040d9:	ff          	mov r7, a
  8040da:	90 00 aa    	mov dptr, #170
  8040dd:	ea          	mov a, r2
  8040de:	f0          	movx @dptr, a
  8040df:	a3          	inc dptr
  8040e0:	eb          	mov a, r3
  8040e1:	f0          	movx @dptr, a
  8040e2:	a3          	inc dptr
  8040e3:	ec          	mov a, r4
  8040e4:	f0          	movx @dptr, a
  8040e5:	a3          	inc dptr
  8040e6:	ed          	mov a, r5
  8040e7:	f0          	movx @dptr, a
  8040e8:	8e 82       	mov dpl, r6
  8040ea:	8f 83       	mov dph, r7
  8040ec:	12 06 62    	lcall 800662 <HW_set_32bit_reg>
  8040ef:	22          	ret

008040f0 <CIC_irq_handler>:
  8040f0:	90 09 89    	mov dptr, #2441
  8040f3:	e0          	movx a, @dptr
  8040f4:	fa          	mov r2, a
  8040f5:	a3          	inc dptr
  8040f6:	e0          	movx a, @dptr
  8040f7:	fb          	mov r3, a
  8040f8:	74 2c       	mov a, #44
  8040fa:	25 02       	add a, 0x02
  8040fc:	fa          	mov r2, a
  8040fd:	74 00       	mov a, #0
  8040ff:	35 03       	addc a, 0x03
  804101:	fb          	mov r3, a
  804102:	8a 82       	mov dpl, r2
  804104:	8b 83       	mov dph, r3
  804106:	12 06 56    	lcall 800656 <HW_get_32bit_reg>
  804109:	aa 82       	mov r2, dpl
  80410b:	ab 83       	mov r3, dph
  80410d:	ac f0       	mov r4, b
  80410f:	fd          	mov r5, a
  804110:	90 06 fb    	mov dptr, #1787
  804113:	74 00       	mov a, #0
  804115:	f0          	movx @dptr, a
  804116:	90 06 fb    	mov dptr, #1787
  804119:	e0          	movx a, @dptr
  80411a:	fe          	mov r6, a
  80411b:	be 20 00    	cjne r6, #32, 80411e
  80411e:	40 03       	jc 804123
  804120:	02 42 e0    	ljmp 8042e0 <CIC_irq_handler+0x1f0>
  804123:	8e f0       	mov b, r6
  804125:	05 f0       	inc b
  804127:	7f 01       	mov r7, #1
  804129:	78 00       	mov r0, #0
  80412b:	80 07       	sjmp 804134
  80412d:	ef          	mov a, r7
  80412e:	25 e0       	add a, acc
  804130:	ff          	mov r7, a
  804131:	e8          	mov a, r0
  804132:	33          	rlc a
  804133:	f8          	mov r0, a
  804134:	d5 f0 f6    	djnz b, 80412d
  804137:	c0 06       	push 0x06
  804139:	e8          	mov a, r0
  80413a:	33          	rlc a
  80413b:	95 e0       	subb a, acc
  80413d:	f9          	mov r1, a
  80413e:	fe          	mov r6, a
  80413f:	ea          	mov a, r2
  804140:	52 07       	anl 0x07, a
  804142:	eb          	mov a, r3
  804143:	52 00       	anl 00, a
  804145:	ec          	mov a, r4
  804146:	52 01       	anl 0x01, a
  804148:	ed          	mov a, r5
  804149:	52 06       	anl 0x06, a
  80414b:	ef          	mov a, r7
  80414c:	48          	orl a, r0
  80414d:	49          	orl a, r1
  80414e:	4e          	orl a, r6
  80414f:	d0 06       	pop 0x06
  804151:	70 03       	jnz 804156
  804153:	02 42 d2    	ljmp 8042d2 <CIC_irq_handler+0x1e2>
  804156:	ee          	mov a, r6
  804157:	25 e0       	add a, acc
  804159:	ff          	mov r7, a
  80415a:	e5 07       	mov a, 0x07
  80415c:	24 38       	add a, #56
  80415e:	f5 82       	mov dpl, a
  804160:	74 00       	mov a, #0
  804162:	34 06       	addc a, #6
  804164:	f5 83       	mov dph, a
  804166:	e0          	movx a, @dptr
  804167:	ff          	mov r7, a
  804168:	a3          	inc dptr
  804169:	e0          	movx a, @dptr
  80416a:	f8          	mov r0, a
  80416b:	ef          	mov a, r7
  80416c:	48          	orl a, r0
  80416d:	60 03       	jz 804172
  80416f:	02 42 ad    	ljmp 8042ad <CIC_irq_handler+0x1bd>
  804172:	90 06 fc    	mov dptr, #1788
  804175:	74 2e       	mov a, #46
  804177:	f0          	movx @dptr, a
  804178:	90 06 fd    	mov dptr, #1789
  80417b:	74 2e       	mov a, #46
  80417d:	f0          	movx @dptr, a
  80417e:	90 06 fe    	mov dptr, #1790
  804181:	74 2f       	mov a, #47
  804183:	f0          	movx @dptr, a
  804184:	90 06 ff    	mov dptr, #1791
  804187:	74 64       	mov a, #100
  804189:	f0          	movx @dptr, a
  80418a:	90 07 00    	mov dptr, #1792
  80418d:	74 72       	mov a, #114
  80418f:	f0          	movx @dptr, a
  804190:	90 07 01    	mov dptr, #1793
  804193:	74 69       	mov a, #105
  804195:	f0          	movx @dptr, a
  804196:	90 07 02    	mov dptr, #1794
  804199:	74 76       	mov a, #118
  80419b:	f0          	movx @dptr, a
  80419c:	90 07 03    	mov dptr, #1795
  80419f:	74 65       	mov a, #101
  8041a1:	f0          	movx @dptr, a
  8041a2:	90 07 04    	mov dptr, #1796
  8041a5:	74 72       	mov a, #114
  8041a7:	f0          	movx @dptr, a
  8041a8:	90 07 05    	mov dptr, #1797
  8041ab:	74 73       	mov a, #115
  8041ad:	f0          	movx @dptr, a
  8041ae:	90 07 06    	mov dptr, #1798
  8041b1:	74 2f       	mov a, #47
  8041b3:	f0          	movx @dptr, a
  8041b4:	90 07 07    	mov dptr, #1799
  8041b7:	74 43       	mov a, #67
  8041b9:	f0          	movx @dptr, a
  8041ba:	90 07 08    	mov dptr, #1800
  8041bd:	74 6f       	mov a, #111
  8041bf:	f0          	movx @dptr, a
  8041c0:	90 07 09    	mov dptr, #1801
  8041c3:	74 72       	mov a, #114
  8041c5:	f0          	movx @dptr, a
  8041c6:	90 07 0a    	mov dptr, #1802
  8041c9:	74 65       	mov a, #101
  8041cb:	f0          	movx @dptr, a
  8041cc:	90 07 0b    	mov dptr, #1803
  8041cf:	74 49       	mov a, #73
  8041d1:	f0          	movx @dptr, a
  8041d2:	90 07 0c    	mov dptr, #1804
  8041d5:	74 6e       	mov a, #110
  8041d7:	f0          	movx @dptr, a
  8041d8:	90 07 0d    	mov dptr, #1805
  8041db:	74 74       	mov a, #116
  8041dd:	f0          	movx @dptr, a
  8041de:	90 07 0e    	mov dptr, #1806
  8041e1:	74 65       	mov a, #101
  8041e3:	f0          	movx @dptr, a
  8041e4:	90 07 0f    	mov dptr, #1807
  8041e7:	74 72       	mov a, #114
  8041e9:	f0          	movx @dptr, a
  8041ea:	90 07 10    	mov dptr, #1808
  8041ed:	74 72       	mov a, #114
  8041ef:	f0          	movx @dptr, a
  8041f0:	90 07 11    	mov dptr, #1809
  8041f3:	74 75       	mov a, #117
  8041f5:	f0          	movx @dptr, a
  8041f6:	90 07 12    	mov dptr, #1810
  8041f9:	74 70       	mov a, #112
  8041fb:	f0          	movx @dptr, a
  8041fc:	90 07 13    	mov dptr, #1811
  8041ff:	74 74       	mov a, #116
  804201:	f0          	movx @dptr, a
  804202:	90 07 14    	mov dptr, #1812
  804205:	74 2f       	mov a, #47
  804207:	f0          	movx @dptr, a
  804208:	90 07 15    	mov dptr, #1813
  80420b:	74 63       	mov a, #99
  80420d:	f0          	movx @dptr, a
  80420e:	90 07 16    	mov dptr, #1814
  804211:	74 6f       	mov a, #111
  804213:	f0          	movx @dptr, a
  804214:	90 07 17    	mov dptr, #1815
  804217:	74 72       	mov a, #114
  804219:	f0          	movx @dptr, a
  80421a:	90 07 18    	mov dptr, #1816
  80421d:	74 65       	mov a, #101
  80421f:	f0          	movx @dptr, a
  804220:	90 07 19    	mov dptr, #1817
  804223:	74 5f       	mov a, #95
  804225:	f0          	movx @dptr, a
  804226:	90 07 1a    	mov dptr, #1818
  804229:	74 69       	mov a, #105
  80422b:	f0          	movx @dptr, a
  80422c:	90 07 1b    	mov dptr, #1819
  80422f:	74 72       	mov a, #114
  804231:	f0          	movx @dptr, a
  804232:	90 07 1c    	mov dptr, #1820
  804235:	74 71       	mov a, #113
  804237:	f0          	movx @dptr, a
  804238:	90 07 1d    	mov dptr, #1821
  80423b:	74 5f       	mov a, #95
  80423d:	f0          	movx @dptr, a
  80423e:	90 07 1e    	mov dptr, #1822
  804241:	74 63       	mov a, #99
  804243:	f0          	movx @dptr, a
  804244:	90 07 1f    	mov dptr, #1823
  804247:	74 74       	mov a, #116
  804249:	f0          	movx @dptr, a
  80424a:	90 07 20    	mov dptr, #1824
  80424d:	74 72       	mov a, #114
  80424f:	f0          	movx @dptr, a
  804250:	90 07 21    	mov dptr, #1825
  804253:	74 6c       	mov a, #108
  804255:	f0          	movx @dptr, a
  804256:	90 07 22    	mov dptr, #1826
  804259:	74 2e       	mov a, #46
  80425b:	f0          	movx @dptr, a
  80425c:	90 07 23    	mov dptr, #1827
  80425f:	74 63       	mov a, #99
  804261:	f0          	movx @dptr, a
  804262:	90 07 24    	mov dptr, #1828
  804265:	74 00       	mov a, #0
  804267:	f0          	movx @dptr, a
  804268:	90 00 8c    	mov dptr, #140
  80426b:	74 9a       	mov a, #154
  80426d:	f0          	movx @dptr, a
  80426e:	e4          	clr a
  80426f:	a3          	inc dptr
  804270:	f0          	movx @dptr, a
  804271:	a3          	inc dptr
  804272:	f0          	movx @dptr, a
  804273:	a3          	inc dptr
  804274:	f0          	movx @dptr, a
  804275:	75 82 fc    	mov dpl, #252
  804278:	75 83 06    	mov dph, #6
  80427b:	75 f0 00    	mov b, #0
  80427e:	c0 02       	push 0x02
  804280:	c0 03       	push 0x03
  804282:	c0 04       	push 0x04
  804284:	c0 05       	push 0x05
  804286:	c0 06       	push 0x06
  804288:	12 05 f6    	lcall 8005f6 <HAL_assert_fail>
  80428b:	d0 06       	pop 0x06
  80428d:	d0 05       	pop 0x05
  80428f:	d0 04       	pop 0x04
  804291:	d0 03       	pop 0x03
  804293:	d0 02       	pop 0x02
  804295:	8e 82       	mov dpl, r6
  804297:	c0 02       	push 0x02
  804299:	c0 03       	push 0x03
  80429b:	c0 04       	push 0x04
  80429d:	c0 05       	push 0x05
  80429f:	12 3f 87    	lcall 803f87 <CIC_disable_irq>
  8042a2:	d0 05       	pop 0x05
  8042a4:	d0 04       	pop 0x04
  8042a6:	d0 03       	pop 0x03
  8042a8:	d0 02       	pop 0x02
  8042aa:	02 42 d2    	ljmp 8042d2 <CIC_irq_handler+0x1e2>
  8042ad:	c0 02       	push 0x02
  8042af:	c0 03       	push 0x03
  8042b1:	c0 04       	push 0x04
  8042b3:	c0 05       	push 0x05
  8042b5:	c0 07       	push 0x07
  8042b7:	c0 00       	push 00
  8042b9:	74 c6       	mov a, #198
  8042bb:	c0 e0       	push acc
  8042bd:	74 42       	mov a, #66
  8042bf:	c0 e0       	push acc
  8042c1:	c0 07       	push 0x07
  8042c3:	c0 00       	push 00
  8042c5:	22          	ret
  8042c6:	d0 00       	pop 00
  8042c8:	d0 07       	pop 0x07
  8042ca:	d0 05       	pop 0x05
  8042cc:	d0 04       	pop 0x04
  8042ce:	d0 03       	pop 0x03
  8042d0:	d0 02       	pop 0x02
  8042d2:	90 06 fb    	mov dptr, #1787
  8042d5:	e0          	movx a, @dptr
  8042d6:	fe          	mov r6, a
  8042d7:	90 06 fb    	mov dptr, #1787
  8042da:	ee          	mov a, r6
  8042db:	04          	inc a
  8042dc:	f0          	movx @dptr, a
  8042dd:	02 41 16    	ljmp 804116 <CIC_irq_handler+0x26>
  8042e0:	22          	ret

008042e1 <GPIO_init>:
  8042e1:	aa f0       	mov r2, b
  8042e3:	ab 83       	mov r3, dph
  8042e5:	e5 82       	mov a, dpl
  8042e7:	90 07 28    	mov dptr, #1832
  8042ea:	f0          	movx @dptr, a
  8042eb:	a3          	inc dptr
  8042ec:	eb          	mov a, r3
  8042ed:	f0          	movx @dptr, a
  8042ee:	a3          	inc dptr
  8042ef:	ea          	mov a, r2
  8042f0:	f0          	movx @dptr, a
  8042f1:	90 07 25    	mov dptr, #1829
  8042f4:	e0          	movx a, @dptr
  8042f5:	fa          	mov r2, a
  8042f6:	a3          	inc dptr
  8042f7:	e0          	movx a, @dptr
  8042f8:	fb          	mov r3, a
  8042f9:	90 07 28    	mov dptr, #1832
  8042fc:	e0          	movx a, @dptr
  8042fd:	fc          	mov r4, a
  8042fe:	a3          	inc dptr
  8042ff:	e0          	movx a, @dptr
  804300:	fd          	mov r5, a
  804301:	a3          	inc dptr
  804302:	e0          	movx a, @dptr
  804303:	fe          	mov r6, a
  804304:	8c 82       	mov dpl, r4
  804306:	8d 83       	mov dph, r5
  804308:	8e f0       	mov b, r6
  80430a:	ea          	mov a, r2
  80430b:	12 61 2f    	lcall 80612f <GPIO_clear_irq+0x2b0>
  80430e:	a3          	inc dptr
  80430f:	eb          	mov a, r3
  804310:	12 61 2f    	lcall 80612f <GPIO_clear_irq+0x2b0>
  804313:	74 02       	mov a, #2
  804315:	25 04       	add a, 0x04
  804317:	fc          	mov r4, a
  804318:	74 00       	mov a, #0
  80431a:	35 05       	addc a, 0x05
  80431c:	fd          	mov r5, a
  80431d:	90 07 27    	mov dptr, #1831
  804320:	e0          	movx a, @dptr
  804321:	ff          	mov r7, a
  804322:	8c 82       	mov dpl, r4
  804324:	8d 83       	mov dph, r5
  804326:	8e f0       	mov b, r6
  804328:	ef          	mov a, r7
  804329:	12 61 2f    	lcall 80612f <GPIO_clear_irq+0x2b0>
  80432c:	90 07 2b    	mov dptr, #1835
  80432f:	74 00       	mov a, #0
  804331:	f0          	movx @dptr, a
  804332:	90 07 2c    	mov dptr, #1836
  804335:	ea          	mov a, r2
  804336:	f0          	movx @dptr, a
  804337:	a3          	inc dptr
  804338:	eb          	mov a, r3
  804339:	f0          	movx @dptr, a
  80433a:	90 07 2b    	mov dptr, #1835
  80433d:	e0          	movx a, @dptr
  80433e:	fa          	mov r2, a
  80433f:	ba 20 00    	cjne r2, #32, 804342
  804342:	40 03       	jc 804347
  804344:	02 43 7f    	ljmp 80437f <GPIO_init+0x9e>
  804347:	90 07 2c    	mov dptr, #1836
  80434a:	e0          	movx a, @dptr
  80434b:	fb          	mov r3, a
  80434c:	a3          	inc dptr
  80434d:	e0          	movx a, @dptr
  80434e:	fc          	mov r4, a
  80434f:	90 00 a9    	mov dptr, #169
  804352:	74 00       	mov a, #0
  804354:	f0          	movx @dptr, a
  804355:	8b 82       	mov dpl, r3
  804357:	8c 83       	mov dph, r4
  804359:	c0 02       	push 0x02
  80435b:	c0 03       	push 0x03
  80435d:	c0 04       	push 0x04
  80435f:	12 06 99    	lcall 800699 <HW_set_8bit_reg>
  804362:	d0 04       	pop 0x04
  804364:	d0 03       	pop 0x03
  804366:	d0 02       	pop 0x02
  804368:	90 07 2c    	mov dptr, #1836
  80436b:	74 04       	mov a, #4
  80436d:	25 03       	add a, 0x03
  80436f:	f0          	movx @dptr, a
  804370:	74 00       	mov a, #0
  804372:	35 04       	addc a, 0x04
  804374:	a3          	inc dptr
  804375:	f0          	movx @dptr, a
  804376:	90 07 2b    	mov dptr, #1835
  804379:	ea          	mov a, r2
  80437a:	04          	inc a
  80437b:	f0          	movx @dptr, a
  80437c:	02 43 3a    	ljmp 80433a <GPIO_init+0x59>
  80437f:	90 07 28    	mov dptr, #1832
  804382:	e0          	movx a, @dptr
  804383:	fa          	mov r2, a
  804384:	a3          	inc dptr
  804385:	e0          	movx a, @dptr
  804386:	fb          	mov r3, a
  804387:	a3          	inc dptr
  804388:	e0          	movx a, @dptr
  804389:	fc          	mov r4, a
  80438a:	74 02       	mov a, #2
  80438c:	25 02       	add a, 0x02
  80438e:	fd          	mov r5, a
  80438f:	74 00       	mov a, #0
  804391:	35 03       	addc a, 0x03
  804393:	fe          	mov r6, a
  804394:	8c 07       	mov 0x07, r4
  804396:	8d 82       	mov dpl, r5
  804398:	8e 83       	mov dph, r6
  80439a:	8f f0       	mov b, r7
  80439c:	12 61 48    	lcall 806148 <GPIO_clear_irq+0x2c9>
  80439f:	fd          	mov r5, a
  8043a0:	bd 00 03    	cjne r5, #0, 8043a6
  8043a3:	02 44 4c    	ljmp 80444c <GPIO_init+0x16b>
  8043a6:	bd 01 03    	cjne r5, #1, 8043ac
  8043a9:	02 43 e9    	ljmp 8043e9 <GPIO_init+0x108>
  8043ac:	bd 02 02    	cjne r5, #2, 8043b1
  8043af:	80 03       	sjmp 8043b4
  8043b1:	02 45 0b    	ljmp 80450b <GPIO_init+0x22a>
  8043b4:	8a 82       	mov dpl, r2
  8043b6:	8b 83       	mov dph, r3
  8043b8:	8c f0       	mov b, r4
  8043ba:	12 61 48    	lcall 806148 <GPIO_clear_irq+0x2c9>
  8043bd:	fd          	mov r5, a
  8043be:	a3          	inc dptr
  8043bf:	12 61 48    	lcall 806148 <GPIO_clear_irq+0x2c9>
  8043c2:	fe          	mov r6, a
  8043c3:	74 80       	mov a, #128
  8043c5:	25 05       	add a, 0x05
  8043c7:	fd          	mov r5, a
  8043c8:	74 00       	mov a, #0
  8043ca:	35 06       	addc a, 0x06
  8043cc:	fe          	mov r6, a
  8043cd:	90 00 aa    	mov dptr, #170
  8043d0:	74 ff       	mov a, #255
  8043d2:	f0          	movx @dptr, a
  8043d3:	a3          	inc dptr
  8043d4:	74 ff       	mov a, #255
  8043d6:	f0          	movx @dptr, a
  8043d7:	a3          	inc dptr
  8043d8:	74 ff       	mov a, #255
  8043da:	f0          	movx @dptr, a
  8043db:	a3          	inc dptr
  8043dc:	74 ff       	mov a, #255
  8043de:	f0          	movx @dptr, a
  8043df:	8d 82       	mov dpl, r5
  8043e1:	8e 83       	mov dph, r6
  8043e3:	12 06 62    	lcall 800662 <HW_set_32bit_reg>
  8043e6:	02 45 e4    	ljmp 8045e4 <GPIO_init+0x303>
  8043e9:	8a 82       	mov dpl, r2
  8043eb:	8b 83       	mov dph, r3
  8043ed:	8c f0       	mov b, r4
  8043ef:	12 61 48    	lcall 806148 <GPIO_clear_irq+0x2c9>
  8043f2:	fd          	mov r5, a
  8043f3:	a3          	inc dptr
  8043f4:	12 61 48    	lcall 806148 <GPIO_clear_irq+0x2c9>
  8043f7:	fe          	mov r6, a
  8043f8:	74 80       	mov a, #128
  8043fa:	25 05       	add a, 0x05
  8043fc:	fd          	mov r5, a
  8043fd:	74 00       	mov a, #0
  8043ff:	35 06       	addc a, 0x06
  804401:	fe          	mov r6, a
  804402:	90 00 a7    	mov dptr, #167
  804405:	74 ff       	mov a, #255
  804407:	f0          	movx @dptr, a
  804408:	a3          	inc dptr
  804409:	74 ff       	mov a, #255
  80440b:	f0          	movx @dptr, a
  80440c:	8d 82       	mov dpl, r5
  80440e:	8e 83       	mov dph, r6
  804410:	c0 02       	push 0x02
  804412:	c0 03       	push 0x03
  804414:	c0 04       	push 0x04
  804416:	12 06 7e    	lcall 80067e <HW_set_16bit_reg>
  804419:	d0 04       	pop 0x04
  80441b:	d0 03       	pop 0x03
  80441d:	d0 02       	pop 0x02
  80441f:	8a 82       	mov dpl, r2
  804421:	8b 83       	mov dph, r3
  804423:	8c f0       	mov b, r4
  804425:	12 61 48    	lcall 806148 <GPIO_clear_irq+0x2c9>
  804428:	fd          	mov r5, a
  804429:	a3          	inc dptr
  80442a:	12 61 48    	lcall 806148 <GPIO_clear_irq+0x2c9>
  80442d:	fe          	mov r6, a
  80442e:	74 84       	mov a, #132
  804430:	25 05       	add a, 0x05
  804432:	fd          	mov r5, a
  804433:	74 00       	mov a, #0
  804435:	35 06       	addc a, 0x06
  804437:	fe          	mov r6, a
  804438:	90 00 a7    	mov dptr, #167
  80443b:	74 ff       	mov a, #255
  80443d:	f0          	movx @dptr, a
  80443e:	a3          	inc dptr
  80443f:	74 ff       	mov a, #255
  804441:	f0          	movx @dptr, a
  804442:	8d 82       	mov dpl, r5
  804444:	8e 83       	mov dph, r6
  804446:	12 06 7e    	lcall 80067e <HW_set_16bit_reg>
  804449:	02 45 e4    	ljmp 8045e4 <GPIO_init+0x303>
  80444c:	8a 82       	mov dpl, r2
  80444e:	8b 83       	mov dph, r3
  804450:	8c f0       	mov b, r4
  804452:	12 61 48    	lcall 806148 <GPIO_clear_irq+0x2c9>
  804455:	fd          	mov r5, a
  804456:	a3          	inc dptr
  804457:	12 61 48    	lcall 806148 <GPIO_clear_irq+0x2c9>
  80445a:	fe          	mov r6, a
  80445b:	74 80       	mov a, #128
  80445d:	25 05       	add a, 0x05
  80445f:	fd          	mov r5, a
  804460:	74 00       	mov a, #0
  804462:	35 06       	addc a, 0x06
  804464:	fe          	mov r6, a
  804465:	90 00 a9    	mov dptr, #169
  804468:	74 ff       	mov a, #255
  80446a:	f0          	movx @dptr, a
  80446b:	8d 82       	mov dpl, r5
  80446d:	8e 83       	mov dph, r6
  80446f:	c0 02       	push 0x02
  804471:	c0 03       	push 0x03
  804473:	c0 04       	push 0x04
  804475:	12 06 99    	lcall 800699 <HW_set_8bit_reg>
  804478:	d0 04       	pop 0x04
  80447a:	d0 03       	pop 0x03
  80447c:	d0 02       	pop 0x02
  80447e:	8a 82       	mov dpl, r2
  804480:	8b 83       	mov dph, r3
  804482:	8c f0       	mov b, r4
  804484:	12 61 48    	lcall 806148 <GPIO_clear_irq+0x2c9>
  804487:	fd          	mov r5, a
  804488:	a3          	inc dptr
  804489:	12 61 48    	lcall 806148 <GPIO_clear_irq+0x2c9>
  80448c:	fe          	mov r6, a
  80448d:	74 84       	mov a, #132
  80448f:	25 05       	add a, 0x05
  804491:	fd          	mov r5, a
  804492:	74 00       	mov a, #0
  804494:	35 06       	addc a, 0x06
  804496:	fe          	mov r6, a
  804497:	90 00 a9    	mov dptr, #169
  80449a:	74 ff       	mov a, #255
  80449c:	f0          	movx @dptr, a
  80449d:	8d 82       	mov dpl, r5
  80449f:	8e 83       	mov dph, r6
  8044a1:	c0 02       	push 0x02
  8044a3:	c0 03       	push 0x03
  8044a5:	c0 04       	push 0x04
  8044a7:	12 06 99    	lcall 800699 <HW_set_8bit_reg>
  8044aa:	d0 04       	pop 0x04
  8044ac:	d0 03       	pop 0x03
  8044ae:	d0 02       	pop 0x02
  8044b0:	8a 82       	mov dpl, r2
  8044b2:	8b 83       	mov dph, r3
  8044b4:	8c f0       	mov b, r4
  8044b6:	12 61 48    	lcall 806148 <GPIO_clear_irq+0x2c9>
  8044b9:	fd          	mov r5, a
  8044ba:	a3          	inc dptr
  8044bb:	12 61 48    	lcall 806148 <GPIO_clear_irq+0x2c9>
  8044be:	fe          	mov r6, a
  8044bf:	74 88       	mov a, #136
  8044c1:	25 05       	add a, 0x05
  8044c3:	fd          	mov r5, a
  8044c4:	74 00       	mov a, #0
  8044c6:	35 06       	addc a, 0x06
  8044c8:	fe          	mov r6, a
  8044c9:	90 00 a9    	mov dptr, #169
  8044cc:	74 ff       	mov a, #255
  8044ce:	f0          	movx @dptr, a
  8044cf:	8d 82       	mov dpl, r5
  8044d1:	8e 83       	mov dph, r6
  8044d3:	c0 02       	push 0x02
  8044d5:	c0 03       	push 0x03
  8044d7:	c0 04       	push 0x04
  8044d9:	12 06 99    	lcall 800699 <HW_set_8bit_reg>
  8044dc:	d0 04       	pop 0x04
  8044de:	d0 03       	pop 0x03
  8044e0:	d0 02       	pop 0x02
  8044e2:	8a 82       	mov dpl, r2
  8044e4:	8b 83       	mov dph, r3
  8044e6:	8c f0       	mov b, r4
  8044e8:	12 61 48    	lcall 806148 <GPIO_clear_irq+0x2c9>
  8044eb:	fa          	mov r2, a
  8044ec:	a3          	inc dptr
  8044ed:	12 61 48    	lcall 806148 <GPIO_clear_irq+0x2c9>
  8044f0:	fb          	mov r3, a
  8044f1:	74 8c       	mov a, #140
  8044f3:	25 02       	add a, 0x02
  8044f5:	fa          	mov r2, a
  8044f6:	74 00       	mov a, #0
  8044f8:	35 03       	addc a, 0x03
  8044fa:	fb          	mov r3, a
  8044fb:	90 00 a9    	mov dptr, #169
  8044fe:	74 ff       	mov a, #255
  804500:	f0          	movx @dptr, a
  804501:	8a 82       	mov dpl, r2
  804503:	8b 83       	mov dph, r3
  804505:	12 06 99    	lcall 800699 <HW_set_8bit_reg>
  804508:	02 45 e4    	ljmp 8045e4 <GPIO_init+0x303>
  80450b:	90 07 2e    	mov dptr, #1838
  80450e:	74 2e       	mov a, #46
  804510:	f0          	movx @dptr, a
  804511:	90 07 2f    	mov dptr, #1839
  804514:	74 2e       	mov a, #46
  804516:	f0          	movx @dptr, a
  804517:	90 07 30    	mov dptr, #1840
  80451a:	74 2f       	mov a, #47
  80451c:	f0          	movx @dptr, a
  80451d:	90 07 31    	mov dptr, #1841
  804520:	74 64       	mov a, #100
  804522:	f0          	movx @dptr, a
  804523:	90 07 32    	mov dptr, #1842
  804526:	74 72       	mov a, #114
  804528:	f0          	movx @dptr, a
  804529:	90 07 33    	mov dptr, #1843
  80452c:	74 69       	mov a, #105
  80452e:	f0          	movx @dptr, a
  80452f:	90 07 34    	mov dptr, #1844
  804532:	74 76       	mov a, #118
  804534:	f0          	movx @dptr, a
  804535:	90 07 35    	mov dptr, #1845
  804538:	74 65       	mov a, #101
  80453a:	f0          	movx @dptr, a
  80453b:	90 07 36    	mov dptr, #1846
  80453e:	74 72       	mov a, #114
  804540:	f0          	movx @dptr, a
  804541:	90 07 37    	mov dptr, #1847
  804544:	74 73       	mov a, #115
  804546:	f0          	movx @dptr, a
  804547:	90 07 38    	mov dptr, #1848
  80454a:	74 2f       	mov a, #47
  80454c:	f0          	movx @dptr, a
  80454d:	90 07 39    	mov dptr, #1849
  804550:	74 43       	mov a, #67
  804552:	f0          	movx @dptr, a
  804553:	90 07 3a    	mov dptr, #1850
  804556:	74 6f       	mov a, #111
  804558:	f0          	movx @dptr, a
  804559:	90 07 3b    	mov dptr, #1851
  80455c:	74 72       	mov a, #114
  80455e:	f0          	movx @dptr, a
  80455f:	90 07 3c    	mov dptr, #1852
  804562:	74 65       	mov a, #101
  804564:	f0          	movx @dptr, a
  804565:	90 07 3d    	mov dptr, #1853
  804568:	74 47       	mov a, #71
  80456a:	f0          	movx @dptr, a
  80456b:	90 07 3e    	mov dptr, #1854
  80456e:	74 50       	mov a, #80
  804570:	f0          	movx @dptr, a
  804571:	90 07 3f    	mov dptr, #1855
  804574:	74 49       	mov a, #73
  804576:	f0          	movx @dptr, a
  804577:	90 07 40    	mov dptr, #1856
  80457a:	74 4f       	mov a, #79
  80457c:	f0          	movx @dptr, a
  80457d:	90 07 41    	mov dptr, #1857
  804580:	74 2f       	mov a, #47
  804582:	f0          	movx @dptr, a
  804583:	90 07 42    	mov dptr, #1858
  804586:	74 63       	mov a, #99
  804588:	f0          	movx @dptr, a
  804589:	90 07 43    	mov dptr, #1859
  80458c:	74 6f       	mov a, #111
  80458e:	f0          	movx @dptr, a
  80458f:	90 07 44    	mov dptr, #1860
  804592:	74 72       	mov a, #114
  804594:	f0          	movx @dptr, a
  804595:	90 07 45    	mov dptr, #1861
  804598:	74 65       	mov a, #101
  80459a:	f0          	movx @dptr, a
  80459b:	90 07 46    	mov dptr, #1862
  80459e:	74 5f       	mov a, #95
  8045a0:	f0          	movx @dptr, a
  8045a1:	90 07 47    	mov dptr, #1863
  8045a4:	74 67       	mov a, #103
  8045a6:	f0          	movx @dptr, a
  8045a7:	90 07 48    	mov dptr, #1864
  8045aa:	74 70       	mov a, #112
  8045ac:	f0          	movx @dptr, a
  8045ad:	90 07 49    	mov dptr, #1865
  8045b0:	74 69       	mov a, #105
  8045b2:	f0          	movx @dptr, a
  8045b3:	90 07 4a    	mov dptr, #1866
  8045b6:	74 6f       	mov a, #111
  8045b8:	f0          	movx @dptr, a
  8045b9:	90 07 4b    	mov dptr, #1867
  8045bc:	74 2e       	mov a, #46
  8045be:	f0          	movx @dptr, a
  8045bf:	90 07 4c    	mov dptr, #1868
  8045c2:	74 63       	mov a, #99
  8045c4:	f0          	movx @dptr, a
  8045c5:	90 07 4d    	mov dptr, #1869
  8045c8:	74 00       	mov a, #0
  8045ca:	f0          	movx @dptr, a
  8045cb:	90 00 8c    	mov dptr, #140
  8045ce:	74 46       	mov a, #70
  8045d0:	f0          	movx @dptr, a
  8045d1:	e4          	clr a
  8045d2:	a3          	inc dptr
  8045d3:	f0          	movx @dptr, a
  8045d4:	a3          	inc dptr
  8045d5:	f0          	movx @dptr, a
  8045d6:	a3          	inc dptr
  8045d7:	f0          	movx @dptr, a
  8045d8:	75 82 2e    	mov dpl, #46
  8045db:	75 83 07    	mov dph, #7
  8045de:	75 f0 00    	mov b, #0
  8045e1:	12 05 f6    	lcall 8005f6 <HAL_assert_fail>
  8045e4:	22          	ret

008045e5 <GPIO_config>:
  8045e5:	aa f0       	mov r2, b
  8045e7:	ab 83       	mov r3, dph
  8045e9:	e5 82       	mov a, dpl
  8045eb:	90 07 53    	mov dptr, #1875
  8045ee:	f0          	movx @dptr, a
  8045ef:	a3          	inc dptr
  8045f0:	eb          	mov a, r3
  8045f1:	f0          	movx @dptr, a
  8045f2:	a3          	inc dptr
  8045f3:	ea          	mov a, r2
  8045f4:	f0          	movx @dptr, a
  8045f5:	90 07 4e    	mov dptr, #1870
  8045f8:	e0          	movx a, @dptr
  8045f9:	fa          	mov r2, a
  8045fa:	ba 20 00    	cjne r2, #32, 8045fd
  8045fd:	e4          	clr a
  8045fe:	33          	rlc a
  8045ff:	fb          	mov r3, a
  804600:	eb          	mov a, r3
  804601:	60 03       	jz 804606
  804603:	02 46 e7    	ljmp 8046e7 <GPIO_config+0x102>
  804606:	90 07 56    	mov dptr, #1878
  804609:	74 2e       	mov a, #46
  80460b:	f0          	movx @dptr, a
  80460c:	90 07 57    	mov dptr, #1879
  80460f:	74 2e       	mov a, #46
  804611:	f0          	movx @dptr, a
  804612:	90 07 58    	mov dptr, #1880
  804615:	74 2f       	mov a, #47
  804617:	f0          	movx @dptr, a
  804618:	90 07 59    	mov dptr, #1881
  80461b:	74 64       	mov a, #100
  80461d:	f0          	movx @dptr, a
  80461e:	90 07 5a    	mov dptr, #1882
  804621:	74 72       	mov a, #114
  804623:	f0          	movx @dptr, a
  804624:	90 07 5b    	mov dptr, #1883
  804627:	74 69       	mov a, #105
  804629:	f0          	movx @dptr, a
  80462a:	90 07 5c    	mov dptr, #1884
  80462d:	74 76       	mov a, #118
  80462f:	f0          	movx @dptr, a
  804630:	90 07 5d    	mov dptr, #1885
  804633:	74 65       	mov a, #101
  804635:	f0          	movx @dptr, a
  804636:	90 07 5e    	mov dptr, #1886
  804639:	74 72       	mov a, #114
  80463b:	f0          	movx @dptr, a
  80463c:	90 07 5f    	mov dptr, #1887
  80463f:	74 73       	mov a, #115
  804641:	f0          	movx @dptr, a
  804642:	90 07 60    	mov dptr, #1888
  804645:	74 2f       	mov a, #47
  804647:	f0          	movx @dptr, a
  804648:	90 07 61    	mov dptr, #1889
  80464b:	74 43       	mov a, #67
  80464d:	f0          	movx @dptr, a
  80464e:	90 07 62    	mov dptr, #1890
  804651:	74 6f       	mov a, #111
  804653:	f0          	movx @dptr, a
  804654:	90 07 63    	mov dptr, #1891
  804657:	74 72       	mov a, #114
  804659:	f0          	movx @dptr, a
  80465a:	90 07 64    	mov dptr, #1892
  80465d:	74 65       	mov a, #101
  80465f:	f0          	movx @dptr, a
  804660:	90 07 65    	mov dptr, #1893
  804663:	74 47       	mov a, #71
  804665:	f0          	movx @dptr, a
  804666:	90 07 66    	mov dptr, #1894
  804669:	74 50       	mov a, #80
  80466b:	f0          	movx @dptr, a
  80466c:	90 07 67    	mov dptr, #1895
  80466f:	74 49       	mov a, #73
  804671:	f0          	movx @dptr, a
  804672:	90 07 68    	mov dptr, #1896
  804675:	74 4f       	mov a, #79
  804677:	f0          	movx @dptr, a
  804678:	90 07 69    	mov dptr, #1897
  80467b:	74 2f       	mov a, #47
  80467d:	f0          	movx @dptr, a
  80467e:	90 07 6a    	mov dptr, #1898
  804681:	74 63       	mov a, #99
  804683:	f0          	movx @dptr, a
  804684:	90 07 6b    	mov dptr, #1899
  804687:	74 6f       	mov a, #111
  804689:	f0          	movx @dptr, a
  80468a:	90 07 6c    	mov dptr, #1900
  80468d:	74 72       	mov a, #114
  80468f:	f0          	movx @dptr, a
  804690:	90 07 6d    	mov dptr, #1901
  804693:	74 65       	mov a, #101
  804695:	f0          	movx @dptr, a
  804696:	90 07 6e    	mov dptr, #1902
  804699:	74 5f       	mov a, #95
  80469b:	f0          	movx @dptr, a
  80469c:	90 07 6f    	mov dptr, #1903
  80469f:	74 67       	mov a, #103
  8046a1:	f0          	movx @dptr, a
  8046a2:	90 07 70    	mov dptr, #1904
  8046a5:	74 70       	mov a, #112
  8046a7:	f0          	movx @dptr, a
  8046a8:	90 07 71    	mov dptr, #1905
  8046ab:	74 69       	mov a, #105
  8046ad:	f0          	movx @dptr, a
  8046ae:	90 07 72    	mov dptr, #1906
  8046b1:	74 6f       	mov a, #111
  8046b3:	f0          	movx @dptr, a
  8046b4:	90 07 73    	mov dptr, #1907
  8046b7:	74 2e       	mov a, #46
  8046b9:	f0          	movx @dptr, a
  8046ba:	90 07 74    	mov dptr, #1908
  8046bd:	74 63       	mov a, #99
  8046bf:	f0          	movx @dptr, a
  8046c0:	90 07 75    	mov dptr, #1909
  8046c3:	74 00       	mov a, #0
  8046c5:	f0          	movx @dptr, a
  8046c6:	90 00 8c    	mov dptr, #140
  8046c9:	74 56       	mov a, #86
  8046cb:	f0          	movx @dptr, a
  8046cc:	e4          	clr a
  8046cd:	a3          	inc dptr
  8046ce:	f0          	movx @dptr, a
  8046cf:	a3          	inc dptr
  8046d0:	f0          	movx @dptr, a
  8046d1:	a3          	inc dptr
  8046d2:	f0          	movx @dptr, a
  8046d3:	75 82 56    	mov dpl, #86
  8046d6:	75 83 07    	mov dph, #7
  8046d9:	75 f0 00    	mov b, #0
  8046dc:	c0 02       	push 0x02
  8046de:	c0 03       	push 0x03
  8046e0:	12 05 f6    	lcall 8005f6 <HAL_assert_fail>
  8046e3:	d0 03       	pop 0x03
  8046e5:	d0 02       	pop 0x02
  8046e7:	eb          	mov a, r3
  8046e8:	70 03       	jnz 8046ed
  8046ea:	02 48 72    	ljmp 804872 <GPIO_config+0x28d>
  8046ed:	90 07 53    	mov dptr, #1875
  8046f0:	e0          	movx a, @dptr
  8046f1:	fb          	mov r3, a
  8046f2:	a3          	inc dptr
  8046f3:	e0          	movx a, @dptr
  8046f4:	fc          	mov r4, a
  8046f5:	a3          	inc dptr
  8046f6:	e0          	movx a, @dptr
  8046f7:	fd          	mov r5, a
  8046f8:	8b 82       	mov dpl, r3
  8046fa:	8c 83       	mov dph, r4
  8046fc:	8d f0       	mov b, r5
  8046fe:	12 61 48    	lcall 806148 <GPIO_clear_irq+0x2c9>
  804701:	fb          	mov r3, a
  804702:	a3          	inc dptr
  804703:	12 61 48    	lcall 806148 <GPIO_clear_irq+0x2c9>
  804706:	fc          	mov r4, a
  804707:	7d 00       	mov r5, #0
  804709:	7e 00       	mov r6, #0
  80470b:	ea          	mov a, r2
  80470c:	75 f0 04    	mov b, #4
  80470f:	a4          	mul a, b
  804710:	fa          	mov r2, a
  804711:	af f0       	mov r7, b
  804713:	ef          	mov a, r7
  804714:	33          	rlc a
  804715:	95 e0       	subb a, acc
  804717:	f8          	mov r0, a
  804718:	f9          	mov r1, a
  804719:	e5 02       	mov a, 0x02
  80471b:	25 03       	add a, 0x03
  80471d:	fb          	mov r3, a
  80471e:	e5 07       	mov a, 0x07
  804720:	35 04       	addc a, 0x04
  804722:	fc          	mov r4, a
  804723:	e5 00       	mov a, 00
  804725:	35 05       	addc a, 0x05
  804727:	fd          	mov r5, a
  804728:	e5 01       	mov a, 0x01
  80472a:	35 06       	addc a, 0x06
  80472c:	fe          	mov r6, a
  80472d:	90 07 4f    	mov dptr, #1871
  804730:	e0          	movx a, @dptr
  804731:	fa          	mov r2, a
  804732:	a3          	inc dptr
  804733:	e0          	movx a, @dptr
  804734:	fd          	mov r5, a
  804735:	a3          	inc dptr
  804736:	e0          	movx a, @dptr
  804737:	fe          	mov r6, a
  804738:	a3          	inc dptr
  804739:	e0          	movx a, @dptr
  80473a:	ff          	mov r7, a
  80473b:	90 00 aa    	mov dptr, #170
  80473e:	ea          	mov a, r2
  80473f:	f0          	movx @dptr, a
  804740:	a3          	inc dptr
  804741:	ed          	mov a, r5
  804742:	f0          	movx @dptr, a
  804743:	a3          	inc dptr
  804744:	ee          	mov a, r6
  804745:	f0          	movx @dptr, a
  804746:	a3          	inc dptr
  804747:	ef          	mov a, r7
  804748:	f0          	movx @dptr, a
  804749:	8b 82       	mov dpl, r3
  80474b:	8c 83       	mov dph, r4
  80474d:	c0 02       	push 0x02
  80474f:	c0 03       	push 0x03
  804751:	c0 04       	push 0x04
  804753:	c0 05       	push 0x05
  804755:	c0 06       	push 0x06
  804757:	c0 07       	push 0x07
  804759:	12 06 62    	lcall 800662 <HW_set_32bit_reg>
  80475c:	d0 07       	pop 0x07
  80475e:	d0 06       	pop 0x06
  804760:	d0 05       	pop 0x05
  804762:	d0 04       	pop 0x04
  804764:	d0 03       	pop 0x03
  804766:	d0 02       	pop 0x02
  804768:	8b 82       	mov dpl, r3
  80476a:	8c 83       	mov dph, r4
  80476c:	c0 02       	push 0x02
  80476e:	c0 05       	push 0x05
  804770:	c0 06       	push 0x06
  804772:	c0 07       	push 0x07
  804774:	12 06 56    	lcall 800656 <HW_get_32bit_reg>
  804777:	ab 82       	mov r3, dpl
  804779:	ac 83       	mov r4, dph
  80477b:	a8 f0       	mov r0, b
  80477d:	f9          	mov r1, a
  80477e:	d0 07       	pop 0x07
  804780:	d0 06       	pop 0x06
  804782:	d0 05       	pop 0x05
  804784:	d0 02       	pop 0x02
  804786:	eb          	mov a, r3
  804787:	b5 02 0f    	cjne a, 0x02, 804799
  80478a:	ec          	mov a, r4
  80478b:	b5 05 0b    	cjne a, 0x05, 804799
  80478e:	e8          	mov a, r0
  80478f:	b5 06 07    	cjne a, 0x06, 804799
  804792:	e9          	mov a, r1
  804793:	b5 07 03    	cjne a, 0x07, 804799
  804796:	02 48 72    	ljmp 804872 <GPIO_config+0x28d>
  804799:	90 07 76    	mov dptr, #1910
  80479c:	74 2e       	mov a, #46
  80479e:	f0          	movx @dptr, a
  80479f:	90 07 77    	mov dptr, #1911
  8047a2:	74 2e       	mov a, #46
  8047a4:	f0          	movx @dptr, a
  8047a5:	90 07 78    	mov dptr, #1912
  8047a8:	74 2f       	mov a, #47
  8047aa:	f0          	movx @dptr, a
  8047ab:	90 07 79    	mov dptr, #1913
  8047ae:	74 64       	mov a, #100
  8047b0:	f0          	movx @dptr, a
  8047b1:	90 07 7a    	mov dptr, #1914
  8047b4:	74 72       	mov a, #114
  8047b6:	f0          	movx @dptr, a
  8047b7:	90 07 7b    	mov dptr, #1915
  8047ba:	74 69       	mov a, #105
  8047bc:	f0          	movx @dptr, a
  8047bd:	90 07 7c    	mov dptr, #1916
  8047c0:	74 76       	mov a, #118
  8047c2:	f0          	movx @dptr, a
  8047c3:	90 07 7d    	mov dptr, #1917
  8047c6:	74 65       	mov a, #101
  8047c8:	f0          	movx @dptr, a
  8047c9:	90 07 7e    	mov dptr, #1918
  8047cc:	74 72       	mov a, #114
  8047ce:	f0          	movx @dptr, a
  8047cf:	90 07 7f    	mov dptr, #1919
  8047d2:	74 73       	mov a, #115
  8047d4:	f0          	movx @dptr, a
  8047d5:	90 07 80    	mov dptr, #1920
  8047d8:	74 2f       	mov a, #47
  8047da:	f0          	movx @dptr, a
  8047db:	90 07 81    	mov dptr, #1921
  8047de:	74 43       	mov a, #67
  8047e0:	f0          	movx @dptr, a
  8047e1:	90 07 82    	mov dptr, #1922
  8047e4:	74 6f       	mov a, #111
  8047e6:	f0          	movx @dptr, a
  8047e7:	90 07 83    	mov dptr, #1923
  8047ea:	74 72       	mov a, #114
  8047ec:	f0          	movx @dptr, a
  8047ed:	90 07 84    	mov dptr, #1924
  8047f0:	74 65       	mov a, #101
  8047f2:	f0          	movx @dptr, a
  8047f3:	90 07 85    	mov dptr, #1925
  8047f6:	74 47       	mov a, #71
  8047f8:	f0          	movx @dptr, a
  8047f9:	90 07 86    	mov dptr, #1926
  8047fc:	74 50       	mov a, #80
  8047fe:	f0          	movx @dptr, a
  8047ff:	90 07 87    	mov dptr, #1927
  804802:	74 49       	mov a, #73
  804804:	f0          	movx @dptr, a
  804805:	90 07 88    	mov dptr, #1928
  804808:	74 4f       	mov a, #79
  80480a:	f0          	movx @dptr, a
  80480b:	90 07 89    	mov dptr, #1929
  80480e:	74 2f       	mov a, #47
  804810:	f0          	movx @dptr, a
  804811:	90 07 8a    	mov dptr, #1930
  804814:	74 63       	mov a, #99
  804816:	f0          	movx @dptr, a
  804817:	90 07 8b    	mov dptr, #1931
  80481a:	74 6f       	mov a, #111
  80481c:	f0          	movx @dptr, a
  80481d:	90 07 8c    	mov dptr, #1932
  804820:	74 72       	mov a, #114
  804822:	f0          	movx @dptr, a
  804823:	90 07 8d    	mov dptr, #1933
  804826:	74 65       	mov a, #101
  804828:	f0          	movx @dptr, a
  804829:	90 07 8e    	mov dptr, #1934
  80482c:	74 5f       	mov a, #95
  80482e:	f0          	movx @dptr, a
  80482f:	90 07 8f    	mov dptr, #1935
  804832:	74 67       	mov a, #103
  804834:	f0          	movx @dptr, a
  804835:	90 07 90    	mov dptr, #1936
  804838:	74 70       	mov a, #112
  80483a:	f0          	movx @dptr, a
  80483b:	90 07 91    	mov dptr, #1937
  80483e:	74 69       	mov a, #105
  804840:	f0          	movx @dptr, a
  804841:	90 07 92    	mov dptr, #1938
  804844:	74 6f       	mov a, #111
  804846:	f0          	movx @dptr, a
  804847:	90 07 93    	mov dptr, #1939
  80484a:	74 2e       	mov a, #46
  80484c:	f0          	movx @dptr, a
  80484d:	90 07 94    	mov dptr, #1940
  804850:	74 63       	mov a, #99
  804852:	f0          	movx @dptr, a
  804853:	90 07 95    	mov dptr, #1941
  804856:	74 00       	mov a, #0
  804858:	f0          	movx @dptr, a
  804859:	90 00 8c    	mov dptr, #140
  80485c:	74 65       	mov a, #101
  80485e:	f0          	movx @dptr, a
  80485f:	e4          	clr a
  804860:	a3          	inc dptr
  804861:	f0          	movx @dptr, a
  804862:	a3          	inc dptr
  804863:	f0          	movx @dptr, a
  804864:	a3          	inc dptr
  804865:	f0          	movx @dptr, a
  804866:	75 82 76    	mov dpl, #118
  804869:	75 83 07    	mov dph, #7
  80486c:	75 f0 00    	mov b, #0
  80486f:	12 05 f6    	lcall 8005f6 <HAL_assert_fail>
  804872:	22          	ret

00804873 <GPIO_set_outputs>:
  804873:	aa f0       	mov r2, b
  804875:	ab 83       	mov r3, dph
  804877:	e5 82       	mov a, dpl
  804879:	90 07 9a    	mov dptr, #1946
  80487c:	f0          	movx @dptr, a
  80487d:	a3          	inc dptr
  80487e:	eb          	mov a, r3
  80487f:	f0          	movx @dptr, a
  804880:	a3          	inc dptr
  804881:	ea          	mov a, r2
  804882:	f0          	movx @dptr, a
  804883:	90 07 9a    	mov dptr, #1946
  804886:	e0          	movx a, @dptr
  804887:	fa          	mov r2, a
  804888:	a3          	inc dptr
  804889:	e0          	movx a, @dptr
  80488a:	fb          	mov r3, a
  80488b:	a3          	inc dptr
  80488c:	e0          	movx a, @dptr
  80488d:	fc          	mov r4, a
  80488e:	74 02       	mov a, #2
  804890:	25 02       	add a, 0x02
  804892:	fd          	mov r5, a
  804893:	74 00       	mov a, #0
  804895:	35 03       	addc a, 0x03
  804897:	fe          	mov r6, a
  804898:	8c 07       	mov 0x07, r4
  80489a:	8d 82       	mov dpl, r5
  80489c:	8e 83       	mov dph, r6
  80489e:	8f f0       	mov b, r7
  8048a0:	12 61 48    	lcall 806148 <GPIO_clear_irq+0x2c9>
  8048a3:	fd          	mov r5, a
  8048a4:	bd 00 03    	cjne r5, #0, 8048aa
  8048a7:	02 49 6c    	ljmp 80496c <GPIO_set_outputs+0xf9>
  8048aa:	bd 01 03    	cjne r5, #1, 8048b0
  8048ad:	02 48 f7    	ljmp 8048f7 <GPIO_set_outputs+0x84>
  8048b0:	bd 02 02    	cjne r5, #2, 8048b5
  8048b3:	80 03       	sjmp 8048b8
  8048b5:	02 4a 3d    	ljmp 804a3d <GPIO_set_outputs+0x1ca>
  8048b8:	8a 82       	mov dpl, r2
  8048ba:	8b 83       	mov dph, r3
  8048bc:	8c f0       	mov b, r4
  8048be:	12 61 48    	lcall 806148 <GPIO_clear_irq+0x2c9>
  8048c1:	fd          	mov r5, a
  8048c2:	a3          	inc dptr
  8048c3:	12 61 48    	lcall 806148 <GPIO_clear_irq+0x2c9>
  8048c6:	fe          	mov r6, a
  8048c7:	74 a0       	mov a, #160
  8048c9:	25 05       	add a, 0x05
  8048cb:	fa          	mov r2, a
  8048cc:	74 00       	mov a, #0
  8048ce:	35 06       	addc a, 0x06
  8048d0:	fb          	mov r3, a
  8048d1:	90 07 96    	mov dptr, #1942
  8048d4:	e0          	movx a, @dptr
  8048d5:	ff          	mov r7, a
  8048d6:	a3          	inc dptr
  8048d7:	e0          	movx a, @dptr
  8048d8:	f8          	mov r0, a
  8048d9:	a3          	inc dptr
  8048da:	e0          	movx a, @dptr
  8048db:	f9          	mov r1, a
  8048dc:	a3          	inc dptr
  8048dd:	e0          	movx a, @dptr
  8048de:	fd          	mov r5, a
  8048df:	90 00 aa    	mov dptr, #170
  8048e2:	ef          	mov a, r7
  8048e3:	f0          	movx @dptr, a
  8048e4:	a3          	inc dptr
  8048e5:	e8          	mov a, r0
  8048e6:	f0          	movx @dptr, a
  8048e7:	a3          	inc dptr
  8048e8:	e9          	mov a, r1
  8048e9:	f0          	movx @dptr, a
  8048ea:	a3          	inc dptr
  8048eb:	ed          	mov a, r5
  8048ec:	f0          	movx @dptr, a
  8048ed:	8a 82       	mov dpl, r2
  8048ef:	8b 83       	mov dph, r3
  8048f1:	12 06 62    	lcall 800662 <HW_set_32bit_reg>
  8048f4:	02 4b 16    	ljmp 804b16 <GPIO_set_outputs+0x2a3>
  8048f7:	8a 82       	mov dpl, r2
  8048f9:	8b 83       	mov dph, r3
  8048fb:	8c f0       	mov b, r4
  8048fd:	12 61 48    	lcall 806148 <GPIO_clear_irq+0x2c9>
  804900:	fd          	mov r5, a
  804901:	a3          	inc dptr
  804902:	12 61 48    	lcall 806148 <GPIO_clear_irq+0x2c9>
  804905:	fe          	mov r6, a
  804906:	74 a0       	mov a, #160
  804908:	25 05       	add a, 0x05
  80490a:	fd          	mov r5, a
  80490b:	74 00       	mov a, #0
  80490d:	35 06       	addc a, 0x06
  80490f:	fe          	mov r6, a
  804910:	90 07 96    	mov dptr, #1942
  804913:	e0          	movx a, @dptr
  804914:	f5 49       	mov 0x49, a
  804916:	a3          	inc dptr
  804917:	e0          	movx a, @dptr
  804918:	f5 4a       	mov 0x4a, a
  80491a:	a3          	inc dptr
  80491b:	e0          	movx a, @dptr
  80491c:	f5 4b       	mov 0x4b, a
  80491e:	a3          	inc dptr
  80491f:	e0          	movx a, @dptr
  804920:	f5 4c       	mov 0x4c, a
  804922:	90 00 a7    	mov dptr, #167
  804925:	e5 49       	mov a, 0x49
  804927:	f0          	movx @dptr, a
  804928:	a3          	inc dptr
  804929:	e5 4a       	mov a, 0x4a
  80492b:	f0          	movx @dptr, a
  80492c:	8d 82       	mov dpl, r5
  80492e:	8e 83       	mov dph, r6
  804930:	c0 02       	push 0x02
  804932:	c0 03       	push 0x03
  804934:	c0 04       	push 0x04
  804936:	12 06 7e    	lcall 80067e <HW_set_16bit_reg>
  804939:	d0 04       	pop 0x04
  80493b:	d0 03       	pop 0x03
  80493d:	d0 02       	pop 0x02
  80493f:	8a 82       	mov dpl, r2
  804941:	8b 83       	mov dph, r3
  804943:	8c f0       	mov b, r4
  804945:	12 61 48    	lcall 806148 <GPIO_clear_irq+0x2c9>
  804948:	fe          	mov r6, a
  804949:	a3          	inc dptr
  80494a:	12 61 48    	lcall 806148 <GPIO_clear_irq+0x2c9>
  80494d:	fd          	mov r5, a
  80494e:	74 a4       	mov a, #164
  804950:	25 06       	add a, 0x06
  804952:	fe          	mov r6, a
  804953:	74 00       	mov a, #0
  804955:	35 05       	addc a, 0x05
  804957:	fd          	mov r5, a
  804958:	90 00 a7    	mov dptr, #167
  80495b:	e5 4b       	mov a, 0x4b
  80495d:	f0          	movx @dptr, a
  80495e:	a3          	inc dptr
  80495f:	e5 4c       	mov a, 0x4c
  804961:	f0          	movx @dptr, a
  804962:	8e 82       	mov dpl, r6
  804964:	8d 83       	mov dph, r5
  804966:	12 06 7e    	lcall 80067e <HW_set_16bit_reg>
  804969:	02 4b 16    	ljmp 804b16 <GPIO_set_outputs+0x2a3>
  80496c:	8a 82       	mov dpl, r2
  80496e:	8b 83       	mov dph, r3
  804970:	8c f0       	mov b, r4
  804972:	12 61 48    	lcall 806148 <GPIO_clear_irq+0x2c9>
  804975:	fd          	mov r5, a
  804976:	a3          	inc dptr
  804977:	12 61 48    	lcall 806148 <GPIO_clear_irq+0x2c9>
  80497a:	fe          	mov r6, a
  80497b:	74 a0       	mov a, #160
  80497d:	25 05       	add a, 0x05
  80497f:	fd          	mov r5, a
  804980:	74 00       	mov a, #0
  804982:	35 06       	addc a, 0x06
  804984:	fe          	mov r6, a
  804985:	90 07 96    	mov dptr, #1942
  804988:	e0          	movx a, @dptr
  804989:	f5 4d       	mov 0x4d, a
  80498b:	a3          	inc dptr
  80498c:	e0          	movx a, @dptr
  80498d:	f5 4e       	mov 0x4e, a
  80498f:	a3          	inc dptr
  804990:	e0          	movx a, @dptr
  804991:	f5 4f       	mov 0x4f, a
  804993:	a3          	inc dptr
  804994:	e0          	movx a, @dptr
  804995:	f5 50       	mov 0x50, a
  804997:	90 00 a9    	mov dptr, #169
  80499a:	e5 4d       	mov a, 0x4d
  80499c:	f0          	movx @dptr, a
  80499d:	8d 82       	mov dpl, r5
  80499f:	8e 83       	mov dph, r6
  8049a1:	c0 02       	push 0x02
  8049a3:	c0 03       	push 0x03
  8049a5:	c0 04       	push 0x04
  8049a7:	12 06 99    	lcall 800699 <HW_set_8bit_reg>
  8049aa:	d0 04       	pop 0x04
  8049ac:	d0 03       	pop 0x03
  8049ae:	d0 02       	pop 0x02
  8049b0:	8a 82       	mov dpl, r2
  8049b2:	8b 83       	mov dph, r3
  8049b4:	8c f0       	mov b, r4
  8049b6:	12 61 48    	lcall 806148 <GPIO_clear_irq+0x2c9>
  8049b9:	fe          	mov r6, a
  8049ba:	a3          	inc dptr
  8049bb:	12 61 48    	lcall 806148 <GPIO_clear_irq+0x2c9>
  8049be:	fd          	mov r5, a
  8049bf:	74 a4       	mov a, #164
  8049c1:	25 06       	add a, 0x06
  8049c3:	fe          	mov r6, a
  8049c4:	74 00       	mov a, #0
  8049c6:	35 05       	addc a, 0x05
  8049c8:	fd          	mov r5, a
  8049c9:	90 00 a9    	mov dptr, #169
  8049cc:	e5 4e       	mov a, 0x4e
  8049ce:	f0          	movx @dptr, a
  8049cf:	8e 82       	mov dpl, r6
  8049d1:	8d 83       	mov dph, r5
  8049d3:	c0 02       	push 0x02
  8049d5:	c0 03       	push 0x03
  8049d7:	c0 04       	push 0x04
  8049d9:	12 06 99    	lcall 800699 <HW_set_8bit_reg>
  8049dc:	d0 04       	pop 0x04
  8049de:	d0 03       	pop 0x03
  8049e0:	d0 02       	pop 0x02
  8049e2:	8a 82       	mov dpl, r2
  8049e4:	8b 83       	mov dph, r3
  8049e6:	8c f0       	mov b, r4
  8049e8:	12 61 48    	lcall 806148 <GPIO_clear_irq+0x2c9>
  8049eb:	fd          	mov r5, a
  8049ec:	a3          	inc dptr
  8049ed:	12 61 48    	lcall 806148 <GPIO_clear_irq+0x2c9>
  8049f0:	fe          	mov r6, a
  8049f1:	74 a8       	mov a, #168
  8049f3:	25 05       	add a, 0x05
  8049f5:	fd          	mov r5, a
  8049f6:	74 00       	mov a, #0
  8049f8:	35 06       	addc a, 0x06
  8049fa:	fe          	mov r6, a
  8049fb:	90 00 a9    	mov dptr, #169
  8049fe:	e5 4f       	mov a, 0x4f
  804a00:	f0          	movx @dptr, a
  804a01:	8d 82       	mov dpl, r5
  804a03:	8e 83       	mov dph, r6
  804a05:	c0 02       	push 0x02
  804a07:	c0 03       	push 0x03
  804a09:	c0 04       	push 0x04
  804a0b:	12 06 99    	lcall 800699 <HW_set_8bit_reg>
  804a0e:	d0 04       	pop 0x04
  804a10:	d0 03       	pop 0x03
  804a12:	d0 02       	pop 0x02
  804a14:	8a 82       	mov dpl, r2
  804a16:	8b 83       	mov dph, r3
  804a18:	8c f0       	mov b, r4
  804a1a:	12 61 48    	lcall 806148 <GPIO_clear_irq+0x2c9>
  804a1d:	fa          	mov r2, a
  804a1e:	a3          	inc dptr
  804a1f:	12 61 48    	lcall 806148 <GPIO_clear_irq+0x2c9>
  804a22:	fb          	mov r3, a
  804a23:	74 ac       	mov a, #172
  804a25:	25 02       	add a, 0x02
  804a27:	fa          	mov r2, a
  804a28:	74 00       	mov a, #0
  804a2a:	35 03       	addc a, 0x03
  804a2c:	fb          	mov r3, a
  804a2d:	90 00 a9    	mov dptr, #169
  804a30:	e5 50       	mov a, 0x50
  804a32:	f0          	movx @dptr, a
  804a33:	8a 82       	mov dpl, r2
  804a35:	8b 83       	mov dph, r3
  804a37:	12 06 99    	lcall 800699 <HW_set_8bit_reg>
  804a3a:	02 4b 16    	ljmp 804b16 <GPIO_set_outputs+0x2a3>
  804a3d:	90 07 9d    	mov dptr, #1949
  804a40:	74 2e       	mov a, #46
  804a42:	f0          	movx @dptr, a
  804a43:	90 07 9e    	mov dptr, #1950
  804a46:	74 2e       	mov a, #46
  804a48:	f0          	movx @dptr, a
  804a49:	90 07 9f    	mov dptr, #1951
  804a4c:	74 2f       	mov a, #47
  804a4e:	f0          	movx @dptr, a
  804a4f:	90 07 a0    	mov dptr, #1952
  804a52:	74 64       	mov a, #100
  804a54:	f0          	movx @dptr, a
  804a55:	90 07 a1    	mov dptr, #1953
  804a58:	74 72       	mov a, #114
  804a5a:	f0          	movx @dptr, a
  804a5b:	90 07 a2    	mov dptr, #1954
  804a5e:	74 69       	mov a, #105
  804a60:	f0          	movx @dptr, a
  804a61:	90 07 a3    	mov dptr, #1955
  804a64:	74 76       	mov a, #118
  804a66:	f0          	movx @dptr, a
  804a67:	90 07 a4    	mov dptr, #1956
  804a6a:	74 65       	mov a, #101
  804a6c:	f0          	movx @dptr, a
  804a6d:	90 07 a5    	mov dptr, #1957
  804a70:	74 72       	mov a, #114
  804a72:	f0          	movx @dptr, a
  804a73:	90 07 a6    	mov dptr, #1958
  804a76:	74 73       	mov a, #115
  804a78:	f0          	movx @dptr, a
  804a79:	90 07 a7    	mov dptr, #1959
  804a7c:	74 2f       	mov a, #47
  804a7e:	f0          	movx @dptr, a
  804a7f:	90 07 a8    	mov dptr, #1960
  804a82:	74 43       	mov a, #67
  804a84:	f0          	movx @dptr, a
  804a85:	90 07 a9    	mov dptr, #1961
  804a88:	74 6f       	mov a, #111
  804a8a:	f0          	movx @dptr, a
  804a8b:	90 07 aa    	mov dptr, #1962
  804a8e:	74 72       	mov a, #114
  804a90:	f0          	movx @dptr, a
  804a91:	90 07 ab    	mov dptr, #1963
  804a94:	74 65       	mov a, #101
  804a96:	f0          	movx @dptr, a
  804a97:	90 07 ac    	mov dptr, #1964
  804a9a:	74 47       	mov a, #71
  804a9c:	f0          	movx @dptr, a
  804a9d:	90 07 ad    	mov dptr, #1965
  804aa0:	74 50       	mov a, #80
  804aa2:	f0          	movx @dptr, a
  804aa3:	90 07 ae    	mov dptr, #1966
  804aa6:	74 49       	mov a, #73
  804aa8:	f0          	movx @dptr, a
  804aa9:	90 07 af    	mov dptr, #1967
  804aac:	74 4f       	mov a, #79
  804aae:	f0          	movx @dptr, a
  804aaf:	90 07 b0    	mov dptr, #1968
  804ab2:	74 2f       	mov a, #47
  804ab4:	f0          	movx @dptr, a
  804ab5:	90 07 b1    	mov dptr, #1969
  804ab8:	74 63       	mov a, #99
  804aba:	f0          	movx @dptr, a
  804abb:	90 07 b2    	mov dptr, #1970
  804abe:	74 6f       	mov a, #111
  804ac0:	f0          	movx @dptr, a
  804ac1:	90 07 b3    	mov dptr, #1971
  804ac4:	74 72       	mov a, #114
  804ac6:	f0          	movx @dptr, a
  804ac7:	90 07 b4    	mov dptr, #1972
  804aca:	74 65       	mov a, #101
  804acc:	f0          	movx @dptr, a
  804acd:	90 07 b5    	mov dptr, #1973
  804ad0:	74 5f       	mov a, #95
  804ad2:	f0          	movx @dptr, a
  804ad3:	90 07 b6    	mov dptr, #1974
  804ad6:	74 67       	mov a, #103
  804ad8:	f0          	movx @dptr, a
  804ad9:	90 07 b7    	mov dptr, #1975
  804adc:	74 70       	mov a, #112
  804ade:	f0          	movx @dptr, a
  804adf:	90 07 b8    	mov dptr, #1976
  804ae2:	74 69       	mov a, #105
  804ae4:	f0          	movx @dptr, a
  804ae5:	90 07 b9    	mov dptr, #1977
  804ae8:	74 6f       	mov a, #111
  804aea:	f0          	movx @dptr, a
  804aeb:	90 07 ba    	mov dptr, #1978
  804aee:	74 2e       	mov a, #46
  804af0:	f0          	movx @dptr, a
  804af1:	90 07 bb    	mov dptr, #1979
  804af4:	74 63       	mov a, #99
  804af6:	f0          	movx @dptr, a
  804af7:	90 07 bc    	mov dptr, #1980
  804afa:	74 00       	mov a, #0
  804afc:	f0          	movx @dptr, a
  804afd:	90 00 8c    	mov dptr, #140
  804b00:	74 86       	mov a, #134
  804b02:	f0          	movx @dptr, a
  804b03:	e4          	clr a
  804b04:	a3          	inc dptr
  804b05:	f0          	movx @dptr, a
  804b06:	a3          	inc dptr
  804b07:	f0          	movx @dptr, a
  804b08:	a3          	inc dptr
  804b09:	f0          	movx @dptr, a
  804b0a:	75 82 9d    	mov dpl, #157
  804b0d:	75 83 07    	mov dph, #7
  804b10:	75 f0 00    	mov b, #0
  804b13:	12 05 f6    	lcall 8005f6 <HAL_assert_fail>
  804b16:	90 07 9a    	mov dptr, #1946
  804b19:	e0          	movx a, @dptr
  804b1a:	fa          	mov r2, a
  804b1b:	a3          	inc dptr
  804b1c:	e0          	movx a, @dptr
  804b1d:	fb          	mov r3, a
  804b1e:	a3          	inc dptr
  804b1f:	e0          	movx a, @dptr
  804b20:	fc          	mov r4, a
  804b21:	8a 82       	mov dpl, r2
  804b23:	8b 83       	mov dph, r3
  804b25:	8c f0       	mov b, r4
  804b27:	12 4e 61    	lcall 804e61 <GPIO_get_outputs>
  804b2a:	aa 82       	mov r2, dpl
  804b2c:	ab 83       	mov r3, dph
  804b2e:	ac f0       	mov r4, b
  804b30:	fd          	mov r5, a
  804b31:	90 07 96    	mov dptr, #1942
  804b34:	e0          	movx a, @dptr
  804b35:	fe          	mov r6, a
  804b36:	a3          	inc dptr
  804b37:	e0          	movx a, @dptr
  804b38:	ff          	mov r7, a
  804b39:	a3          	inc dptr
  804b3a:	e0          	movx a, @dptr
  804b3b:	f8          	mov r0, a
  804b3c:	a3          	inc dptr
  804b3d:	e0          	movx a, @dptr
  804b3e:	f9          	mov r1, a
  804b3f:	ea          	mov a, r2
  804b40:	b5 06 0f    	cjne a, 0x06, 804b52
  804b43:	eb          	mov a, r3
  804b44:	b5 07 0b    	cjne a, 0x07, 804b52
  804b47:	ec          	mov a, r4
  804b48:	b5 00 07    	cjne a, 00, 804b52
  804b4b:	ed          	mov a, r5
  804b4c:	b5 01 03    	cjne a, 0x01, 804b52
  804b4f:	02 4c 2b    	ljmp 804c2b <GPIO_set_outputs+0x3b8>
  804b52:	90 07 bd    	mov dptr, #1981
  804b55:	74 2e       	mov a, #46
  804b57:	f0          	movx @dptr, a
  804b58:	90 07 be    	mov dptr, #1982
  804b5b:	74 2e       	mov a, #46
  804b5d:	f0          	movx @dptr, a
  804b5e:	90 07 bf    	mov dptr, #1983
  804b61:	74 2f       	mov a, #47
  804b63:	f0          	movx @dptr, a
  804b64:	90 07 c0    	mov dptr, #1984
  804b67:	74 64       	mov a, #100
  804b69:	f0          	movx @dptr, a
  804b6a:	90 07 c1    	mov dptr, #1985
  804b6d:	74 72       	mov a, #114
  804b6f:	f0          	movx @dptr, a
  804b70:	90 07 c2    	mov dptr, #1986
  804b73:	74 69       	mov a, #105
  804b75:	f0          	movx @dptr, a
  804b76:	90 07 c3    	mov dptr, #1987
  804b79:	74 76       	mov a, #118
  804b7b:	f0          	movx @dptr, a
  804b7c:	90 07 c4    	mov dptr, #1988
  804b7f:	74 65       	mov a, #101
  804b81:	f0          	movx @dptr, a
  804b82:	90 07 c5    	mov dptr, #1989
  804b85:	74 72       	mov a, #114
  804b87:	f0          	movx @dptr, a
  804b88:	90 07 c6    	mov dptr, #1990
  804b8b:	74 73       	mov a, #115
  804b8d:	f0          	movx @dptr, a
  804b8e:	90 07 c7    	mov dptr, #1991
  804b91:	74 2f       	mov a, #47
  804b93:	f0          	movx @dptr, a
  804b94:	90 07 c8    	mov dptr, #1992
  804b97:	74 43       	mov a, #67
  804b99:	f0          	movx @dptr, a
  804b9a:	90 07 c9    	mov dptr, #1993
  804b9d:	74 6f       	mov a, #111
  804b9f:	f0          	movx @dptr, a
  804ba0:	90 07 ca    	mov dptr, #1994
  804ba3:	74 72       	mov a, #114
  804ba5:	f0          	movx @dptr, a
  804ba6:	90 07 cb    	mov dptr, #1995
  804ba9:	74 65       	mov a, #101
  804bab:	f0          	movx @dptr, a
  804bac:	90 07 cc    	mov dptr, #1996
  804baf:	74 47       	mov a, #71
  804bb1:	f0          	movx @dptr, a
  804bb2:	90 07 cd    	mov dptr, #1997
  804bb5:	74 50       	mov a, #80
  804bb7:	f0          	movx @dptr, a
  804bb8:	90 07 ce    	mov dptr, #1998
  804bbb:	74 49       	mov a, #73
  804bbd:	f0          	movx @dptr, a
  804bbe:	90 07 cf    	mov dptr, #1999
  804bc1:	74 4f       	mov a, #79
  804bc3:	f0          	movx @dptr, a
  804bc4:	90 07 d0    	mov dptr, #2000
  804bc7:	74 2f       	mov a, #47
  804bc9:	f0          	movx @dptr, a
  804bca:	90 07 d1    	mov dptr, #2001
  804bcd:	74 63       	mov a, #99
  804bcf:	f0          	movx @dptr, a
  804bd0:	90 07 d2    	mov dptr, #2002
  804bd3:	74 6f       	mov a, #111
  804bd5:	f0          	movx @dptr, a
  804bd6:	90 07 d3    	mov dptr, #2003
  804bd9:	74 72       	mov a, #114
  804bdb:	f0          	movx @dptr, a
  804bdc:	90 07 d4    	mov dptr, #2004
  804bdf:	74 65       	mov a, #101
  804be1:	f0          	movx @dptr, a
  804be2:	90 07 d5    	mov dptr, #2005
  804be5:	74 5f       	mov a, #95
  804be7:	f0          	movx @dptr, a
  804be8:	90 07 d6    	mov dptr, #2006
  804beb:	74 67       	mov a, #103
  804bed:	f0          	movx @dptr, a
  804bee:	90 07 d7    	mov dptr, #2007
  804bf1:	74 70       	mov a, #112
  804bf3:	f0          	movx @dptr, a
  804bf4:	90 07 d8    	mov dptr, #2008
  804bf7:	74 69       	mov a, #105
  804bf9:	f0          	movx @dptr, a
  804bfa:	90 07 d9    	mov dptr, #2009
  804bfd:	74 6f       	mov a, #111
  804bff:	f0          	movx @dptr, a
  804c00:	90 07 da    	mov dptr, #2010
  804c03:	74 2e       	mov a, #46
  804c05:	f0          	movx @dptr, a
  804c06:	90 07 db    	mov dptr, #2011
  804c09:	74 63       	mov a, #99
  804c0b:	f0          	movx @dptr, a
  804c0c:	90 07 dc    	mov dptr, #2012
  804c0f:	74 00       	mov a, #0
  804c11:	f0          	movx @dptr, a
  804c12:	90 00 8c    	mov dptr, #140
  804c15:	74 91       	mov a, #145
  804c17:	f0          	movx @dptr, a
  804c18:	e4          	clr a
  804c19:	a3          	inc dptr
  804c1a:	f0          	movx @dptr, a
  804c1b:	a3          	inc dptr
  804c1c:	f0          	movx @dptr, a
  804c1d:	a3          	inc dptr
  804c1e:	f0          	movx @dptr, a
  804c1f:	75 82 bd    	mov dpl, #189
  804c22:	75 83 07    	mov dph, #7
  804c25:	75 f0 00    	mov b, #0
  804c28:	12 05 f6    	lcall 8005f6 <HAL_assert_fail>
  804c2b:	22          	ret

00804c2c <GPIO_get_inputs>:
  804c2c:	aa f0       	mov r2, b
  804c2e:	ab 83       	mov r3, dph
  804c30:	e5 82       	mov a, dpl
  804c32:	90 07 dd    	mov dptr, #2013
  804c35:	f0          	movx @dptr, a
  804c36:	a3          	inc dptr
  804c37:	eb          	mov a, r3
  804c38:	f0          	movx @dptr, a
  804c39:	a3          	inc dptr
  804c3a:	ea          	mov a, r2
  804c3b:	f0          	movx @dptr, a
  804c3c:	90 07 e0    	mov dptr, #2016
  804c3f:	e4          	clr a
  804c40:	f0          	movx @dptr, a
  804c41:	a3          	inc dptr
  804c42:	f0          	movx @dptr, a
  804c43:	a3          	inc dptr
  804c44:	f0          	movx @dptr, a
  804c45:	a3          	inc dptr
  804c46:	f0          	movx @dptr, a
  804c47:	90 07 dd    	mov dptr, #2013
  804c4a:	e0          	movx a, @dptr
  804c4b:	fa          	mov r2, a
  804c4c:	a3          	inc dptr
  804c4d:	e0          	movx a, @dptr
  804c4e:	fb          	mov r3, a
  804c4f:	a3          	inc dptr
  804c50:	e0          	movx a, @dptr
  804c51:	fc          	mov r4, a
  804c52:	74 02       	mov a, #2
  804c54:	25 02       	add a, 0x02
  804c56:	fd          	mov r5, a
  804c57:	74 00       	mov a, #0
  804c59:	35 03       	addc a, 0x03
  804c5b:	fe          	mov r6, a
  804c5c:	8c 07       	mov 0x07, r4
  804c5e:	8d 82       	mov dpl, r5
  804c60:	8e 83       	mov dph, r6
  804c62:	8f f0       	mov b, r7
  804c64:	12 61 48    	lcall 806148 <GPIO_clear_irq+0x2c9>
  804c67:	fd          	mov r5, a
  804c68:	bd 00 03    	cjne r5, #0, 804c6e
  804c6b:	02 4c eb    	ljmp 804ceb <GPIO_get_inputs+0xbf>
  804c6e:	bd 01 03    	cjne r5, #1, 804c74
  804c71:	02 4c b4    	ljmp 804cb4 <GPIO_get_inputs+0x88>
  804c74:	bd 02 02    	cjne r5, #2, 804c79
  804c77:	80 03       	sjmp 804c7c
  804c79:	02 4d 72    	ljmp 804d72 <GPIO_get_inputs+0x146>
  804c7c:	8a 82       	mov dpl, r2
  804c7e:	8b 83       	mov dph, r3
  804c80:	8c f0       	mov b, r4
  804c82:	12 61 48    	lcall 806148 <GPIO_clear_irq+0x2c9>
  804c85:	fd          	mov r5, a
  804c86:	a3          	inc dptr
  804c87:	12 61 48    	lcall 806148 <GPIO_clear_irq+0x2c9>
  804c8a:	fe          	mov r6, a
  804c8b:	74 90       	mov a, #144
  804c8d:	25 05       	add a, 0x05
  804c8f:	fd          	mov r5, a
  804c90:	74 00       	mov a, #0
  804c92:	35 06       	addc a, 0x06
  804c94:	fe          	mov r6, a
  804c95:	8d 82       	mov dpl, r5
  804c97:	8e 83       	mov dph, r6
  804c99:	12 06 56    	lcall 800656 <HW_get_32bit_reg>
  804c9c:	ad 82       	mov r5, dpl
  804c9e:	ae 83       	mov r6, dph
  804ca0:	af f0       	mov r7, b
  804ca2:	f8          	mov r0, a
  804ca3:	90 07 e0    	mov dptr, #2016
  804ca6:	ed          	mov a, r5
  804ca7:	f0          	movx @dptr, a
  804ca8:	a3          	inc dptr
  804ca9:	ee          	mov a, r6
  804caa:	f0          	movx @dptr, a
  804cab:	a3          	inc dptr
  804cac:	ef          	mov a, r7
  804cad:	f0          	movx @dptr, a
  804cae:	a3          	inc dptr
  804caf:	e8          	mov a, r0
  804cb0:	f0          	movx @dptr, a
  804cb1:	02 4e 4b    	ljmp 804e4b <GPIO_get_inputs+0x21f>
  804cb4:	8a 82       	mov dpl, r2
  804cb6:	8b 83       	mov dph, r3
  804cb8:	8c f0       	mov b, r4
  804cba:	12 61 48    	lcall 806148 <GPIO_clear_irq+0x2c9>
  804cbd:	fd          	mov r5, a
  804cbe:	a3          	inc dptr
  804cbf:	12 61 48    	lcall 806148 <GPIO_clear_irq+0x2c9>
  804cc2:	fe          	mov r6, a
  804cc3:	74 90       	mov a, #144
  804cc5:	25 05       	add a, 0x05
  804cc7:	fd          	mov r5, a
  804cc8:	74 00       	mov a, #0
  804cca:	35 06       	addc a, 0x06
  804ccc:	fe          	mov r6, a
  804ccd:	8d 82       	mov dpl, r5
  804ccf:	8e 83       	mov dph, r6
  804cd1:	12 06 92    	lcall 800692 <HW_get_16bit_reg>
  804cd4:	ad 82       	mov r5, dpl
  804cd6:	ae 83       	mov r6, dph
  804cd8:	90 07 e0    	mov dptr, #2016
  804cdb:	ed          	mov a, r5
  804cdc:	f0          	movx @dptr, a
  804cdd:	a3          	inc dptr
  804cde:	ee          	mov a, r6
  804cdf:	f0          	movx @dptr, a
  804ce0:	a3          	inc dptr
  804ce1:	74 00       	mov a, #0
  804ce3:	f0          	movx @dptr, a
  804ce4:	a3          	inc dptr
  804ce5:	74 00       	mov a, #0
  804ce7:	f0          	movx @dptr, a
  804ce8:	02 4e 4b    	ljmp 804e4b <GPIO_get_inputs+0x21f>
  804ceb:	8a 82       	mov dpl, r2
  804ced:	8b 83       	mov dph, r3
  804cef:	8c f0       	mov b, r4
  804cf1:	12 61 48    	lcall 806148 <GPIO_clear_irq+0x2c9>
  804cf4:	fd          	mov r5, a
  804cf5:	a3          	inc dptr
  804cf6:	12 61 48    	lcall 806148 <GPIO_clear_irq+0x2c9>
  804cf9:	fe          	mov r6, a
  804cfa:	74 90       	mov a, #144
  804cfc:	25 05       	add a, 0x05
  804cfe:	fd          	mov r5, a
  804cff:	74 00       	mov a, #0
  804d01:	35 06       	addc a, 0x06
  804d03:	fe          	mov r6, a
  804d04:	8d 82       	mov dpl, r5
  804d06:	8e 83       	mov dph, r6
  804d08:	c0 02       	push 0x02
  804d0a:	c0 03       	push 0x03
  804d0c:	c0 04       	push 0x04
  804d0e:	12 06 a7    	lcall 8006a7 <HW_get_8bit_reg>
  804d11:	ad 82       	mov r5, dpl
  804d13:	d0 04       	pop 0x04
  804d15:	d0 03       	pop 0x03
  804d17:	d0 02       	pop 0x02
  804d19:	7e 00       	mov r6, #0
  804d1b:	7f 00       	mov r7, #0
  804d1d:	78 00       	mov r0, #0
  804d1f:	8a 82       	mov dpl, r2
  804d21:	8b 83       	mov dph, r3
  804d23:	8c f0       	mov b, r4
  804d25:	12 61 48    	lcall 806148 <GPIO_clear_irq+0x2c9>
  804d28:	fa          	mov r2, a
  804d29:	a3          	inc dptr
  804d2a:	12 61 48    	lcall 806148 <GPIO_clear_irq+0x2c9>
  804d2d:	fb          	mov r3, a
  804d2e:	74 94       	mov a, #148
  804d30:	25 02       	add a, 0x02
  804d32:	fa          	mov r2, a
  804d33:	74 00       	mov a, #0
  804d35:	35 03       	addc a, 0x03
  804d37:	fb          	mov r3, a
  804d38:	8a 82       	mov dpl, r2
  804d3a:	8b 83       	mov dph, r3
  804d3c:	c0 05       	push 0x05
  804d3e:	c0 06       	push 0x06
  804d40:	c0 07       	push 0x07
  804d42:	c0 00       	push 00
  804d44:	12 06 a7    	lcall 8006a7 <HW_get_8bit_reg>
  804d47:	aa 82       	mov r2, dpl
  804d49:	d0 00       	pop 00
  804d4b:	d0 07       	pop 0x07
  804d4d:	d0 06       	pop 0x06
  804d4f:	d0 05       	pop 0x05
  804d51:	7b 00       	mov r3, #0
  804d53:	8a 03       	mov 0x03, r2
  804d55:	7a 00       	mov r2, #0
  804d57:	eb          	mov a, r3
  804d58:	33          	rlc a
  804d59:	95 e0       	subb a, acc
  804d5b:	fc          	mov r4, a
  804d5c:	f9          	mov r1, a
  804d5d:	90 07 e0    	mov dptr, #2016
  804d60:	ea          	mov a, r2
  804d61:	4d          	orl a, r5
  804d62:	f0          	movx @dptr, a
  804d63:	eb          	mov a, r3
  804d64:	4e          	orl a, r6
  804d65:	a3          	inc dptr
  804d66:	f0          	movx @dptr, a
  804d67:	ec          	mov a, r4
  804d68:	4f          	orl a, r7
  804d69:	a3          	inc dptr
  804d6a:	f0          	movx @dptr, a
  804d6b:	e9          	mov a, r1
  804d6c:	48          	orl a, r0
  804d6d:	a3          	inc dptr
  804d6e:	f0          	movx @dptr, a
  804d6f:	02 4e 4b    	ljmp 804e4b <GPIO_get_inputs+0x21f>
  804d72:	90 07 e4    	mov dptr, #2020
  804d75:	74 2e       	mov a, #46
  804d77:	f0          	movx @dptr, a
  804d78:	90 07 e5    	mov dptr, #2021
  804d7b:	74 2e       	mov a, #46
  804d7d:	f0          	movx @dptr, a
  804d7e:	90 07 e6    	mov dptr, #2022
  804d81:	74 2f       	mov a, #47
  804d83:	f0          	movx @dptr, a
  804d84:	90 07 e7    	mov dptr, #2023
  804d87:	74 64       	mov a, #100
  804d89:	f0          	movx @dptr, a
  804d8a:	90 07 e8    	mov dptr, #2024
  804d8d:	74 72       	mov a, #114
  804d8f:	f0          	movx @dptr, a
  804d90:	90 07 e9    	mov dptr, #2025
  804d93:	74 69       	mov a, #105
  804d95:	f0          	movx @dptr, a
  804d96:	90 07 ea    	mov dptr, #2026
  804d99:	74 76       	mov a, #118
  804d9b:	f0          	movx @dptr, a
  804d9c:	90 07 eb    	mov dptr, #2027
  804d9f:	74 65       	mov a, #101
  804da1:	f0          	movx @dptr, a
  804da2:	90 07 ec    	mov dptr, #2028
  804da5:	74 72       	mov a, #114
  804da7:	f0          	movx @dptr, a
  804da8:	90 07 ed    	mov dptr, #2029
  804dab:	74 73       	mov a, #115
  804dad:	f0          	movx @dptr, a
  804dae:	90 07 ee    	mov dptr, #2030
  804db1:	74 2f       	mov a, #47
  804db3:	f0          	movx @dptr, a
  804db4:	90 07 ef    	mov dptr, #2031
  804db7:	74 43       	mov a, #67
  804db9:	f0          	movx @dptr, a
  804dba:	90 07 f0    	mov dptr, #2032
  804dbd:	74 6f       	mov a, #111
  804dbf:	f0          	movx @dptr, a
  804dc0:	90 07 f1    	mov dptr, #2033
  804dc3:	74 72       	mov a, #114
  804dc5:	f0          	movx @dptr, a
  804dc6:	90 07 f2    	mov dptr, #2034
  804dc9:	74 65       	mov a, #101
  804dcb:	f0          	movx @dptr, a
  804dcc:	90 07 f3    	mov dptr, #2035
  804dcf:	74 47       	mov a, #71
  804dd1:	f0          	movx @dptr, a
  804dd2:	90 07 f4    	mov dptr, #2036
  804dd5:	74 50       	mov a, #80
  804dd7:	f0          	movx @dptr, a
  804dd8:	90 07 f5    	mov dptr, #2037
  804ddb:	74 49       	mov a, #73
  804ddd:	f0          	movx @dptr, a
  804dde:	90 07 f6    	mov dptr, #2038
  804de1:	74 4f       	mov a, #79
  804de3:	f0          	movx @dptr, a
  804de4:	90 07 f7    	mov dptr, #2039
  804de7:	74 2f       	mov a, #47
  804de9:	f0          	movx @dptr, a
  804dea:	90 07 f8    	mov dptr, #2040
  804ded:	74 63       	mov a, #99
  804def:	f0          	movx @dptr, a
  804df0:	90 07 f9    	mov dptr, #2041
  804df3:	74 6f       	mov a, #111
  804df5:	f0          	movx @dptr, a
  804df6:	90 07 fa    	mov dptr, #2042
  804df9:	74 72       	mov a, #114
  804dfb:	f0          	movx @dptr, a
  804dfc:	90 07 fb    	mov dptr, #2043
  804dff:	74 65       	mov a, #101
  804e01:	f0          	movx @dptr, a
  804e02:	90 07 fc    	mov dptr, #2044
  804e05:	74 5f       	mov a, #95
  804e07:	f0          	movx @dptr, a
  804e08:	90 07 fd    	mov dptr, #2045
  804e0b:	74 67       	mov a, #103
  804e0d:	f0          	movx @dptr, a
  804e0e:	90 07 fe    	mov dptr, #2046
  804e11:	74 70       	mov a, #112
  804e13:	f0          	movx @dptr, a
  804e14:	90 07 ff    	mov dptr, #2047
  804e17:	74 69       	mov a, #105
  804e19:	f0          	movx @dptr, a
  804e1a:	90 08 00    	mov dptr, #2048
  804e1d:	74 6f       	mov a, #111
  804e1f:	f0          	movx @dptr, a
  804e20:	90 08 01    	mov dptr, #2049
  804e23:	74 2e       	mov a, #46
  804e25:	f0          	movx @dptr, a
  804e26:	90 08 02    	mov dptr, #2050
  804e29:	74 63       	mov a, #99
  804e2b:	f0          	movx @dptr, a
  804e2c:	90 08 03    	mov dptr, #2051
  804e2f:	74 00       	mov a, #0
  804e31:	f0          	movx @dptr, a
  804e32:	90 00 8c    	mov dptr, #140
  804e35:	74 b2       	mov a, #178
  804e37:	f0          	movx @dptr, a
  804e38:	e4          	clr a
  804e39:	a3          	inc dptr
  804e3a:	f0          	movx @dptr, a
  804e3b:	a3          	inc dptr
  804e3c:	f0          	movx @dptr, a
  804e3d:	a3          	inc dptr
  804e3e:	f0          	movx @dptr, a
  804e3f:	75 82 e4    	mov dpl, #228
  804e42:	75 83 07    	mov dph, #7
  804e45:	75 f0 00    	mov b, #0
  804e48:	12 05 f6    	lcall 8005f6 <HAL_assert_fail>
  804e4b:	90 07 e0    	mov dptr, #2016
  804e4e:	e0          	movx a, @dptr
  804e4f:	fa          	mov r2, a
  804e50:	a3          	inc dptr
  804e51:	e0          	movx a, @dptr
  804e52:	fb          	mov r3, a
  804e53:	a3          	inc dptr
  804e54:	e0          	movx a, @dptr
  804e55:	fc          	mov r4, a
  804e56:	a3          	inc dptr
  804e57:	e0          	movx a, @dptr
  804e58:	fd          	mov r5, a
  804e59:	8a 82       	mov dpl, r2
  804e5b:	8b 83       	mov dph, r3
  804e5d:	8c f0       	mov b, r4
  804e5f:	ed          	mov a, r5
  804e60:	22          	ret

00804e61 <GPIO_get_outputs>:
  804e61:	aa f0       	mov r2, b
  804e63:	ab 83       	mov r3, dph
  804e65:	e5 82       	mov a, dpl
  804e67:	90 08 04    	mov dptr, #2052
  804e6a:	f0          	movx @dptr, a
  804e6b:	a3          	inc dptr
  804e6c:	eb          	mov a, r3
  804e6d:	f0          	movx @dptr, a
  804e6e:	a3          	inc dptr
  804e6f:	ea          	mov a, r2
  804e70:	f0          	movx @dptr, a
  804e71:	90 08 07    	mov dptr, #2055
  804e74:	e4          	clr a
  804e75:	f0          	movx @dptr, a
  804e76:	a3          	inc dptr
  804e77:	f0          	movx @dptr, a
  804e78:	a3          	inc dptr
  804e79:	f0          	movx @dptr, a
  804e7a:	a3          	inc dptr
  804e7b:	f0          	movx @dptr, a
  804e7c:	90 08 04    	mov dptr, #2052
  804e7f:	e0          	movx a, @dptr
  804e80:	fa          	mov r2, a
  804e81:	a3          	inc dptr
  804e82:	e0          	movx a, @dptr
  804e83:	fb          	mov r3, a
  804e84:	a3          	inc dptr
  804e85:	e0          	movx a, @dptr
  804e86:	fc          	mov r4, a
  804e87:	74 02       	mov a, #2
  804e89:	25 02       	add a, 0x02
  804e8b:	fd          	mov r5, a
  804e8c:	74 00       	mov a, #0
  804e8e:	35 03       	addc a, 0x03
  804e90:	fe          	mov r6, a
  804e91:	8c 07       	mov 0x07, r4
  804e93:	8d 82       	mov dpl, r5
  804e95:	8e 83       	mov dph, r6
  804e97:	8f f0       	mov b, r7
  804e99:	12 61 48    	lcall 806148 <GPIO_clear_irq+0x2c9>
  804e9c:	fd          	mov r5, a
  804e9d:	bd 00 03    	cjne r5, #0, 804ea3
  804ea0:	02 4f 20    	ljmp 804f20 <GPIO_get_outputs+0xbf>
  804ea3:	bd 01 03    	cjne r5, #1, 804ea9
  804ea6:	02 4e e9    	ljmp 804ee9 <GPIO_get_outputs+0x88>
  804ea9:	bd 02 02    	cjne r5, #2, 804eae
  804eac:	80 03       	sjmp 804eb1
  804eae:	02 4f a5    	ljmp 804fa5 <GPIO_get_outputs+0x144>
  804eb1:	8a 82       	mov dpl, r2
  804eb3:	8b 83       	mov dph, r3
  804eb5:	8c f0       	mov b, r4
  804eb7:	12 61 48    	lcall 806148 <GPIO_clear_irq+0x2c9>
  804eba:	fd          	mov r5, a
  804ebb:	a3          	inc dptr
  804ebc:	12 61 48    	lcall 806148 <GPIO_clear_irq+0x2c9>
  804ebf:	fe          	mov r6, a
  804ec0:	74 a0       	mov a, #160
  804ec2:	25 05       	add a, 0x05
  804ec4:	fd          	mov r5, a
  804ec5:	74 00       	mov a, #0
  804ec7:	35 06       	addc a, 0x06
  804ec9:	fe          	mov r6, a
  804eca:	8d 82       	mov dpl, r5
  804ecc:	8e 83       	mov dph, r6
  804ece:	12 06 56    	lcall 800656 <HW_get_32bit_reg>
  804ed1:	ad 82       	mov r5, dpl
  804ed3:	ae 83       	mov r6, dph
  804ed5:	af f0       	mov r7, b
  804ed7:	f8          	mov r0, a
  804ed8:	90 08 07    	mov dptr, #2055
  804edb:	ed          	mov a, r5
  804edc:	f0          	movx @dptr, a
  804edd:	a3          	inc dptr
  804ede:	ee          	mov a, r6
  804edf:	f0          	movx @dptr, a
  804ee0:	a3          	inc dptr
  804ee1:	ef          	mov a, r7
  804ee2:	f0          	movx @dptr, a
  804ee3:	a3          	inc dptr
  804ee4:	e8          	mov a, r0
  804ee5:	f0          	movx @dptr, a
  804ee6:	02 50 7e    	ljmp 80507e <GPIO_get_outputs+0x21d>
  804ee9:	8a 82       	mov dpl, r2
  804eeb:	8b 83       	mov dph, r3
  804eed:	8c f0       	mov b, r4
  804eef:	12 61 48    	lcall 806148 <GPIO_clear_irq+0x2c9>
  804ef2:	fd          	mov r5, a
  804ef3:	a3          	inc dptr
  804ef4:	12 61 48    	lcall 806148 <GPIO_clear_irq+0x2c9>
  804ef7:	fe          	mov r6, a
  804ef8:	74 a0       	mov a, #160
  804efa:	25 05       	add a, 0x05
  804efc:	fd          	mov r5, a
  804efd:	74 00       	mov a, #0
  804eff:	35 06       	addc a, 0x06
  804f01:	fe          	mov r6, a
  804f02:	8d 82       	mov dpl, r5
  804f04:	8e 83       	mov dph, r6
  804f06:	12 06 92    	lcall 800692 <HW_get_16bit_reg>
  804f09:	ad 82       	mov r5, dpl
  804f0b:	ae 83       	mov r6, dph
  804f0d:	90 08 07    	mov dptr, #2055
  804f10:	ed          	mov a, r5
  804f11:	f0          	movx @dptr, a
  804f12:	a3          	inc dptr
  804f13:	ee          	mov a, r6
  804f14:	f0          	movx @dptr, a
  804f15:	a3          	inc dptr
  804f16:	74 00       	mov a, #0
  804f18:	f0          	movx @dptr, a
  804f19:	a3          	inc dptr
  804f1a:	74 00       	mov a, #0
  804f1c:	f0          	movx @dptr, a
  804f1d:	02 50 7e    	ljmp 80507e <GPIO_get_outputs+0x21d>
  804f20:	8a 82       	mov dpl, r2
  804f22:	8b 83       	mov dph, r3
  804f24:	8c f0       	mov b, r4
  804f26:	12 61 48    	lcall 806148 <GPIO_clear_irq+0x2c9>
  804f29:	fd          	mov r5, a
  804f2a:	a3          	inc dptr
  804f2b:	12 61 48    	lcall 806148 <GPIO_clear_irq+0x2c9>
  804f2e:	fe          	mov r6, a
  804f2f:	74 a0       	mov a, #160
  804f31:	25 05       	add a, 0x05
  804f33:	fd          	mov r5, a
  804f34:	74 00       	mov a, #0
  804f36:	35 06       	addc a, 0x06
  804f38:	fe          	mov r6, a
  804f39:	8d 82       	mov dpl, r5
  804f3b:	8e 83       	mov dph, r6
  804f3d:	c0 02       	push 0x02
  804f3f:	c0 03       	push 0x03
  804f41:	c0 04       	push 0x04
  804f43:	12 06 92    	lcall 800692 <HW_get_16bit_reg>
  804f46:	ad 82       	mov r5, dpl
  804f48:	ae 83       	mov r6, dph
  804f4a:	d0 04       	pop 0x04
  804f4c:	d0 03       	pop 0x03
  804f4e:	d0 02       	pop 0x02
  804f50:	7f 00       	mov r7, #0
  804f52:	78 00       	mov r0, #0
  804f54:	8a 82       	mov dpl, r2
  804f56:	8b 83       	mov dph, r3
  804f58:	8c f0       	mov b, r4
  804f5a:	12 61 48    	lcall 806148 <GPIO_clear_irq+0x2c9>
  804f5d:	fa          	mov r2, a
  804f5e:	a3          	inc dptr
  804f5f:	12 61 48    	lcall 806148 <GPIO_clear_irq+0x2c9>
  804f62:	fb          	mov r3, a
  804f63:	74 a4       	mov a, #164
  804f65:	25 02       	add a, 0x02
  804f67:	fa          	mov r2, a
  804f68:	74 00       	mov a, #0
  804f6a:	35 03       	addc a, 0x03
  804f6c:	fb          	mov r3, a
  804f6d:	8a 82       	mov dpl, r2
  804f6f:	8b 83       	mov dph, r3
  804f71:	c0 05       	push 0x05
  804f73:	c0 06       	push 0x06
  804f75:	c0 07       	push 0x07
  804f77:	c0 00       	push 00
  804f79:	12 06 92    	lcall 800692 <HW_get_16bit_reg>
  804f7c:	aa 82       	mov r2, dpl
  804f7e:	ab 83       	mov r3, dph
  804f80:	d0 00       	pop 00
  804f82:	d0 07       	pop 0x07
  804f84:	d0 06       	pop 0x06
  804f86:	d0 05       	pop 0x05
  804f88:	8a 03       	mov 0x03, r2
  804f8a:	7a 00       	mov r2, #0
  804f8c:	7c 00       	mov r4, #0
  804f8e:	79 00       	mov r1, #0
  804f90:	90 08 07    	mov dptr, #2055
  804f93:	ea          	mov a, r2
  804f94:	4d          	orl a, r5
  804f95:	f0          	movx @dptr, a
  804f96:	eb          	mov a, r3
  804f97:	4e          	orl a, r6
  804f98:	a3          	inc dptr
  804f99:	f0          	movx @dptr, a
  804f9a:	ec          	mov a, r4
  804f9b:	4f          	orl a, r7
  804f9c:	a3          	inc dptr
  804f9d:	f0          	movx @dptr, a
  804f9e:	e9          	mov a, r1
  804f9f:	48          	orl a, r0
  804fa0:	a3          	inc dptr
  804fa1:	f0          	movx @dptr, a
  804fa2:	02 50 7e    	ljmp 80507e <GPIO_get_outputs+0x21d>
  804fa5:	90 08 0b    	mov dptr, #2059
  804fa8:	74 2e       	mov a, #46
  804faa:	f0          	movx @dptr, a
  804fab:	90 08 0c    	mov dptr, #2060
  804fae:	74 2e       	mov a, #46
  804fb0:	f0          	movx @dptr, a
  804fb1:	90 08 0d    	mov dptr, #2061
  804fb4:	74 2f       	mov a, #47
  804fb6:	f0          	movx @dptr, a
  804fb7:	90 08 0e    	mov dptr, #2062
  804fba:	74 64       	mov a, #100
  804fbc:	f0          	movx @dptr, a
  804fbd:	90 08 0f    	mov dptr, #2063
  804fc0:	74 72       	mov a, #114
  804fc2:	f0          	movx @dptr, a
  804fc3:	90 08 10    	mov dptr, #2064
  804fc6:	74 69       	mov a, #105
  804fc8:	f0          	movx @dptr, a
  804fc9:	90 08 11    	mov dptr, #2065
  804fcc:	74 76       	mov a, #118
  804fce:	f0          	movx @dptr, a
  804fcf:	90 08 12    	mov dptr, #2066
  804fd2:	74 65       	mov a, #101
  804fd4:	f0          	movx @dptr, a
  804fd5:	90 08 13    	mov dptr, #2067
  804fd8:	74 72       	mov a, #114
  804fda:	f0          	movx @dptr, a
  804fdb:	90 08 14    	mov dptr, #2068
  804fde:	74 73       	mov a, #115
  804fe0:	f0          	movx @dptr, a
  804fe1:	90 08 15    	mov dptr, #2069
  804fe4:	74 2f       	mov a, #47
  804fe6:	f0          	movx @dptr, a
  804fe7:	90 08 16    	mov dptr, #2070
  804fea:	74 43       	mov a, #67
  804fec:	f0          	movx @dptr, a
  804fed:	90 08 17    	mov dptr, #2071
  804ff0:	74 6f       	mov a, #111
  804ff2:	f0          	movx @dptr, a
  804ff3:	90 08 18    	mov dptr, #2072
  804ff6:	74 72       	mov a, #114
  804ff8:	f0          	movx @dptr, a
  804ff9:	90 08 19    	mov dptr, #2073
  804ffc:	74 65       	mov a, #101
  804ffe:	f0          	movx @dptr, a
  804fff:	90 08 1a    	mov dptr, #2074
  805002:	74 47       	mov a, #71
  805004:	f0          	movx @dptr, a
  805005:	90 08 1b    	mov dptr, #2075
  805008:	74 50       	mov a, #80
  80500a:	f0          	movx @dptr, a
  80500b:	90 08 1c    	mov dptr, #2076
  80500e:	74 49       	mov a, #73
  805010:	f0          	movx @dptr, a
  805011:	90 08 1d    	mov dptr, #2077
  805014:	74 4f       	mov a, #79
  805016:	f0          	movx @dptr, a
  805017:	90 08 1e    	mov dptr, #2078
  80501a:	74 2f       	mov a, #47
  80501c:	f0          	movx @dptr, a
  80501d:	90 08 1f    	mov dptr, #2079
  805020:	74 63       	mov a, #99
  805022:	f0          	movx @dptr, a
  805023:	90 08 20    	mov dptr, #2080
  805026:	74 6f       	mov a, #111
  805028:	f0          	movx @dptr, a
  805029:	90 08 21    	mov dptr, #2081
  80502c:	74 72       	mov a, #114
  80502e:	f0          	movx @dptr, a
  80502f:	90 08 22    	mov dptr, #2082
  805032:	74 65       	mov a, #101
  805034:	f0          	movx @dptr, a
  805035:	90 08 23    	mov dptr, #2083
  805038:	74 5f       	mov a, #95
  80503a:	f0          	movx @dptr, a
  80503b:	90 08 24    	mov dptr, #2084
  80503e:	74 67       	mov a, #103
  805040:	f0          	movx @dptr, a
  805041:	90 08 25    	mov dptr, #2085
  805044:	74 70       	mov a, #112
  805046:	f0          	movx @dptr, a
  805047:	90 08 26    	mov dptr, #2086
  80504a:	74 69       	mov a, #105
  80504c:	f0          	movx @dptr, a
  80504d:	90 08 27    	mov dptr, #2087
  805050:	74 6f       	mov a, #111
  805052:	f0          	movx @dptr, a
  805053:	90 08 28    	mov dptr, #2088
  805056:	74 2e       	mov a, #46
  805058:	f0          	movx @dptr, a
  805059:	90 08 29    	mov dptr, #2089
  80505c:	74 63       	mov a, #99
  80505e:	f0          	movx @dptr, a
  80505f:	90 08 2a    	mov dptr, #2090
  805062:	74 00       	mov a, #0
  805064:	f0          	movx @dptr, a
  805065:	90 00 8c    	mov dptr, #140
  805068:	74 d7       	mov a, #215
  80506a:	f0          	movx @dptr, a
  80506b:	e4          	clr a
  80506c:	a3          	inc dptr
  80506d:	f0          	movx @dptr, a
  80506e:	a3          	inc dptr
  80506f:	f0          	movx @dptr, a
  805070:	a3          	inc dptr
  805071:	f0          	movx @dptr, a
  805072:	75 82 0b    	mov dpl, #11
  805075:	75 83 08    	mov dph, #8
  805078:	75 f0 00    	mov b, #0
  80507b:	12 05 f6    	lcall 8005f6 <HAL_assert_fail>
  80507e:	90 08 07    	mov dptr, #2055
  805081:	e0          	movx a, @dptr
  805082:	fa          	mov r2, a
  805083:	a3          	inc dptr
  805084:	e0          	movx a, @dptr
  805085:	fb          	mov r3, a
  805086:	a3          	inc dptr
  805087:	e0          	movx a, @dptr
  805088:	fc          	mov r4, a
  805089:	a3          	inc dptr
  80508a:	e0          	movx a, @dptr
  80508b:	fd          	mov r5, a
  80508c:	8a 82       	mov dpl, r2
  80508e:	8b 83       	mov dph, r3
  805090:	8c f0       	mov b, r4
  805092:	ed          	mov a, r5
  805093:	22          	ret

00805094 <GPIO_set_output>:
  805094:	aa f0       	mov r2, b
  805096:	ab 83       	mov r3, dph
  805098:	e5 82       	mov a, dpl
  80509a:	90 08 2d    	mov dptr, #2093
  80509d:	f0          	movx @dptr, a
  80509e:	a3          	inc dptr
  80509f:	eb          	mov a, r3
  8050a0:	f0          	movx @dptr, a
  8050a1:	a3          	inc dptr
  8050a2:	ea          	mov a, r2
  8050a3:	f0          	movx @dptr, a
  8050a4:	90 08 2b    	mov dptr, #2091
  8050a7:	e0          	movx a, @dptr
  8050a8:	fa          	mov r2, a
  8050a9:	ba 20 00    	cjne r2, #32, 8050ac
  8050ac:	50 03       	jnc 8050b1
  8050ae:	02 51 8e    	ljmp 80518e <GPIO_set_output+0xfa>
  8050b1:	90 08 30    	mov dptr, #2096
  8050b4:	74 2e       	mov a, #46
  8050b6:	f0          	movx @dptr, a
  8050b7:	90 08 31    	mov dptr, #2097
  8050ba:	74 2e       	mov a, #46
  8050bc:	f0          	movx @dptr, a
  8050bd:	90 08 32    	mov dptr, #2098
  8050c0:	74 2f       	mov a, #47
  8050c2:	f0          	movx @dptr, a
  8050c3:	90 08 33    	mov dptr, #2099
  8050c6:	74 64       	mov a, #100
  8050c8:	f0          	movx @dptr, a
  8050c9:	90 08 34    	mov dptr, #2100
  8050cc:	74 72       	mov a, #114
  8050ce:	f0          	movx @dptr, a
  8050cf:	90 08 35    	mov dptr, #2101
  8050d2:	74 69       	mov a, #105
  8050d4:	f0          	movx @dptr, a
  8050d5:	90 08 36    	mov dptr, #2102
  8050d8:	74 76       	mov a, #118
  8050da:	f0          	movx @dptr, a
  8050db:	90 08 37    	mov dptr, #2103
  8050de:	74 65       	mov a, #101
  8050e0:	f0          	movx @dptr, a
  8050e1:	90 08 38    	mov dptr, #2104
  8050e4:	74 72       	mov a, #114
  8050e6:	f0          	movx @dptr, a
  8050e7:	90 08 39    	mov dptr, #2105
  8050ea:	74 73       	mov a, #115
  8050ec:	f0          	movx @dptr, a
  8050ed:	90 08 3a    	mov dptr, #2106
  8050f0:	74 2f       	mov a, #47
  8050f2:	f0          	movx @dptr, a
  8050f3:	90 08 3b    	mov dptr, #2107
  8050f6:	74 43       	mov a, #67
  8050f8:	f0          	movx @dptr, a
  8050f9:	90 08 3c    	mov dptr, #2108
  8050fc:	74 6f       	mov a, #111
  8050fe:	f0          	movx @dptr, a
  8050ff:	90 08 3d    	mov dptr, #2109
  805102:	74 72       	mov a, #114
  805104:	f0          	movx @dptr, a
  805105:	90 08 3e    	mov dptr, #2110
  805108:	74 65       	mov a, #101
  80510a:	f0          	movx @dptr, a
  80510b:	90 08 3f    	mov dptr, #2111
  80510e:	74 47       	mov a, #71
  805110:	f0          	movx @dptr, a
  805111:	90 08 40    	mov dptr, #2112
  805114:	74 50       	mov a, #80
  805116:	f0          	movx @dptr, a
  805117:	90 08 41    	mov dptr, #2113
  80511a:	74 49       	mov a, #73
  80511c:	f0          	movx @dptr, a
  80511d:	90 08 42    	mov dptr, #2114
  805120:	74 4f       	mov a, #79
  805122:	f0          	movx @dptr, a
  805123:	90 08 43    	mov dptr, #2115
  805126:	74 2f       	mov a, #47
  805128:	f0          	movx @dptr, a
  805129:	90 08 44    	mov dptr, #2116
  80512c:	74 63       	mov a, #99
  80512e:	f0          	movx @dptr, a
  80512f:	90 08 45    	mov dptr, #2117
  805132:	74 6f       	mov a, #111
  805134:	f0          	movx @dptr, a
  805135:	90 08 46    	mov dptr, #2118
  805138:	74 72       	mov a, #114
  80513a:	f0          	movx @dptr, a
  80513b:	90 08 47    	mov dptr, #2119
  80513e:	74 65       	mov a, #101
  805140:	f0          	movx @dptr, a
  805141:	90 08 48    	mov dptr, #2120
  805144:	74 5f       	mov a, #95
  805146:	f0          	movx @dptr, a
  805147:	90 08 49    	mov dptr, #2121
  80514a:	74 67       	mov a, #103
  80514c:	f0          	movx @dptr, a
  80514d:	90 08 4a    	mov dptr, #2122
  805150:	74 70       	mov a, #112
  805152:	f0          	movx @dptr, a
  805153:	90 08 4b    	mov dptr, #2123
  805156:	74 69       	mov a, #105
  805158:	f0          	movx @dptr, a
  805159:	90 08 4c    	mov dptr, #2124
  80515c:	74 6f       	mov a, #111
  80515e:	f0          	movx @dptr, a
  80515f:	90 08 4d    	mov dptr, #2125
  805162:	74 2e       	mov a, #46
  805164:	f0          	movx @dptr, a
  805165:	90 08 4e    	mov dptr, #2126
  805168:	74 63       	mov a, #99
  80516a:	f0          	movx @dptr, a
  80516b:	90 08 4f    	mov dptr, #2127
  80516e:	74 00       	mov a, #0
  805170:	f0          	movx @dptr, a
  805171:	90 00 8c    	mov dptr, #140
  805174:	74 e9       	mov a, #233
  805176:	f0          	movx @dptr, a
  805177:	e4          	clr a
  805178:	a3          	inc dptr
  805179:	f0          	movx @dptr, a
  80517a:	a3          	inc dptr
  80517b:	f0          	movx @dptr, a
  80517c:	a3          	inc dptr
  80517d:	f0          	movx @dptr, a
  80517e:	75 82 30    	mov dpl, #48
  805181:	75 83 08    	mov dph, #8
  805184:	75 f0 00    	mov b, #0
  805187:	c0 02       	push 0x02
  805189:	12 05 f6    	lcall 8005f6 <HAL_assert_fail>
  80518c:	d0 02       	pop 0x02
  80518e:	90 08 2d    	mov dptr, #2093
  805191:	e0          	movx a, @dptr
  805192:	fb          	mov r3, a
  805193:	a3          	inc dptr
  805194:	e0          	movx a, @dptr
  805195:	fc          	mov r4, a
  805196:	a3          	inc dptr
  805197:	e0          	movx a, @dptr
  805198:	fd          	mov r5, a
  805199:	74 02       	mov a, #2
  80519b:	25 03       	add a, 0x03
  80519d:	fe          	mov r6, a
  80519e:	74 00       	mov a, #0
  8051a0:	35 04       	addc a, 0x04
  8051a2:	ff          	mov r7, a
  8051a3:	8d 00       	mov 00, r5
  8051a5:	8e 82       	mov dpl, r6
  8051a7:	8f 83       	mov dph, r7
  8051a9:	88 f0       	mov b, r0
  8051ab:	12 61 48    	lcall 806148 <GPIO_clear_irq+0x2c9>
  8051ae:	fe          	mov r6, a
  8051af:	be 00 03    	cjne r6, #0, 8051b5
  8051b2:	02 55 c6    	ljmp 8055c6 <GPIO_set_output+0x532>
  8051b5:	be 01 03    	cjne r6, #1, 8051bb
  8051b8:	02 53 e7    	ljmp 8053e7 <GPIO_set_output+0x353>
  8051bb:	be 02 02    	cjne r6, #2, 8051c0
  8051be:	80 03       	sjmp 8051c3
  8051c0:	02 57 5e    	ljmp 80575e <GPIO_set_output+0x6ca>
  8051c3:	c0 02       	push 0x02
  8051c5:	8b 82       	mov dpl, r3
  8051c7:	8c 83       	mov dph, r4
  8051c9:	8d f0       	mov b, r5
  8051cb:	12 61 48    	lcall 806148 <GPIO_clear_irq+0x2c9>
  8051ce:	fe          	mov r6, a
  8051cf:	a3          	inc dptr
  8051d0:	12 61 48    	lcall 806148 <GPIO_clear_irq+0x2c9>
  8051d3:	ff          	mov r7, a
  8051d4:	74 a0       	mov a, #160
  8051d6:	25 06       	add a, 0x06
  8051d8:	fe          	mov r6, a
  8051d9:	74 00       	mov a, #0
  8051db:	35 07       	addc a, 0x07
  8051dd:	ff          	mov r7, a
  8051de:	8e 82       	mov dpl, r6
  8051e0:	8f 83       	mov dph, r7
  8051e2:	c0 02       	push 0x02
  8051e4:	12 06 56    	lcall 800656 <HW_get_32bit_reg>
  8051e7:	85 82 51    	mov 0x51, dpl
  8051ea:	85 83 52    	mov 0x52, dph
  8051ed:	85 f0 53    	mov 0x53, b
  8051f0:	f5 54       	mov 0x54, a
  8051f2:	d0 02       	pop 0x02
  8051f4:	90 08 2c    	mov dptr, #2092
  8051f7:	e0          	movx a, @dptr
  8051f8:	fa          	mov r2, a
  8051f9:	ba 00 04    	cjne r2, #0, 805200
  8051fc:	74 01       	mov a, #1
  8051fe:	80 01       	sjmp 805201
  805200:	e4          	clr a
  805201:	d0 02       	pop 0x02
  805203:	70 03       	jnz 805208
  805205:	02 52 41    	ljmp 805241 <GPIO_set_output+0x1ad>
  805208:	8a f0       	mov b, r2
  80520a:	05 f0       	inc b
  80520c:	7e 01       	mov r6, #1
  80520e:	7f 00       	mov r7, #0
  805210:	80 07       	sjmp 805219
  805212:	ee          	mov a, r6
  805213:	25 e0       	add a, acc
  805215:	fe          	mov r6, a
  805216:	ef          	mov a, r7
  805217:	33          	rlc a
  805218:	ff          	mov r7, a
  805219:	d5 f0 f6    	djnz b, 805212
  80521c:	ee          	mov a, r6
  80521d:	f4          	cpl a
  80521e:	fe          	mov r6, a
  80521f:	ef          	mov a, r7
  805220:	f4          	cpl a
  805221:	ff          	mov r7, a
  805222:	ef          	mov a, r7
  805223:	33          	rlc a
  805224:	95 e0       	subb a, acc
  805226:	f8          	mov r0, a
  805227:	f9          	mov r1, a
  805228:	90 08 50    	mov dptr, #2128
  80522b:	ee          	mov a, r6
  80522c:	55 51       	anl a, 0x51
  80522e:	f0          	movx @dptr, a
  80522f:	ef          	mov a, r7
  805230:	55 52       	anl a, 0x52
  805232:	a3          	inc dptr
  805233:	f0          	movx @dptr, a
  805234:	e8          	mov a, r0
  805235:	55 53       	anl a, 0x53
  805237:	a3          	inc dptr
  805238:	f0          	movx @dptr, a
  805239:	e9          	mov a, r1
  80523a:	55 54       	anl a, 0x54
  80523c:	a3          	inc dptr
  80523d:	f0          	movx @dptr, a
  80523e:	02 52 71    	ljmp 805271 <GPIO_set_output+0x1dd>
  805241:	8a f0       	mov b, r2
  805243:	05 f0       	inc b
  805245:	7e 01       	mov r6, #1
  805247:	7f 00       	mov r7, #0
  805249:	80 07       	sjmp 805252
  80524b:	ee          	mov a, r6
  80524c:	25 e0       	add a, acc
  80524e:	fe          	mov r6, a
  80524f:	ef          	mov a, r7
  805250:	33          	rlc a
  805251:	ff          	mov r7, a
  805252:	d5 f0 f6    	djnz b, 80524b
  805255:	ef          	mov a, r7
  805256:	33          	rlc a
  805257:	95 e0       	subb a, acc
  805259:	f8          	mov r0, a
  80525a:	f9          	mov r1, a
  80525b:	90 08 50    	mov dptr, #2128
  80525e:	ee          	mov a, r6
  80525f:	45 51       	orl a, 0x51
  805261:	f0          	movx @dptr, a
  805262:	ef          	mov a, r7
  805263:	45 52       	orl a, 0x52
  805265:	a3          	inc dptr
  805266:	f0          	movx @dptr, a
  805267:	e8          	mov a, r0
  805268:	45 53       	orl a, 0x53
  80526a:	a3          	inc dptr
  80526b:	f0          	movx @dptr, a
  80526c:	e9          	mov a, r1
  80526d:	45 54       	orl a, 0x54
  80526f:	a3          	inc dptr
  805270:	f0          	movx @dptr, a
  805271:	90 08 2d    	mov dptr, #2093
  805274:	e0          	movx a, @dptr
  805275:	fa          	mov r2, a
  805276:	a3          	inc dptr
  805277:	e0          	movx a, @dptr
  805278:	fb          	mov r3, a
  805279:	a3          	inc dptr
  80527a:	e0          	movx a, @dptr
  80527b:	fc          	mov r4, a
  80527c:	8a 82       	mov dpl, r2
  80527e:	8b 83       	mov dph, r3
  805280:	8c f0       	mov b, r4
  805282:	12 61 48    	lcall 806148 <GPIO_clear_irq+0x2c9>
  805285:	f9          	mov r1, a
  805286:	a3          	inc dptr
  805287:	12 61 48    	lcall 806148 <GPIO_clear_irq+0x2c9>
  80528a:	fe          	mov r6, a
  80528b:	74 a0       	mov a, #160
  80528d:	25 01       	add a, 0x01
  80528f:	fd          	mov r5, a
  805290:	74 00       	mov a, #0
  805292:	35 06       	addc a, 0x06
  805294:	fe          	mov r6, a
  805295:	90 08 50    	mov dptr, #2128
  805298:	e0          	movx a, @dptr
  805299:	f5 55       	mov 0x55, a
  80529b:	a3          	inc dptr
  80529c:	e0          	movx a, @dptr
  80529d:	f5 56       	mov 0x56, a
  80529f:	a3          	inc dptr
  8052a0:	e0          	movx a, @dptr
  8052a1:	f5 57       	mov 0x57, a
  8052a3:	a3          	inc dptr
  8052a4:	e0          	movx a, @dptr
  8052a5:	f5 58       	mov 0x58, a
  8052a7:	90 00 aa    	mov dptr, #170
  8052aa:	e5 55       	mov a, 0x55
  8052ac:	f0          	movx @dptr, a
  8052ad:	a3          	inc dptr
  8052ae:	e5 56       	mov a, 0x56
  8052b0:	f0          	movx @dptr, a
  8052b1:	a3          	inc dptr
  8052b2:	e5 57       	mov a, 0x57
  8052b4:	f0          	movx @dptr, a
  8052b5:	a3          	inc dptr
  8052b6:	e5 58       	mov a, 0x58
  8052b8:	f0          	movx @dptr, a
  8052b9:	8d 82       	mov dpl, r5
  8052bb:	8e 83       	mov dph, r6
  8052bd:	c0 02       	push 0x02
  8052bf:	c0 03       	push 0x03
  8052c1:	c0 04       	push 0x04
  8052c3:	12 06 62    	lcall 800662 <HW_set_32bit_reg>
  8052c6:	d0 04       	pop 0x04
  8052c8:	d0 03       	pop 0x03
  8052ca:	d0 02       	pop 0x02
  8052cc:	8a 82       	mov dpl, r2
  8052ce:	8b 83       	mov dph, r3
  8052d0:	8c f0       	mov b, r4
  8052d2:	12 61 48    	lcall 806148 <GPIO_clear_irq+0x2c9>
  8052d5:	fe          	mov r6, a
  8052d6:	a3          	inc dptr
  8052d7:	12 61 48    	lcall 806148 <GPIO_clear_irq+0x2c9>
  8052da:	ff          	mov r7, a
  8052db:	74 a0       	mov a, #160
  8052dd:	25 06       	add a, 0x06
  8052df:	fe          	mov r6, a
  8052e0:	74 00       	mov a, #0
  8052e2:	35 07       	addc a, 0x07
  8052e4:	ff          	mov r7, a
  8052e5:	8e 82       	mov dpl, r6
  8052e7:	8f 83       	mov dph, r7
  8052e9:	12 06 56    	lcall 800656 <HW_get_32bit_reg>
  8052ec:	ae 82       	mov r6, dpl
  8052ee:	af 83       	mov r7, dph
  8052f0:	a8 f0       	mov r0, b
  8052f2:	f9          	mov r1, a
  8052f3:	ee          	mov a, r6
  8052f4:	b5 55 0f    	cjne a, 0x55, 805306
  8052f7:	ef          	mov a, r7
  8052f8:	b5 56 0b    	cjne a, 0x56, 805306
  8052fb:	e8          	mov a, r0
  8052fc:	b5 57 07    	cjne a, 0x57, 805306
  8052ff:	e9          	mov a, r1
  805300:	b5 58 03    	cjne a, 0x58, 805306
  805303:	02 58 3c    	ljmp 80583c <GPIO_set_output+0x7a8>
  805306:	90 08 54    	mov dptr, #2132
  805309:	74 2e       	mov a, #46
  80530b:	f0          	movx @dptr, a
  80530c:	90 08 55    	mov dptr, #2133
  80530f:	74 2e       	mov a, #46
  805311:	f0          	movx @dptr, a
  805312:	90 08 56    	mov dptr, #2134
  805315:	74 2f       	mov a, #47
  805317:	f0          	movx @dptr, a
  805318:	90 08 57    	mov dptr, #2135
  80531b:	74 64       	mov a, #100
  80531d:	f0          	movx @dptr, a
  80531e:	90 08 58    	mov dptr, #2136
  805321:	74 72       	mov a, #114
  805323:	f0          	movx @dptr, a
  805324:	90 08 59    	mov dptr, #2137
  805327:	74 69       	mov a, #105
  805329:	f0          	movx @dptr, a
  80532a:	90 08 5a    	mov dptr, #2138
  80532d:	74 76       	mov a, #118
  80532f:	f0          	movx @dptr, a
  805330:	90 08 5b    	mov dptr, #2139
  805333:	74 65       	mov a, #101
  805335:	f0          	movx @dptr, a
  805336:	90 08 5c    	mov dptr, #2140
  805339:	74 72       	mov a, #114
  80533b:	f0          	movx @dptr, a
  80533c:	90 08 5d    	mov dptr, #2141
  80533f:	74 73       	mov a, #115
  805341:	f0          	movx @dptr, a
  805342:	90 08 5e    	mov dptr, #2142
  805345:	74 2f       	mov a, #47
  805347:	f0          	movx @dptr, a
  805348:	90 08 5f    	mov dptr, #2143
  80534b:	74 43       	mov a, #67
  80534d:	f0          	movx @dptr, a
  80534e:	90 08 60    	mov dptr, #2144
  805351:	74 6f       	mov a, #111
  805353:	f0          	movx @dptr, a
  805354:	90 08 61    	mov dptr, #2145
  805357:	74 72       	mov a, #114
  805359:	f0          	movx @dptr, a
  80535a:	90 08 62    	mov dptr, #2146
  80535d:	74 65       	mov a, #101
  80535f:	f0          	movx @dptr, a
  805360:	90 08 63    	mov dptr, #2147
  805363:	74 47       	mov a, #71
  805365:	f0          	movx @dptr, a
  805366:	90 08 64    	mov dptr, #2148
  805369:	74 50       	mov a, #80
  80536b:	f0          	movx @dptr, a
  80536c:	90 08 65    	mov dptr, #2149
  80536f:	74 49       	mov a, #73
  805371:	f0          	movx @dptr, a
  805372:	90 08 66    	mov dptr, #2150
  805375:	74 4f       	mov a, #79
  805377:	f0          	movx @dptr, a
  805378:	90 08 67    	mov dptr, #2151
  80537b:	74 2f       	mov a, #47
  80537d:	f0          	movx @dptr, a
  80537e:	90 08 68    	mov dptr, #2152
  805381:	74 63       	mov a, #99
  805383:	f0          	movx @dptr, a
  805384:	90 08 69    	mov dptr, #2153
  805387:	74 6f       	mov a, #111
  805389:	f0          	movx @dptr, a
  80538a:	90 08 6a    	mov dptr, #2154
  80538d:	74 72       	mov a, #114
  80538f:	f0          	movx @dptr, a
  805390:	90 08 6b    	mov dptr, #2155
  805393:	74 65       	mov a, #101
  805395:	f0          	movx @dptr, a
  805396:	90 08 6c    	mov dptr, #2156
  805399:	74 5f       	mov a, #95
  80539b:	f0          	movx @dptr, a
  80539c:	90 08 6d    	mov dptr, #2157
  80539f:	74 67       	mov a, #103
  8053a1:	f0          	movx @dptr, a
  8053a2:	90 08 6e    	mov dptr, #2158
  8053a5:	74 70       	mov a, #112
  8053a7:	f0          	movx @dptr, a
  8053a8:	90 08 6f    	mov dptr, #2159
  8053ab:	74 69       	mov a, #105
  8053ad:	f0          	movx @dptr, a
  8053ae:	90 08 70    	mov dptr, #2160
  8053b1:	74 6f       	mov a, #111
  8053b3:	f0          	movx @dptr, a
  8053b4:	90 08 71    	mov dptr, #2161
  8053b7:	74 2e       	mov a, #46
  8053b9:	f0          	movx @dptr, a
  8053ba:	90 08 72    	mov dptr, #2162
  8053bd:	74 63       	mov a, #99
  8053bf:	f0          	movx @dptr, a
  8053c0:	90 08 73    	mov dptr, #2163
  8053c3:	74 00       	mov a, #0
  8053c5:	f0          	movx @dptr, a
  8053c6:	90 00 8c    	mov dptr, #140
  8053c9:	74 04       	mov a, #4
  8053cb:	f0          	movx @dptr, a
  8053cc:	a3          	inc dptr
  8053cd:	74 01       	mov a, #1
  8053cf:	f0          	movx @dptr, a
  8053d0:	a3          	inc dptr
  8053d1:	74 00       	mov a, #0
  8053d3:	f0          	movx @dptr, a
  8053d4:	a3          	inc dptr
  8053d5:	74 00       	mov a, #0
  8053d7:	f0          	movx @dptr, a
  8053d8:	75 82 54    	mov dpl, #84
  8053db:	75 83 08    	mov dph, #8
  8053de:	75 f0 00    	mov b, #0
  8053e1:	12 05 f6    	lcall 8005f6 <HAL_assert_fail>
  8053e4:	02 58 3c    	ljmp 80583c <GPIO_set_output+0x7a8>
  8053e7:	8b 82       	mov dpl, r3
  8053e9:	8c 83       	mov dph, r4
  8053eb:	8d f0       	mov b, r5
  8053ed:	12 61 48    	lcall 806148 <GPIO_clear_irq+0x2c9>
  8053f0:	fe          	mov r6, a
  8053f1:	a3          	inc dptr
  8053f2:	12 61 48    	lcall 806148 <GPIO_clear_irq+0x2c9>
  8053f5:	ff          	mov r7, a
  8053f6:	74 a0       	mov a, #160
  8053f8:	25 06       	add a, 0x06
  8053fa:	fe          	mov r6, a
  8053fb:	74 00       	mov a, #0
  8053fd:	35 07       	addc a, 0x07
  8053ff:	ff          	mov r7, a
  805400:	ea          	mov a, r2
  805401:	c4          	swap a
  805402:	54 0f       	anl a, #15
  805404:	f8          	mov r0, a
  805405:	e8          	mov a, r0
  805406:	75 f0 04    	mov b, #4
  805409:	a4          	mul a, b
  80540a:	25 06       	add a, 0x06
  80540c:	fe          	mov r6, a
  80540d:	e5 07       	mov a, 0x07
  80540f:	35 f0       	addc a, b
  805411:	ff          	mov r7, a
  805412:	78 00       	mov r0, #0
  805414:	79 00       	mov r1, #0
  805416:	8e 82       	mov dpl, r6
  805418:	8f 83       	mov dph, r7
  80541a:	c0 02       	push 0x02
  80541c:	c0 06       	push 0x06
  80541e:	c0 07       	push 0x07
  805420:	12 06 92    	lcall 800692 <HW_get_16bit_reg>
  805423:	a8 82       	mov r0, dpl
  805425:	a9 83       	mov r1, dph
  805427:	d0 07       	pop 0x07
  805429:	d0 06       	pop 0x06
  80542b:	d0 02       	pop 0x02
  80542d:	c0 02       	push 0x02
  80542f:	90 08 2c    	mov dptr, #2092
  805432:	e0          	movx a, @dptr
  805433:	fa          	mov r2, a
  805434:	ba 00 04    	cjne r2, #0, 80543b
  805437:	74 01       	mov a, #1
  805439:	80 01       	sjmp 80543c
  80543b:	e4          	clr a
  80543c:	d0 02       	pop 0x02
  80543e:	70 03       	jnz 805443
  805440:	02 54 76    	ljmp 805476 <GPIO_set_output+0x3e2>
  805443:	c0 06       	push 0x06
  805445:	c0 07       	push 0x07
  805447:	74 0f       	mov a, #15
  805449:	5a          	anl a, r2
  80544a:	fe          	mov r6, a
  80544b:	8e f0       	mov b, r6
  80544d:	05 f0       	inc b
  80544f:	7e 01       	mov r6, #1
  805451:	7f 00       	mov r7, #0
  805453:	80 07       	sjmp 80545c
  805455:	ee          	mov a, r6
  805456:	25 e0       	add a, acc
  805458:	fe          	mov r6, a
  805459:	ef          	mov a, r7
  80545a:	33          	rlc a
  80545b:	ff          	mov r7, a
  80545c:	d5 f0 f6    	djnz b, 805455
  80545f:	ee          	mov a, r6
  805460:	f4          	cpl a
  805461:	fe          	mov r6, a
  805462:	ef          	mov a, r7
  805463:	f4          	cpl a
  805464:	ff          	mov r7, a
  805465:	90 08 74    	mov dptr, #2164
  805468:	ee          	mov a, r6
  805469:	58          	anl a, r0
  80546a:	f0          	movx @dptr, a
  80546b:	ef          	mov a, r7
  80546c:	59          	anl a, r1
  80546d:	a3          	inc dptr
  80546e:	f0          	movx @dptr, a
  80546f:	d0 07       	pop 0x07
  805471:	d0 06       	pop 0x06
  805473:	02 54 a0    	ljmp 8054a0 <GPIO_set_output+0x40c>
  805476:	c0 06       	push 0x06
  805478:	c0 07       	push 0x07
  80547a:	74 0f       	mov a, #15
  80547c:	5a          	anl a, r2
  80547d:	fe          	mov r6, a
  80547e:	8e f0       	mov b, r6
  805480:	05 f0       	inc b
  805482:	7e 01       	mov r6, #1
  805484:	7f 00       	mov r7, #0
  805486:	80 07       	sjmp 80548f
  805488:	ee          	mov a, r6
  805489:	25 e0       	add a, acc
  80548b:	fe          	mov r6, a
  80548c:	ef          	mov a, r7
  80548d:	33          	rlc a
  80548e:	ff          	mov r7, a
  80548f:	d5 f0 f6    	djnz b, 805488
  805492:	90 08 74    	mov dptr, #2164
  805495:	ee          	mov a, r6
  805496:	48          	orl a, r0
  805497:	f0          	movx @dptr, a
  805498:	ef          	mov a, r7
  805499:	49          	orl a, r1
  80549a:	a3          	inc dptr
  80549b:	f0          	movx @dptr, a
  80549c:	d0 07       	pop 0x07
  80549e:	d0 06       	pop 0x06
  8054a0:	90 08 74    	mov dptr, #2164
  8054a3:	e0          	movx a, @dptr
  8054a4:	f8          	mov r0, a
  8054a5:	a3          	inc dptr
  8054a6:	e0          	movx a, @dptr
  8054a7:	f9          	mov r1, a
  8054a8:	90 00 a7    	mov dptr, #167
  8054ab:	e8          	mov a, r0
  8054ac:	f0          	movx @dptr, a
  8054ad:	a3          	inc dptr
  8054ae:	e9          	mov a, r1
  8054af:	f0          	movx @dptr, a
  8054b0:	8e 82       	mov dpl, r6
  8054b2:	8f 83       	mov dph, r7
  8054b4:	c0 06       	push 0x06
  8054b6:	c0 07       	push 0x07
  8054b8:	c0 00       	push 00
  8054ba:	c0 01       	push 0x01
  8054bc:	12 06 7e    	lcall 80067e <HW_set_16bit_reg>
  8054bf:	d0 01       	pop 0x01
  8054c1:	d0 00       	pop 00
  8054c3:	d0 07       	pop 0x07
  8054c5:	d0 06       	pop 0x06
  8054c7:	8e 82       	mov dpl, r6
  8054c9:	8f 83       	mov dph, r7
  8054cb:	c0 00       	push 00
  8054cd:	c0 01       	push 0x01
  8054cf:	12 06 92    	lcall 800692 <HW_get_16bit_reg>
  8054d2:	ae 82       	mov r6, dpl
  8054d4:	af 83       	mov r7, dph
  8054d6:	d0 01       	pop 0x01
  8054d8:	d0 00       	pop 00
  8054da:	ee          	mov a, r6
  8054db:	b5 00 07    	cjne a, 00, 8054e5
  8054de:	ef          	mov a, r7
  8054df:	b5 01 03    	cjne a, 0x01, 8054e5
  8054e2:	02 58 3c    	ljmp 80583c <GPIO_set_output+0x7a8>
  8054e5:	90 08 76    	mov dptr, #2166
  8054e8:	74 2e       	mov a, #46
  8054ea:	f0          	movx @dptr, a
  8054eb:	90 08 77    	mov dptr, #2167
  8054ee:	74 2e       	mov a, #46
  8054f0:	f0          	movx @dptr, a
  8054f1:	90 08 78    	mov dptr, #2168
  8054f4:	74 2f       	mov a, #47
  8054f6:	f0          	movx @dptr, a
  8054f7:	90 08 79    	mov dptr, #2169
  8054fa:	74 64       	mov a, #100
  8054fc:	f0          	movx @dptr, a
  8054fd:	90 08 7a    	mov dptr, #2170
  805500:	74 72       	mov a, #114
  805502:	f0          	movx @dptr, a
  805503:	90 08 7b    	mov dptr, #2171
  805506:	74 69       	mov a, #105
  805508:	f0          	movx @dptr, a
  805509:	90 08 7c    	mov dptr, #2172
  80550c:	74 76       	mov a, #118
  80550e:	f0          	movx @dptr, a
  80550f:	90 08 7d    	mov dptr, #2173
  805512:	74 65       	mov a, #101
  805514:	f0          	movx @dptr, a
  805515:	90 08 7e    	mov dptr, #2174
  805518:	74 72       	mov a, #114
  80551a:	f0          	movx @dptr, a
  80551b:	90 08 7f    	mov dptr, #2175
  80551e:	74 73       	mov a, #115
  805520:	f0          	movx @dptr, a
  805521:	90 08 80    	mov dptr, #2176
  805524:	74 2f       	mov a, #47
  805526:	f0          	movx @dptr, a
  805527:	90 08 81    	mov dptr, #2177
  80552a:	74 43       	mov a, #67
  80552c:	f0          	movx @dptr, a
  80552d:	90 08 82    	mov dptr, #2178
  805530:	74 6f       	mov a, #111
  805532:	f0          	movx @dptr, a
  805533:	90 08 83    	mov dptr, #2179
  805536:	74 72       	mov a, #114
  805538:	f0          	movx @dptr, a
  805539:	90 08 84    	mov dptr, #2180
  80553c:	74 65       	mov a, #101
  80553e:	f0          	movx @dptr, a
  80553f:	90 08 85    	mov dptr, #2181
  805542:	74 47       	mov a, #71
  805544:	f0          	movx @dptr, a
  805545:	90 08 86    	mov dptr, #2182
  805548:	74 50       	mov a, #80
  80554a:	f0          	movx @dptr, a
  80554b:	90 08 87    	mov dptr, #2183
  80554e:	74 49       	mov a, #73
  805550:	f0          	movx @dptr, a
  805551:	90 08 88    	mov dptr, #2184
  805554:	74 4f       	mov a, #79
  805556:	f0          	movx @dptr, a
  805557:	90 08 89    	mov dptr, #2185
  80555a:	74 2f       	mov a, #47
  80555c:	f0          	movx @dptr, a
  80555d:	90 08 8a    	mov dptr, #2186
  805560:	74 63       	mov a, #99
  805562:	f0          	movx @dptr, a
  805563:	90 08 8b    	mov dptr, #2187
  805566:	74 6f       	mov a, #111
  805568:	f0          	movx @dptr, a
  805569:	90 08 8c    	mov dptr, #2188
  80556c:	74 72       	mov a, #114
  80556e:	f0          	movx @dptr, a
  80556f:	90 08 8d    	mov dptr, #2189
  805572:	74 65       	mov a, #101
  805574:	f0          	movx @dptr, a
  805575:	90 08 8e    	mov dptr, #2190
  805578:	74 5f       	mov a, #95
  80557a:	f0          	movx @dptr, a
  80557b:	90 08 8f    	mov dptr, #2191
  80557e:	74 67       	mov a, #103
  805580:	f0          	movx @dptr, a
  805581:	90 08 90    	mov dptr, #2192
  805584:	74 70       	mov a, #112
  805586:	f0          	movx @dptr, a
  805587:	90 08 91    	mov dptr, #2193
  80558a:	74 69       	mov a, #105
  80558c:	f0          	movx @dptr, a
  80558d:	90 08 92    	mov dptr, #2194
  805590:	74 6f       	mov a, #111
  805592:	f0          	movx @dptr, a
  805593:	90 08 93    	mov dptr, #2195
  805596:	74 2e       	mov a, #46
  805598:	f0          	movx @dptr, a
  805599:	90 08 94    	mov dptr, #2196
  80559c:	74 63       	mov a, #99
  80559e:	f0          	movx @dptr, a
  80559f:	90 08 95    	mov dptr, #2197
  8055a2:	74 00       	mov a, #0
  8055a4:	f0          	movx @dptr, a
  8055a5:	90 00 8c    	mov dptr, #140
  8055a8:	74 1f       	mov a, #31
  8055aa:	f0          	movx @dptr, a
  8055ab:	a3          	inc dptr
  8055ac:	74 01       	mov a, #1
  8055ae:	f0          	movx @dptr, a
  8055af:	a3          	inc dptr
  8055b0:	74 00       	mov a, #0
  8055b2:	f0          	movx @dptr, a
  8055b3:	a3          	inc dptr
  8055b4:	74 00       	mov a, #0
  8055b6:	f0          	movx @dptr, a
  8055b7:	75 82 76    	mov dpl, #118
  8055ba:	75 83 08    	mov dph, #8
  8055bd:	75 f0 00    	mov b, #0
  8055c0:	12 05 f6    	lcall 8005f6 <HAL_assert_fail>
  8055c3:	02 58 3c    	ljmp 80583c <GPIO_set_output+0x7a8>
  8055c6:	8b 82       	mov dpl, r3
  8055c8:	8c 83       	mov dph, r4
  8055ca:	8d f0       	mov b, r5
  8055cc:	12 61 48    	lcall 806148 <GPIO_clear_irq+0x2c9>
  8055cf:	fb          	mov r3, a
  8055d0:	a3          	inc dptr
  8055d1:	12 61 48    	lcall 806148 <GPIO_clear_irq+0x2c9>
  8055d4:	fc          	mov r4, a
  8055d5:	74 a0       	mov a, #160
  8055d7:	25 03       	add a, 0x03
  8055d9:	fb          	mov r3, a
  8055da:	74 00       	mov a, #0
  8055dc:	35 04       	addc a, 0x04
  8055de:	fc          	mov r4, a
  8055df:	ea          	mov a, r2
  8055e0:	c4          	swap a
  8055e1:	23          	rl a
  8055e2:	54 1f       	anl a, #31
  8055e4:	fd          	mov r5, a
  8055e5:	ed          	mov a, r5
  8055e6:	75 f0 04    	mov b, #4
  8055e9:	a4          	mul a, b
  8055ea:	25 03       	add a, 0x03
  8055ec:	fb          	mov r3, a
  8055ed:	e5 04       	mov a, 0x04
  8055ef:	35 f0       	addc a, b
  8055f1:	fc          	mov r4, a
  8055f2:	7d 00       	mov r5, #0
  8055f4:	7e 00       	mov r6, #0
  8055f6:	8b 82       	mov dpl, r3
  8055f8:	8c 83       	mov dph, r4
  8055fa:	c0 02       	push 0x02
  8055fc:	c0 03       	push 0x03
  8055fe:	c0 04       	push 0x04
  805600:	12 06 a7    	lcall 8006a7 <HW_get_8bit_reg>
  805603:	ad 82       	mov r5, dpl
  805605:	d0 04       	pop 0x04
  805607:	d0 03       	pop 0x03
  805609:	d0 02       	pop 0x02
  80560b:	90 08 2c    	mov dptr, #2092
  80560e:	e0          	movx a, @dptr
  80560f:	fe          	mov r6, a
  805610:	be 00 02    	cjne r6, #0, 805615
  805613:	80 03       	sjmp 805618
  805615:	02 56 35    	ljmp 805635 <GPIO_set_output+0x5a1>
  805618:	74 07       	mov a, #7
  80561a:	5a          	anl a, r2
  80561b:	f5 f0       	mov b, a
  80561d:	05 f0       	inc b
  80561f:	74 01       	mov a, #1
  805621:	80 02       	sjmp 805625
  805623:	25 e0       	add a, acc
  805625:	d5 f0 fb    	djnz b, 805623
  805628:	fe          	mov r6, a
  805629:	ee          	mov a, r6
  80562a:	f4          	cpl a
  80562b:	fe          	mov r6, a
  80562c:	90 08 96    	mov dptr, #2198
  80562f:	ee          	mov a, r6
  805630:	5d          	anl a, r5
  805631:	f0          	movx @dptr, a
  805632:	02 56 4c    	ljmp 80564c <GPIO_set_output+0x5b8>
  805635:	74 07       	mov a, #7
  805637:	5a          	anl a, r2
  805638:	f5 f0       	mov b, a
  80563a:	05 f0       	inc b
  80563c:	74 01       	mov a, #1
  80563e:	80 02       	sjmp 805642
  805640:	25 e0       	add a, acc
  805642:	d5 f0 fb    	djnz b, 805640
  805645:	fa          	mov r2, a
  805646:	90 08 96    	mov dptr, #2198
  805649:	ea          	mov a, r2
  80564a:	4d          	orl a, r5
  80564b:	f0          	movx @dptr, a
  80564c:	90 08 96    	mov dptr, #2198
  80564f:	e0          	movx a, @dptr
  805650:	fa          	mov r2, a
  805651:	90 00 a9    	mov dptr, #169
  805654:	ea          	mov a, r2
  805655:	f0          	movx @dptr, a
  805656:	8b 82       	mov dpl, r3
  805658:	8c 83       	mov dph, r4
  80565a:	c0 02       	push 0x02
  80565c:	c0 03       	push 0x03
  80565e:	c0 04       	push 0x04
  805660:	12 06 99    	lcall 800699 <HW_set_8bit_reg>
  805663:	d0 04       	pop 0x04
  805665:	d0 03       	pop 0x03
  805667:	d0 02       	pop 0x02
  805669:	8b 82       	mov dpl, r3
  80566b:	8c 83       	mov dph, r4
  80566d:	c0 02       	push 0x02
  80566f:	12 06 a7    	lcall 8006a7 <HW_get_8bit_reg>
  805672:	ab 82       	mov r3, dpl
  805674:	d0 02       	pop 0x02
  805676:	eb          	mov a, r3
  805677:	b5 02 03    	cjne a, 0x02, 80567d
  80567a:	02 58 3c    	ljmp 80583c <GPIO_set_output+0x7a8>
  80567d:	90 08 97    	mov dptr, #2199
  805680:	74 2e       	mov a, #46
  805682:	f0          	movx @dptr, a
  805683:	90 08 98    	mov dptr, #2200
  805686:	74 2e       	mov a, #46
  805688:	f0          	movx @dptr, a
  805689:	90 08 99    	mov dptr, #2201
  80568c:	74 2f       	mov a, #47
  80568e:	f0          	movx @dptr, a
  80568f:	90 08 9a    	mov dptr, #2202
  805692:	74 64       	mov a, #100
  805694:	f0          	movx @dptr, a
  805695:	90 08 9b    	mov dptr, #2203
  805698:	74 72       	mov a, #114
  80569a:	f0          	movx @dptr, a
  80569b:	90 08 9c    	mov dptr, #2204
  80569e:	74 69       	mov a, #105
  8056a0:	f0          	movx @dptr, a
  8056a1:	90 08 9d    	mov dptr, #2205
  8056a4:	74 76       	mov a, #118
  8056a6:	f0          	movx @dptr, a
  8056a7:	90 08 9e    	mov dptr, #2206
  8056aa:	74 65       	mov a, #101
  8056ac:	f0          	movx @dptr, a
  8056ad:	90 08 9f    	mov dptr, #2207
  8056b0:	74 72       	mov a, #114
  8056b2:	f0          	movx @dptr, a
  8056b3:	90 08 a0    	mov dptr, #2208
  8056b6:	74 73       	mov a, #115
  8056b8:	f0          	movx @dptr, a
  8056b9:	90 08 a1    	mov dptr, #2209
  8056bc:	74 2f       	mov a, #47
  8056be:	f0          	movx @dptr, a
  8056bf:	90 08 a2    	mov dptr, #2210
  8056c2:	74 43       	mov a, #67
  8056c4:	f0          	movx @dptr, a
  8056c5:	90 08 a3    	mov dptr, #2211
  8056c8:	74 6f       	mov a, #111
  8056ca:	f0          	movx @dptr, a
  8056cb:	90 08 a4    	mov dptr, #2212
  8056ce:	74 72       	mov a, #114
  8056d0:	f0          	movx @dptr, a
  8056d1:	90 08 a5    	mov dptr, #2213
  8056d4:	74 65       	mov a, #101
  8056d6:	f0          	movx @dptr, a
  8056d7:	90 08 a6    	mov dptr, #2214
  8056da:	74 47       	mov a, #71
  8056dc:	f0          	movx @dptr, a
  8056dd:	90 08 a7    	mov dptr, #2215
  8056e0:	74 50       	mov a, #80
  8056e2:	f0          	movx @dptr, a
  8056e3:	90 08 a8    	mov dptr, #2216
  8056e6:	74 49       	mov a, #73
  8056e8:	f0          	movx @dptr, a
  8056e9:	90 08 a9    	mov dptr, #2217
  8056ec:	74 4f       	mov a, #79
  8056ee:	f0          	movx @dptr, a
  8056ef:	90 08 aa    	mov dptr, #2218
  8056f2:	74 2f       	mov a, #47
  8056f4:	f0          	movx @dptr, a
  8056f5:	90 08 ab    	mov dptr, #2219
  8056f8:	74 63       	mov a, #99
  8056fa:	f0          	movx @dptr, a
  8056fb:	90 08 ac    	mov dptr, #2220
  8056fe:	74 6f       	mov a, #111
  805700:	f0          	movx @dptr, a
  805701:	90 08 ad    	mov dptr, #2221
  805704:	74 72       	mov a, #114
  805706:	f0          	movx @dptr, a
  805707:	90 08 ae    	mov dptr, #2222
  80570a:	74 65       	mov a, #101
  80570c:	f0          	movx @dptr, a
  80570d:	90 08 af    	mov dptr, #2223
  805710:	74 5f       	mov a, #95
  805712:	f0          	movx @dptr, a
  805713:	90 08 b0    	mov dptr, #2224
  805716:	74 67       	mov a, #103
  805718:	f0          	movx @dptr, a
  805719:	90 08 b1    	mov dptr, #2225
  80571c:	74 70       	mov a, #112
  80571e:	f0          	movx @dptr, a
  80571f:	90 08 b2    	mov dptr, #2226
  805722:	74 69       	mov a, #105
  805724:	f0          	movx @dptr, a
  805725:	90 08 b3    	mov dptr, #2227
  805728:	74 6f       	mov a, #111
  80572a:	f0          	movx @dptr, a
  80572b:	90 08 b4    	mov dptr, #2228
  80572e:	74 2e       	mov a, #46
  805730:	f0          	movx @dptr, a
  805731:	90 08 b5    	mov dptr, #2229
  805734:	74 63       	mov a, #99
  805736:	f0          	movx @dptr, a
  805737:	90 08 b6    	mov dptr, #2230
  80573a:	74 00       	mov a, #0
  80573c:	f0          	movx @dptr, a
  80573d:	90 00 8c    	mov dptr, #140
  805740:	74 3a       	mov a, #58
  805742:	f0          	movx @dptr, a
  805743:	a3          	inc dptr
  805744:	74 01       	mov a, #1
  805746:	f0          	movx @dptr, a
  805747:	a3          	inc dptr
  805748:	74 00       	mov a, #0
  80574a:	f0          	movx @dptr, a
  80574b:	a3          	inc dptr
  80574c:	74 00       	mov a, #0
  80574e:	f0          	movx @dptr, a
  80574f:	75 82 97    	mov dpl, #151
  805752:	75 83 08    	mov dph, #8
  805755:	75 f0 00    	mov b, #0
  805758:	12 05 f6    	lcall 8005f6 <HAL_assert_fail>
  80575b:	02 58 3c    	ljmp 80583c <GPIO_set_output+0x7a8>
  80575e:	90 08 b7    	mov dptr, #2231
  805761:	74 2e       	mov a, #46
  805763:	f0          	movx @dptr, a
  805764:	90 08 b8    	mov dptr, #2232
  805767:	74 2e       	mov a, #46
  805769:	f0          	movx @dptr, a
  80576a:	90 08 b9    	mov dptr, #2233
  80576d:	74 2f       	mov a, #47
  80576f:	f0          	movx @dptr, a
  805770:	90 08 ba    	mov dptr, #2234
  805773:	74 64       	mov a, #100
  805775:	f0          	movx @dptr, a
  805776:	90 08 bb    	mov dptr, #2235
  805779:	74 72       	mov a, #114
  80577b:	f0          	movx @dptr, a
  80577c:	90 08 bc    	mov dptr, #2236
  80577f:	74 69       	mov a, #105
  805781:	f0          	movx @dptr, a
  805782:	90 08 bd    	mov dptr, #2237
  805785:	74 76       	mov a, #118
  805787:	f0          	movx @dptr, a
  805788:	90 08 be    	mov dptr, #2238
  80578b:	74 65       	mov a, #101
  80578d:	f0          	movx @dptr, a
  80578e:	90 08 bf    	mov dptr, #2239
  805791:	74 72       	mov a, #114
  805793:	f0          	movx @dptr, a
  805794:	90 08 c0    	mov dptr, #2240
  805797:	74 73       	mov a, #115
  805799:	f0          	movx @dptr, a
  80579a:	90 08 c1    	mov dptr, #2241
  80579d:	74 2f       	mov a, #47
  80579f:	f0          	movx @dptr, a
  8057a0:	90 08 c2    	mov dptr, #2242
  8057a3:	74 43       	mov a, #67
  8057a5:	f0          	movx @dptr, a
  8057a6:	90 08 c3    	mov dptr, #2243
  8057a9:	74 6f       	mov a, #111
  8057ab:	f0          	movx @dptr, a
  8057ac:	90 08 c4    	mov dptr, #2244
  8057af:	74 72       	mov a, #114
  8057b1:	f0          	movx @dptr, a
  8057b2:	90 08 c5    	mov dptr, #2245
  8057b5:	74 65       	mov a, #101
  8057b7:	f0          	movx @dptr, a
  8057b8:	90 08 c6    	mov dptr, #2246
  8057bb:	74 47       	mov a, #71
  8057bd:	f0          	movx @dptr, a
  8057be:	90 08 c7    	mov dptr, #2247
  8057c1:	74 50       	mov a, #80
  8057c3:	f0          	movx @dptr, a
  8057c4:	90 08 c8    	mov dptr, #2248
  8057c7:	74 49       	mov a, #73
  8057c9:	f0          	movx @dptr, a
  8057ca:	90 08 c9    	mov dptr, #2249
  8057cd:	74 4f       	mov a, #79
  8057cf:	f0          	movx @dptr, a
  8057d0:	90 08 ca    	mov dptr, #2250
  8057d3:	74 2f       	mov a, #47
  8057d5:	f0          	movx @dptr, a
  8057d6:	90 08 cb    	mov dptr, #2251
  8057d9:	74 63       	mov a, #99
  8057db:	f0          	movx @dptr, a
  8057dc:	90 08 cc    	mov dptr, #2252
  8057df:	74 6f       	mov a, #111
  8057e1:	f0          	movx @dptr, a
  8057e2:	90 08 cd    	mov dptr, #2253
  8057e5:	74 72       	mov a, #114
  8057e7:	f0          	movx @dptr, a
  8057e8:	90 08 ce    	mov dptr, #2254
  8057eb:	74 65       	mov a, #101
  8057ed:	f0          	movx @dptr, a
  8057ee:	90 08 cf    	mov dptr, #2255
  8057f1:	74 5f       	mov a, #95
  8057f3:	f0          	movx @dptr, a
  8057f4:	90 08 d0    	mov dptr, #2256
  8057f7:	74 67       	mov a, #103
  8057f9:	f0          	movx @dptr, a
  8057fa:	90 08 d1    	mov dptr, #2257
  8057fd:	74 70       	mov a, #112
  8057ff:	f0          	movx @dptr, a
  805800:	90 08 d2    	mov dptr, #2258
  805803:	74 69       	mov a, #105
  805805:	f0          	movx @dptr, a
  805806:	90 08 d3    	mov dptr, #2259
  805809:	74 6f       	mov a, #111
  80580b:	f0          	movx @dptr, a
  80580c:	90 08 d4    	mov dptr, #2260
  80580f:	74 2e       	mov a, #46
  805811:	f0          	movx @dptr, a
  805812:	90 08 d5    	mov dptr, #2261
  805815:	74 63       	mov a, #99
  805817:	f0          	movx @dptr, a
  805818:	90 08 d6    	mov dptr, #2262
  80581b:	74 00       	mov a, #0
  80581d:	f0          	movx @dptr, a
  80581e:	90 00 8c    	mov dptr, #140
  805821:	74 3f       	mov a, #63
  805823:	f0          	movx @dptr, a
  805824:	a3          	inc dptr
  805825:	74 01       	mov a, #1
  805827:	f0          	movx @dptr, a
  805828:	a3          	inc dptr
  805829:	74 00       	mov a, #0
  80582b:	f0          	movx @dptr, a
  80582c:	a3          	inc dptr
  80582d:	74 00       	mov a, #0
  80582f:	f0          	movx @dptr, a
  805830:	75 82 b7    	mov dpl, #183
  805833:	75 83 08    	mov dph, #8
  805836:	75 f0 00    	mov b, #0
  805839:	12 05 f6    	lcall 8005f6 <HAL_assert_fail>
  80583c:	22          	ret

0080583d <GPIO_drive_inout>:
  80583d:	aa f0       	mov r2, b
  80583f:	ab 83       	mov r3, dph
  805841:	e5 82       	mov a, dpl
  805843:	90 08 d9    	mov dptr, #2265
  805846:	f0          	movx @dptr, a
  805847:	a3          	inc dptr
  805848:	eb          	mov a, r3
  805849:	f0          	movx @dptr, a
  80584a:	a3          	inc dptr
  80584b:	ea          	mov a, r2
  80584c:	f0          	movx @dptr, a
  80584d:	90 08 d7    	mov dptr, #2263
  805850:	e0          	movx a, @dptr
  805851:	fa          	mov r2, a
  805852:	ba 20 00    	cjne r2, #32, 805855
  805855:	50 03       	jnc 80585a
  805857:	02 59 3c    	ljmp 80593c <GPIO_drive_inout+0xff>
  80585a:	90 08 dc    	mov dptr, #2268
  80585d:	74 2e       	mov a, #46
  80585f:	f0          	movx @dptr, a
  805860:	90 08 dd    	mov dptr, #2269
  805863:	74 2e       	mov a, #46
  805865:	f0          	movx @dptr, a
  805866:	90 08 de    	mov dptr, #2270
  805869:	74 2f       	mov a, #47
  80586b:	f0          	movx @dptr, a
  80586c:	90 08 df    	mov dptr, #2271
  80586f:	74 64       	mov a, #100
  805871:	f0          	movx @dptr, a
  805872:	90 08 e0    	mov dptr, #2272
  805875:	74 72       	mov a, #114
  805877:	f0          	movx @dptr, a
  805878:	90 08 e1    	mov dptr, #2273
  80587b:	74 69       	mov a, #105
  80587d:	f0          	movx @dptr, a
  80587e:	90 08 e2    	mov dptr, #2274
  805881:	74 76       	mov a, #118
  805883:	f0          	movx @dptr, a
  805884:	90 08 e3    	mov dptr, #2275
  805887:	74 65       	mov a, #101
  805889:	f0          	movx @dptr, a
  80588a:	90 08 e4    	mov dptr, #2276
  80588d:	74 72       	mov a, #114
  80588f:	f0          	movx @dptr, a
  805890:	90 08 e5    	mov dptr, #2277
  805893:	74 73       	mov a, #115
  805895:	f0          	movx @dptr, a
  805896:	90 08 e6    	mov dptr, #2278
  805899:	74 2f       	mov a, #47
  80589b:	f0          	movx @dptr, a
  80589c:	90 08 e7    	mov dptr, #2279
  80589f:	74 43       	mov a, #67
  8058a1:	f0          	movx @dptr, a
  8058a2:	90 08 e8    	mov dptr, #2280
  8058a5:	74 6f       	mov a, #111
  8058a7:	f0          	movx @dptr, a
  8058a8:	90 08 e9    	mov dptr, #2281
  8058ab:	74 72       	mov a, #114
  8058ad:	f0          	movx @dptr, a
  8058ae:	90 08 ea    	mov dptr, #2282
  8058b1:	74 65       	mov a, #101
  8058b3:	f0          	movx @dptr, a
  8058b4:	90 08 eb    	mov dptr, #2283
  8058b7:	74 47       	mov a, #71
  8058b9:	f0          	movx @dptr, a
  8058ba:	90 08 ec    	mov dptr, #2284
  8058bd:	74 50       	mov a, #80
  8058bf:	f0          	movx @dptr, a
  8058c0:	90 08 ed    	mov dptr, #2285
  8058c3:	74 49       	mov a, #73
  8058c5:	f0          	movx @dptr, a
  8058c6:	90 08 ee    	mov dptr, #2286
  8058c9:	74 4f       	mov a, #79
  8058cb:	f0          	movx @dptr, a
  8058cc:	90 08 ef    	mov dptr, #2287
  8058cf:	74 2f       	mov a, #47
  8058d1:	f0          	movx @dptr, a
  8058d2:	90 08 f0    	mov dptr, #2288
  8058d5:	74 63       	mov a, #99
  8058d7:	f0          	movx @dptr, a
  8058d8:	90 08 f1    	mov dptr, #2289
  8058db:	74 6f       	mov a, #111
  8058dd:	f0          	movx @dptr, a
  8058de:	90 08 f2    	mov dptr, #2290
  8058e1:	74 72       	mov a, #114
  8058e3:	f0          	movx @dptr, a
  8058e4:	90 08 f3    	mov dptr, #2291
  8058e7:	74 65       	mov a, #101
  8058e9:	f0          	movx @dptr, a
  8058ea:	90 08 f4    	mov dptr, #2292
  8058ed:	74 5f       	mov a, #95
  8058ef:	f0          	movx @dptr, a
  8058f0:	90 08 f5    	mov dptr, #2293
  8058f3:	74 67       	mov a, #103
  8058f5:	f0          	movx @dptr, a
  8058f6:	90 08 f6    	mov dptr, #2294
  8058f9:	74 70       	mov a, #112
  8058fb:	f0          	movx @dptr, a
  8058fc:	90 08 f7    	mov dptr, #2295
  8058ff:	74 69       	mov a, #105
  805901:	f0          	movx @dptr, a
  805902:	90 08 f8    	mov dptr, #2296
  805905:	74 6f       	mov a, #111
  805907:	f0          	movx @dptr, a
  805908:	90 08 f9    	mov dptr, #2297
  80590b:	74 2e       	mov a, #46
  80590d:	f0          	movx @dptr, a
  80590e:	90 08 fa    	mov dptr, #2298
  805911:	74 63       	mov a, #99
  805913:	f0          	movx @dptr, a
  805914:	90 08 fb    	mov dptr, #2299
  805917:	74 00       	mov a, #0
  805919:	f0          	movx @dptr, a
  80591a:	90 00 8c    	mov dptr, #140
  80591d:	74 52       	mov a, #82
  80591f:	f0          	movx @dptr, a
  805920:	a3          	inc dptr
  805921:	74 01       	mov a, #1
  805923:	f0          	movx @dptr, a
  805924:	a3          	inc dptr
  805925:	74 00       	mov a, #0
  805927:	f0          	movx @dptr, a
  805928:	a3          	inc dptr
  805929:	74 00       	mov a, #0
  80592b:	f0          	movx @dptr, a
  80592c:	75 82 dc    	mov dpl, #220
  80592f:	75 83 08    	mov dph, #8
  805932:	75 f0 00    	mov b, #0
  805935:	c0 02       	push 0x02
  805937:	12 05 f6    	lcall 8005f6 <HAL_assert_fail>
  80593a:	d0 02       	pop 0x02
  80593c:	90 08 d8    	mov dptr, #2264
  80593f:	e0          	movx a, @dptr
  805940:	fb          	mov r3, a
  805941:	bb 00 03    	cjne r3, #0, 805947
  805944:	02 59 cd    	ljmp 8059cd <GPIO_drive_inout+0x190>
  805947:	bb 01 03    	cjne r3, #1, 80594d
  80594a:	02 59 56    	ljmp 805956 <GPIO_drive_inout+0x119>
  80594d:	bb 02 03    	cjne r3, #2, 805953
  805950:	02 5a 44    	ljmp 805a44 <GPIO_drive_inout+0x207>
  805953:	02 5a 98    	ljmp 805a98 <GPIO_drive_inout+0x25b>
  805956:	90 08 d9    	mov dptr, #2265
  805959:	e0          	movx a, @dptr
  80595a:	fb          	mov r3, a
  80595b:	a3          	inc dptr
  80595c:	e0          	movx a, @dptr
  80595d:	fc          	mov r4, a
  80595e:	a3          	inc dptr
  80595f:	e0          	movx a, @dptr
  805960:	fd          	mov r5, a
  805961:	90 08 2b    	mov dptr, #2091
  805964:	ea          	mov a, r2
  805965:	f0          	movx @dptr, a
  805966:	90 08 2c    	mov dptr, #2092
  805969:	74 01       	mov a, #1
  80596b:	f0          	movx @dptr, a
  80596c:	8b 82       	mov dpl, r3
  80596e:	8c 83       	mov dph, r4
  805970:	8d f0       	mov b, r5
  805972:	c0 02       	push 0x02
  805974:	12 50 94    	lcall 805094 <GPIO_set_output>
  805977:	d0 02       	pop 0x02
  805979:	90 08 d9    	mov dptr, #2265
  80597c:	e0          	movx a, @dptr
  80597d:	fb          	mov r3, a
  80597e:	a3          	inc dptr
  80597f:	e0          	movx a, @dptr
  805980:	fc          	mov r4, a
  805981:	a3          	inc dptr
  805982:	e0          	movx a, @dptr
  805983:	fd          	mov r5, a
  805984:	8b 82       	mov dpl, r3
  805986:	8c 83       	mov dph, r4
  805988:	8d f0       	mov b, r5
  80598a:	12 61 48    	lcall 806148 <GPIO_clear_irq+0x2c9>
  80598d:	fb          	mov r3, a
  80598e:	a3          	inc dptr
  80598f:	12 61 48    	lcall 806148 <GPIO_clear_irq+0x2c9>
  805992:	fc          	mov r4, a
  805993:	ea          	mov a, r2
  805994:	75 f0 04    	mov b, #4
  805997:	a4          	mul a, b
  805998:	25 03       	add a, 0x03
  80599a:	fb          	mov r3, a
  80599b:	e5 04       	mov a, 0x04
  80599d:	35 f0       	addc a, b
  80599f:	fc          	mov r4, a
  8059a0:	7d 00       	mov r5, #0
  8059a2:	7e 00       	mov r6, #0
  8059a4:	8b 82       	mov dpl, r3
  8059a6:	8c 83       	mov dph, r4
  8059a8:	c0 03       	push 0x03
  8059aa:	c0 04       	push 0x04
  8059ac:	12 06 a7    	lcall 8006a7 <HW_get_8bit_reg>
  8059af:	ad 82       	mov r5, dpl
  8059b1:	d0 04       	pop 0x04
  8059b3:	d0 03       	pop 0x03
  8059b5:	7e 00       	mov r6, #0
  8059b7:	7f 00       	mov r7, #0
  8059b9:	78 00       	mov r0, #0
  8059bb:	43 05 04    	orl 0x05, #4
  8059be:	90 00 a9    	mov dptr, #169
  8059c1:	ed          	mov a, r5
  8059c2:	f0          	movx @dptr, a
  8059c3:	8b 82       	mov dpl, r3
  8059c5:	8c 83       	mov dph, r4
  8059c7:	12 06 99    	lcall 800699 <HW_set_8bit_reg>
  8059ca:	02 5b 76    	ljmp 805b76 <GPIO_drive_inout+0x339>
  8059cd:	90 08 d9    	mov dptr, #2265
  8059d0:	e0          	movx a, @dptr
  8059d1:	fb          	mov r3, a
  8059d2:	a3          	inc dptr
  8059d3:	e0          	movx a, @dptr
  8059d4:	fc          	mov r4, a
  8059d5:	a3          	inc dptr
  8059d6:	e0          	movx a, @dptr
  8059d7:	fd          	mov r5, a
  8059d8:	90 08 2b    	mov dptr, #2091
  8059db:	ea          	mov a, r2
  8059dc:	f0          	movx @dptr, a
  8059dd:	90 08 2c    	mov dptr, #2092
  8059e0:	74 00       	mov a, #0
  8059e2:	f0          	movx @dptr, a
  8059e3:	8b 82       	mov dpl, r3
  8059e5:	8c 83       	mov dph, r4
  8059e7:	8d f0       	mov b, r5
  8059e9:	c0 02       	push 0x02
  8059eb:	12 50 94    	lcall 805094 <GPIO_set_output>
  8059ee:	d0 02       	pop 0x02
  8059f0:	90 08 d9    	mov dptr, #2265
  8059f3:	e0          	movx a, @dptr
  8059f4:	fb          	mov r3, a
  8059f5:	a3          	inc dptr
  8059f6:	e0          	movx a, @dptr
  8059f7:	fc          	mov r4, a
  8059f8:	a3          	inc dptr
  8059f9:	e0          	movx a, @dptr
  8059fa:	fd          	mov r5, a
  8059fb:	8b 82       	mov dpl, r3
  8059fd:	8c 83       	mov dph, r4
  8059ff:	8d f0       	mov b, r5
  805a01:	12 61 48    	lcall 806148 <GPIO_clear_irq+0x2c9>
  805a04:	fb          	mov r3, a
  805a05:	a3          	inc dptr
  805a06:	12 61 48    	lcall 806148 <GPIO_clear_irq+0x2c9>
  805a09:	fc          	mov r4, a
  805a0a:	ea          	mov a, r2
  805a0b:	75 f0 04    	mov b, #4
  805a0e:	a4          	mul a, b
  805a0f:	25 03       	add a, 0x03
  805a11:	fb          	mov r3, a
  805a12:	e5 04       	mov a, 0x04
  805a14:	35 f0       	addc a, b
  805a16:	fc          	mov r4, a
  805a17:	7d 00       	mov r5, #0
  805a19:	7e 00       	mov r6, #0
  805a1b:	8b 82       	mov dpl, r3
  805a1d:	8c 83       	mov dph, r4
  805a1f:	c0 03       	push 0x03
  805a21:	c0 04       	push 0x04
  805a23:	12 06 a7    	lcall 8006a7 <HW_get_8bit_reg>
  805a26:	ad 82       	mov r5, dpl
  805a28:	d0 04       	pop 0x04
  805a2a:	d0 03       	pop 0x03
  805a2c:	7e 00       	mov r6, #0
  805a2e:	7f 00       	mov r7, #0
  805a30:	78 00       	mov r0, #0
  805a32:	43 05 04    	orl 0x05, #4
  805a35:	90 00 a9    	mov dptr, #169
  805a38:	ed          	mov a, r5
  805a39:	f0          	movx @dptr, a
  805a3a:	8b 82       	mov dpl, r3
  805a3c:	8c 83       	mov dph, r4
  805a3e:	12 06 99    	lcall 800699 <HW_set_8bit_reg>
  805a41:	02 5b 76    	ljmp 805b76 <GPIO_drive_inout+0x339>
  805a44:	90 08 d9    	mov dptr, #2265
  805a47:	e0          	movx a, @dptr
  805a48:	fb          	mov r3, a
  805a49:	a3          	inc dptr
  805a4a:	e0          	movx a, @dptr
  805a4b:	fc          	mov r4, a
  805a4c:	a3          	inc dptr
  805a4d:	e0          	movx a, @dptr
  805a4e:	fd          	mov r5, a
  805a4f:	8b 82       	mov dpl, r3
  805a51:	8c 83       	mov dph, r4
  805a53:	8d f0       	mov b, r5
  805a55:	12 61 48    	lcall 806148 <GPIO_clear_irq+0x2c9>
  805a58:	fb          	mov r3, a
  805a59:	a3          	inc dptr
  805a5a:	12 61 48    	lcall 806148 <GPIO_clear_irq+0x2c9>
  805a5d:	fc          	mov r4, a
  805a5e:	ea          	mov a, r2
  805a5f:	75 f0 04    	mov b, #4
  805a62:	a4          	mul a, b
  805a63:	25 03       	add a, 0x03
  805a65:	fb          	mov r3, a
  805a66:	e5 04       	mov a, 0x04
  805a68:	35 f0       	addc a, b
  805a6a:	fc          	mov r4, a
  805a6b:	7a 00       	mov r2, #0
  805a6d:	7d 00       	mov r5, #0
  805a6f:	8b 82       	mov dpl, r3
  805a71:	8c 83       	mov dph, r4
  805a73:	c0 03       	push 0x03
  805a75:	c0 04       	push 0x04
  805a77:	12 06 a7    	lcall 8006a7 <HW_get_8bit_reg>
  805a7a:	aa 82       	mov r2, dpl
  805a7c:	d0 04       	pop 0x04
  805a7e:	d0 03       	pop 0x03
  805a80:	7d 00       	mov r5, #0
  805a82:	7e 00       	mov r6, #0
  805a84:	7f 00       	mov r7, #0
  805a86:	53 02 fb    	anl 0x02, #251
  805a89:	90 00 a9    	mov dptr, #169
  805a8c:	ea          	mov a, r2
  805a8d:	f0          	movx @dptr, a
  805a8e:	8b 82       	mov dpl, r3
  805a90:	8c 83       	mov dph, r4
  805a92:	12 06 99    	lcall 800699 <HW_set_8bit_reg>
  805a95:	02 5b 76    	ljmp 805b76 <GPIO_drive_inout+0x339>
  805a98:	90 08 fc    	mov dptr, #2300
  805a9b:	74 2e       	mov a, #46
  805a9d:	f0          	movx @dptr, a
  805a9e:	90 08 fd    	mov dptr, #2301
  805aa1:	74 2e       	mov a, #46
  805aa3:	f0          	movx @dptr, a
  805aa4:	90 08 fe    	mov dptr, #2302
  805aa7:	74 2f       	mov a, #47
  805aa9:	f0          	movx @dptr, a
  805aaa:	90 08 ff    	mov dptr, #2303
  805aad:	74 64       	mov a, #100
  805aaf:	f0          	movx @dptr, a
  805ab0:	90 09 00    	mov dptr, #2304
  805ab3:	74 72       	mov a, #114
  805ab5:	f0          	movx @dptr, a
  805ab6:	90 09 01    	mov dptr, #2305
  805ab9:	74 69       	mov a, #105
  805abb:	f0          	movx @dptr, a
  805abc:	90 09 02    	mov dptr, #2306
  805abf:	74 76       	mov a, #118
  805ac1:	f0          	movx @dptr, a
  805ac2:	90 09 03    	mov dptr, #2307
  805ac5:	74 65       	mov a, #101
  805ac7:	f0          	movx @dptr, a
  805ac8:	90 09 04    	mov dptr, #2308
  805acb:	74 72       	mov a, #114
  805acd:	f0          	movx @dptr, a
  805ace:	90 09 05    	mov dptr, #2309
  805ad1:	74 73       	mov a, #115
  805ad3:	f0          	movx @dptr, a
  805ad4:	90 09 06    	mov dptr, #2310
  805ad7:	74 2f       	mov a, #47
  805ad9:	f0          	movx @dptr, a
  805ada:	90 09 07    	mov dptr, #2311
  805add:	74 43       	mov a, #67
  805adf:	f0          	movx @dptr, a
  805ae0:	90 09 08    	mov dptr, #2312
  805ae3:	74 6f       	mov a, #111
  805ae5:	f0          	movx @dptr, a
  805ae6:	90 09 09    	mov dptr, #2313
  805ae9:	74 72       	mov a, #114
  805aeb:	f0          	movx @dptr, a
  805aec:	90 09 0a    	mov dptr, #2314
  805aef:	74 65       	mov a, #101
  805af1:	f0          	movx @dptr, a
  805af2:	90 09 0b    	mov dptr, #2315
  805af5:	74 47       	mov a, #71
  805af7:	f0          	movx @dptr, a
  805af8:	90 09 0c    	mov dptr, #2316
  805afb:	74 50       	mov a, #80
  805afd:	f0          	movx @dptr, a
  805afe:	90 09 0d    	mov dptr, #2317
  805b01:	74 49       	mov a, #73
  805b03:	f0          	movx @dptr, a
  805b04:	90 09 0e    	mov dptr, #2318
  805b07:	74 4f       	mov a, #79
  805b09:	f0          	movx @dptr, a
  805b0a:	90 09 0f    	mov dptr, #2319
  805b0d:	74 2f       	mov a, #47
  805b0f:	f0          	movx @dptr, a
  805b10:	90 09 10    	mov dptr, #2320
  805b13:	74 63       	mov a, #99
  805b15:	f0          	movx @dptr, a
  805b16:	90 09 11    	mov dptr, #2321
  805b19:	74 6f       	mov a, #111
  805b1b:	f0          	movx @dptr, a
  805b1c:	90 09 12    	mov dptr, #2322
  805b1f:	74 72       	mov a, #114
  805b21:	f0          	movx @dptr, a
  805b22:	90 09 13    	mov dptr, #2323
  805b25:	74 65       	mov a, #101
  805b27:	f0          	movx @dptr, a
  805b28:	90 09 14    	mov dptr, #2324
  805b2b:	74 5f       	mov a, #95
  805b2d:	f0          	movx @dptr, a
  805b2e:	90 09 15    	mov dptr, #2325
  805b31:	74 67       	mov a, #103
  805b33:	f0          	movx @dptr, a
  805b34:	90 09 16    	mov dptr, #2326
  805b37:	74 70       	mov a, #112
  805b39:	f0          	movx @dptr, a
  805b3a:	90 09 17    	mov dptr, #2327
  805b3d:	74 69       	mov a, #105
  805b3f:	f0          	movx @dptr, a
  805b40:	90 09 18    	mov dptr, #2328
  805b43:	74 6f       	mov a, #111
  805b45:	f0          	movx @dptr, a
  805b46:	90 09 19    	mov dptr, #2329
  805b49:	74 2e       	mov a, #46
  805b4b:	f0          	movx @dptr, a
  805b4c:	90 09 1a    	mov dptr, #2330
  805b4f:	74 63       	mov a, #99
  805b51:	f0          	movx @dptr, a
  805b52:	90 09 1b    	mov dptr, #2331
  805b55:	74 00       	mov a, #0
  805b57:	f0          	movx @dptr, a
  805b58:	90 00 8c    	mov dptr, #140
  805b5b:	74 75       	mov a, #117
  805b5d:	f0          	movx @dptr, a
  805b5e:	a3          	inc dptr
  805b5f:	74 01       	mov a, #1
  805b61:	f0          	movx @dptr, a
  805b62:	a3          	inc dptr
  805b63:	74 00       	mov a, #0
  805b65:	f0          	movx @dptr, a
  805b66:	a3          	inc dptr
  805b67:	74 00       	mov a, #0
  805b69:	f0          	movx @dptr, a
  805b6a:	75 82 fc    	mov dpl, #252
  805b6d:	75 83 08    	mov dph, #8
  805b70:	75 f0 00    	mov b, #0
  805b73:	12 05 f6    	lcall 8005f6 <HAL_assert_fail>
  805b76:	22          	ret

00805b77 <GPIO_enable_irq>:
  805b77:	aa f0       	mov r2, b
  805b79:	ab 83       	mov r3, dph
  805b7b:	e5 82       	mov a, dpl
  805b7d:	90 09 1d    	mov dptr, #2333
  805b80:	f0          	movx @dptr, a
  805b81:	a3          	inc dptr
  805b82:	eb          	mov a, r3
  805b83:	f0          	movx @dptr, a
  805b84:	a3          	inc dptr
  805b85:	ea          	mov a, r2
  805b86:	f0          	movx @dptr, a
  805b87:	90 09 1d    	mov dptr, #2333
  805b8a:	e0          	movx a, @dptr
  805b8b:	fa          	mov r2, a
  805b8c:	a3          	inc dptr
  805b8d:	e0          	movx a, @dptr
  805b8e:	fb          	mov r3, a
  805b8f:	a3          	inc dptr
  805b90:	e0          	movx a, @dptr
  805b91:	fc          	mov r4, a
  805b92:	8a 82       	mov dpl, r2
  805b94:	8b 83       	mov dph, r3
  805b96:	8c f0       	mov b, r4
  805b98:	12 61 48    	lcall 806148 <GPIO_clear_irq+0x2c9>
  805b9b:	fa          	mov r2, a
  805b9c:	a3          	inc dptr
  805b9d:	12 61 48    	lcall 806148 <GPIO_clear_irq+0x2c9>
  805ba0:	fb          	mov r3, a
  805ba1:	7c 00       	mov r4, #0
  805ba3:	7d 00       	mov r5, #0
  805ba5:	90 09 1c    	mov dptr, #2332
  805ba8:	e0          	movx a, @dptr
  805ba9:	fe          	mov r6, a
  805baa:	be 20 00    	cjne r6, #32, 805bad
  805bad:	e4          	clr a
  805bae:	33          	rlc a
  805baf:	ff          	mov r7, a
  805bb0:	ef          	mov a, r7
  805bb1:	60 03       	jz 805bb6
  805bb3:	02 5c ac    	ljmp 805cac <GPIO_enable_irq+0x135>
  805bb6:	90 09 20    	mov dptr, #2336
  805bb9:	74 2e       	mov a, #46
  805bbb:	f0          	movx @dptr, a
  805bbc:	90 09 21    	mov dptr, #2337
  805bbf:	74 2e       	mov a, #46
  805bc1:	f0          	movx @dptr, a
  805bc2:	90 09 22    	mov dptr, #2338
  805bc5:	74 2f       	mov a, #47
  805bc7:	f0          	movx @dptr, a
  805bc8:	90 09 23    	mov dptr, #2339
  805bcb:	74 64       	mov a, #100
  805bcd:	f0          	movx @dptr, a
  805bce:	90 09 24    	mov dptr, #2340
  805bd1:	74 72       	mov a, #114
  805bd3:	f0          	movx @dptr, a
  805bd4:	90 09 25    	mov dptr, #2341
  805bd7:	74 69       	mov a, #105
  805bd9:	f0          	movx @dptr, a
  805bda:	90 09 26    	mov dptr, #2342
  805bdd:	74 76       	mov a, #118
  805bdf:	f0          	movx @dptr, a
  805be0:	90 09 27    	mov dptr, #2343
  805be3:	74 65       	mov a, #101
  805be5:	f0          	movx @dptr, a
  805be6:	90 09 28    	mov dptr, #2344
  805be9:	74 72       	mov a, #114
  805beb:	f0          	movx @dptr, a
  805bec:	90 09 29    	mov dptr, #2345
  805bef:	74 73       	mov a, #115
  805bf1:	f0          	movx @dptr, a
  805bf2:	90 09 2a    	mov dptr, #2346
  805bf5:	74 2f       	mov a, #47
  805bf7:	f0          	movx @dptr, a
  805bf8:	90 09 2b    	mov dptr, #2347
  805bfb:	74 43       	mov a, #67
  805bfd:	f0          	movx @dptr, a
  805bfe:	90 09 2c    	mov dptr, #2348
  805c01:	74 6f       	mov a, #111
  805c03:	f0          	movx @dptr, a
  805c04:	90 09 2d    	mov dptr, #2349
  805c07:	74 72       	mov a, #114
  805c09:	f0          	movx @dptr, a
  805c0a:	90 09 2e    	mov dptr, #2350
  805c0d:	74 65       	mov a, #101
  805c0f:	f0          	movx @dptr, a
  805c10:	90 09 2f    	mov dptr, #2351
  805c13:	74 47       	mov a, #71
  805c15:	f0          	movx @dptr, a
  805c16:	90 09 30    	mov dptr, #2352
  805c19:	74 50       	mov a, #80
  805c1b:	f0          	movx @dptr, a
  805c1c:	90 09 31    	mov dptr, #2353
  805c1f:	74 49       	mov a, #73
  805c21:	f0          	movx @dptr, a
  805c22:	90 09 32    	mov dptr, #2354
  805c25:	74 4f       	mov a, #79
  805c27:	f0          	movx @dptr, a
  805c28:	90 09 33    	mov dptr, #2355
  805c2b:	74 2f       	mov a, #47
  805c2d:	f0          	movx @dptr, a
  805c2e:	90 09 34    	mov dptr, #2356
  805c31:	74 63       	mov a, #99
  805c33:	f0          	movx @dptr, a
  805c34:	90 09 35    	mov dptr, #2357
  805c37:	74 6f       	mov a, #111
  805c39:	f0          	movx @dptr, a
  805c3a:	90 09 36    	mov dptr, #2358
  805c3d:	74 72       	mov a, #114
  805c3f:	f0          	movx @dptr, a
  805c40:	90 09 37    	mov dptr, #2359
  805c43:	74 65       	mov a, #101
  805c45:	f0          	movx @dptr, a
  805c46:	90 09 38    	mov dptr, #2360
  805c49:	74 5f       	mov a, #95
  805c4b:	f0          	movx @dptr, a
  805c4c:	90 09 39    	mov dptr, #2361
  805c4f:	74 67       	mov a, #103
  805c51:	f0          	movx @dptr, a
  805c52:	90 09 3a    	mov dptr, #2362
  805c55:	74 70       	mov a, #112
  805c57:	f0          	movx @dptr, a
  805c58:	90 09 3b    	mov dptr, #2363
  805c5b:	74 69       	mov a, #105
  805c5d:	f0          	movx @dptr, a
  805c5e:	90 09 3c    	mov dptr, #2364
  805c61:	74 6f       	mov a, #111
  805c63:	f0          	movx @dptr, a
  805c64:	90 09 3d    	mov dptr, #2365
  805c67:	74 2e       	mov a, #46
  805c69:	f0          	movx @dptr, a
  805c6a:	90 09 3e    	mov dptr, #2366
  805c6d:	74 63       	mov a, #99
  805c6f:	f0          	movx @dptr, a
  805c70:	90 09 3f    	mov dptr, #2367
  805c73:	74 00       	mov a, #0
  805c75:	f0          	movx @dptr, a
  805c76:	90 00 8c    	mov dptr, #140
  805c79:	74 87       	mov a, #135
  805c7b:	f0          	movx @dptr, a
  805c7c:	a3          	inc dptr
  805c7d:	74 01       	mov a, #1
  805c7f:	f0          	movx @dptr, a
  805c80:	a3          	inc dptr
  805c81:	74 00       	mov a, #0
  805c83:	f0          	movx @dptr, a
  805c84:	a3          	inc dptr
  805c85:	74 00       	mov a, #0
  805c87:	f0          	movx @dptr, a
  805c88:	75 82 20    	mov dpl, #32
  805c8b:	75 83 09    	mov dph, #9
  805c8e:	75 f0 00    	mov b, #0
  805c91:	c0 02       	push 0x02
  805c93:	c0 03       	push 0x03
  805c95:	c0 04       	push 0x04
  805c97:	c0 05       	push 0x05
  805c99:	c0 06       	push 0x06
  805c9b:	c0 07       	push 0x07
  805c9d:	12 05 f6    	lcall 8005f6 <HAL_assert_fail>
  805ca0:	d0 07       	pop 0x07
  805ca2:	d0 06       	pop 0x06
  805ca4:	d0 05       	pop 0x05
  805ca6:	d0 04       	pop 0x04
  805ca8:	d0 03       	pop 0x03
  805caa:	d0 02       	pop 0x02
  805cac:	ef          	mov a, r7
  805cad:	70 03       	jnz 805cb2
  805caf:	02 5c fa    	ljmp 805cfa <GPIO_enable_irq+0x183>
  805cb2:	ee          	mov a, r6
  805cb3:	75 f0 04    	mov b, #4
  805cb6:	a4          	mul a, b
  805cb7:	fe          	mov r6, a
  805cb8:	af f0       	mov r7, b
  805cba:	ef          	mov a, r7
  805cbb:	33          	rlc a
  805cbc:	95 e0       	subb a, acc
  805cbe:	f8          	mov r0, a
  805cbf:	f9          	mov r1, a
  805cc0:	e5 06       	mov a, 0x06
  805cc2:	25 02       	add a, 0x02
  805cc4:	fa          	mov r2, a
  805cc5:	e5 07       	mov a, 0x07
  805cc7:	35 03       	addc a, 0x03
  805cc9:	fb          	mov r3, a
  805cca:	e5 00       	mov a, 00
  805ccc:	35 04       	addc a, 0x04
  805cce:	fc          	mov r4, a
  805ccf:	e5 01       	mov a, 0x01
  805cd1:	35 05       	addc a, 0x05
  805cd3:	fd          	mov r5, a
  805cd4:	8a 82       	mov dpl, r2
  805cd6:	8b 83       	mov dph, r3
  805cd8:	c0 02       	push 0x02
  805cda:	c0 03       	push 0x03
  805cdc:	12 06 a7    	lcall 8006a7 <HW_get_8bit_reg>
  805cdf:	ac 82       	mov r4, dpl
  805ce1:	d0 03       	pop 0x03
  805ce3:	d0 02       	pop 0x02
  805ce5:	7d 00       	mov r5, #0
  805ce7:	7e 00       	mov r6, #0
  805ce9:	7f 00       	mov r7, #0
  805ceb:	43 04 08    	orl 0x04, #8
  805cee:	90 00 a9    	mov dptr, #169
  805cf1:	ec          	mov a, r4
  805cf2:	f0          	movx @dptr, a
  805cf3:	8a 82       	mov dpl, r2
  805cf5:	8b 83       	mov dph, r3
  805cf7:	12 06 99    	lcall 800699 <HW_set_8bit_reg>
  805cfa:	22          	ret

00805cfb <GPIO_disable_irq>:
  805cfb:	aa f0       	mov r2, b
  805cfd:	ab 83       	mov r3, dph
  805cff:	e5 82       	mov a, dpl
  805d01:	90 09 41    	mov dptr, #2369
  805d04:	f0          	movx @dptr, a
  805d05:	a3          	inc dptr
  805d06:	eb          	mov a, r3
  805d07:	f0          	movx @dptr, a
  805d08:	a3          	inc dptr
  805d09:	ea          	mov a, r2
  805d0a:	f0          	movx @dptr, a
  805d0b:	90 09 41    	mov dptr, #2369
  805d0e:	e0          	movx a, @dptr
  805d0f:	fa          	mov r2, a
  805d10:	a3          	inc dptr
  805d11:	e0          	movx a, @dptr
  805d12:	fb          	mov r3, a
  805d13:	a3          	inc dptr
  805d14:	e0          	movx a, @dptr
  805d15:	fc          	mov r4, a
  805d16:	8a 82       	mov dpl, r2
  805d18:	8b 83       	mov dph, r3
  805d1a:	8c f0       	mov b, r4
  805d1c:	12 61 48    	lcall 806148 <GPIO_clear_irq+0x2c9>
  805d1f:	fa          	mov r2, a
  805d20:	a3          	inc dptr
  805d21:	12 61 48    	lcall 806148 <GPIO_clear_irq+0x2c9>
  805d24:	fb          	mov r3, a
  805d25:	7c 00       	mov r4, #0
  805d27:	7d 00       	mov r5, #0
  805d29:	90 09 40    	mov dptr, #2368
  805d2c:	e0          	movx a, @dptr
  805d2d:	fe          	mov r6, a
  805d2e:	be 20 00    	cjne r6, #32, 805d31
  805d31:	e4          	clr a
  805d32:	33          	rlc a
  805d33:	ff          	mov r7, a
  805d34:	ef          	mov a, r7
  805d35:	60 03       	jz 805d3a
  805d37:	02 5e 30    	ljmp 805e30 <GPIO_disable_irq+0x135>
  805d3a:	90 09 44    	mov dptr, #2372
  805d3d:	74 2e       	mov a, #46
  805d3f:	f0          	movx @dptr, a
  805d40:	90 09 45    	mov dptr, #2373
  805d43:	74 2e       	mov a, #46
  805d45:	f0          	movx @dptr, a
  805d46:	90 09 46    	mov dptr, #2374
  805d49:	74 2f       	mov a, #47
  805d4b:	f0          	movx @dptr, a
  805d4c:	90 09 47    	mov dptr, #2375
  805d4f:	74 64       	mov a, #100
  805d51:	f0          	movx @dptr, a
  805d52:	90 09 48    	mov dptr, #2376
  805d55:	74 72       	mov a, #114
  805d57:	f0          	movx @dptr, a
  805d58:	90 09 49    	mov dptr, #2377
  805d5b:	74 69       	mov a, #105
  805d5d:	f0          	movx @dptr, a
  805d5e:	90 09 4a    	mov dptr, #2378
  805d61:	74 76       	mov a, #118
  805d63:	f0          	movx @dptr, a
  805d64:	90 09 4b    	mov dptr, #2379
  805d67:	74 65       	mov a, #101
  805d69:	f0          	movx @dptr, a
  805d6a:	90 09 4c    	mov dptr, #2380
  805d6d:	74 72       	mov a, #114
  805d6f:	f0          	movx @dptr, a
  805d70:	90 09 4d    	mov dptr, #2381
  805d73:	74 73       	mov a, #115
  805d75:	f0          	movx @dptr, a
  805d76:	90 09 4e    	mov dptr, #2382
  805d79:	74 2f       	mov a, #47
  805d7b:	f0          	movx @dptr, a
  805d7c:	90 09 4f    	mov dptr, #2383
  805d7f:	74 43       	mov a, #67
  805d81:	f0          	movx @dptr, a
  805d82:	90 09 50    	mov dptr, #2384
  805d85:	74 6f       	mov a, #111
  805d87:	f0          	movx @dptr, a
  805d88:	90 09 51    	mov dptr, #2385
  805d8b:	74 72       	mov a, #114
  805d8d:	f0          	movx @dptr, a
  805d8e:	90 09 52    	mov dptr, #2386
  805d91:	74 65       	mov a, #101
  805d93:	f0          	movx @dptr, a
  805d94:	90 09 53    	mov dptr, #2387
  805d97:	74 47       	mov a, #71
  805d99:	f0          	movx @dptr, a
  805d9a:	90 09 54    	mov dptr, #2388
  805d9d:	74 50       	mov a, #80
  805d9f:	f0          	movx @dptr, a
  805da0:	90 09 55    	mov dptr, #2389
  805da3:	74 49       	mov a, #73
  805da5:	f0          	movx @dptr, a
  805da6:	90 09 56    	mov dptr, #2390
  805da9:	74 4f       	mov a, #79
  805dab:	f0          	movx @dptr, a
  805dac:	90 09 57    	mov dptr, #2391
  805daf:	74 2f       	mov a, #47
  805db1:	f0          	movx @dptr, a
  805db2:	90 09 58    	mov dptr, #2392
  805db5:	74 63       	mov a, #99
  805db7:	f0          	movx @dptr, a
  805db8:	90 09 59    	mov dptr, #2393
  805dbb:	74 6f       	mov a, #111
  805dbd:	f0          	movx @dptr, a
  805dbe:	90 09 5a    	mov dptr, #2394
  805dc1:	74 72       	mov a, #114
  805dc3:	f0          	movx @dptr, a
  805dc4:	90 09 5b    	mov dptr, #2395
  805dc7:	74 65       	mov a, #101
  805dc9:	f0          	movx @dptr, a
  805dca:	90 09 5c    	mov dptr, #2396
  805dcd:	74 5f       	mov a, #95
  805dcf:	f0          	movx @dptr, a
  805dd0:	90 09 5d    	mov dptr, #2397
  805dd3:	74 67       	mov a, #103
  805dd5:	f0          	movx @dptr, a
  805dd6:	90 09 5e    	mov dptr, #2398
  805dd9:	74 70       	mov a, #112
  805ddb:	f0          	movx @dptr, a
  805ddc:	90 09 5f    	mov dptr, #2399
  805ddf:	74 69       	mov a, #105
  805de1:	f0          	movx @dptr, a
  805de2:	90 09 60    	mov dptr, #2400
  805de5:	74 6f       	mov a, #111
  805de7:	f0          	movx @dptr, a
  805de8:	90 09 61    	mov dptr, #2401
  805deb:	74 2e       	mov a, #46
  805ded:	f0          	movx @dptr, a
  805dee:	90 09 62    	mov dptr, #2402
  805df1:	74 63       	mov a, #99
  805df3:	f0          	movx @dptr, a
  805df4:	90 09 63    	mov dptr, #2403
  805df7:	74 00       	mov a, #0
  805df9:	f0          	movx @dptr, a
  805dfa:	90 00 8c    	mov dptr, #140
  805dfd:	74 9f       	mov a, #159
  805dff:	f0          	movx @dptr, a
  805e00:	a3          	inc dptr
  805e01:	74 01       	mov a, #1
  805e03:	f0          	movx @dptr, a
  805e04:	a3          	inc dptr
  805e05:	74 00       	mov a, #0
  805e07:	f0          	movx @dptr, a
  805e08:	a3          	inc dptr
  805e09:	74 00       	mov a, #0
  805e0b:	f0          	movx @dptr, a
  805e0c:	75 82 44    	mov dpl, #68
  805e0f:	75 83 09    	mov dph, #9
  805e12:	75 f0 00    	mov b, #0
  805e15:	c0 02       	push 0x02
  805e17:	c0 03       	push 0x03
  805e19:	c0 04       	push 0x04
  805e1b:	c0 05       	push 0x05
  805e1d:	c0 06       	push 0x06
  805e1f:	c0 07       	push 0x07
  805e21:	12 05 f6    	lcall 8005f6 <HAL_assert_fail>
  805e24:	d0 07       	pop 0x07
  805e26:	d0 06       	pop 0x06
  805e28:	d0 05       	pop 0x05
  805e2a:	d0 04       	pop 0x04
  805e2c:	d0 03       	pop 0x03
  805e2e:	d0 02       	pop 0x02
  805e30:	ef          	mov a, r7
  805e31:	70 03       	jnz 805e36
  805e33:	02 5e 7e    	ljmp 805e7e <GPIO_disable_irq+0x183>
  805e36:	ee          	mov a, r6
  805e37:	75 f0 04    	mov b, #4
  805e3a:	a4          	mul a, b
  805e3b:	fe          	mov r6, a
  805e3c:	af f0       	mov r7, b
  805e3e:	ef          	mov a, r7
  805e3f:	33          	rlc a
  805e40:	95 e0       	subb a, acc
  805e42:	f8          	mov r0, a
  805e43:	f9          	mov r1, a
  805e44:	e5 06       	mov a, 0x06
  805e46:	25 02       	add a, 0x02
  805e48:	fa          	mov r2, a
  805e49:	e5 07       	mov a, 0x07
  805e4b:	35 03       	addc a, 0x03
  805e4d:	fb          	mov r3, a
  805e4e:	e5 00       	mov a, 00
  805e50:	35 04       	addc a, 0x04
  805e52:	fc          	mov r4, a
  805e53:	e5 01       	mov a, 0x01
  805e55:	35 05       	addc a, 0x05
  805e57:	fd          	mov r5, a
  805e58:	8a 82       	mov dpl, r2
  805e5a:	8b 83       	mov dph, r3
  805e5c:	c0 02       	push 0x02
  805e5e:	c0 03       	push 0x03
  805e60:	12 06 a7    	lcall 8006a7 <HW_get_8bit_reg>
  805e63:	ac 82       	mov r4, dpl
  805e65:	d0 03       	pop 0x03
  805e67:	d0 02       	pop 0x02
  805e69:	7d 00       	mov r5, #0
  805e6b:	7e 00       	mov r6, #0
  805e6d:	7f 00       	mov r7, #0
  805e6f:	53 04 f7    	anl 0x04, #247
  805e72:	90 00 a9    	mov dptr, #169
  805e75:	ec          	mov a, r4
  805e76:	f0          	movx @dptr, a
  805e77:	8a 82       	mov dpl, r2
  805e79:	8b 83       	mov dph, r3
  805e7b:	12 06 99    	lcall 800699 <HW_set_8bit_reg>
  805e7e:	22          	ret

00805e7f <GPIO_clear_irq>:
  805e7f:	aa f0       	mov r2, b
  805e81:	ab 83       	mov r3, dph
  805e83:	e5 82       	mov a, dpl
  805e85:	90 09 65    	mov dptr, #2405
  805e88:	f0          	movx @dptr, a
  805e89:	a3          	inc dptr
  805e8a:	eb          	mov a, r3
  805e8b:	f0          	movx @dptr, a
  805e8c:	a3          	inc dptr
  805e8d:	ea          	mov a, r2
  805e8e:	f0          	movx @dptr, a
  805e8f:	90 09 64    	mov dptr, #2404
  805e92:	e0          	movx a, @dptr
  805e93:	fa          	mov r2, a
  805e94:	7b 00       	mov r3, #0
  805e96:	7c 00       	mov r4, #0
  805e98:	7d 00       	mov r5, #0
  805e9a:	8a f0       	mov b, r2
  805e9c:	05 f0       	inc b
  805e9e:	75 59 01    	mov 0x59, #1
  805ea1:	75 5a 00    	mov 0x5a, #0
  805ea4:	75 5b 00    	mov 0x5b, #0
  805ea7:	75 5c 00    	mov 0x5c, #0
  805eaa:	80 15       	sjmp 805ec1
  805eac:	e5 59       	mov a, 0x59
  805eae:	25 e0       	add a, acc
  805eb0:	f5 59       	mov 0x59, a
  805eb2:	e5 5a       	mov a, 0x5a
  805eb4:	33          	rlc a
  805eb5:	f5 5a       	mov 0x5a, a
  805eb7:	e5 5b       	mov a, 0x5b
  805eb9:	33          	rlc a
  805eba:	f5 5b       	mov 0x5b, a
  805ebc:	e5 5c       	mov a, 0x5c
  805ebe:	33          	rlc a
  805ebf:	f5 5c       	mov 0x5c, a
  805ec1:	d5 f0 e8    	djnz b, 805eac
  805ec4:	90 09 65    	mov dptr, #2405
  805ec7:	e0          	movx a, @dptr
  805ec8:	fe          	mov r6, a
  805ec9:	a3          	inc dptr
  805eca:	e0          	movx a, @dptr
  805ecb:	ff          	mov r7, a
  805ecc:	a3          	inc dptr
  805ecd:	e0          	movx a, @dptr
  805ece:	f8          	mov r0, a
  805ecf:	74 02       	mov a, #2
  805ed1:	25 06       	add a, 0x06
  805ed3:	f9          	mov r1, a
  805ed4:	74 00       	mov a, #0
  805ed6:	35 07       	addc a, 0x07
  805ed8:	fa          	mov r2, a
  805ed9:	88 03       	mov 0x03, r0
  805edb:	89 82       	mov dpl, r1
  805edd:	8a 83       	mov dph, r2
  805edf:	8b f0       	mov b, r3
  805ee1:	12 61 48    	lcall 806148 <GPIO_clear_irq+0x2c9>
  805ee4:	fa          	mov r2, a
  805ee5:	ba 00 03    	cjne r2, #0, 805eeb
  805ee8:	02 5f 91    	ljmp 805f91 <GPIO_clear_irq+0x112>
  805eeb:	ba 01 03    	cjne r2, #1, 805ef1
  805eee:	02 5f 2e    	ljmp 805f2e <GPIO_clear_irq+0xaf>
  805ef1:	ba 02 02    	cjne r2, #2, 805ef6
  805ef4:	80 03       	sjmp 805ef9
  805ef6:	02 60 50    	ljmp 806050 <GPIO_clear_irq+0x1d1>
  805ef9:	8e 82       	mov dpl, r6
  805efb:	8f 83       	mov dph, r7
  805efd:	88 f0       	mov b, r0
  805eff:	12 61 48    	lcall 806148 <GPIO_clear_irq+0x2c9>
  805f02:	fa          	mov r2, a
  805f03:	a3          	inc dptr
  805f04:	12 61 48    	lcall 806148 <GPIO_clear_irq+0x2c9>
  805f07:	fb          	mov r3, a
  805f08:	74 80       	mov a, #128
  805f0a:	25 02       	add a, 0x02
  805f0c:	fa          	mov r2, a
  805f0d:	74 00       	mov a, #0
  805f0f:	35 03       	addc a, 0x03
  805f11:	fb          	mov r3, a
  805f12:	90 00 aa    	mov dptr, #170
  805f15:	e5 59       	mov a, 0x59
  805f17:	f0          	movx @dptr, a
  805f18:	a3          	inc dptr
  805f19:	e5 5a       	mov a, 0x5a
  805f1b:	f0          	movx @dptr, a
  805f1c:	a3          	inc dptr
  805f1d:	e5 5b       	mov a, 0x5b
  805f1f:	f0          	movx @dptr, a
  805f20:	a3          	inc dptr
  805f21:	e5 5c       	mov a, 0x5c
  805f23:	f0          	movx @dptr, a
  805f24:	8a 82       	mov dpl, r2
  805f26:	8b 83       	mov dph, r3
  805f28:	12 06 62    	lcall 800662 <HW_set_32bit_reg>
  805f2b:	02 61 2e    	ljmp 80612e <GPIO_clear_irq+0x2af>
  805f2e:	8e 82       	mov dpl, r6
  805f30:	8f 83       	mov dph, r7
  805f32:	88 f0       	mov b, r0
  805f34:	12 61 48    	lcall 806148 <GPIO_clear_irq+0x2c9>
  805f37:	fa          	mov r2, a
  805f38:	a3          	inc dptr
  805f39:	12 61 48    	lcall 806148 <GPIO_clear_irq+0x2c9>
  805f3c:	fb          	mov r3, a
  805f3d:	74 80       	mov a, #128
  805f3f:	25 02       	add a, 0x02
  805f41:	fa          	mov r2, a
  805f42:	74 00       	mov a, #0
  805f44:	35 03       	addc a, 0x03
  805f46:	fb          	mov r3, a
  805f47:	90 00 a7    	mov dptr, #167
  805f4a:	e5 59       	mov a, 0x59
  805f4c:	f0          	movx @dptr, a
  805f4d:	a3          	inc dptr
  805f4e:	e5 5a       	mov a, 0x5a
  805f50:	f0          	movx @dptr, a
  805f51:	8a 82       	mov dpl, r2
  805f53:	8b 83       	mov dph, r3
  805f55:	c0 06       	push 0x06
  805f57:	c0 07       	push 0x07
  805f59:	c0 00       	push 00
  805f5b:	12 06 7e    	lcall 80067e <HW_set_16bit_reg>
  805f5e:	d0 00       	pop 00
  805f60:	d0 07       	pop 0x07
  805f62:	d0 06       	pop 0x06
  805f64:	8e 82       	mov dpl, r6
  805f66:	8f 83       	mov dph, r7
  805f68:	88 f0       	mov b, r0
  805f6a:	12 61 48    	lcall 806148 <GPIO_clear_irq+0x2c9>
  805f6d:	fa          	mov r2, a
  805f6e:	a3          	inc dptr
  805f6f:	12 61 48    	lcall 806148 <GPIO_clear_irq+0x2c9>
  805f72:	fb          	mov r3, a
  805f73:	74 84       	mov a, #132
  805f75:	25 02       	add a, 0x02
  805f77:	fa          	mov r2, a
  805f78:	74 00       	mov a, #0
  805f7a:	35 03       	addc a, 0x03
  805f7c:	fb          	mov r3, a
  805f7d:	90 00 a7    	mov dptr, #167
  805f80:	e5 5b       	mov a, 0x5b
  805f82:	f0          	movx @dptr, a
  805f83:	a3          	inc dptr
  805f84:	e5 5c       	mov a, 0x5c
  805f86:	f0          	movx @dptr, a
  805f87:	8a 82       	mov dpl, r2
  805f89:	8b 83       	mov dph, r3
  805f8b:	12 06 7e    	lcall 80067e <HW_set_16bit_reg>
  805f8e:	02 61 2e    	ljmp 80612e <GPIO_clear_irq+0x2af>
  805f91:	8e 82       	mov dpl, r6
  805f93:	8f 83       	mov dph, r7
  805f95:	88 f0       	mov b, r0
  805f97:	12 61 48    	lcall 806148 <GPIO_clear_irq+0x2c9>
  805f9a:	fa          	mov r2, a
  805f9b:	a3          	inc dptr
  805f9c:	12 61 48    	lcall 806148 <GPIO_clear_irq+0x2c9>
  805f9f:	fb          	mov r3, a
  805fa0:	74 80       	mov a, #128
  805fa2:	25 02       	add a, 0x02
  805fa4:	fa          	mov r2, a
  805fa5:	74 00       	mov a, #0
  805fa7:	35 03       	addc a, 0x03
  805fa9:	fb          	mov r3, a
  805faa:	90 00 a9    	mov dptr, #169
  805fad:	e5 59       	mov a, 0x59
  805faf:	f0          	movx @dptr, a
  805fb0:	8a 82       	mov dpl, r2
  805fb2:	8b 83       	mov dph, r3
  805fb4:	c0 06       	push 0x06
  805fb6:	c0 07       	push 0x07
  805fb8:	c0 00       	push 00
  805fba:	12 06 99    	lcall 800699 <HW_set_8bit_reg>
  805fbd:	d0 00       	pop 00
  805fbf:	d0 07       	pop 0x07
  805fc1:	d0 06       	pop 0x06
  805fc3:	8e 82       	mov dpl, r6
  805fc5:	8f 83       	mov dph, r7
  805fc7:	88 f0       	mov b, r0
  805fc9:	12 61 48    	lcall 806148 <GPIO_clear_irq+0x2c9>
  805fcc:	fa          	mov r2, a
  805fcd:	a3          	inc dptr
  805fce:	12 61 48    	lcall 806148 <GPIO_clear_irq+0x2c9>
  805fd1:	fb          	mov r3, a
  805fd2:	74 84       	mov a, #132
  805fd4:	25 02       	add a, 0x02
  805fd6:	fa          	mov r2, a
  805fd7:	74 00       	mov a, #0
  805fd9:	35 03       	addc a, 0x03
  805fdb:	fb          	mov r3, a
  805fdc:	90 00 a9    	mov dptr, #169
  805fdf:	e5 5a       	mov a, 0x5a
  805fe1:	f0          	movx @dptr, a
  805fe2:	8a 82       	mov dpl, r2
  805fe4:	8b 83       	mov dph, r3
  805fe6:	c0 06       	push 0x06
  805fe8:	c0 07       	push 0x07
  805fea:	c0 00       	push 00
  805fec:	12 06 99    	lcall 800699 <HW_set_8bit_reg>
  805fef:	d0 00       	pop 00
  805ff1:	d0 07       	pop 0x07
  805ff3:	d0 06       	pop 0x06
  805ff5:	8e 82       	mov dpl, r6
  805ff7:	8f 83       	mov dph, r7
  805ff9:	88 f0       	mov b, r0
  805ffb:	12 61 48    	lcall 806148 <GPIO_clear_irq+0x2c9>
  805ffe:	fa          	mov r2, a
  805fff:	a3          	inc dptr
  806000:	12 61 48    	lcall 806148 <GPIO_clear_irq+0x2c9>
  806003:	fb          	mov r3, a
  806004:	74 88       	mov a, #136
  806006:	25 02       	add a, 0x02
  806008:	fa          	mov r2, a
  806009:	74 00       	mov a, #0
  80600b:	35 03       	addc a, 0x03
  80600d:	fb          	mov r3, a
  80600e:	90 00 a9    	mov dptr, #169
  806011:	e5 5b       	mov a, 0x5b
  806013:	f0          	movx @dptr, a
  806014:	8a 82       	mov dpl, r2
  806016:	8b 83       	mov dph, r3
  806018:	c0 06       	push 0x06
  80601a:	c0 07       	push 0x07
  80601c:	c0 00       	push 00
  80601e:	12 06 99    	lcall 800699 <HW_set_8bit_reg>
  806021:	d0 00       	pop 00
  806023:	d0 07       	pop 0x07
  806025:	d0 06       	pop 0x06
  806027:	8e 82       	mov dpl, r6
  806029:	8f 83       	mov dph, r7
  80602b:	88 f0       	mov b, r0
  80602d:	12 61 48    	lcall 806148 <GPIO_clear_irq+0x2c9>
  806030:	fe          	mov r6, a
  806031:	a3          	inc dptr
  806032:	12 61 48    	lcall 806148 <GPIO_clear_irq+0x2c9>
  806035:	ff          	mov r7, a
  806036:	74 8c       	mov a, #140
  806038:	25 06       	add a, 0x06
  80603a:	fe          	mov r6, a
  80603b:	74 00       	mov a, #0
  80603d:	35 07       	addc a, 0x07
  80603f:	ff          	mov r7, a
  806040:	90 00 a9    	mov dptr, #169
  806043:	e5 5c       	mov a, 0x5c
  806045:	f0          	movx @dptr, a
  806046:	8e 82       	mov dpl, r6
  806048:	8f 83       	mov dph, r7
  80604a:	12 06 99    	lcall 800699 <HW_set_8bit_reg>
  80604d:	02 61 2e    	ljmp 80612e <GPIO_clear_irq+0x2af>
  806050:	90 09 68    	mov dptr, #2408
  806053:	74 2e       	mov a, #46
  806055:	f0          	movx @dptr, a
  806056:	90 09 69    	mov dptr, #2409
  806059:	74 2e       	mov a, #46
  80605b:	f0          	movx @dptr, a
  80605c:	90 09 6a    	mov dptr, #2410
  80605f:	74 2f       	mov a, #47
  806061:	f0          	movx @dptr, a
  806062:	90 09 6b    	mov dptr, #2411
  806065:	74 64       	mov a, #100
  806067:	f0          	movx @dptr, a
  806068:	90 09 6c    	mov dptr, #2412
  80606b:	74 72       	mov a, #114
  80606d:	f0          	movx @dptr, a
  80606e:	90 09 6d    	mov dptr, #2413
  806071:	74 69       	mov a, #105
  806073:	f0          	movx @dptr, a
  806074:	90 09 6e    	mov dptr, #2414
  806077:	74 76       	mov a, #118
  806079:	f0          	movx @dptr, a
  80607a:	90 09 6f    	mov dptr, #2415
  80607d:	74 65       	mov a, #101
  80607f:	f0          	movx @dptr, a
  806080:	90 09 70    	mov dptr, #2416
  806083:	74 72       	mov a, #114
  806085:	f0          	movx @dptr, a
  806086:	90 09 71    	mov dptr, #2417
  806089:	74 73       	mov a, #115
  80608b:	f0          	movx @dptr, a
  80608c:	90 09 72    	mov dptr, #2418
  80608f:	74 2f       	mov a, #47
  806091:	f0          	movx @dptr, a
  806092:	90 09 73    	mov dptr, #2419
  806095:	74 43       	mov a, #67
  806097:	f0          	movx @dptr, a
  806098:	90 09 74    	mov dptr, #2420
  80609b:	74 6f       	mov a, #111
  80609d:	f0          	movx @dptr, a
  80609e:	90 09 75    	mov dptr, #2421
  8060a1:	74 72       	mov a, #114
  8060a3:	f0          	movx @dptr, a
  8060a4:	90 09 76    	mov dptr, #2422
  8060a7:	74 65       	mov a, #101
  8060a9:	f0          	movx @dptr, a
  8060aa:	90 09 77    	mov dptr, #2423
  8060ad:	74 47       	mov a, #71
  8060af:	f0          	movx @dptr, a
  8060b0:	90 09 78    	mov dptr, #2424
  8060b3:	74 50       	mov a, #80
  8060b5:	f0          	movx @dptr, a
  8060b6:	90 09 79    	mov dptr, #2425
  8060b9:	74 49       	mov a, #73
  8060bb:	f0          	movx @dptr, a
  8060bc:	90 09 7a    	mov dptr, #2426
  8060bf:	74 4f       	mov a, #79
  8060c1:	f0          	movx @dptr, a
  8060c2:	90 09 7b    	mov dptr, #2427
  8060c5:	74 2f       	mov a, #47
  8060c7:	f0          	movx @dptr, a
  8060c8:	90 09 7c    	mov dptr, #2428
  8060cb:	74 63       	mov a, #99
  8060cd:	f0          	movx @dptr, a
  8060ce:	90 09 7d    	mov dptr, #2429
  8060d1:	74 6f       	mov a, #111
  8060d3:	f0          	movx @dptr, a
  8060d4:	90 09 7e    	mov dptr, #2430
  8060d7:	74 72       	mov a, #114
  8060d9:	f0          	movx @dptr, a
  8060da:	90 09 7f    	mov dptr, #2431
  8060dd:	74 65       	mov a, #101
  8060df:	f0          	movx @dptr, a
  8060e0:	90 09 80    	mov dptr, #2432
  8060e3:	74 5f       	mov a, #95
  8060e5:	f0          	movx @dptr, a
  8060e6:	90 09 81    	mov dptr, #2433
  8060e9:	74 67       	mov a, #103
  8060eb:	f0          	movx @dptr, a
  8060ec:	90 09 82    	mov dptr, #2434
  8060ef:	74 70       	mov a, #112
  8060f1:	f0          	movx @dptr, a
  8060f2:	90 09 83    	mov dptr, #2435
  8060f5:	74 69       	mov a, #105
  8060f7:	f0          	movx @dptr, a
  8060f8:	90 09 84    	mov dptr, #2436
  8060fb:	74 6f       	mov a, #111
  8060fd:	f0          	movx @dptr, a
  8060fe:	90 09 85    	mov dptr, #2437
  806101:	74 2e       	mov a, #46
  806103:	f0          	movx @dptr, a
  806104:	90 09 86    	mov dptr, #2438
  806107:	74 63       	mov a, #99
  806109:	f0          	movx @dptr, a
  80610a:	90 09 87    	mov dptr, #2439
  80610d:	74 00       	mov a, #0
  80610f:	f0          	movx @dptr, a
  806110:	90 00 8c    	mov dptr, #140
  806113:	74 c9       	mov a, #201
  806115:	f0          	movx @dptr, a
  806116:	a3          	inc dptr
  806117:	74 01       	mov a, #1
  806119:	f0          	movx @dptr, a
  80611a:	a3          	inc dptr
  80611b:	74 00       	mov a, #0
  80611d:	f0          	movx @dptr, a
  80611e:	a3          	inc dptr
  80611f:	74 00       	mov a, #0
  806121:	f0          	movx @dptr, a
  806122:	75 82 68    	mov dpl, #104
  806125:	75 83 09    	mov dph, #9
  806128:	75 f0 00    	mov b, #0
  80612b:	12 05 f6    	lcall 8005f6 <HAL_assert_fail>
  80612e:	22          	ret
  80612f:	20 f7 10    	jb 247, 806142
  806132:	30 f6 11    	jnb 246, 806146
  806135:	88 83       	mov dph, r0
  806137:	a8 82       	mov r0, dpl
  806139:	20 f5 07    	jb 245, 806143
  80613c:	f6          	mov @r0, a
  80613d:	a8 83       	mov r0, dph
  80613f:	75 83 00    	mov dph, #0
  806142:	22          	ret
  806143:	f2          	movx @r0, a
  806144:	80 f7       	sjmp 80613d
  806146:	f0          	movx @dptr, a
  806147:	22          	ret
  806148:	20 f7 14    	jb 247, 80615f
  80614b:	30 f6 14    	jnb 246, 806162
  80614e:	88 83       	mov dph, r0
  806150:	a8 82       	mov r0, dpl
  806152:	20 f5 07    	jb 245, 80615c
  806155:	e6          	mov a, @r0
  806156:	a8 83       	mov r0, dph
  806158:	75 83 00    	mov dph, #0
  80615b:	22          	ret
  80615c:	e2          	movx a, @r0
  80615d:	80 f7       	sjmp 806156
  80615f:	e4          	clr a
  806160:	93          	movc a, @a + dptr
  806161:	22          	ret
  806162:	e0          	movx a, @dptr
  806163:	22          	ret
  806164:	75 82 00    	mov dpl, #0
  806167:	22          	ret

00806168 <__xinit_g_cic_base_addr>:
	...
