                              1 ;--------------------------------------------------------
                              2 ; File Created by SDCC : FreeWare ANSI-C Compiler
                              3 ; Version 2.6.3 #4543 (Dec 31 2006)
                              4 ; This file generated Mon May 02 12:51:54 2016
                              5 ;--------------------------------------------------------
                              6 	.module ___drivers_CoreWatchdog_core_watchdog
                              7 	.optsdcc -mmcs51 --model-large
                              8 	
                              9 ;--------------------------------------------------------
                             10 ; Public variables in this module
                             11 ;--------------------------------------------------------
                             12 	.globl _WD_init_PARM_4
                             13 	.globl _WD_init_PARM_3
                             14 	.globl _WD_init_PARM_2
                             15 	.globl _WD_init
                             16 	.globl _WD_enable
                             17 	.globl _WD_disable
                             18 	.globl _WD_reload
                             19 	.globl _WD_current_value
                             20 ;--------------------------------------------------------
                             21 ; special function registers
                             22 ;--------------------------------------------------------
                             23 	.area RSEG    (DATA)
                             24 ;--------------------------------------------------------
                             25 ; special function bits
                             26 ;--------------------------------------------------------
                             27 	.area RSEG    (DATA)
                             28 ;--------------------------------------------------------
                             29 ; overlayable register banks
                             30 ;--------------------------------------------------------
                             31 	.area REG_BANK_0	(REL,OVR,DATA)
   0000                      32 	.ds 8
                             33 ;--------------------------------------------------------
                             34 ; internal ram data
                             35 ;--------------------------------------------------------
                             36 	.area DSEG    (DATA)
                    0000     37 LWD_init$sloc0$1$0==.
   0000                      38 _WD_init_sloc0_1_0:
   0000                      39 	.ds 4
                             40 ;--------------------------------------------------------
                             41 ; overlayable items in internal ram 
                             42 ;--------------------------------------------------------
                             43 	.area OSEG    (OVR,DATA)
                             44 ;--------------------------------------------------------
                             45 ; indirectly addressable internal ram data
                             46 ;--------------------------------------------------------
                             47 	.area ISEG    (DATA)
                             48 ;--------------------------------------------------------
                             49 ; absolute internal ram data
                             50 ;--------------------------------------------------------
                             51 	.area IABS    (ABS,DATA)
                             52 	.area IABS    (ABS,DATA)
                             53 ;--------------------------------------------------------
                             54 ; bit data
                             55 ;--------------------------------------------------------
                             56 	.area BSEG    (BIT)
                             57 ;--------------------------------------------------------
                             58 ; paged external ram data
                             59 ;--------------------------------------------------------
                             60 	.area PSEG    (PAG,XDATA)
                             61 ;--------------------------------------------------------
                             62 ; external ram data
                             63 ;--------------------------------------------------------
                             64 	.area XSEG    (XDATA)
                    0000     65 F___drivers_CoreWatchdog_core_watchdog$NULL_instance$0$0==.
   0000                      66 _NULL_instance:
   0000                      67 	.ds 3
                    0003     68 LWD_init$base$1$1==.
   0003                      69 _WD_init_PARM_2:
   0003                      70 	.ds 2
                    0005     71 LWD_init$value$1$1==.
   0005                      72 _WD_init_PARM_3:
   0005                      73 	.ds 4
                    0009     74 LWD_init$scale$1$1==.
   0009                      75 _WD_init_PARM_4:
   0009                      76 	.ds 4
                    000D     77 LWD_init$instance$1$1==.
   000D                      78 _WD_init_instance_1_1:
   000D                      79 	.ds 3
                    0010     80 LWD_init$file_name$3$3==.
   0010                      81 _WD_init_file_name_3_3:
   0010                      82 	.ds 40
                    0038     83 LWD_init$file_name$3$5==.
   0038                      84 _WD_init_file_name_3_5:
   0038                      85 	.ds 40
                    0060     86 LWD_enable$instance$1$1==.
   0060                      87 _WD_enable_instance_1_1:
   0060                      88 	.ds 3
                    0063     89 LWD_enable$file_name$3$3==.
   0063                      90 _WD_enable_file_name_3_3:
   0063                      91 	.ds 40
                    008B     92 LWD_disable$instance$1$1==.
   008B                      93 _WD_disable_instance_1_1:
   008B                      94 	.ds 3
                    008E     95 LWD_disable$file_name$3$3==.
   008E                      96 _WD_disable_file_name_3_3:
   008E                      97 	.ds 40
                    00B6     98 LWD_reload$instance$1$1==.
   00B6                      99 _WD_reload_instance_1_1:
   00B6                     100 	.ds 3
                    00B9    101 LWD_reload$file_name$3$3==.
   00B9                     102 _WD_reload_file_name_3_3:
   00B9                     103 	.ds 40
                    00E1    104 LWD_current_value$instance$1$1==.
   00E1                     105 _WD_current_value_instance_1_1:
   00E1                     106 	.ds 3
                    00E4    107 LWD_current_value$file_name$3$3==.
   00E4                     108 _WD_current_value_file_name_3_3:
   00E4                     109 	.ds 40
                            110 ;--------------------------------------------------------
                            111 ; external initialized ram data
                            112 ;--------------------------------------------------------
                            113 	.area XISEG   (XDATA)
                            114 	.area HOME    (CODE)
                            115 	.area GSINIT0 (CODE)
                            116 	.area GSINIT1 (CODE)
                            117 	.area GSINIT2 (CODE)
                            118 	.area GSINIT3 (CODE)
                            119 	.area GSINIT4 (CODE)
                            120 	.area GSINIT5 (CODE)
                            121 	.area GSINIT  (CODE)
                            122 	.area GSFINAL (CODE)
                            123 	.area CSEG    (CODE)
                            124 ;--------------------------------------------------------
                            125 ; global & static initialisations
                            126 ;--------------------------------------------------------
                            127 	.area HOME    (CODE)
                            128 	.area GSINIT  (CODE)
                            129 	.area GSFINAL (CODE)
                            130 	.area GSINIT  (CODE)
                            131 ;--------------------------------------------------------
                            132 ; Home
                            133 ;--------------------------------------------------------
                            134 	.area HOME    (CODE)
                            135 	.area HOME    (CODE)
                            136 ;--------------------------------------------------------
                            137 ; code
                            138 ;--------------------------------------------------------
                            139 	.area CSEG    (CODE)
                            140 ;------------------------------------------------------------
                            141 ;Allocation info for local variables in function 'WD_init'
                            142 ;------------------------------------------------------------
                            143 ;sloc0                     Allocated with name '_WD_init_sloc0_1_0'
                            144 ;base                      Allocated with name '_WD_init_PARM_2'
                            145 ;value                     Allocated with name '_WD_init_PARM_3'
                            146 ;scale                     Allocated with name '_WD_init_PARM_4'
                            147 ;instance                  Allocated with name '_WD_init_instance_1_1'
                            148 ;file_name                 Allocated with name '_WD_init_file_name_3_3'
                            149 ;file_name                 Allocated with name '_WD_init_file_name_3_5'
                            150 ;------------------------------------------------------------
                    0000    151 	G$WD_init$0$0 ==.
                    0000    152 	C$core_watchdog.c$26$0$0 ==.
                            153 ;	../drivers/CoreWatchdog/core_watchdog.c:26: WD_init
                            154 ;	-----------------------------------------
                            155 ;	 function WD_init
                            156 ;	-----------------------------------------
   0000                     157 _WD_init:
                    0002    158 	ar2 = 0x02
                    0003    159 	ar3 = 0x03
                    0004    160 	ar4 = 0x04
                    0005    161 	ar5 = 0x05
                    0006    162 	ar6 = 0x06
                    0007    163 	ar7 = 0x07
                    0000    164 	ar0 = 0x00
                    0001    165 	ar1 = 0x01
                            166 ;	genReceive
   0000 AA F0               167 	mov	r2,b
   0002 AB 83               168 	mov	r3,dph
   0004 E5 82               169 	mov	a,dpl
   0006 90s00r0D            170 	mov	dptr,#_WD_init_instance_1_1
   0009 F0                  171 	movx	@dptr,a
   000A A3                  172 	inc	dptr
   000B EB                  173 	mov	a,r3
   000C F0                  174 	movx	@dptr,a
   000D A3                  175 	inc	dptr
   000E EA                  176 	mov	a,r2
   000F F0                  177 	movx	@dptr,a
                    0010    178 	C$core_watchdog.c$34$2$2 ==.
                            179 ;	../drivers/CoreWatchdog/core_watchdog.c:34: HAL_ASSERT( instance != NULL_instance )
                            180 ;	genAssign
   0010 90s00r0D            181 	mov	dptr,#_WD_init_instance_1_1
   0013 E0                  182 	movx	a,@dptr
   0014 FA                  183 	mov	r2,a
   0015 A3                  184 	inc	dptr
   0016 E0                  185 	movx	a,@dptr
   0017 FB                  186 	mov	r3,a
   0018 A3                  187 	inc	dptr
   0019 E0                  188 	movx	a,@dptr
   001A FC                  189 	mov	r4,a
                            190 ;	genAssign
   001B 90s00r00            191 	mov	dptr,#_NULL_instance
   001E E0                  192 	movx	a,@dptr
   001F FD                  193 	mov	r5,a
   0020 A3                  194 	inc	dptr
   0021 E0                  195 	movx	a,@dptr
   0022 FE                  196 	mov	r6,a
   0023 A3                  197 	inc	dptr
   0024 E0                  198 	movx	a,@dptr
   0025 FF                  199 	mov	r7,a
                            200 ;	genCmpEq
                            201 ;	gencjneshort
   0026 EA                  202 	mov	a,r2
   0027 B5 05 0A            203 	cjne	a,ar5,00115$
   002A EB                  204 	mov	a,r3
   002B B5 06 06            205 	cjne	a,ar6,00115$
   002E EC                  206 	mov	a,r4
   002F B5 07 02            207 	cjne	a,ar7,00115$
   0032 80 03               208 	sjmp	00116$
   0034                     209 00115$:
   0034 02s01r40            210 	ljmp	00104$
   0037                     211 00116$:
                            212 ;	genPointerSet
                            213 ;     genFarPointerSet
   0037 90s00r10            214 	mov	dptr,#_WD_init_file_name_3_3
   003A 74 2E               215 	mov	a,#0x2E
   003C F0                  216 	movx	@dptr,a
                            217 ;	genPointerSet
                            218 ;     genFarPointerSet
   003D 90s00r11            219 	mov	dptr,#(_WD_init_file_name_3_3 + 0x0001)
   0040 74 2E               220 	mov	a,#0x2E
   0042 F0                  221 	movx	@dptr,a
                            222 ;	genPointerSet
                            223 ;     genFarPointerSet
   0043 90s00r12            224 	mov	dptr,#(_WD_init_file_name_3_3 + 0x0002)
   0046 74 2F               225 	mov	a,#0x2F
   0048 F0                  226 	movx	@dptr,a
                            227 ;	genPointerSet
                            228 ;     genFarPointerSet
   0049 90s00r13            229 	mov	dptr,#(_WD_init_file_name_3_3 + 0x0003)
   004C 74 64               230 	mov	a,#0x64
   004E F0                  231 	movx	@dptr,a
                            232 ;	genPointerSet
                            233 ;     genFarPointerSet
   004F 90s00r14            234 	mov	dptr,#(_WD_init_file_name_3_3 + 0x0004)
   0052 74 72               235 	mov	a,#0x72
   0054 F0                  236 	movx	@dptr,a
                            237 ;	genPointerSet
                            238 ;     genFarPointerSet
   0055 90s00r15            239 	mov	dptr,#(_WD_init_file_name_3_3 + 0x0005)
   0058 74 69               240 	mov	a,#0x69
   005A F0                  241 	movx	@dptr,a
                            242 ;	genPointerSet
                            243 ;     genFarPointerSet
   005B 90s00r16            244 	mov	dptr,#(_WD_init_file_name_3_3 + 0x0006)
   005E 74 76               245 	mov	a,#0x76
   0060 F0                  246 	movx	@dptr,a
                            247 ;	genPointerSet
                            248 ;     genFarPointerSet
   0061 90s00r17            249 	mov	dptr,#(_WD_init_file_name_3_3 + 0x0007)
   0064 74 65               250 	mov	a,#0x65
   0066 F0                  251 	movx	@dptr,a
                            252 ;	genPointerSet
                            253 ;     genFarPointerSet
   0067 90s00r18            254 	mov	dptr,#(_WD_init_file_name_3_3 + 0x0008)
   006A 74 72               255 	mov	a,#0x72
   006C F0                  256 	movx	@dptr,a
                            257 ;	genPointerSet
                            258 ;     genFarPointerSet
   006D 90s00r19            259 	mov	dptr,#(_WD_init_file_name_3_3 + 0x0009)
   0070 74 73               260 	mov	a,#0x73
   0072 F0                  261 	movx	@dptr,a
                            262 ;	genPointerSet
                            263 ;     genFarPointerSet
   0073 90s00r1A            264 	mov	dptr,#(_WD_init_file_name_3_3 + 0x000a)
   0076 74 2F               265 	mov	a,#0x2F
   0078 F0                  266 	movx	@dptr,a
                            267 ;	genPointerSet
                            268 ;     genFarPointerSet
   0079 90s00r1B            269 	mov	dptr,#(_WD_init_file_name_3_3 + 0x000b)
   007C 74 43               270 	mov	a,#0x43
   007E F0                  271 	movx	@dptr,a
                            272 ;	genPointerSet
                            273 ;     genFarPointerSet
   007F 90s00r1C            274 	mov	dptr,#(_WD_init_file_name_3_3 + 0x000c)
   0082 74 6F               275 	mov	a,#0x6F
   0084 F0                  276 	movx	@dptr,a
                            277 ;	genPointerSet
                            278 ;     genFarPointerSet
   0085 90s00r1D            279 	mov	dptr,#(_WD_init_file_name_3_3 + 0x000d)
   0088 74 72               280 	mov	a,#0x72
   008A F0                  281 	movx	@dptr,a
                            282 ;	genPointerSet
                            283 ;     genFarPointerSet
   008B 90s00r1E            284 	mov	dptr,#(_WD_init_file_name_3_3 + 0x000e)
   008E 74 65               285 	mov	a,#0x65
   0090 F0                  286 	movx	@dptr,a
                            287 ;	genPointerSet
                            288 ;     genFarPointerSet
   0091 90s00r1F            289 	mov	dptr,#(_WD_init_file_name_3_3 + 0x000f)
   0094 74 57               290 	mov	a,#0x57
   0096 F0                  291 	movx	@dptr,a
                            292 ;	genPointerSet
                            293 ;     genFarPointerSet
   0097 90s00r20            294 	mov	dptr,#(_WD_init_file_name_3_3 + 0x0010)
   009A 74 61               295 	mov	a,#0x61
   009C F0                  296 	movx	@dptr,a
                            297 ;	genPointerSet
                            298 ;     genFarPointerSet
   009D 90s00r21            299 	mov	dptr,#(_WD_init_file_name_3_3 + 0x0011)
   00A0 74 74               300 	mov	a,#0x74
   00A2 F0                  301 	movx	@dptr,a
                            302 ;	genPointerSet
                            303 ;     genFarPointerSet
   00A3 90s00r22            304 	mov	dptr,#(_WD_init_file_name_3_3 + 0x0012)
   00A6 74 63               305 	mov	a,#0x63
   00A8 F0                  306 	movx	@dptr,a
                            307 ;	genPointerSet
                            308 ;     genFarPointerSet
   00A9 90s00r23            309 	mov	dptr,#(_WD_init_file_name_3_3 + 0x0013)
   00AC 74 68               310 	mov	a,#0x68
   00AE F0                  311 	movx	@dptr,a
                            312 ;	genPointerSet
                            313 ;     genFarPointerSet
   00AF 90s00r24            314 	mov	dptr,#(_WD_init_file_name_3_3 + 0x0014)
   00B2 74 64               315 	mov	a,#0x64
   00B4 F0                  316 	movx	@dptr,a
                            317 ;	genPointerSet
                            318 ;     genFarPointerSet
   00B5 90s00r25            319 	mov	dptr,#(_WD_init_file_name_3_3 + 0x0015)
   00B8 74 6F               320 	mov	a,#0x6F
   00BA F0                  321 	movx	@dptr,a
                            322 ;	genPointerSet
                            323 ;     genFarPointerSet
   00BB 90s00r26            324 	mov	dptr,#(_WD_init_file_name_3_3 + 0x0016)
   00BE 74 67               325 	mov	a,#0x67
   00C0 F0                  326 	movx	@dptr,a
                            327 ;	genPointerSet
                            328 ;     genFarPointerSet
   00C1 90s00r27            329 	mov	dptr,#(_WD_init_file_name_3_3 + 0x0017)
   00C4 74 2F               330 	mov	a,#0x2F
   00C6 F0                  331 	movx	@dptr,a
                            332 ;	genPointerSet
                            333 ;     genFarPointerSet
   00C7 90s00r28            334 	mov	dptr,#(_WD_init_file_name_3_3 + 0x0018)
   00CA 74 63               335 	mov	a,#0x63
   00CC F0                  336 	movx	@dptr,a
                            337 ;	genPointerSet
                            338 ;     genFarPointerSet
   00CD 90s00r29            339 	mov	dptr,#(_WD_init_file_name_3_3 + 0x0019)
   00D0 74 6F               340 	mov	a,#0x6F
   00D2 F0                  341 	movx	@dptr,a
                            342 ;	genPointerSet
                            343 ;     genFarPointerSet
   00D3 90s00r2A            344 	mov	dptr,#(_WD_init_file_name_3_3 + 0x001a)
   00D6 74 72               345 	mov	a,#0x72
   00D8 F0                  346 	movx	@dptr,a
                            347 ;	genPointerSet
                            348 ;     genFarPointerSet
   00D9 90s00r2B            349 	mov	dptr,#(_WD_init_file_name_3_3 + 0x001b)
   00DC 74 65               350 	mov	a,#0x65
   00DE F0                  351 	movx	@dptr,a
                            352 ;	genPointerSet
                            353 ;     genFarPointerSet
   00DF 90s00r2C            354 	mov	dptr,#(_WD_init_file_name_3_3 + 0x001c)
   00E2 74 5F               355 	mov	a,#0x5F
   00E4 F0                  356 	movx	@dptr,a
                            357 ;	genPointerSet
                            358 ;     genFarPointerSet
   00E5 90s00r2D            359 	mov	dptr,#(_WD_init_file_name_3_3 + 0x001d)
   00E8 74 77               360 	mov	a,#0x77
   00EA F0                  361 	movx	@dptr,a
                            362 ;	genPointerSet
                            363 ;     genFarPointerSet
   00EB 90s00r2E            364 	mov	dptr,#(_WD_init_file_name_3_3 + 0x001e)
   00EE 74 61               365 	mov	a,#0x61
   00F0 F0                  366 	movx	@dptr,a
                            367 ;	genPointerSet
                            368 ;     genFarPointerSet
   00F1 90s00r2F            369 	mov	dptr,#(_WD_init_file_name_3_3 + 0x001f)
   00F4 74 74               370 	mov	a,#0x74
   00F6 F0                  371 	movx	@dptr,a
                            372 ;	genPointerSet
                            373 ;     genFarPointerSet
   00F7 90s00r30            374 	mov	dptr,#(_WD_init_file_name_3_3 + 0x0020)
   00FA 74 63               375 	mov	a,#0x63
   00FC F0                  376 	movx	@dptr,a
                            377 ;	genPointerSet
                            378 ;     genFarPointerSet
   00FD 90s00r31            379 	mov	dptr,#(_WD_init_file_name_3_3 + 0x0021)
   0100 74 68               380 	mov	a,#0x68
   0102 F0                  381 	movx	@dptr,a
                            382 ;	genPointerSet
                            383 ;     genFarPointerSet
   0103 90s00r32            384 	mov	dptr,#(_WD_init_file_name_3_3 + 0x0022)
   0106 74 64               385 	mov	a,#0x64
   0108 F0                  386 	movx	@dptr,a
                            387 ;	genPointerSet
                            388 ;     genFarPointerSet
   0109 90s00r33            389 	mov	dptr,#(_WD_init_file_name_3_3 + 0x0023)
   010C 74 6F               390 	mov	a,#0x6F
   010E F0                  391 	movx	@dptr,a
                            392 ;	genPointerSet
                            393 ;     genFarPointerSet
   010F 90s00r34            394 	mov	dptr,#(_WD_init_file_name_3_3 + 0x0024)
   0112 74 67               395 	mov	a,#0x67
   0114 F0                  396 	movx	@dptr,a
                            397 ;	genPointerSet
                            398 ;     genFarPointerSet
   0115 90s00r35            399 	mov	dptr,#(_WD_init_file_name_3_3 + 0x0025)
   0118 74 2E               400 	mov	a,#0x2E
   011A F0                  401 	movx	@dptr,a
                            402 ;	genPointerSet
                            403 ;     genFarPointerSet
   011B 90s00r36            404 	mov	dptr,#(_WD_init_file_name_3_3 + 0x0026)
   011E 74 63               405 	mov	a,#0x63
   0120 F0                  406 	movx	@dptr,a
                            407 ;	genPointerSet
                            408 ;     genFarPointerSet
   0121 90s00r37            409 	mov	dptr,#(_WD_init_file_name_3_3 + 0x0027)
   0124 74 00               410 	mov	a,#0x00
   0126 F0                  411 	movx	@dptr,a
                            412 ;	genAssign
   0127 90s00r00            413 	mov	dptr,#_HAL_assert_fail_PARM_2
   012A 74 22               414 	mov	a,#0x22
   012C F0                  415 	movx	@dptr,a
   012D E4                  416 	clr	a
   012E A3                  417 	inc	dptr
   012F F0                  418 	movx	@dptr,a
   0130 A3                  419 	inc	dptr
   0131 F0                  420 	movx	@dptr,a
   0132 A3                  421 	inc	dptr
   0133 F0                  422 	movx	@dptr,a
                            423 ;	genCall
   0134 75 82r10            424 	mov	dpl,#_WD_init_file_name_3_3
   0137 75 83s00            425 	mov	dph,#(_WD_init_file_name_3_3 >> 8)
   013A 75 F0 00            426 	mov	b,#0x00
   013D 12s00r00            427 	lcall	_HAL_assert_fail
   0140                     428 00104$:
                    0140    429 	C$core_watchdog.c$35$2$4 ==.
                            430 ;	../drivers/CoreWatchdog/core_watchdog.c:35: HAL_ASSERT( scale <= WD_PRESCALER_DIV_1024 )
                            431 ;	genAssign
   0140 90s00r09            432 	mov	dptr,#_WD_init_PARM_4
   0143 E0                  433 	movx	a,@dptr
   0144 F5*00               434 	mov	_WD_init_sloc0_1_0,a
   0146 A3                  435 	inc	dptr
   0147 E0                  436 	movx	a,@dptr
   0148 F5*01               437 	mov	(_WD_init_sloc0_1_0 + 1),a
   014A A3                  438 	inc	dptr
   014B E0                  439 	movx	a,@dptr
   014C F5*02               440 	mov	(_WD_init_sloc0_1_0 + 2),a
   014E A3                  441 	inc	dptr
   014F E0                  442 	movx	a,@dptr
   0150 F5*03               443 	mov	(_WD_init_sloc0_1_0 + 3),a
                            444 ;	genCmpGt
                            445 ;	genCmp
   0152 C3                  446 	clr	c
   0153 74 09               447 	mov	a,#0x09
   0155 95*00               448 	subb	a,_WD_init_sloc0_1_0
   0157 74 00               449 	mov	a,#0x00
   0159 95*01               450 	subb	a,(_WD_init_sloc0_1_0 + 1)
   015B 74 00               451 	mov	a,#0x00
   015D 95*02               452 	subb	a,(_WD_init_sloc0_1_0 + 2)
   015F 74 00               453 	mov	a,#0x00
   0161 95*03               454 	subb	a,(_WD_init_sloc0_1_0 + 3)
                            455 ;	genIfxJump
   0163 40 03               456 	jc	00117$
   0165 02s02r71            457 	ljmp	00109$
   0168                     458 00117$:
                            459 ;	genPointerSet
                            460 ;     genFarPointerSet
   0168 90s00r38            461 	mov	dptr,#_WD_init_file_name_3_5
   016B 74 2E               462 	mov	a,#0x2E
   016D F0                  463 	movx	@dptr,a
                            464 ;	genPointerSet
                            465 ;     genFarPointerSet
   016E 90s00r39            466 	mov	dptr,#(_WD_init_file_name_3_5 + 0x0001)
   0171 74 2E               467 	mov	a,#0x2E
   0173 F0                  468 	movx	@dptr,a
                            469 ;	genPointerSet
                            470 ;     genFarPointerSet
   0174 90s00r3A            471 	mov	dptr,#(_WD_init_file_name_3_5 + 0x0002)
   0177 74 2F               472 	mov	a,#0x2F
   0179 F0                  473 	movx	@dptr,a
                            474 ;	genPointerSet
                            475 ;     genFarPointerSet
   017A 90s00r3B            476 	mov	dptr,#(_WD_init_file_name_3_5 + 0x0003)
   017D 74 64               477 	mov	a,#0x64
   017F F0                  478 	movx	@dptr,a
                            479 ;	genPointerSet
                            480 ;     genFarPointerSet
   0180 90s00r3C            481 	mov	dptr,#(_WD_init_file_name_3_5 + 0x0004)
   0183 74 72               482 	mov	a,#0x72
   0185 F0                  483 	movx	@dptr,a
                            484 ;	genPointerSet
                            485 ;     genFarPointerSet
   0186 90s00r3D            486 	mov	dptr,#(_WD_init_file_name_3_5 + 0x0005)
   0189 74 69               487 	mov	a,#0x69
   018B F0                  488 	movx	@dptr,a
                            489 ;	genPointerSet
                            490 ;     genFarPointerSet
   018C 90s00r3E            491 	mov	dptr,#(_WD_init_file_name_3_5 + 0x0006)
   018F 74 76               492 	mov	a,#0x76
   0191 F0                  493 	movx	@dptr,a
                            494 ;	genPointerSet
                            495 ;     genFarPointerSet
   0192 90s00r3F            496 	mov	dptr,#(_WD_init_file_name_3_5 + 0x0007)
   0195 74 65               497 	mov	a,#0x65
   0197 F0                  498 	movx	@dptr,a
                            499 ;	genPointerSet
                            500 ;     genFarPointerSet
   0198 90s00r40            501 	mov	dptr,#(_WD_init_file_name_3_5 + 0x0008)
   019B 74 72               502 	mov	a,#0x72
   019D F0                  503 	movx	@dptr,a
                            504 ;	genPointerSet
                            505 ;     genFarPointerSet
   019E 90s00r41            506 	mov	dptr,#(_WD_init_file_name_3_5 + 0x0009)
   01A1 74 73               507 	mov	a,#0x73
   01A3 F0                  508 	movx	@dptr,a
                            509 ;	genPointerSet
                            510 ;     genFarPointerSet
   01A4 90s00r42            511 	mov	dptr,#(_WD_init_file_name_3_5 + 0x000a)
   01A7 74 2F               512 	mov	a,#0x2F
   01A9 F0                  513 	movx	@dptr,a
                            514 ;	genPointerSet
                            515 ;     genFarPointerSet
   01AA 90s00r43            516 	mov	dptr,#(_WD_init_file_name_3_5 + 0x000b)
   01AD 74 43               517 	mov	a,#0x43
   01AF F0                  518 	movx	@dptr,a
                            519 ;	genPointerSet
                            520 ;     genFarPointerSet
   01B0 90s00r44            521 	mov	dptr,#(_WD_init_file_name_3_5 + 0x000c)
   01B3 74 6F               522 	mov	a,#0x6F
   01B5 F0                  523 	movx	@dptr,a
                            524 ;	genPointerSet
                            525 ;     genFarPointerSet
   01B6 90s00r45            526 	mov	dptr,#(_WD_init_file_name_3_5 + 0x000d)
   01B9 74 72               527 	mov	a,#0x72
   01BB F0                  528 	movx	@dptr,a
                            529 ;	genPointerSet
                            530 ;     genFarPointerSet
   01BC 90s00r46            531 	mov	dptr,#(_WD_init_file_name_3_5 + 0x000e)
   01BF 74 65               532 	mov	a,#0x65
   01C1 F0                  533 	movx	@dptr,a
                            534 ;	genPointerSet
                            535 ;     genFarPointerSet
   01C2 90s00r47            536 	mov	dptr,#(_WD_init_file_name_3_5 + 0x000f)
   01C5 74 57               537 	mov	a,#0x57
   01C7 F0                  538 	movx	@dptr,a
                            539 ;	genPointerSet
                            540 ;     genFarPointerSet
   01C8 90s00r48            541 	mov	dptr,#(_WD_init_file_name_3_5 + 0x0010)
   01CB 74 61               542 	mov	a,#0x61
   01CD F0                  543 	movx	@dptr,a
                            544 ;	genPointerSet
                            545 ;     genFarPointerSet
   01CE 90s00r49            546 	mov	dptr,#(_WD_init_file_name_3_5 + 0x0011)
   01D1 74 74               547 	mov	a,#0x74
   01D3 F0                  548 	movx	@dptr,a
                            549 ;	genPointerSet
                            550 ;     genFarPointerSet
   01D4 90s00r4A            551 	mov	dptr,#(_WD_init_file_name_3_5 + 0x0012)
   01D7 74 63               552 	mov	a,#0x63
   01D9 F0                  553 	movx	@dptr,a
                            554 ;	genPointerSet
                            555 ;     genFarPointerSet
   01DA 90s00r4B            556 	mov	dptr,#(_WD_init_file_name_3_5 + 0x0013)
   01DD 74 68               557 	mov	a,#0x68
   01DF F0                  558 	movx	@dptr,a
                            559 ;	genPointerSet
                            560 ;     genFarPointerSet
   01E0 90s00r4C            561 	mov	dptr,#(_WD_init_file_name_3_5 + 0x0014)
   01E3 74 64               562 	mov	a,#0x64
   01E5 F0                  563 	movx	@dptr,a
                            564 ;	genPointerSet
                            565 ;     genFarPointerSet
   01E6 90s00r4D            566 	mov	dptr,#(_WD_init_file_name_3_5 + 0x0015)
   01E9 74 6F               567 	mov	a,#0x6F
   01EB F0                  568 	movx	@dptr,a
                            569 ;	genPointerSet
                            570 ;     genFarPointerSet
   01EC 90s00r4E            571 	mov	dptr,#(_WD_init_file_name_3_5 + 0x0016)
   01EF 74 67               572 	mov	a,#0x67
   01F1 F0                  573 	movx	@dptr,a
                            574 ;	genPointerSet
                            575 ;     genFarPointerSet
   01F2 90s00r4F            576 	mov	dptr,#(_WD_init_file_name_3_5 + 0x0017)
   01F5 74 2F               577 	mov	a,#0x2F
   01F7 F0                  578 	movx	@dptr,a
                            579 ;	genPointerSet
                            580 ;     genFarPointerSet
   01F8 90s00r50            581 	mov	dptr,#(_WD_init_file_name_3_5 + 0x0018)
   01FB 74 63               582 	mov	a,#0x63
   01FD F0                  583 	movx	@dptr,a
                            584 ;	genPointerSet
                            585 ;     genFarPointerSet
   01FE 90s00r51            586 	mov	dptr,#(_WD_init_file_name_3_5 + 0x0019)
   0201 74 6F               587 	mov	a,#0x6F
   0203 F0                  588 	movx	@dptr,a
                            589 ;	genPointerSet
                            590 ;     genFarPointerSet
   0204 90s00r52            591 	mov	dptr,#(_WD_init_file_name_3_5 + 0x001a)
   0207 74 72               592 	mov	a,#0x72
   0209 F0                  593 	movx	@dptr,a
                            594 ;	genPointerSet
                            595 ;     genFarPointerSet
   020A 90s00r53            596 	mov	dptr,#(_WD_init_file_name_3_5 + 0x001b)
   020D 74 65               597 	mov	a,#0x65
   020F F0                  598 	movx	@dptr,a
                            599 ;	genPointerSet
                            600 ;     genFarPointerSet
   0210 90s00r54            601 	mov	dptr,#(_WD_init_file_name_3_5 + 0x001c)
   0213 74 5F               602 	mov	a,#0x5F
   0215 F0                  603 	movx	@dptr,a
                            604 ;	genPointerSet
                            605 ;     genFarPointerSet
   0216 90s00r55            606 	mov	dptr,#(_WD_init_file_name_3_5 + 0x001d)
   0219 74 77               607 	mov	a,#0x77
   021B F0                  608 	movx	@dptr,a
                            609 ;	genPointerSet
                            610 ;     genFarPointerSet
   021C 90s00r56            611 	mov	dptr,#(_WD_init_file_name_3_5 + 0x001e)
   021F 74 61               612 	mov	a,#0x61
   0221 F0                  613 	movx	@dptr,a
                            614 ;	genPointerSet
                            615 ;     genFarPointerSet
   0222 90s00r57            616 	mov	dptr,#(_WD_init_file_name_3_5 + 0x001f)
   0225 74 74               617 	mov	a,#0x74
   0227 F0                  618 	movx	@dptr,a
                            619 ;	genPointerSet
                            620 ;     genFarPointerSet
   0228 90s00r58            621 	mov	dptr,#(_WD_init_file_name_3_5 + 0x0020)
   022B 74 63               622 	mov	a,#0x63
   022D F0                  623 	movx	@dptr,a
                            624 ;	genPointerSet
                            625 ;     genFarPointerSet
   022E 90s00r59            626 	mov	dptr,#(_WD_init_file_name_3_5 + 0x0021)
   0231 74 68               627 	mov	a,#0x68
   0233 F0                  628 	movx	@dptr,a
                            629 ;	genPointerSet
                            630 ;     genFarPointerSet
   0234 90s00r5A            631 	mov	dptr,#(_WD_init_file_name_3_5 + 0x0022)
   0237 74 64               632 	mov	a,#0x64
   0239 F0                  633 	movx	@dptr,a
                            634 ;	genPointerSet
                            635 ;     genFarPointerSet
   023A 90s00r5B            636 	mov	dptr,#(_WD_init_file_name_3_5 + 0x0023)
   023D 74 6F               637 	mov	a,#0x6F
   023F F0                  638 	movx	@dptr,a
                            639 ;	genPointerSet
                            640 ;     genFarPointerSet
   0240 90s00r5C            641 	mov	dptr,#(_WD_init_file_name_3_5 + 0x0024)
   0243 74 67               642 	mov	a,#0x67
   0245 F0                  643 	movx	@dptr,a
                            644 ;	genPointerSet
                            645 ;     genFarPointerSet
   0246 90s00r5D            646 	mov	dptr,#(_WD_init_file_name_3_5 + 0x0025)
   0249 74 2E               647 	mov	a,#0x2E
   024B F0                  648 	movx	@dptr,a
                            649 ;	genPointerSet
                            650 ;     genFarPointerSet
   024C 90s00r5E            651 	mov	dptr,#(_WD_init_file_name_3_5 + 0x0026)
   024F 74 63               652 	mov	a,#0x63
   0251 F0                  653 	movx	@dptr,a
                            654 ;	genPointerSet
                            655 ;     genFarPointerSet
   0252 90s00r5F            656 	mov	dptr,#(_WD_init_file_name_3_5 + 0x0027)
   0255 74 00               657 	mov	a,#0x00
   0257 F0                  658 	movx	@dptr,a
                            659 ;	genAssign
   0258 90s00r00            660 	mov	dptr,#_HAL_assert_fail_PARM_2
   025B 74 23               661 	mov	a,#0x23
   025D F0                  662 	movx	@dptr,a
   025E E4                  663 	clr	a
   025F A3                  664 	inc	dptr
   0260 F0                  665 	movx	@dptr,a
   0261 A3                  666 	inc	dptr
   0262 F0                  667 	movx	@dptr,a
   0263 A3                  668 	inc	dptr
   0264 F0                  669 	movx	@dptr,a
                            670 ;	genCall
   0265 75 82r38            671 	mov	dpl,#_WD_init_file_name_3_5
   0268 75 83s00            672 	mov	dph,#(_WD_init_file_name_3_5 >> 8)
   026B 75 F0 00            673 	mov	b,#0x00
   026E 12s00r00            674 	lcall	_HAL_assert_fail
   0271                     675 00109$:
                    0271    676 	C$core_watchdog.c$37$1$1 ==.
                            677 ;	../drivers/CoreWatchdog/core_watchdog.c:37: instance->base_address = base;
                            678 ;	genAssign
   0271 90s00r0D            679 	mov	dptr,#_WD_init_instance_1_1
   0274 E0                  680 	movx	a,@dptr
   0275 FE                  681 	mov	r6,a
   0276 A3                  682 	inc	dptr
   0277 E0                  683 	movx	a,@dptr
   0278 FF                  684 	mov	r7,a
   0279 A3                  685 	inc	dptr
   027A E0                  686 	movx	a,@dptr
   027B F8                  687 	mov	r0,a
                            688 ;	genAssign
   027C 90s00r03            689 	mov	dptr,#_WD_init_PARM_2
   027F E0                  690 	movx	a,@dptr
   0280 F9                  691 	mov	r1,a
   0281 A3                  692 	inc	dptr
   0282 E0                  693 	movx	a,@dptr
   0283 FA                  694 	mov	r2,a
                            695 ;	genPointerSet
                            696 ;	genGenPointerSet
   0284 8E 82               697 	mov	dpl,r6
   0286 8F 83               698 	mov	dph,r7
   0288 88 F0               699 	mov	b,r0
   028A E9                  700 	mov	a,r1
   028B 12s00r00            701 	lcall	__gptrput
   028E A3                  702 	inc	dptr
   028F EA                  703 	mov	a,r2
   0290 12s00r00            704 	lcall	__gptrput
                    0293    705 	C$core_watchdog.c$40$1$1 ==.
                            706 ;	../drivers/CoreWatchdog/core_watchdog.c:40: HAL_set_32bit_reg_field( instance->base_address, WDOGCONTROL_WATCHDOG_ENABLE, 0 );
                            707 ;	genPlus
                            708 ;	genPlusIncr
   0293 74 08               709 	mov	a,#0x08
   0295 25 01               710 	add	a,ar1
   0297 F9                  711 	mov	r1,a
   0298 74 00               712 	mov	a,#0x00
   029A 35 02               713 	addc	a,ar2
   029C FA                  714 	mov	r2,a
                            715 ;	genAssign
   029D 90s00r00            716 	mov	dptr,#_HW_set_32bit_reg_field_PARM_2
   02A0 74 04               717 	mov	a,#0x04
   02A2 F0                  718 	movx	@dptr,a
                            719 ;	genAssign
   02A3 90s00r00            720 	mov	dptr,#_HW_set_32bit_reg_field_PARM_3
   02A6 74 10               721 	mov	a,#0x10
   02A8 F0                  722 	movx	@dptr,a
   02A9 E4                  723 	clr	a
   02AA A3                  724 	inc	dptr
   02AB F0                  725 	movx	@dptr,a
   02AC A3                  726 	inc	dptr
   02AD F0                  727 	movx	@dptr,a
   02AE A3                  728 	inc	dptr
   02AF F0                  729 	movx	@dptr,a
                            730 ;	genAssign
   02B0 90s00r00            731 	mov	dptr,#_HW_set_32bit_reg_field_PARM_4
   02B3 E4                  732 	clr	a
   02B4 F0                  733 	movx	@dptr,a
   02B5 A3                  734 	inc	dptr
   02B6 F0                  735 	movx	@dptr,a
   02B7 A3                  736 	inc	dptr
   02B8 F0                  737 	movx	@dptr,a
   02B9 A3                  738 	inc	dptr
   02BA F0                  739 	movx	@dptr,a
                            740 ;	genCall
   02BB 89 82               741 	mov	dpl,r1
   02BD 8A 83               742 	mov	dph,r2
   02BF C0 06               743 	push	ar6
   02C1 C0 07               744 	push	ar7
   02C3 C0 00               745 	push	ar0
   02C5 12s00r00            746 	lcall	_HW_set_32bit_reg_field
   02C8 D0 00               747 	pop	ar0
   02CA D0 07               748 	pop	ar7
   02CC D0 06               749 	pop	ar6
                    02CE    750 	C$core_watchdog.c$43$1$1 ==.
                            751 ;	../drivers/CoreWatchdog/core_watchdog.c:43: HAL_set_32bit_reg_field( instance->base_address, WDOGCONTROL_PRESCALE, scale );
                            752 ;	genPointerGet
                            753 ;	genGenPointerGet
   02CE 8E 82               754 	mov	dpl,r6
   02D0 8F 83               755 	mov	dph,r7
   02D2 88 F0               756 	mov	b,r0
   02D4 12s00r00            757 	lcall	__gptrget
   02D7 FA                  758 	mov	r2,a
   02D8 A3                  759 	inc	dptr
   02D9 12s00r00            760 	lcall	__gptrget
   02DC FB                  761 	mov	r3,a
                            762 ;	genPlus
                            763 ;	genPlusIncr
   02DD 74 08               764 	mov	a,#0x08
   02DF 25 02               765 	add	a,ar2
   02E1 FA                  766 	mov	r2,a
   02E2 74 00               767 	mov	a,#0x00
   02E4 35 03               768 	addc	a,ar3
   02E6 FB                  769 	mov	r3,a
                            770 ;	genAssign
   02E7 90s00r00            771 	mov	dptr,#_HW_set_32bit_reg_field_PARM_2
   02EA 74 00               772 	mov	a,#0x00
   02EC F0                  773 	movx	@dptr,a
                            774 ;	genAssign
   02ED 90s00r00            775 	mov	dptr,#_HW_set_32bit_reg_field_PARM_3
   02F0 74 0F               776 	mov	a,#0x0F
   02F2 F0                  777 	movx	@dptr,a
   02F3 E4                  778 	clr	a
   02F4 A3                  779 	inc	dptr
   02F5 F0                  780 	movx	@dptr,a
   02F6 A3                  781 	inc	dptr
   02F7 F0                  782 	movx	@dptr,a
   02F8 A3                  783 	inc	dptr
   02F9 F0                  784 	movx	@dptr,a
                            785 ;	genAssign
   02FA 90s00r00            786 	mov	dptr,#_HW_set_32bit_reg_field_PARM_4
   02FD E5*00               787 	mov	a,_WD_init_sloc0_1_0
   02FF F0                  788 	movx	@dptr,a
   0300 A3                  789 	inc	dptr
   0301 E5*01               790 	mov	a,(_WD_init_sloc0_1_0 + 1)
   0303 F0                  791 	movx	@dptr,a
   0304 A3                  792 	inc	dptr
   0305 E5*02               793 	mov	a,(_WD_init_sloc0_1_0 + 2)
   0307 F0                  794 	movx	@dptr,a
   0308 A3                  795 	inc	dptr
   0309 E5*03               796 	mov	a,(_WD_init_sloc0_1_0 + 3)
   030B F0                  797 	movx	@dptr,a
                            798 ;	genCall
   030C 8A 82               799 	mov	dpl,r2
   030E 8B 83               800 	mov	dph,r3
   0310 C0 06               801 	push	ar6
   0312 C0 07               802 	push	ar7
   0314 C0 00               803 	push	ar0
   0316 12s00r00            804 	lcall	_HW_set_32bit_reg_field
   0319 D0 00               805 	pop	ar0
   031B D0 07               806 	pop	ar7
   031D D0 06               807 	pop	ar6
                    031F    808 	C$core_watchdog.c$44$1$1 ==.
                            809 ;	../drivers/CoreWatchdog/core_watchdog.c:44: HAL_set_32bit_reg( instance->base_address, WDOGLOAD, value );
                            810 ;	genPointerGet
                            811 ;	genGenPointerGet
   031F 8E 82               812 	mov	dpl,r6
   0321 8F 83               813 	mov	dph,r7
   0323 88 F0               814 	mov	b,r0
   0325 12s00r00            815 	lcall	__gptrget
   0328 FE                  816 	mov	r6,a
   0329 A3                  817 	inc	dptr
   032A 12s00r00            818 	lcall	__gptrget
   032D FF                  819 	mov	r7,a
                            820 ;	genAssign
   032E 90s00r05            821 	mov	dptr,#_WD_init_PARM_3
   0331 E0                  822 	movx	a,@dptr
   0332 FA                  823 	mov	r2,a
   0333 A3                  824 	inc	dptr
   0334 E0                  825 	movx	a,@dptr
   0335 FB                  826 	mov	r3,a
   0336 A3                  827 	inc	dptr
   0337 E0                  828 	movx	a,@dptr
   0338 FC                  829 	mov	r4,a
   0339 A3                  830 	inc	dptr
   033A E0                  831 	movx	a,@dptr
   033B FD                  832 	mov	r5,a
                            833 ;	genAssign
   033C 90s00r00            834 	mov	dptr,#_HW_set_32bit_reg_PARM_2
   033F EA                  835 	mov	a,r2
   0340 F0                  836 	movx	@dptr,a
   0341 A3                  837 	inc	dptr
   0342 EB                  838 	mov	a,r3
   0343 F0                  839 	movx	@dptr,a
   0344 A3                  840 	inc	dptr
   0345 EC                  841 	mov	a,r4
   0346 F0                  842 	movx	@dptr,a
   0347 A3                  843 	inc	dptr
   0348 ED                  844 	mov	a,r5
   0349 F0                  845 	movx	@dptr,a
                            846 ;	genCall
   034A 8E 82               847 	mov	dpl,r6
   034C 8F 83               848 	mov	dph,r7
   034E 12s00r00            849 	lcall	_HW_set_32bit_reg
   0351                     850 00111$:
                    0351    851 	C$core_watchdog.c$45$1$1 ==.
                    0351    852 	XG$WD_init$0$0 ==.
   0351 22                  853 	ret
                            854 ;------------------------------------------------------------
                            855 ;Allocation info for local variables in function 'WD_enable'
                            856 ;------------------------------------------------------------
                            857 ;instance                  Allocated with name '_WD_enable_instance_1_1'
                            858 ;file_name                 Allocated with name '_WD_enable_file_name_3_3'
                            859 ;------------------------------------------------------------
                    0352    860 	G$WD_enable$0$0 ==.
                    0352    861 	C$core_watchdog.c$52$1$1 ==.
                            862 ;	../drivers/CoreWatchdog/core_watchdog.c:52: WD_enable
                            863 ;	-----------------------------------------
                            864 ;	 function WD_enable
                            865 ;	-----------------------------------------
   0352                     866 _WD_enable:
                            867 ;	genReceive
   0352 AA F0               868 	mov	r2,b
   0354 AB 83               869 	mov	r3,dph
   0356 E5 82               870 	mov	a,dpl
   0358 90s00r60            871 	mov	dptr,#_WD_enable_instance_1_1
   035B F0                  872 	movx	@dptr,a
   035C A3                  873 	inc	dptr
   035D EB                  874 	mov	a,r3
   035E F0                  875 	movx	@dptr,a
   035F A3                  876 	inc	dptr
   0360 EA                  877 	mov	a,r2
   0361 F0                  878 	movx	@dptr,a
                    0362    879 	C$core_watchdog.c$57$2$2 ==.
                            880 ;	../drivers/CoreWatchdog/core_watchdog.c:57: HAL_ASSERT( instance != NULL_instance )
                            881 ;	genAssign
   0362 90s00r60            882 	mov	dptr,#_WD_enable_instance_1_1
   0365 E0                  883 	movx	a,@dptr
   0366 FA                  884 	mov	r2,a
   0367 A3                  885 	inc	dptr
   0368 E0                  886 	movx	a,@dptr
   0369 FB                  887 	mov	r3,a
   036A A3                  888 	inc	dptr
   036B E0                  889 	movx	a,@dptr
   036C FC                  890 	mov	r4,a
                            891 ;	genAssign
   036D 90s00r00            892 	mov	dptr,#_NULL_instance
   0370 E0                  893 	movx	a,@dptr
   0371 FD                  894 	mov	r5,a
   0372 A3                  895 	inc	dptr
   0373 E0                  896 	movx	a,@dptr
   0374 FE                  897 	mov	r6,a
   0375 A3                  898 	inc	dptr
   0376 E0                  899 	movx	a,@dptr
   0377 FF                  900 	mov	r7,a
                            901 ;	genCmpEq
                            902 ;	gencjneshort
   0378 EA                  903 	mov	a,r2
   0379 B5 05 0A            904 	cjne	a,ar5,00109$
   037C EB                  905 	mov	a,r3
   037D B5 06 06            906 	cjne	a,ar6,00109$
   0380 EC                  907 	mov	a,r4
   0381 B5 07 02            908 	cjne	a,ar7,00109$
   0384 80 03               909 	sjmp	00110$
   0386                     910 00109$:
   0386 02s04r92            911 	ljmp	00104$
   0389                     912 00110$:
                            913 ;	genPointerSet
                            914 ;     genFarPointerSet
   0389 90s00r63            915 	mov	dptr,#_WD_enable_file_name_3_3
   038C 74 2E               916 	mov	a,#0x2E
   038E F0                  917 	movx	@dptr,a
                            918 ;	genPointerSet
                            919 ;     genFarPointerSet
   038F 90s00r64            920 	mov	dptr,#(_WD_enable_file_name_3_3 + 0x0001)
   0392 74 2E               921 	mov	a,#0x2E
   0394 F0                  922 	movx	@dptr,a
                            923 ;	genPointerSet
                            924 ;     genFarPointerSet
   0395 90s00r65            925 	mov	dptr,#(_WD_enable_file_name_3_3 + 0x0002)
   0398 74 2F               926 	mov	a,#0x2F
   039A F0                  927 	movx	@dptr,a
                            928 ;	genPointerSet
                            929 ;     genFarPointerSet
   039B 90s00r66            930 	mov	dptr,#(_WD_enable_file_name_3_3 + 0x0003)
   039E 74 64               931 	mov	a,#0x64
   03A0 F0                  932 	movx	@dptr,a
                            933 ;	genPointerSet
                            934 ;     genFarPointerSet
   03A1 90s00r67            935 	mov	dptr,#(_WD_enable_file_name_3_3 + 0x0004)
   03A4 74 72               936 	mov	a,#0x72
   03A6 F0                  937 	movx	@dptr,a
                            938 ;	genPointerSet
                            939 ;     genFarPointerSet
   03A7 90s00r68            940 	mov	dptr,#(_WD_enable_file_name_3_3 + 0x0005)
   03AA 74 69               941 	mov	a,#0x69
   03AC F0                  942 	movx	@dptr,a
                            943 ;	genPointerSet
                            944 ;     genFarPointerSet
   03AD 90s00r69            945 	mov	dptr,#(_WD_enable_file_name_3_3 + 0x0006)
   03B0 74 76               946 	mov	a,#0x76
   03B2 F0                  947 	movx	@dptr,a
                            948 ;	genPointerSet
                            949 ;     genFarPointerSet
   03B3 90s00r6A            950 	mov	dptr,#(_WD_enable_file_name_3_3 + 0x0007)
   03B6 74 65               951 	mov	a,#0x65
   03B8 F0                  952 	movx	@dptr,a
                            953 ;	genPointerSet
                            954 ;     genFarPointerSet
   03B9 90s00r6B            955 	mov	dptr,#(_WD_enable_file_name_3_3 + 0x0008)
   03BC 74 72               956 	mov	a,#0x72
   03BE F0                  957 	movx	@dptr,a
                            958 ;	genPointerSet
                            959 ;     genFarPointerSet
   03BF 90s00r6C            960 	mov	dptr,#(_WD_enable_file_name_3_3 + 0x0009)
   03C2 74 73               961 	mov	a,#0x73
   03C4 F0                  962 	movx	@dptr,a
                            963 ;	genPointerSet
                            964 ;     genFarPointerSet
   03C5 90s00r6D            965 	mov	dptr,#(_WD_enable_file_name_3_3 + 0x000a)
   03C8 74 2F               966 	mov	a,#0x2F
   03CA F0                  967 	movx	@dptr,a
                            968 ;	genPointerSet
                            969 ;     genFarPointerSet
   03CB 90s00r6E            970 	mov	dptr,#(_WD_enable_file_name_3_3 + 0x000b)
   03CE 74 43               971 	mov	a,#0x43
   03D0 F0                  972 	movx	@dptr,a
                            973 ;	genPointerSet
                            974 ;     genFarPointerSet
   03D1 90s00r6F            975 	mov	dptr,#(_WD_enable_file_name_3_3 + 0x000c)
   03D4 74 6F               976 	mov	a,#0x6F
   03D6 F0                  977 	movx	@dptr,a
                            978 ;	genPointerSet
                            979 ;     genFarPointerSet
   03D7 90s00r70            980 	mov	dptr,#(_WD_enable_file_name_3_3 + 0x000d)
   03DA 74 72               981 	mov	a,#0x72
   03DC F0                  982 	movx	@dptr,a
                            983 ;	genPointerSet
                            984 ;     genFarPointerSet
   03DD 90s00r71            985 	mov	dptr,#(_WD_enable_file_name_3_3 + 0x000e)
   03E0 74 65               986 	mov	a,#0x65
   03E2 F0                  987 	movx	@dptr,a
                            988 ;	genPointerSet
                            989 ;     genFarPointerSet
   03E3 90s00r72            990 	mov	dptr,#(_WD_enable_file_name_3_3 + 0x000f)
   03E6 74 57               991 	mov	a,#0x57
   03E8 F0                  992 	movx	@dptr,a
                            993 ;	genPointerSet
                            994 ;     genFarPointerSet
   03E9 90s00r73            995 	mov	dptr,#(_WD_enable_file_name_3_3 + 0x0010)
   03EC 74 61               996 	mov	a,#0x61
   03EE F0                  997 	movx	@dptr,a
                            998 ;	genPointerSet
                            999 ;     genFarPointerSet
   03EF 90s00r74           1000 	mov	dptr,#(_WD_enable_file_name_3_3 + 0x0011)
   03F2 74 74              1001 	mov	a,#0x74
   03F4 F0                 1002 	movx	@dptr,a
                           1003 ;	genPointerSet
                           1004 ;     genFarPointerSet
   03F5 90s00r75           1005 	mov	dptr,#(_WD_enable_file_name_3_3 + 0x0012)
   03F8 74 63              1006 	mov	a,#0x63
   03FA F0                 1007 	movx	@dptr,a
                           1008 ;	genPointerSet
                           1009 ;     genFarPointerSet
   03FB 90s00r76           1010 	mov	dptr,#(_WD_enable_file_name_3_3 + 0x0013)
   03FE 74 68              1011 	mov	a,#0x68
   0400 F0                 1012 	movx	@dptr,a
                           1013 ;	genPointerSet
                           1014 ;     genFarPointerSet
   0401 90s00r77           1015 	mov	dptr,#(_WD_enable_file_name_3_3 + 0x0014)
   0404 74 64              1016 	mov	a,#0x64
   0406 F0                 1017 	movx	@dptr,a
                           1018 ;	genPointerSet
                           1019 ;     genFarPointerSet
   0407 90s00r78           1020 	mov	dptr,#(_WD_enable_file_name_3_3 + 0x0015)
   040A 74 6F              1021 	mov	a,#0x6F
   040C F0                 1022 	movx	@dptr,a
                           1023 ;	genPointerSet
                           1024 ;     genFarPointerSet
   040D 90s00r79           1025 	mov	dptr,#(_WD_enable_file_name_3_3 + 0x0016)
   0410 74 67              1026 	mov	a,#0x67
   0412 F0                 1027 	movx	@dptr,a
                           1028 ;	genPointerSet
                           1029 ;     genFarPointerSet
   0413 90s00r7A           1030 	mov	dptr,#(_WD_enable_file_name_3_3 + 0x0017)
   0416 74 2F              1031 	mov	a,#0x2F
   0418 F0                 1032 	movx	@dptr,a
                           1033 ;	genPointerSet
                           1034 ;     genFarPointerSet
   0419 90s00r7B           1035 	mov	dptr,#(_WD_enable_file_name_3_3 + 0x0018)
   041C 74 63              1036 	mov	a,#0x63
   041E F0                 1037 	movx	@dptr,a
                           1038 ;	genPointerSet
                           1039 ;     genFarPointerSet
   041F 90s00r7C           1040 	mov	dptr,#(_WD_enable_file_name_3_3 + 0x0019)
   0422 74 6F              1041 	mov	a,#0x6F
   0424 F0                 1042 	movx	@dptr,a
                           1043 ;	genPointerSet
                           1044 ;     genFarPointerSet
   0425 90s00r7D           1045 	mov	dptr,#(_WD_enable_file_name_3_3 + 0x001a)
   0428 74 72              1046 	mov	a,#0x72
   042A F0                 1047 	movx	@dptr,a
                           1048 ;	genPointerSet
                           1049 ;     genFarPointerSet
   042B 90s00r7E           1050 	mov	dptr,#(_WD_enable_file_name_3_3 + 0x001b)
   042E 74 65              1051 	mov	a,#0x65
   0430 F0                 1052 	movx	@dptr,a
                           1053 ;	genPointerSet
                           1054 ;     genFarPointerSet
   0431 90s00r7F           1055 	mov	dptr,#(_WD_enable_file_name_3_3 + 0x001c)
   0434 74 5F              1056 	mov	a,#0x5F
   0436 F0                 1057 	movx	@dptr,a
                           1058 ;	genPointerSet
                           1059 ;     genFarPointerSet
   0437 90s00r80           1060 	mov	dptr,#(_WD_enable_file_name_3_3 + 0x001d)
   043A 74 77              1061 	mov	a,#0x77
   043C F0                 1062 	movx	@dptr,a
                           1063 ;	genPointerSet
                           1064 ;     genFarPointerSet
   043D 90s00r81           1065 	mov	dptr,#(_WD_enable_file_name_3_3 + 0x001e)
   0440 74 61              1066 	mov	a,#0x61
   0442 F0                 1067 	movx	@dptr,a
                           1068 ;	genPointerSet
                           1069 ;     genFarPointerSet
   0443 90s00r82           1070 	mov	dptr,#(_WD_enable_file_name_3_3 + 0x001f)
   0446 74 74              1071 	mov	a,#0x74
   0448 F0                 1072 	movx	@dptr,a
                           1073 ;	genPointerSet
                           1074 ;     genFarPointerSet
   0449 90s00r83           1075 	mov	dptr,#(_WD_enable_file_name_3_3 + 0x0020)
   044C 74 63              1076 	mov	a,#0x63
   044E F0                 1077 	movx	@dptr,a
                           1078 ;	genPointerSet
                           1079 ;     genFarPointerSet
   044F 90s00r84           1080 	mov	dptr,#(_WD_enable_file_name_3_3 + 0x0021)
   0452 74 68              1081 	mov	a,#0x68
   0454 F0                 1082 	movx	@dptr,a
                           1083 ;	genPointerSet
                           1084 ;     genFarPointerSet
   0455 90s00r85           1085 	mov	dptr,#(_WD_enable_file_name_3_3 + 0x0022)
   0458 74 64              1086 	mov	a,#0x64
   045A F0                 1087 	movx	@dptr,a
                           1088 ;	genPointerSet
                           1089 ;     genFarPointerSet
   045B 90s00r86           1090 	mov	dptr,#(_WD_enable_file_name_3_3 + 0x0023)
   045E 74 6F              1091 	mov	a,#0x6F
   0460 F0                 1092 	movx	@dptr,a
                           1093 ;	genPointerSet
                           1094 ;     genFarPointerSet
   0461 90s00r87           1095 	mov	dptr,#(_WD_enable_file_name_3_3 + 0x0024)
   0464 74 67              1096 	mov	a,#0x67
   0466 F0                 1097 	movx	@dptr,a
                           1098 ;	genPointerSet
                           1099 ;     genFarPointerSet
   0467 90s00r88           1100 	mov	dptr,#(_WD_enable_file_name_3_3 + 0x0025)
   046A 74 2E              1101 	mov	a,#0x2E
   046C F0                 1102 	movx	@dptr,a
                           1103 ;	genPointerSet
                           1104 ;     genFarPointerSet
   046D 90s00r89           1105 	mov	dptr,#(_WD_enable_file_name_3_3 + 0x0026)
   0470 74 63              1106 	mov	a,#0x63
   0472 F0                 1107 	movx	@dptr,a
                           1108 ;	genPointerSet
                           1109 ;     genFarPointerSet
   0473 90s00r8A           1110 	mov	dptr,#(_WD_enable_file_name_3_3 + 0x0027)
   0476 74 00              1111 	mov	a,#0x00
   0478 F0                 1112 	movx	@dptr,a
                           1113 ;	genAssign
   0479 90s00r00           1114 	mov	dptr,#_HAL_assert_fail_PARM_2
   047C 74 39              1115 	mov	a,#0x39
   047E F0                 1116 	movx	@dptr,a
   047F E4                 1117 	clr	a
   0480 A3                 1118 	inc	dptr
   0481 F0                 1119 	movx	@dptr,a
   0482 A3                 1120 	inc	dptr
   0483 F0                 1121 	movx	@dptr,a
   0484 A3                 1122 	inc	dptr
   0485 F0                 1123 	movx	@dptr,a
                           1124 ;	genCall
   0486 75 82r63           1125 	mov	dpl,#_WD_enable_file_name_3_3
   0489 75 83s00           1126 	mov	dph,#(_WD_enable_file_name_3_3 >> 8)
   048C 75 F0 00           1127 	mov	b,#0x00
   048F 12s00r00           1128 	lcall	_HAL_assert_fail
   0492                    1129 00104$:
                    0492   1130 	C$core_watchdog.c$59$1$1 ==.
                           1131 ;	../drivers/CoreWatchdog/core_watchdog.c:59: HAL_set_32bit_reg_field( instance->base_address, WDOGCONTROL_WATCHDOG_ENABLE, 1 );
                           1132 ;	genAssign
   0492 90s00r60           1133 	mov	dptr,#_WD_enable_instance_1_1
   0495 E0                 1134 	movx	a,@dptr
   0496 FA                 1135 	mov	r2,a
   0497 A3                 1136 	inc	dptr
   0498 E0                 1137 	movx	a,@dptr
   0499 FB                 1138 	mov	r3,a
   049A A3                 1139 	inc	dptr
   049B E0                 1140 	movx	a,@dptr
   049C FC                 1141 	mov	r4,a
                           1142 ;	genPointerGet
                           1143 ;	genGenPointerGet
   049D 8A 82              1144 	mov	dpl,r2
   049F 8B 83              1145 	mov	dph,r3
   04A1 8C F0              1146 	mov	b,r4
   04A3 12s00r00           1147 	lcall	__gptrget
   04A6 FA                 1148 	mov	r2,a
   04A7 A3                 1149 	inc	dptr
   04A8 12s00r00           1150 	lcall	__gptrget
   04AB FB                 1151 	mov	r3,a
                           1152 ;	genPlus
                           1153 ;	genPlusIncr
   04AC 74 08              1154 	mov	a,#0x08
   04AE 25 02              1155 	add	a,ar2
   04B0 FA                 1156 	mov	r2,a
   04B1 74 00              1157 	mov	a,#0x00
   04B3 35 03              1158 	addc	a,ar3
   04B5 FB                 1159 	mov	r3,a
                           1160 ;	genAssign
   04B6 90s00r00           1161 	mov	dptr,#_HW_set_32bit_reg_field_PARM_2
   04B9 74 04              1162 	mov	a,#0x04
   04BB F0                 1163 	movx	@dptr,a
                           1164 ;	genAssign
   04BC 90s00r00           1165 	mov	dptr,#_HW_set_32bit_reg_field_PARM_3
   04BF 74 10              1166 	mov	a,#0x10
   04C1 F0                 1167 	movx	@dptr,a
   04C2 E4                 1168 	clr	a
   04C3 A3                 1169 	inc	dptr
   04C4 F0                 1170 	movx	@dptr,a
   04C5 A3                 1171 	inc	dptr
   04C6 F0                 1172 	movx	@dptr,a
   04C7 A3                 1173 	inc	dptr
   04C8 F0                 1174 	movx	@dptr,a
                           1175 ;	genAssign
   04C9 90s00r00           1176 	mov	dptr,#_HW_set_32bit_reg_field_PARM_4
   04CC 74 01              1177 	mov	a,#0x01
   04CE F0                 1178 	movx	@dptr,a
   04CF E4                 1179 	clr	a
   04D0 A3                 1180 	inc	dptr
   04D1 F0                 1181 	movx	@dptr,a
   04D2 A3                 1182 	inc	dptr
   04D3 F0                 1183 	movx	@dptr,a
   04D4 A3                 1184 	inc	dptr
   04D5 F0                 1185 	movx	@dptr,a
                           1186 ;	genCall
   04D6 8A 82              1187 	mov	dpl,r2
   04D8 8B 83              1188 	mov	dph,r3
   04DA 12s00r00           1189 	lcall	_HW_set_32bit_reg_field
   04DD                    1190 00106$:
                    04DD   1191 	C$core_watchdog.c$60$1$1 ==.
                    04DD   1192 	XG$WD_enable$0$0 ==.
   04DD 22                 1193 	ret
                           1194 ;------------------------------------------------------------
                           1195 ;Allocation info for local variables in function 'WD_disable'
                           1196 ;------------------------------------------------------------
                           1197 ;instance                  Allocated with name '_WD_disable_instance_1_1'
                           1198 ;file_name                 Allocated with name '_WD_disable_file_name_3_3'
                           1199 ;------------------------------------------------------------
                    04DE   1200 	G$WD_disable$0$0 ==.
                    04DE   1201 	C$core_watchdog.c$68$1$1 ==.
                           1202 ;	../drivers/CoreWatchdog/core_watchdog.c:68: WD_disable
                           1203 ;	-----------------------------------------
                           1204 ;	 function WD_disable
                           1205 ;	-----------------------------------------
   04DE                    1206 _WD_disable:
                           1207 ;	genReceive
   04DE AA F0              1208 	mov	r2,b
   04E0 AB 83              1209 	mov	r3,dph
   04E2 E5 82              1210 	mov	a,dpl
   04E4 90s00r8B           1211 	mov	dptr,#_WD_disable_instance_1_1
   04E7 F0                 1212 	movx	@dptr,a
   04E8 A3                 1213 	inc	dptr
   04E9 EB                 1214 	mov	a,r3
   04EA F0                 1215 	movx	@dptr,a
   04EB A3                 1216 	inc	dptr
   04EC EA                 1217 	mov	a,r2
   04ED F0                 1218 	movx	@dptr,a
                    04EE   1219 	C$core_watchdog.c$73$2$2 ==.
                           1220 ;	../drivers/CoreWatchdog/core_watchdog.c:73: HAL_ASSERT( instance != NULL_instance )
                           1221 ;	genAssign
   04EE 90s00r8B           1222 	mov	dptr,#_WD_disable_instance_1_1
   04F1 E0                 1223 	movx	a,@dptr
   04F2 FA                 1224 	mov	r2,a
   04F3 A3                 1225 	inc	dptr
   04F4 E0                 1226 	movx	a,@dptr
   04F5 FB                 1227 	mov	r3,a
   04F6 A3                 1228 	inc	dptr
   04F7 E0                 1229 	movx	a,@dptr
   04F8 FC                 1230 	mov	r4,a
                           1231 ;	genAssign
   04F9 90s00r00           1232 	mov	dptr,#_NULL_instance
   04FC E0                 1233 	movx	a,@dptr
   04FD FD                 1234 	mov	r5,a
   04FE A3                 1235 	inc	dptr
   04FF E0                 1236 	movx	a,@dptr
   0500 FE                 1237 	mov	r6,a
   0501 A3                 1238 	inc	dptr
   0502 E0                 1239 	movx	a,@dptr
   0503 FF                 1240 	mov	r7,a
                           1241 ;	genCmpEq
                           1242 ;	gencjneshort
   0504 EA                 1243 	mov	a,r2
   0505 B5 05 0A           1244 	cjne	a,ar5,00109$
   0508 EB                 1245 	mov	a,r3
   0509 B5 06 06           1246 	cjne	a,ar6,00109$
   050C EC                 1247 	mov	a,r4
   050D B5 07 02           1248 	cjne	a,ar7,00109$
   0510 80 03              1249 	sjmp	00110$
   0512                    1250 00109$:
   0512 02s06r1E           1251 	ljmp	00104$
   0515                    1252 00110$:
                           1253 ;	genPointerSet
                           1254 ;     genFarPointerSet
   0515 90s00r8E           1255 	mov	dptr,#_WD_disable_file_name_3_3
   0518 74 2E              1256 	mov	a,#0x2E
   051A F0                 1257 	movx	@dptr,a
                           1258 ;	genPointerSet
                           1259 ;     genFarPointerSet
   051B 90s00r8F           1260 	mov	dptr,#(_WD_disable_file_name_3_3 + 0x0001)
   051E 74 2E              1261 	mov	a,#0x2E
   0520 F0                 1262 	movx	@dptr,a
                           1263 ;	genPointerSet
                           1264 ;     genFarPointerSet
   0521 90s00r90           1265 	mov	dptr,#(_WD_disable_file_name_3_3 + 0x0002)
   0524 74 2F              1266 	mov	a,#0x2F
   0526 F0                 1267 	movx	@dptr,a
                           1268 ;	genPointerSet
                           1269 ;     genFarPointerSet
   0527 90s00r91           1270 	mov	dptr,#(_WD_disable_file_name_3_3 + 0x0003)
   052A 74 64              1271 	mov	a,#0x64
   052C F0                 1272 	movx	@dptr,a
                           1273 ;	genPointerSet
                           1274 ;     genFarPointerSet
   052D 90s00r92           1275 	mov	dptr,#(_WD_disable_file_name_3_3 + 0x0004)
   0530 74 72              1276 	mov	a,#0x72
   0532 F0                 1277 	movx	@dptr,a
                           1278 ;	genPointerSet
                           1279 ;     genFarPointerSet
   0533 90s00r93           1280 	mov	dptr,#(_WD_disable_file_name_3_3 + 0x0005)
   0536 74 69              1281 	mov	a,#0x69
   0538 F0                 1282 	movx	@dptr,a
                           1283 ;	genPointerSet
                           1284 ;     genFarPointerSet
   0539 90s00r94           1285 	mov	dptr,#(_WD_disable_file_name_3_3 + 0x0006)
   053C 74 76              1286 	mov	a,#0x76
   053E F0                 1287 	movx	@dptr,a
                           1288 ;	genPointerSet
                           1289 ;     genFarPointerSet
   053F 90s00r95           1290 	mov	dptr,#(_WD_disable_file_name_3_3 + 0x0007)
   0542 74 65              1291 	mov	a,#0x65
   0544 F0                 1292 	movx	@dptr,a
                           1293 ;	genPointerSet
                           1294 ;     genFarPointerSet
   0545 90s00r96           1295 	mov	dptr,#(_WD_disable_file_name_3_3 + 0x0008)
   0548 74 72              1296 	mov	a,#0x72
   054A F0                 1297 	movx	@dptr,a
                           1298 ;	genPointerSet
                           1299 ;     genFarPointerSet
   054B 90s00r97           1300 	mov	dptr,#(_WD_disable_file_name_3_3 + 0x0009)
   054E 74 73              1301 	mov	a,#0x73
   0550 F0                 1302 	movx	@dptr,a
                           1303 ;	genPointerSet
                           1304 ;     genFarPointerSet
   0551 90s00r98           1305 	mov	dptr,#(_WD_disable_file_name_3_3 + 0x000a)
   0554 74 2F              1306 	mov	a,#0x2F
   0556 F0                 1307 	movx	@dptr,a
                           1308 ;	genPointerSet
                           1309 ;     genFarPointerSet
   0557 90s00r99           1310 	mov	dptr,#(_WD_disable_file_name_3_3 + 0x000b)
   055A 74 43              1311 	mov	a,#0x43
   055C F0                 1312 	movx	@dptr,a
                           1313 ;	genPointerSet
                           1314 ;     genFarPointerSet
   055D 90s00r9A           1315 	mov	dptr,#(_WD_disable_file_name_3_3 + 0x000c)
   0560 74 6F              1316 	mov	a,#0x6F
   0562 F0                 1317 	movx	@dptr,a
                           1318 ;	genPointerSet
                           1319 ;     genFarPointerSet
   0563 90s00r9B           1320 	mov	dptr,#(_WD_disable_file_name_3_3 + 0x000d)
   0566 74 72              1321 	mov	a,#0x72
   0568 F0                 1322 	movx	@dptr,a
                           1323 ;	genPointerSet
                           1324 ;     genFarPointerSet
   0569 90s00r9C           1325 	mov	dptr,#(_WD_disable_file_name_3_3 + 0x000e)
   056C 74 65              1326 	mov	a,#0x65
   056E F0                 1327 	movx	@dptr,a
                           1328 ;	genPointerSet
                           1329 ;     genFarPointerSet
   056F 90s00r9D           1330 	mov	dptr,#(_WD_disable_file_name_3_3 + 0x000f)
   0572 74 57              1331 	mov	a,#0x57
   0574 F0                 1332 	movx	@dptr,a
                           1333 ;	genPointerSet
                           1334 ;     genFarPointerSet
   0575 90s00r9E           1335 	mov	dptr,#(_WD_disable_file_name_3_3 + 0x0010)
   0578 74 61              1336 	mov	a,#0x61
   057A F0                 1337 	movx	@dptr,a
                           1338 ;	genPointerSet
                           1339 ;     genFarPointerSet
   057B 90s00r9F           1340 	mov	dptr,#(_WD_disable_file_name_3_3 + 0x0011)
   057E 74 74              1341 	mov	a,#0x74
   0580 F0                 1342 	movx	@dptr,a
                           1343 ;	genPointerSet
                           1344 ;     genFarPointerSet
   0581 90s00rA0           1345 	mov	dptr,#(_WD_disable_file_name_3_3 + 0x0012)
   0584 74 63              1346 	mov	a,#0x63
   0586 F0                 1347 	movx	@dptr,a
                           1348 ;	genPointerSet
                           1349 ;     genFarPointerSet
   0587 90s00rA1           1350 	mov	dptr,#(_WD_disable_file_name_3_3 + 0x0013)
   058A 74 68              1351 	mov	a,#0x68
   058C F0                 1352 	movx	@dptr,a
                           1353 ;	genPointerSet
                           1354 ;     genFarPointerSet
   058D 90s00rA2           1355 	mov	dptr,#(_WD_disable_file_name_3_3 + 0x0014)
   0590 74 64              1356 	mov	a,#0x64
   0592 F0                 1357 	movx	@dptr,a
                           1358 ;	genPointerSet
                           1359 ;     genFarPointerSet
   0593 90s00rA3           1360 	mov	dptr,#(_WD_disable_file_name_3_3 + 0x0015)
   0596 74 6F              1361 	mov	a,#0x6F
   0598 F0                 1362 	movx	@dptr,a
                           1363 ;	genPointerSet
                           1364 ;     genFarPointerSet
   0599 90s00rA4           1365 	mov	dptr,#(_WD_disable_file_name_3_3 + 0x0016)
   059C 74 67              1366 	mov	a,#0x67
   059E F0                 1367 	movx	@dptr,a
                           1368 ;	genPointerSet
                           1369 ;     genFarPointerSet
   059F 90s00rA5           1370 	mov	dptr,#(_WD_disable_file_name_3_3 + 0x0017)
   05A2 74 2F              1371 	mov	a,#0x2F
   05A4 F0                 1372 	movx	@dptr,a
                           1373 ;	genPointerSet
                           1374 ;     genFarPointerSet
   05A5 90s00rA6           1375 	mov	dptr,#(_WD_disable_file_name_3_3 + 0x0018)
   05A8 74 63              1376 	mov	a,#0x63
   05AA F0                 1377 	movx	@dptr,a
                           1378 ;	genPointerSet
                           1379 ;     genFarPointerSet
   05AB 90s00rA7           1380 	mov	dptr,#(_WD_disable_file_name_3_3 + 0x0019)
   05AE 74 6F              1381 	mov	a,#0x6F
   05B0 F0                 1382 	movx	@dptr,a
                           1383 ;	genPointerSet
                           1384 ;     genFarPointerSet
   05B1 90s00rA8           1385 	mov	dptr,#(_WD_disable_file_name_3_3 + 0x001a)
   05B4 74 72              1386 	mov	a,#0x72
   05B6 F0                 1387 	movx	@dptr,a
                           1388 ;	genPointerSet
                           1389 ;     genFarPointerSet
   05B7 90s00rA9           1390 	mov	dptr,#(_WD_disable_file_name_3_3 + 0x001b)
   05BA 74 65              1391 	mov	a,#0x65
   05BC F0                 1392 	movx	@dptr,a
                           1393 ;	genPointerSet
                           1394 ;     genFarPointerSet
   05BD 90s00rAA           1395 	mov	dptr,#(_WD_disable_file_name_3_3 + 0x001c)
   05C0 74 5F              1396 	mov	a,#0x5F
   05C2 F0                 1397 	movx	@dptr,a
                           1398 ;	genPointerSet
                           1399 ;     genFarPointerSet
   05C3 90s00rAB           1400 	mov	dptr,#(_WD_disable_file_name_3_3 + 0x001d)
   05C6 74 77              1401 	mov	a,#0x77
   05C8 F0                 1402 	movx	@dptr,a
                           1403 ;	genPointerSet
                           1404 ;     genFarPointerSet
   05C9 90s00rAC           1405 	mov	dptr,#(_WD_disable_file_name_3_3 + 0x001e)
   05CC 74 61              1406 	mov	a,#0x61
   05CE F0                 1407 	movx	@dptr,a
                           1408 ;	genPointerSet
                           1409 ;     genFarPointerSet
   05CF 90s00rAD           1410 	mov	dptr,#(_WD_disable_file_name_3_3 + 0x001f)
   05D2 74 74              1411 	mov	a,#0x74
   05D4 F0                 1412 	movx	@dptr,a
                           1413 ;	genPointerSet
                           1414 ;     genFarPointerSet
   05D5 90s00rAE           1415 	mov	dptr,#(_WD_disable_file_name_3_3 + 0x0020)
   05D8 74 63              1416 	mov	a,#0x63
   05DA F0                 1417 	movx	@dptr,a
                           1418 ;	genPointerSet
                           1419 ;     genFarPointerSet
   05DB 90s00rAF           1420 	mov	dptr,#(_WD_disable_file_name_3_3 + 0x0021)
   05DE 74 68              1421 	mov	a,#0x68
   05E0 F0                 1422 	movx	@dptr,a
                           1423 ;	genPointerSet
                           1424 ;     genFarPointerSet
   05E1 90s00rB0           1425 	mov	dptr,#(_WD_disable_file_name_3_3 + 0x0022)
   05E4 74 64              1426 	mov	a,#0x64
   05E6 F0                 1427 	movx	@dptr,a
                           1428 ;	genPointerSet
                           1429 ;     genFarPointerSet
   05E7 90s00rB1           1430 	mov	dptr,#(_WD_disable_file_name_3_3 + 0x0023)
   05EA 74 6F              1431 	mov	a,#0x6F
   05EC F0                 1432 	movx	@dptr,a
                           1433 ;	genPointerSet
                           1434 ;     genFarPointerSet
   05ED 90s00rB2           1435 	mov	dptr,#(_WD_disable_file_name_3_3 + 0x0024)
   05F0 74 67              1436 	mov	a,#0x67
   05F2 F0                 1437 	movx	@dptr,a
                           1438 ;	genPointerSet
                           1439 ;     genFarPointerSet
   05F3 90s00rB3           1440 	mov	dptr,#(_WD_disable_file_name_3_3 + 0x0025)
   05F6 74 2E              1441 	mov	a,#0x2E
   05F8 F0                 1442 	movx	@dptr,a
                           1443 ;	genPointerSet
                           1444 ;     genFarPointerSet
   05F9 90s00rB4           1445 	mov	dptr,#(_WD_disable_file_name_3_3 + 0x0026)
   05FC 74 63              1446 	mov	a,#0x63
   05FE F0                 1447 	movx	@dptr,a
                           1448 ;	genPointerSet
                           1449 ;     genFarPointerSet
   05FF 90s00rB5           1450 	mov	dptr,#(_WD_disable_file_name_3_3 + 0x0027)
   0602 74 00              1451 	mov	a,#0x00
   0604 F0                 1452 	movx	@dptr,a
                           1453 ;	genAssign
   0605 90s00r00           1454 	mov	dptr,#_HAL_assert_fail_PARM_2
   0608 74 49              1455 	mov	a,#0x49
   060A F0                 1456 	movx	@dptr,a
   060B E4                 1457 	clr	a
   060C A3                 1458 	inc	dptr
   060D F0                 1459 	movx	@dptr,a
   060E A3                 1460 	inc	dptr
   060F F0                 1461 	movx	@dptr,a
   0610 A3                 1462 	inc	dptr
   0611 F0                 1463 	movx	@dptr,a
                           1464 ;	genCall
   0612 75 82r8E           1465 	mov	dpl,#_WD_disable_file_name_3_3
   0615 75 83s00           1466 	mov	dph,#(_WD_disable_file_name_3_3 >> 8)
   0618 75 F0 00           1467 	mov	b,#0x00
   061B 12s00r00           1468 	lcall	_HAL_assert_fail
   061E                    1469 00104$:
                    061E   1470 	C$core_watchdog.c$75$1$1 ==.
                           1471 ;	../drivers/CoreWatchdog/core_watchdog.c:75: HAL_set_32bit_reg_field( instance->base_address, WDOGCONTROL_WATCHDOG_ENABLE, 0 );
                           1472 ;	genAssign
   061E 90s00r8B           1473 	mov	dptr,#_WD_disable_instance_1_1
   0621 E0                 1474 	movx	a,@dptr
   0622 FA                 1475 	mov	r2,a
   0623 A3                 1476 	inc	dptr
   0624 E0                 1477 	movx	a,@dptr
   0625 FB                 1478 	mov	r3,a
   0626 A3                 1479 	inc	dptr
   0627 E0                 1480 	movx	a,@dptr
   0628 FC                 1481 	mov	r4,a
                           1482 ;	genPointerGet
                           1483 ;	genGenPointerGet
   0629 8A 82              1484 	mov	dpl,r2
   062B 8B 83              1485 	mov	dph,r3
   062D 8C F0              1486 	mov	b,r4
   062F 12s00r00           1487 	lcall	__gptrget
   0632 FA                 1488 	mov	r2,a
   0633 A3                 1489 	inc	dptr
   0634 12s00r00           1490 	lcall	__gptrget
   0637 FB                 1491 	mov	r3,a
                           1492 ;	genPlus
                           1493 ;	genPlusIncr
   0638 74 08              1494 	mov	a,#0x08
   063A 25 02              1495 	add	a,ar2
   063C FA                 1496 	mov	r2,a
   063D 74 00              1497 	mov	a,#0x00
   063F 35 03              1498 	addc	a,ar3
   0641 FB                 1499 	mov	r3,a
                           1500 ;	genAssign
   0642 90s00r00           1501 	mov	dptr,#_HW_set_32bit_reg_field_PARM_2
   0645 74 04              1502 	mov	a,#0x04
   0647 F0                 1503 	movx	@dptr,a
                           1504 ;	genAssign
   0648 90s00r00           1505 	mov	dptr,#_HW_set_32bit_reg_field_PARM_3
   064B 74 10              1506 	mov	a,#0x10
   064D F0                 1507 	movx	@dptr,a
   064E E4                 1508 	clr	a
   064F A3                 1509 	inc	dptr
   0650 F0                 1510 	movx	@dptr,a
   0651 A3                 1511 	inc	dptr
   0652 F0                 1512 	movx	@dptr,a
   0653 A3                 1513 	inc	dptr
   0654 F0                 1514 	movx	@dptr,a
                           1515 ;	genAssign
   0655 90s00r00           1516 	mov	dptr,#_HW_set_32bit_reg_field_PARM_4
   0658 E4                 1517 	clr	a
   0659 F0                 1518 	movx	@dptr,a
   065A A3                 1519 	inc	dptr
   065B F0                 1520 	movx	@dptr,a
   065C A3                 1521 	inc	dptr
   065D F0                 1522 	movx	@dptr,a
   065E A3                 1523 	inc	dptr
   065F F0                 1524 	movx	@dptr,a
                           1525 ;	genCall
   0660 8A 82              1526 	mov	dpl,r2
   0662 8B 83              1527 	mov	dph,r3
   0664 12s00r00           1528 	lcall	_HW_set_32bit_reg_field
   0667                    1529 00106$:
                    0667   1530 	C$core_watchdog.c$76$1$1 ==.
                    0667   1531 	XG$WD_disable$0$0 ==.
   0667 22                 1532 	ret
                           1533 ;------------------------------------------------------------
                           1534 ;Allocation info for local variables in function 'WD_reload'
                           1535 ;------------------------------------------------------------
                           1536 ;instance                  Allocated with name '_WD_reload_instance_1_1'
                           1537 ;file_name                 Allocated with name '_WD_reload_file_name_3_3'
                           1538 ;------------------------------------------------------------
                    0668   1539 	G$WD_reload$0$0 ==.
                    0668   1540 	C$core_watchdog.c$84$1$1 ==.
                           1541 ;	../drivers/CoreWatchdog/core_watchdog.c:84: WD_reload
                           1542 ;	-----------------------------------------
                           1543 ;	 function WD_reload
                           1544 ;	-----------------------------------------
   0668                    1545 _WD_reload:
                           1546 ;	genReceive
   0668 AA F0              1547 	mov	r2,b
   066A AB 83              1548 	mov	r3,dph
   066C E5 82              1549 	mov	a,dpl
   066E 90s00rB6           1550 	mov	dptr,#_WD_reload_instance_1_1
   0671 F0                 1551 	movx	@dptr,a
   0672 A3                 1552 	inc	dptr
   0673 EB                 1553 	mov	a,r3
   0674 F0                 1554 	movx	@dptr,a
   0675 A3                 1555 	inc	dptr
   0676 EA                 1556 	mov	a,r2
   0677 F0                 1557 	movx	@dptr,a
                    0678   1558 	C$core_watchdog.c$89$2$2 ==.
                           1559 ;	../drivers/CoreWatchdog/core_watchdog.c:89: HAL_ASSERT( instance != NULL_instance )
                           1560 ;	genAssign
   0678 90s00rB6           1561 	mov	dptr,#_WD_reload_instance_1_1
   067B E0                 1562 	movx	a,@dptr
   067C FA                 1563 	mov	r2,a
   067D A3                 1564 	inc	dptr
   067E E0                 1565 	movx	a,@dptr
   067F FB                 1566 	mov	r3,a
   0680 A3                 1567 	inc	dptr
   0681 E0                 1568 	movx	a,@dptr
   0682 FC                 1569 	mov	r4,a
                           1570 ;	genAssign
   0683 90s00r00           1571 	mov	dptr,#_NULL_instance
   0686 E0                 1572 	movx	a,@dptr
   0687 FD                 1573 	mov	r5,a
   0688 A3                 1574 	inc	dptr
   0689 E0                 1575 	movx	a,@dptr
   068A FE                 1576 	mov	r6,a
   068B A3                 1577 	inc	dptr
   068C E0                 1578 	movx	a,@dptr
   068D FF                 1579 	mov	r7,a
                           1580 ;	genCmpEq
                           1581 ;	gencjneshort
   068E EA                 1582 	mov	a,r2
   068F B5 05 0A           1583 	cjne	a,ar5,00109$
   0692 EB                 1584 	mov	a,r3
   0693 B5 06 06           1585 	cjne	a,ar6,00109$
   0696 EC                 1586 	mov	a,r4
   0697 B5 07 02           1587 	cjne	a,ar7,00109$
   069A 80 03              1588 	sjmp	00110$
   069C                    1589 00109$:
   069C 02s07rA8           1590 	ljmp	00104$
   069F                    1591 00110$:
                           1592 ;	genPointerSet
                           1593 ;     genFarPointerSet
   069F 90s00rB9           1594 	mov	dptr,#_WD_reload_file_name_3_3
   06A2 74 2E              1595 	mov	a,#0x2E
   06A4 F0                 1596 	movx	@dptr,a
                           1597 ;	genPointerSet
                           1598 ;     genFarPointerSet
   06A5 90s00rBA           1599 	mov	dptr,#(_WD_reload_file_name_3_3 + 0x0001)
   06A8 74 2E              1600 	mov	a,#0x2E
   06AA F0                 1601 	movx	@dptr,a
                           1602 ;	genPointerSet
                           1603 ;     genFarPointerSet
   06AB 90s00rBB           1604 	mov	dptr,#(_WD_reload_file_name_3_3 + 0x0002)
   06AE 74 2F              1605 	mov	a,#0x2F
   06B0 F0                 1606 	movx	@dptr,a
                           1607 ;	genPointerSet
                           1608 ;     genFarPointerSet
   06B1 90s00rBC           1609 	mov	dptr,#(_WD_reload_file_name_3_3 + 0x0003)
   06B4 74 64              1610 	mov	a,#0x64
   06B6 F0                 1611 	movx	@dptr,a
                           1612 ;	genPointerSet
                           1613 ;     genFarPointerSet
   06B7 90s00rBD           1614 	mov	dptr,#(_WD_reload_file_name_3_3 + 0x0004)
   06BA 74 72              1615 	mov	a,#0x72
   06BC F0                 1616 	movx	@dptr,a
                           1617 ;	genPointerSet
                           1618 ;     genFarPointerSet
   06BD 90s00rBE           1619 	mov	dptr,#(_WD_reload_file_name_3_3 + 0x0005)
   06C0 74 69              1620 	mov	a,#0x69
   06C2 F0                 1621 	movx	@dptr,a
                           1622 ;	genPointerSet
                           1623 ;     genFarPointerSet
   06C3 90s00rBF           1624 	mov	dptr,#(_WD_reload_file_name_3_3 + 0x0006)
   06C6 74 76              1625 	mov	a,#0x76
   06C8 F0                 1626 	movx	@dptr,a
                           1627 ;	genPointerSet
                           1628 ;     genFarPointerSet
   06C9 90s00rC0           1629 	mov	dptr,#(_WD_reload_file_name_3_3 + 0x0007)
   06CC 74 65              1630 	mov	a,#0x65
   06CE F0                 1631 	movx	@dptr,a
                           1632 ;	genPointerSet
                           1633 ;     genFarPointerSet
   06CF 90s00rC1           1634 	mov	dptr,#(_WD_reload_file_name_3_3 + 0x0008)
   06D2 74 72              1635 	mov	a,#0x72
   06D4 F0                 1636 	movx	@dptr,a
                           1637 ;	genPointerSet
                           1638 ;     genFarPointerSet
   06D5 90s00rC2           1639 	mov	dptr,#(_WD_reload_file_name_3_3 + 0x0009)
   06D8 74 73              1640 	mov	a,#0x73
   06DA F0                 1641 	movx	@dptr,a
                           1642 ;	genPointerSet
                           1643 ;     genFarPointerSet
   06DB 90s00rC3           1644 	mov	dptr,#(_WD_reload_file_name_3_3 + 0x000a)
   06DE 74 2F              1645 	mov	a,#0x2F
   06E0 F0                 1646 	movx	@dptr,a
                           1647 ;	genPointerSet
                           1648 ;     genFarPointerSet
   06E1 90s00rC4           1649 	mov	dptr,#(_WD_reload_file_name_3_3 + 0x000b)
   06E4 74 43              1650 	mov	a,#0x43
   06E6 F0                 1651 	movx	@dptr,a
                           1652 ;	genPointerSet
                           1653 ;     genFarPointerSet
   06E7 90s00rC5           1654 	mov	dptr,#(_WD_reload_file_name_3_3 + 0x000c)
   06EA 74 6F              1655 	mov	a,#0x6F
   06EC F0                 1656 	movx	@dptr,a
                           1657 ;	genPointerSet
                           1658 ;     genFarPointerSet
   06ED 90s00rC6           1659 	mov	dptr,#(_WD_reload_file_name_3_3 + 0x000d)
   06F0 74 72              1660 	mov	a,#0x72
   06F2 F0                 1661 	movx	@dptr,a
                           1662 ;	genPointerSet
                           1663 ;     genFarPointerSet
   06F3 90s00rC7           1664 	mov	dptr,#(_WD_reload_file_name_3_3 + 0x000e)
   06F6 74 65              1665 	mov	a,#0x65
   06F8 F0                 1666 	movx	@dptr,a
                           1667 ;	genPointerSet
                           1668 ;     genFarPointerSet
   06F9 90s00rC8           1669 	mov	dptr,#(_WD_reload_file_name_3_3 + 0x000f)
   06FC 74 57              1670 	mov	a,#0x57
   06FE F0                 1671 	movx	@dptr,a
                           1672 ;	genPointerSet
                           1673 ;     genFarPointerSet
   06FF 90s00rC9           1674 	mov	dptr,#(_WD_reload_file_name_3_3 + 0x0010)
   0702 74 61              1675 	mov	a,#0x61
   0704 F0                 1676 	movx	@dptr,a
                           1677 ;	genPointerSet
                           1678 ;     genFarPointerSet
   0705 90s00rCA           1679 	mov	dptr,#(_WD_reload_file_name_3_3 + 0x0011)
   0708 74 74              1680 	mov	a,#0x74
   070A F0                 1681 	movx	@dptr,a
                           1682 ;	genPointerSet
                           1683 ;     genFarPointerSet
   070B 90s00rCB           1684 	mov	dptr,#(_WD_reload_file_name_3_3 + 0x0012)
   070E 74 63              1685 	mov	a,#0x63
   0710 F0                 1686 	movx	@dptr,a
                           1687 ;	genPointerSet
                           1688 ;     genFarPointerSet
   0711 90s00rCC           1689 	mov	dptr,#(_WD_reload_file_name_3_3 + 0x0013)
   0714 74 68              1690 	mov	a,#0x68
   0716 F0                 1691 	movx	@dptr,a
                           1692 ;	genPointerSet
                           1693 ;     genFarPointerSet
   0717 90s00rCD           1694 	mov	dptr,#(_WD_reload_file_name_3_3 + 0x0014)
   071A 74 64              1695 	mov	a,#0x64
   071C F0                 1696 	movx	@dptr,a
                           1697 ;	genPointerSet
                           1698 ;     genFarPointerSet
   071D 90s00rCE           1699 	mov	dptr,#(_WD_reload_file_name_3_3 + 0x0015)
   0720 74 6F              1700 	mov	a,#0x6F
   0722 F0                 1701 	movx	@dptr,a
                           1702 ;	genPointerSet
                           1703 ;     genFarPointerSet
   0723 90s00rCF           1704 	mov	dptr,#(_WD_reload_file_name_3_3 + 0x0016)
   0726 74 67              1705 	mov	a,#0x67
   0728 F0                 1706 	movx	@dptr,a
                           1707 ;	genPointerSet
                           1708 ;     genFarPointerSet
   0729 90s00rD0           1709 	mov	dptr,#(_WD_reload_file_name_3_3 + 0x0017)
   072C 74 2F              1710 	mov	a,#0x2F
   072E F0                 1711 	movx	@dptr,a
                           1712 ;	genPointerSet
                           1713 ;     genFarPointerSet
   072F 90s00rD1           1714 	mov	dptr,#(_WD_reload_file_name_3_3 + 0x0018)
   0732 74 63              1715 	mov	a,#0x63
   0734 F0                 1716 	movx	@dptr,a
                           1717 ;	genPointerSet
                           1718 ;     genFarPointerSet
   0735 90s00rD2           1719 	mov	dptr,#(_WD_reload_file_name_3_3 + 0x0019)
   0738 74 6F              1720 	mov	a,#0x6F
   073A F0                 1721 	movx	@dptr,a
                           1722 ;	genPointerSet
                           1723 ;     genFarPointerSet
   073B 90s00rD3           1724 	mov	dptr,#(_WD_reload_file_name_3_3 + 0x001a)
   073E 74 72              1725 	mov	a,#0x72
   0740 F0                 1726 	movx	@dptr,a
                           1727 ;	genPointerSet
                           1728 ;     genFarPointerSet
   0741 90s00rD4           1729 	mov	dptr,#(_WD_reload_file_name_3_3 + 0x001b)
   0744 74 65              1730 	mov	a,#0x65
   0746 F0                 1731 	movx	@dptr,a
                           1732 ;	genPointerSet
                           1733 ;     genFarPointerSet
   0747 90s00rD5           1734 	mov	dptr,#(_WD_reload_file_name_3_3 + 0x001c)
   074A 74 5F              1735 	mov	a,#0x5F
   074C F0                 1736 	movx	@dptr,a
                           1737 ;	genPointerSet
                           1738 ;     genFarPointerSet
   074D 90s00rD6           1739 	mov	dptr,#(_WD_reload_file_name_3_3 + 0x001d)
   0750 74 77              1740 	mov	a,#0x77
   0752 F0                 1741 	movx	@dptr,a
                           1742 ;	genPointerSet
                           1743 ;     genFarPointerSet
   0753 90s00rD7           1744 	mov	dptr,#(_WD_reload_file_name_3_3 + 0x001e)
   0756 74 61              1745 	mov	a,#0x61
   0758 F0                 1746 	movx	@dptr,a
                           1747 ;	genPointerSet
                           1748 ;     genFarPointerSet
   0759 90s00rD8           1749 	mov	dptr,#(_WD_reload_file_name_3_3 + 0x001f)
   075C 74 74              1750 	mov	a,#0x74
   075E F0                 1751 	movx	@dptr,a
                           1752 ;	genPointerSet
                           1753 ;     genFarPointerSet
   075F 90s00rD9           1754 	mov	dptr,#(_WD_reload_file_name_3_3 + 0x0020)
   0762 74 63              1755 	mov	a,#0x63
   0764 F0                 1756 	movx	@dptr,a
                           1757 ;	genPointerSet
                           1758 ;     genFarPointerSet
   0765 90s00rDA           1759 	mov	dptr,#(_WD_reload_file_name_3_3 + 0x0021)
   0768 74 68              1760 	mov	a,#0x68
   076A F0                 1761 	movx	@dptr,a
                           1762 ;	genPointerSet
                           1763 ;     genFarPointerSet
   076B 90s00rDB           1764 	mov	dptr,#(_WD_reload_file_name_3_3 + 0x0022)
   076E 74 64              1765 	mov	a,#0x64
   0770 F0                 1766 	movx	@dptr,a
                           1767 ;	genPointerSet
                           1768 ;     genFarPointerSet
   0771 90s00rDC           1769 	mov	dptr,#(_WD_reload_file_name_3_3 + 0x0023)
   0774 74 6F              1770 	mov	a,#0x6F
   0776 F0                 1771 	movx	@dptr,a
                           1772 ;	genPointerSet
                           1773 ;     genFarPointerSet
   0777 90s00rDD           1774 	mov	dptr,#(_WD_reload_file_name_3_3 + 0x0024)
   077A 74 67              1775 	mov	a,#0x67
   077C F0                 1776 	movx	@dptr,a
                           1777 ;	genPointerSet
                           1778 ;     genFarPointerSet
   077D 90s00rDE           1779 	mov	dptr,#(_WD_reload_file_name_3_3 + 0x0025)
   0780 74 2E              1780 	mov	a,#0x2E
   0782 F0                 1781 	movx	@dptr,a
                           1782 ;	genPointerSet
                           1783 ;     genFarPointerSet
   0783 90s00rDF           1784 	mov	dptr,#(_WD_reload_file_name_3_3 + 0x0026)
   0786 74 63              1785 	mov	a,#0x63
   0788 F0                 1786 	movx	@dptr,a
                           1787 ;	genPointerSet
                           1788 ;     genFarPointerSet
   0789 90s00rE0           1789 	mov	dptr,#(_WD_reload_file_name_3_3 + 0x0027)
   078C 74 00              1790 	mov	a,#0x00
   078E F0                 1791 	movx	@dptr,a
                           1792 ;	genAssign
   078F 90s00r00           1793 	mov	dptr,#_HAL_assert_fail_PARM_2
   0792 74 59              1794 	mov	a,#0x59
   0794 F0                 1795 	movx	@dptr,a
   0795 E4                 1796 	clr	a
   0796 A3                 1797 	inc	dptr
   0797 F0                 1798 	movx	@dptr,a
   0798 A3                 1799 	inc	dptr
   0799 F0                 1800 	movx	@dptr,a
   079A A3                 1801 	inc	dptr
   079B F0                 1802 	movx	@dptr,a
                           1803 ;	genCall
   079C 75 82rB9           1804 	mov	dpl,#_WD_reload_file_name_3_3
   079F 75 83s00           1805 	mov	dph,#(_WD_reload_file_name_3_3 >> 8)
   07A2 75 F0 00           1806 	mov	b,#0x00
   07A5 12s00r00           1807 	lcall	_HAL_assert_fail
   07A8                    1808 00104$:
                    07A8   1809 	C$core_watchdog.c$91$1$1 ==.
                           1810 ;	../drivers/CoreWatchdog/core_watchdog.c:91: HAL_set_32bit_reg( instance->base_address, WDOGREFRESH, 1 );
                           1811 ;	genAssign
   07A8 90s00rB6           1812 	mov	dptr,#_WD_reload_instance_1_1
   07AB E0                 1813 	movx	a,@dptr
   07AC FA                 1814 	mov	r2,a
   07AD A3                 1815 	inc	dptr
   07AE E0                 1816 	movx	a,@dptr
   07AF FB                 1817 	mov	r3,a
   07B0 A3                 1818 	inc	dptr
   07B1 E0                 1819 	movx	a,@dptr
   07B2 FC                 1820 	mov	r4,a
                           1821 ;	genPointerGet
                           1822 ;	genGenPointerGet
   07B3 8A 82              1823 	mov	dpl,r2
   07B5 8B 83              1824 	mov	dph,r3
   07B7 8C F0              1825 	mov	b,r4
   07B9 12s00r00           1826 	lcall	__gptrget
   07BC FA                 1827 	mov	r2,a
   07BD A3                 1828 	inc	dptr
   07BE 12s00r00           1829 	lcall	__gptrget
   07C1 FB                 1830 	mov	r3,a
                           1831 ;	genPlus
                           1832 ;	genPlusIncr
   07C2 74 0C              1833 	mov	a,#0x0C
   07C4 25 02              1834 	add	a,ar2
   07C6 FA                 1835 	mov	r2,a
   07C7 74 00              1836 	mov	a,#0x00
   07C9 35 03              1837 	addc	a,ar3
   07CB FB                 1838 	mov	r3,a
                           1839 ;	genAssign
   07CC 90s00r00           1840 	mov	dptr,#_HW_set_32bit_reg_PARM_2
   07CF 74 01              1841 	mov	a,#0x01
   07D1 F0                 1842 	movx	@dptr,a
   07D2 E4                 1843 	clr	a
   07D3 A3                 1844 	inc	dptr
   07D4 F0                 1845 	movx	@dptr,a
   07D5 A3                 1846 	inc	dptr
   07D6 F0                 1847 	movx	@dptr,a
   07D7 A3                 1848 	inc	dptr
   07D8 F0                 1849 	movx	@dptr,a
                           1850 ;	genCall
   07D9 8A 82              1851 	mov	dpl,r2
   07DB 8B 83              1852 	mov	dph,r3
   07DD 12s00r00           1853 	lcall	_HW_set_32bit_reg
   07E0                    1854 00106$:
                    07E0   1855 	C$core_watchdog.c$92$1$1 ==.
                    07E0   1856 	XG$WD_reload$0$0 ==.
   07E0 22                 1857 	ret
                           1858 ;------------------------------------------------------------
                           1859 ;Allocation info for local variables in function 'WD_current_value'
                           1860 ;------------------------------------------------------------
                           1861 ;instance                  Allocated with name '_WD_current_value_instance_1_1'
                           1862 ;file_name                 Allocated with name '_WD_current_value_file_name_3_3'
                           1863 ;------------------------------------------------------------
                    07E1   1864 	G$WD_current_value$0$0 ==.
                    07E1   1865 	C$core_watchdog.c$100$1$1 ==.
                           1866 ;	../drivers/CoreWatchdog/core_watchdog.c:100: WD_current_value
                           1867 ;	-----------------------------------------
                           1868 ;	 function WD_current_value
                           1869 ;	-----------------------------------------
   07E1                    1870 _WD_current_value:
                           1871 ;	genReceive
   07E1 AA F0              1872 	mov	r2,b
   07E3 AB 83              1873 	mov	r3,dph
   07E5 E5 82              1874 	mov	a,dpl
   07E7 90s00rE1           1875 	mov	dptr,#_WD_current_value_instance_1_1
   07EA F0                 1876 	movx	@dptr,a
   07EB A3                 1877 	inc	dptr
   07EC EB                 1878 	mov	a,r3
   07ED F0                 1879 	movx	@dptr,a
   07EE A3                 1880 	inc	dptr
   07EF EA                 1881 	mov	a,r2
   07F0 F0                 1882 	movx	@dptr,a
                    07F1   1883 	C$core_watchdog.c$105$2$2 ==.
                           1884 ;	../drivers/CoreWatchdog/core_watchdog.c:105: HAL_ASSERT( instance != NULL_instance )
                           1885 ;	genAssign
   07F1 90s00rE1           1886 	mov	dptr,#_WD_current_value_instance_1_1
   07F4 E0                 1887 	movx	a,@dptr
   07F5 FA                 1888 	mov	r2,a
   07F6 A3                 1889 	inc	dptr
   07F7 E0                 1890 	movx	a,@dptr
   07F8 FB                 1891 	mov	r3,a
   07F9 A3                 1892 	inc	dptr
   07FA E0                 1893 	movx	a,@dptr
   07FB FC                 1894 	mov	r4,a
                           1895 ;	genAssign
   07FC 90s00r00           1896 	mov	dptr,#_NULL_instance
   07FF E0                 1897 	movx	a,@dptr
   0800 FD                 1898 	mov	r5,a
   0801 A3                 1899 	inc	dptr
   0802 E0                 1900 	movx	a,@dptr
   0803 FE                 1901 	mov	r6,a
   0804 A3                 1902 	inc	dptr
   0805 E0                 1903 	movx	a,@dptr
   0806 FF                 1904 	mov	r7,a
                           1905 ;	genCmpEq
                           1906 ;	gencjneshort
   0807 EA                 1907 	mov	a,r2
   0808 B5 05 0A           1908 	cjne	a,ar5,00109$
   080B EB                 1909 	mov	a,r3
   080C B5 06 06           1910 	cjne	a,ar6,00109$
   080F EC                 1911 	mov	a,r4
   0810 B5 07 02           1912 	cjne	a,ar7,00109$
   0813 80 03              1913 	sjmp	00110$
   0815                    1914 00109$:
   0815 02s09r21           1915 	ljmp	00104$
   0818                    1916 00110$:
                           1917 ;	genPointerSet
                           1918 ;     genFarPointerSet
   0818 90s00rE4           1919 	mov	dptr,#_WD_current_value_file_name_3_3
   081B 74 2E              1920 	mov	a,#0x2E
   081D F0                 1921 	movx	@dptr,a
                           1922 ;	genPointerSet
                           1923 ;     genFarPointerSet
   081E 90s00rE5           1924 	mov	dptr,#(_WD_current_value_file_name_3_3 + 0x0001)
   0821 74 2E              1925 	mov	a,#0x2E
   0823 F0                 1926 	movx	@dptr,a
                           1927 ;	genPointerSet
                           1928 ;     genFarPointerSet
   0824 90s00rE6           1929 	mov	dptr,#(_WD_current_value_file_name_3_3 + 0x0002)
   0827 74 2F              1930 	mov	a,#0x2F
   0829 F0                 1931 	movx	@dptr,a
                           1932 ;	genPointerSet
                           1933 ;     genFarPointerSet
   082A 90s00rE7           1934 	mov	dptr,#(_WD_current_value_file_name_3_3 + 0x0003)
   082D 74 64              1935 	mov	a,#0x64
   082F F0                 1936 	movx	@dptr,a
                           1937 ;	genPointerSet
                           1938 ;     genFarPointerSet
   0830 90s00rE8           1939 	mov	dptr,#(_WD_current_value_file_name_3_3 + 0x0004)
   0833 74 72              1940 	mov	a,#0x72
   0835 F0                 1941 	movx	@dptr,a
                           1942 ;	genPointerSet
                           1943 ;     genFarPointerSet
   0836 90s00rE9           1944 	mov	dptr,#(_WD_current_value_file_name_3_3 + 0x0005)
   0839 74 69              1945 	mov	a,#0x69
   083B F0                 1946 	movx	@dptr,a
                           1947 ;	genPointerSet
                           1948 ;     genFarPointerSet
   083C 90s00rEA           1949 	mov	dptr,#(_WD_current_value_file_name_3_3 + 0x0006)
   083F 74 76              1950 	mov	a,#0x76
   0841 F0                 1951 	movx	@dptr,a
                           1952 ;	genPointerSet
                           1953 ;     genFarPointerSet
   0842 90s00rEB           1954 	mov	dptr,#(_WD_current_value_file_name_3_3 + 0x0007)
   0845 74 65              1955 	mov	a,#0x65
   0847 F0                 1956 	movx	@dptr,a
                           1957 ;	genPointerSet
                           1958 ;     genFarPointerSet
   0848 90s00rEC           1959 	mov	dptr,#(_WD_current_value_file_name_3_3 + 0x0008)
   084B 74 72              1960 	mov	a,#0x72
   084D F0                 1961 	movx	@dptr,a
                           1962 ;	genPointerSet
                           1963 ;     genFarPointerSet
   084E 90s00rED           1964 	mov	dptr,#(_WD_current_value_file_name_3_3 + 0x0009)
   0851 74 73              1965 	mov	a,#0x73
   0853 F0                 1966 	movx	@dptr,a
                           1967 ;	genPointerSet
                           1968 ;     genFarPointerSet
   0854 90s00rEE           1969 	mov	dptr,#(_WD_current_value_file_name_3_3 + 0x000a)
   0857 74 2F              1970 	mov	a,#0x2F
   0859 F0                 1971 	movx	@dptr,a
                           1972 ;	genPointerSet
                           1973 ;     genFarPointerSet
   085A 90s00rEF           1974 	mov	dptr,#(_WD_current_value_file_name_3_3 + 0x000b)
   085D 74 43              1975 	mov	a,#0x43
   085F F0                 1976 	movx	@dptr,a
                           1977 ;	genPointerSet
                           1978 ;     genFarPointerSet
   0860 90s00rF0           1979 	mov	dptr,#(_WD_current_value_file_name_3_3 + 0x000c)
   0863 74 6F              1980 	mov	a,#0x6F
   0865 F0                 1981 	movx	@dptr,a
                           1982 ;	genPointerSet
                           1983 ;     genFarPointerSet
   0866 90s00rF1           1984 	mov	dptr,#(_WD_current_value_file_name_3_3 + 0x000d)
   0869 74 72              1985 	mov	a,#0x72
   086B F0                 1986 	movx	@dptr,a
                           1987 ;	genPointerSet
                           1988 ;     genFarPointerSet
   086C 90s00rF2           1989 	mov	dptr,#(_WD_current_value_file_name_3_3 + 0x000e)
   086F 74 65              1990 	mov	a,#0x65
   0871 F0                 1991 	movx	@dptr,a
                           1992 ;	genPointerSet
                           1993 ;     genFarPointerSet
   0872 90s00rF3           1994 	mov	dptr,#(_WD_current_value_file_name_3_3 + 0x000f)
   0875 74 57              1995 	mov	a,#0x57
   0877 F0                 1996 	movx	@dptr,a
                           1997 ;	genPointerSet
                           1998 ;     genFarPointerSet
   0878 90s00rF4           1999 	mov	dptr,#(_WD_current_value_file_name_3_3 + 0x0010)
   087B 74 61              2000 	mov	a,#0x61
   087D F0                 2001 	movx	@dptr,a
                           2002 ;	genPointerSet
                           2003 ;     genFarPointerSet
   087E 90s00rF5           2004 	mov	dptr,#(_WD_current_value_file_name_3_3 + 0x0011)
   0881 74 74              2005 	mov	a,#0x74
   0883 F0                 2006 	movx	@dptr,a
                           2007 ;	genPointerSet
                           2008 ;     genFarPointerSet
   0884 90s00rF6           2009 	mov	dptr,#(_WD_current_value_file_name_3_3 + 0x0012)
   0887 74 63              2010 	mov	a,#0x63
   0889 F0                 2011 	movx	@dptr,a
                           2012 ;	genPointerSet
                           2013 ;     genFarPointerSet
   088A 90s00rF7           2014 	mov	dptr,#(_WD_current_value_file_name_3_3 + 0x0013)
   088D 74 68              2015 	mov	a,#0x68
   088F F0                 2016 	movx	@dptr,a
                           2017 ;	genPointerSet
                           2018 ;     genFarPointerSet
   0890 90s00rF8           2019 	mov	dptr,#(_WD_current_value_file_name_3_3 + 0x0014)
   0893 74 64              2020 	mov	a,#0x64
   0895 F0                 2021 	movx	@dptr,a
                           2022 ;	genPointerSet
                           2023 ;     genFarPointerSet
   0896 90s00rF9           2024 	mov	dptr,#(_WD_current_value_file_name_3_3 + 0x0015)
   0899 74 6F              2025 	mov	a,#0x6F
   089B F0                 2026 	movx	@dptr,a
                           2027 ;	genPointerSet
                           2028 ;     genFarPointerSet
   089C 90s00rFA           2029 	mov	dptr,#(_WD_current_value_file_name_3_3 + 0x0016)
   089F 74 67              2030 	mov	a,#0x67
   08A1 F0                 2031 	movx	@dptr,a
                           2032 ;	genPointerSet
                           2033 ;     genFarPointerSet
   08A2 90s00rFB           2034 	mov	dptr,#(_WD_current_value_file_name_3_3 + 0x0017)
   08A5 74 2F              2035 	mov	a,#0x2F
   08A7 F0                 2036 	movx	@dptr,a
                           2037 ;	genPointerSet
                           2038 ;     genFarPointerSet
   08A8 90s00rFC           2039 	mov	dptr,#(_WD_current_value_file_name_3_3 + 0x0018)
   08AB 74 63              2040 	mov	a,#0x63
   08AD F0                 2041 	movx	@dptr,a
                           2042 ;	genPointerSet
                           2043 ;     genFarPointerSet
   08AE 90s00rFD           2044 	mov	dptr,#(_WD_current_value_file_name_3_3 + 0x0019)
   08B1 74 6F              2045 	mov	a,#0x6F
   08B3 F0                 2046 	movx	@dptr,a
                           2047 ;	genPointerSet
                           2048 ;     genFarPointerSet
   08B4 90s00rFE           2049 	mov	dptr,#(_WD_current_value_file_name_3_3 + 0x001a)
   08B7 74 72              2050 	mov	a,#0x72
   08B9 F0                 2051 	movx	@dptr,a
                           2052 ;	genPointerSet
                           2053 ;     genFarPointerSet
   08BA 90s00rFF           2054 	mov	dptr,#(_WD_current_value_file_name_3_3 + 0x001b)
   08BD 74 65              2055 	mov	a,#0x65
   08BF F0                 2056 	movx	@dptr,a
                           2057 ;	genPointerSet
                           2058 ;     genFarPointerSet
   08C0 90s01r00           2059 	mov	dptr,#(_WD_current_value_file_name_3_3 + 0x001c)
   08C3 74 5F              2060 	mov	a,#0x5F
   08C5 F0                 2061 	movx	@dptr,a
                           2062 ;	genPointerSet
                           2063 ;     genFarPointerSet
   08C6 90s01r01           2064 	mov	dptr,#(_WD_current_value_file_name_3_3 + 0x001d)
   08C9 74 77              2065 	mov	a,#0x77
   08CB F0                 2066 	movx	@dptr,a
                           2067 ;	genPointerSet
                           2068 ;     genFarPointerSet
   08CC 90s01r02           2069 	mov	dptr,#(_WD_current_value_file_name_3_3 + 0x001e)
   08CF 74 61              2070 	mov	a,#0x61
   08D1 F0                 2071 	movx	@dptr,a
                           2072 ;	genPointerSet
                           2073 ;     genFarPointerSet
   08D2 90s01r03           2074 	mov	dptr,#(_WD_current_value_file_name_3_3 + 0x001f)
   08D5 74 74              2075 	mov	a,#0x74
   08D7 F0                 2076 	movx	@dptr,a
                           2077 ;	genPointerSet
                           2078 ;     genFarPointerSet
   08D8 90s01r04           2079 	mov	dptr,#(_WD_current_value_file_name_3_3 + 0x0020)
   08DB 74 63              2080 	mov	a,#0x63
   08DD F0                 2081 	movx	@dptr,a
                           2082 ;	genPointerSet
                           2083 ;     genFarPointerSet
   08DE 90s01r05           2084 	mov	dptr,#(_WD_current_value_file_name_3_3 + 0x0021)
   08E1 74 68              2085 	mov	a,#0x68
   08E3 F0                 2086 	movx	@dptr,a
                           2087 ;	genPointerSet
                           2088 ;     genFarPointerSet
   08E4 90s01r06           2089 	mov	dptr,#(_WD_current_value_file_name_3_3 + 0x0022)
   08E7 74 64              2090 	mov	a,#0x64
   08E9 F0                 2091 	movx	@dptr,a
                           2092 ;	genPointerSet
                           2093 ;     genFarPointerSet
   08EA 90s01r07           2094 	mov	dptr,#(_WD_current_value_file_name_3_3 + 0x0023)
   08ED 74 6F              2095 	mov	a,#0x6F
   08EF F0                 2096 	movx	@dptr,a
                           2097 ;	genPointerSet
                           2098 ;     genFarPointerSet
   08F0 90s01r08           2099 	mov	dptr,#(_WD_current_value_file_name_3_3 + 0x0024)
   08F3 74 67              2100 	mov	a,#0x67
   08F5 F0                 2101 	movx	@dptr,a
                           2102 ;	genPointerSet
                           2103 ;     genFarPointerSet
   08F6 90s01r09           2104 	mov	dptr,#(_WD_current_value_file_name_3_3 + 0x0025)
   08F9 74 2E              2105 	mov	a,#0x2E
   08FB F0                 2106 	movx	@dptr,a
                           2107 ;	genPointerSet
                           2108 ;     genFarPointerSet
   08FC 90s01r0A           2109 	mov	dptr,#(_WD_current_value_file_name_3_3 + 0x0026)
   08FF 74 63              2110 	mov	a,#0x63
   0901 F0                 2111 	movx	@dptr,a
                           2112 ;	genPointerSet
                           2113 ;     genFarPointerSet
   0902 90s01r0B           2114 	mov	dptr,#(_WD_current_value_file_name_3_3 + 0x0027)
   0905 74 00              2115 	mov	a,#0x00
   0907 F0                 2116 	movx	@dptr,a
                           2117 ;	genAssign
   0908 90s00r00           2118 	mov	dptr,#_HAL_assert_fail_PARM_2
   090B 74 69              2119 	mov	a,#0x69
   090D F0                 2120 	movx	@dptr,a
   090E E4                 2121 	clr	a
   090F A3                 2122 	inc	dptr
   0910 F0                 2123 	movx	@dptr,a
   0911 A3                 2124 	inc	dptr
   0912 F0                 2125 	movx	@dptr,a
   0913 A3                 2126 	inc	dptr
   0914 F0                 2127 	movx	@dptr,a
                           2128 ;	genCall
   0915 75 82rE4           2129 	mov	dpl,#_WD_current_value_file_name_3_3
   0918 75 83s00           2130 	mov	dph,#(_WD_current_value_file_name_3_3 >> 8)
   091B 75 F0 00           2131 	mov	b,#0x00
   091E 12s00r00           2132 	lcall	_HAL_assert_fail
   0921                    2133 00104$:
                    0921   2134 	C$core_watchdog.c$107$1$1 ==.
                           2135 ;	../drivers/CoreWatchdog/core_watchdog.c:107: return HAL_get_32bit_reg( instance->base_address, WDOGVALUE );
                           2136 ;	genAssign
   0921 90s00rE1           2137 	mov	dptr,#_WD_current_value_instance_1_1
   0924 E0                 2138 	movx	a,@dptr
   0925 FA                 2139 	mov	r2,a
   0926 A3                 2140 	inc	dptr
   0927 E0                 2141 	movx	a,@dptr
   0928 FB                 2142 	mov	r3,a
   0929 A3                 2143 	inc	dptr
   092A E0                 2144 	movx	a,@dptr
   092B FC                 2145 	mov	r4,a
                           2146 ;	genPointerGet
                           2147 ;	genGenPointerGet
   092C 8A 82              2148 	mov	dpl,r2
   092E 8B 83              2149 	mov	dph,r3
   0930 8C F0              2150 	mov	b,r4
   0932 12s00r00           2151 	lcall	__gptrget
   0935 FA                 2152 	mov	r2,a
   0936 A3                 2153 	inc	dptr
   0937 12s00r00           2154 	lcall	__gptrget
   093A FB                 2155 	mov	r3,a
                           2156 ;	genPlus
                           2157 ;	genPlusIncr
   093B 74 04              2158 	mov	a,#0x04
   093D 25 02              2159 	add	a,ar2
   093F FA                 2160 	mov	r2,a
   0940 74 00              2161 	mov	a,#0x00
   0942 35 03              2162 	addc	a,ar3
   0944 FB                 2163 	mov	r3,a
                           2164 ;	genCall
   0945 8A 82              2165 	mov	dpl,r2
   0947 8B 83              2166 	mov	dph,r3
   0949 12s00r00           2167 	lcall	_HW_get_32bit_reg
   094C AA 82              2168 	mov	r2,dpl
   094E AB 83              2169 	mov	r3,dph
   0950 AC F0              2170 	mov	r4,b
   0952 FD                 2171 	mov	r5,a
                           2172 ;	genRet
   0953 8A 82              2173 	mov	dpl,r2
   0955 8B 83              2174 	mov	dph,r3
   0957 8C F0              2175 	mov	b,r4
   0959 ED                 2176 	mov	a,r5
   095A                    2177 00106$:
                    095A   2178 	C$core_watchdog.c$108$1$1 ==.
                    095A   2179 	XG$WD_current_value$0$0 ==.
   095A 22                 2180 	ret
                           2181 	.area CSEG    (CODE)
                           2182 	.area CONST   (CODE)
                           2183 	.area XINIT   (CODE)
                           2184 	.area CABS    (ABS,CODE)
