                              1 ;--------------------------------------------------------
                              2 ; File Created by SDCC : FreeWare ANSI-C Compiler
                              3 ; Version 2.6.3 #4543 (Dec 31 2006)
                              4 ; This file generated Mon May 02 12:51:55 2016
                              5 ;--------------------------------------------------------
                              6 	.module ___drivers_CoreGPIO_core_gpio
                              7 	.optsdcc -mmcs51 --model-large
                              8 	
                              9 ;--------------------------------------------------------
                             10 ; Public variables in this module
                             11 ;--------------------------------------------------------
                             12 	.globl _GPIO_clear_irq_PARM_2
                             13 	.globl _GPIO_disable_irq_PARM_2
                             14 	.globl _GPIO_enable_irq_PARM_2
                             15 	.globl _GPIO_drive_inout_PARM_3
                             16 	.globl _GPIO_drive_inout_PARM_2
                             17 	.globl _GPIO_set_output_PARM_3
                             18 	.globl _GPIO_set_output_PARM_2
                             19 	.globl _GPIO_set_outputs_PARM_2
                             20 	.globl _GPIO_config_PARM_3
                             21 	.globl _GPIO_config_PARM_2
                             22 	.globl _GPIO_init_PARM_3
                             23 	.globl _GPIO_init_PARM_2
                             24 	.globl _GPIO_init
                             25 	.globl _GPIO_config
                             26 	.globl _GPIO_set_outputs
                             27 	.globl _GPIO_get_inputs
                             28 	.globl _GPIO_get_outputs
                             29 	.globl _GPIO_set_output
                             30 	.globl _GPIO_drive_inout
                             31 	.globl _GPIO_enable_irq
                             32 	.globl _GPIO_disable_irq
                             33 	.globl _GPIO_clear_irq
                             34 ;--------------------------------------------------------
                             35 ; special function registers
                             36 ;--------------------------------------------------------
                             37 	.area RSEG    (DATA)
                             38 ;--------------------------------------------------------
                             39 ; special function bits
                             40 ;--------------------------------------------------------
                             41 	.area RSEG    (DATA)
                             42 ;--------------------------------------------------------
                             43 ; overlayable register banks
                             44 ;--------------------------------------------------------
                             45 	.area REG_BANK_0	(REL,OVR,DATA)
   0000                      46 	.ds 8
                             47 ;--------------------------------------------------------
                             48 ; internal ram data
                             49 ;--------------------------------------------------------
                             50 	.area DSEG    (DATA)
                    0000     51 LGPIO_set_outputs$sloc1$1$0==.
   0000                      52 _GPIO_set_outputs_sloc1_1_0:
   0000                      53 	.ds 4
                    0004     54 LGPIO_set_outputs$sloc2$1$0==.
   0004                      55 _GPIO_set_outputs_sloc2_1_0:
   0004                      56 	.ds 4
                    0008     57 LGPIO_set_output$sloc0$1$0==.
   0008                      58 _GPIO_set_output_sloc0_1_0:
   0008                      59 	.ds 4
                    000C     60 LGPIO_set_output$sloc2$1$0==.
   000C                      61 _GPIO_set_output_sloc2_1_0:
   000C                      62 	.ds 4
                    0010     63 LGPIO_clear_irq$sloc0$1$0==.
   0010                      64 _GPIO_clear_irq_sloc0_1_0:
   0010                      65 	.ds 4
                             66 ;--------------------------------------------------------
                             67 ; overlayable items in internal ram 
                             68 ;--------------------------------------------------------
                             69 	.area OSEG    (OVR,DATA)
                             70 ;--------------------------------------------------------
                             71 ; indirectly addressable internal ram data
                             72 ;--------------------------------------------------------
                             73 	.area ISEG    (DATA)
                             74 ;--------------------------------------------------------
                             75 ; absolute internal ram data
                             76 ;--------------------------------------------------------
                             77 	.area IABS    (ABS,DATA)
                             78 	.area IABS    (ABS,DATA)
                             79 ;--------------------------------------------------------
                             80 ; bit data
                             81 ;--------------------------------------------------------
                             82 	.area BSEG    (BIT)
                             83 ;--------------------------------------------------------
                             84 ; paged external ram data
                             85 ;--------------------------------------------------------
                             86 	.area PSEG    (PAG,XDATA)
                             87 ;--------------------------------------------------------
                             88 ; external ram data
                             89 ;--------------------------------------------------------
                             90 	.area XSEG    (XDATA)
                    0000     91 LGPIO_init$base_addr$1$1==.
   0000                      92 _GPIO_init_PARM_2:
   0000                      93 	.ds 2
                    0002     94 LGPIO_init$bus_width$1$1==.
   0002                      95 _GPIO_init_PARM_3:
   0002                      96 	.ds 1
                    0003     97 LGPIO_init$this_gpio$1$1==.
   0003                      98 _GPIO_init_this_gpio_1_1:
   0003                      99 	.ds 3
                    0006    100 LGPIO_init$i$1$1==.
   0006                     101 _GPIO_init_i_1_1:
   0006                     102 	.ds 1
                    0007    103 LGPIO_init$cfg_reg_addr$1$1==.
   0007                     104 _GPIO_init_cfg_reg_addr_1_1:
   0007                     105 	.ds 2
                    0009    106 LGPIO_init$file_name$4$5==.
   0009                     107 _GPIO_init_file_name_4_5:
   0009                     108 	.ds 32
                    0029    109 LGPIO_config$port_id$1$1==.
   0029                     110 _GPIO_config_PARM_2:
   0029                     111 	.ds 1
                    002A    112 LGPIO_config$config$1$1==.
   002A                     113 _GPIO_config_PARM_3:
   002A                     114 	.ds 4
                    002E    115 LGPIO_config$this_gpio$1$1==.
   002E                     116 _GPIO_config_this_gpio_1_1:
   002E                     117 	.ds 3
                    0031    118 LGPIO_config$file_name$3$3==.
   0031                     119 _GPIO_config_file_name_3_3:
   0031                     120 	.ds 32
                    0051    121 LGPIO_config$file_name$4$6==.
   0051                     122 _GPIO_config_file_name_4_6:
   0051                     123 	.ds 32
                    0071    124 LGPIO_set_outputs$value$1$1==.
   0071                     125 _GPIO_set_outputs_PARM_2:
   0071                     126 	.ds 4
                    0075    127 LGPIO_set_outputs$this_gpio$1$1==.
   0075                     128 _GPIO_set_outputs_this_gpio_1_1:
   0075                     129 	.ds 3
                    0078    130 LGPIO_set_outputs$file_name$4$4==.
   0078                     131 _GPIO_set_outputs_file_name_4_4:
   0078                     132 	.ds 32
                    0098    133 LGPIO_set_outputs$file_name$3$6==.
   0098                     134 _GPIO_set_outputs_file_name_3_6:
   0098                     135 	.ds 32
                    00B8    136 LGPIO_get_inputs$this_gpio$1$1==.
   00B8                     137 _GPIO_get_inputs_this_gpio_1_1:
   00B8                     138 	.ds 3
                    00BB    139 LGPIO_get_inputs$gpio_in$1$1==.
   00BB                     140 _GPIO_get_inputs_gpio_in_1_1:
   00BB                     141 	.ds 4
                    00BF    142 LGPIO_get_inputs$file_name$4$4==.
   00BF                     143 _GPIO_get_inputs_file_name_4_4:
   00BF                     144 	.ds 32
                    00DF    145 LGPIO_get_outputs$this_gpio$1$1==.
   00DF                     146 _GPIO_get_outputs_this_gpio_1_1:
   00DF                     147 	.ds 3
                    00E2    148 LGPIO_get_outputs$gpio_out$1$1==.
   00E2                     149 _GPIO_get_outputs_gpio_out_1_1:
   00E2                     150 	.ds 4
                    00E6    151 LGPIO_get_outputs$file_name$4$4==.
   00E6                     152 _GPIO_get_outputs_file_name_4_4:
   00E6                     153 	.ds 32
                    0106    154 LGPIO_set_output$port_id$1$1==.
   0106                     155 _GPIO_set_output_PARM_2:
   0106                     156 	.ds 1
                    0107    157 LGPIO_set_output$value$1$1==.
   0107                     158 _GPIO_set_output_PARM_3:
   0107                     159 	.ds 1
                    0108    160 LGPIO_set_output$this_gpio$1$1==.
   0108                     161 _GPIO_set_output_this_gpio_1_1:
   0108                     162 	.ds 3
                    010B    163 LGPIO_set_output$file_name$3$3==.
   010B                     164 _GPIO_set_output_file_name_3_3:
   010B                     165 	.ds 32
                    012B    166 LGPIO_set_output$outputs_state$3$5==.
   012B                     167 _GPIO_set_output_outputs_state_3_5:
   012B                     168 	.ds 4
                    012F    169 LGPIO_set_output$file_name$5$9==.
   012F                     170 _GPIO_set_output_file_name_5_9:
   012F                     171 	.ds 32
                    014F    172 LGPIO_set_output$outputs_state$3$10==.
   014F                     173 _GPIO_set_output_outputs_state_3_10:
   014F                     174 	.ds 2
                    0151    175 LGPIO_set_output$file_name$5$14==.
   0151                     176 _GPIO_set_output_file_name_5_14:
   0151                     177 	.ds 32
                    0171    178 LGPIO_set_output$outputs_state$3$15==.
   0171                     179 _GPIO_set_output_outputs_state_3_15:
   0171                     180 	.ds 1
                    0172    181 LGPIO_set_output$file_name$5$19==.
   0172                     182 _GPIO_set_output_file_name_5_19:
   0172                     183 	.ds 32
                    0192    184 LGPIO_set_output$file_name$4$21==.
   0192                     185 _GPIO_set_output_file_name_4_21:
   0192                     186 	.ds 32
                    01B2    187 LGPIO_drive_inout$port_id$1$1==.
   01B2                     188 _GPIO_drive_inout_PARM_2:
   01B2                     189 	.ds 1
                    01B3    190 LGPIO_drive_inout$inout_state$1$1==.
   01B3                     191 _GPIO_drive_inout_PARM_3:
   01B3                     192 	.ds 1
                    01B4    193 LGPIO_drive_inout$this_gpio$1$1==.
   01B4                     194 _GPIO_drive_inout_this_gpio_1_1:
   01B4                     195 	.ds 3
                    01B7    196 LGPIO_drive_inout$file_name$3$3==.
   01B7                     197 _GPIO_drive_inout_file_name_3_3:
   01B7                     198 	.ds 32
                    01D7    199 LGPIO_drive_inout$file_name$4$6==.
   01D7                     200 _GPIO_drive_inout_file_name_4_6:
   01D7                     201 	.ds 32
                    01F7    202 LGPIO_enable_irq$port_id$1$1==.
   01F7                     203 _GPIO_enable_irq_PARM_2:
   01F7                     204 	.ds 1
                    01F8    205 LGPIO_enable_irq$this_gpio$1$1==.
   01F8                     206 _GPIO_enable_irq_this_gpio_1_1:
   01F8                     207 	.ds 3
                    01FB    208 LGPIO_enable_irq$file_name$3$3==.
   01FB                     209 _GPIO_enable_irq_file_name_3_3:
   01FB                     210 	.ds 32
                    021B    211 LGPIO_disable_irq$port_id$1$1==.
   021B                     212 _GPIO_disable_irq_PARM_2:
   021B                     213 	.ds 1
                    021C    214 LGPIO_disable_irq$this_gpio$1$1==.
   021C                     215 _GPIO_disable_irq_this_gpio_1_1:
   021C                     216 	.ds 3
                    021F    217 LGPIO_disable_irq$file_name$3$3==.
   021F                     218 _GPIO_disable_irq_file_name_3_3:
   021F                     219 	.ds 32
                    023F    220 LGPIO_clear_irq$port_id$1$1==.
   023F                     221 _GPIO_clear_irq_PARM_2:
   023F                     222 	.ds 1
                    0240    223 LGPIO_clear_irq$this_gpio$1$1==.
   0240                     224 _GPIO_clear_irq_this_gpio_1_1:
   0240                     225 	.ds 3
                    0243    226 LGPIO_clear_irq$file_name$4$4==.
   0243                     227 _GPIO_clear_irq_file_name_4_4:
   0243                     228 	.ds 32
                            229 ;--------------------------------------------------------
                            230 ; external initialized ram data
                            231 ;--------------------------------------------------------
                            232 	.area XISEG   (XDATA)
                            233 	.area HOME    (CODE)
                            234 	.area GSINIT0 (CODE)
                            235 	.area GSINIT1 (CODE)
                            236 	.area GSINIT2 (CODE)
                            237 	.area GSINIT3 (CODE)
                            238 	.area GSINIT4 (CODE)
                            239 	.area GSINIT5 (CODE)
                            240 	.area GSINIT  (CODE)
                            241 	.area GSFINAL (CODE)
                            242 	.area CSEG    (CODE)
                            243 ;--------------------------------------------------------
                            244 ; global & static initialisations
                            245 ;--------------------------------------------------------
                            246 	.area HOME    (CODE)
                            247 	.area GSINIT  (CODE)
                            248 	.area GSFINAL (CODE)
                            249 	.area GSINIT  (CODE)
                            250 ;--------------------------------------------------------
                            251 ; Home
                            252 ;--------------------------------------------------------
                            253 	.area HOME    (CODE)
                            254 	.area HOME    (CODE)
                            255 ;--------------------------------------------------------
                            256 ; code
                            257 ;--------------------------------------------------------
                            258 	.area CSEG    (CODE)
                            259 ;------------------------------------------------------------
                            260 ;Allocation info for local variables in function 'GPIO_init'
                            261 ;------------------------------------------------------------
                            262 ;base_addr                 Allocated with name '_GPIO_init_PARM_2'
                            263 ;bus_width                 Allocated with name '_GPIO_init_PARM_3'
                            264 ;this_gpio                 Allocated with name '_GPIO_init_this_gpio_1_1'
                            265 ;i                         Allocated with name '_GPIO_init_i_1_1'
                            266 ;cfg_reg_addr              Allocated with name '_GPIO_init_cfg_reg_addr_1_1'
                            267 ;file_name                 Allocated with name '_GPIO_init_file_name_4_5'
                            268 ;------------------------------------------------------------
                    0000    269 	G$GPIO_init$0$0 ==.
                    0000    270 	C$core_gpio.c$31$0$0 ==.
                            271 ;	../drivers/CoreGPIO/core_gpio.c:31: void GPIO_init
                            272 ;	-----------------------------------------
                            273 ;	 function GPIO_init
                            274 ;	-----------------------------------------
   0000                     275 _GPIO_init:
                    0002    276 	ar2 = 0x02
                    0003    277 	ar3 = 0x03
                    0004    278 	ar4 = 0x04
                    0005    279 	ar5 = 0x05
                    0006    280 	ar6 = 0x06
                    0007    281 	ar7 = 0x07
                    0000    282 	ar0 = 0x00
                    0001    283 	ar1 = 0x01
                            284 ;	genReceive
   0000 AA F0               285 	mov	r2,b
   0002 AB 83               286 	mov	r3,dph
   0004 E5 82               287 	mov	a,dpl
   0006 90s00r03            288 	mov	dptr,#_GPIO_init_this_gpio_1_1
   0009 F0                  289 	movx	@dptr,a
   000A A3                  290 	inc	dptr
   000B EB                  291 	mov	a,r3
   000C F0                  292 	movx	@dptr,a
   000D A3                  293 	inc	dptr
   000E EA                  294 	mov	a,r2
   000F F0                  295 	movx	@dptr,a
                    0010    296 	C$core_gpio.c$39$1$0 ==.
                            297 ;	../drivers/CoreGPIO/core_gpio.c:39: addr_t cfg_reg_addr = base_addr;
                            298 ;	genAssign
   0010 90s00r00            299 	mov	dptr,#_GPIO_init_PARM_2
   0013 E0                  300 	movx	a,@dptr
   0014 FA                  301 	mov	r2,a
   0015 A3                  302 	inc	dptr
   0016 E0                  303 	movx	a,@dptr
   0017 FB                  304 	mov	r3,a
                    0018    305 	C$core_gpio.c$41$1$1 ==.
                            306 ;	../drivers/CoreGPIO/core_gpio.c:41: this_gpio->base_addr = base_addr;
                            307 ;	genAssign
   0018 90s00r03            308 	mov	dptr,#_GPIO_init_this_gpio_1_1
   001B E0                  309 	movx	a,@dptr
   001C FC                  310 	mov	r4,a
   001D A3                  311 	inc	dptr
   001E E0                  312 	movx	a,@dptr
   001F FD                  313 	mov	r5,a
   0020 A3                  314 	inc	dptr
   0021 E0                  315 	movx	a,@dptr
   0022 FE                  316 	mov	r6,a
                            317 ;	genPointerSet
                            318 ;	genGenPointerSet
   0023 8C 82               319 	mov	dpl,r4
   0025 8D 83               320 	mov	dph,r5
   0027 8E F0               321 	mov	b,r6
   0029 EA                  322 	mov	a,r2
   002A 12s00r00            323 	lcall	__gptrput
   002D A3                  324 	inc	dptr
   002E EB                  325 	mov	a,r3
   002F 12s00r00            326 	lcall	__gptrput
                    0032    327 	C$core_gpio.c$42$1$1 ==.
                            328 ;	../drivers/CoreGPIO/core_gpio.c:42: this_gpio->apb_bus_width = bus_width;
                            329 ;	genPlus
                            330 ;	genPlusIncr
   0032 74 02               331 	mov	a,#0x02
   0034 25 04               332 	add	a,ar4
   0036 FC                  333 	mov	r4,a
   0037 74 00               334 	mov	a,#0x00
   0039 35 05               335 	addc	a,ar5
   003B FD                  336 	mov	r5,a
                            337 ;	genAssign
   003C 90s00r02            338 	mov	dptr,#_GPIO_init_PARM_3
   003F E0                  339 	movx	a,@dptr
   0040 FF                  340 	mov	r7,a
                            341 ;	genPointerSet
                            342 ;	genGenPointerSet
   0041 8C 82               343 	mov	dpl,r4
   0043 8D 83               344 	mov	dph,r5
   0045 8E F0               345 	mov	b,r6
   0047 EF                  346 	mov	a,r7
   0048 12s00r00            347 	lcall	__gptrput
                    004B    348 	C$core_gpio.c$45$1$1 ==.
                            349 ;	../drivers/CoreGPIO/core_gpio.c:45: for( i = 0, cfg_reg_addr = base_addr; i < NB_OF_GPIO; ++i )
                            350 ;	genAssign
   004B 90s00r06            351 	mov	dptr,#_GPIO_init_i_1_1
   004E 74 00               352 	mov	a,#0x00
   0050 F0                  353 	movx	@dptr,a
                            354 ;	genAssign
   0051 90s00r07            355 	mov	dptr,#_GPIO_init_cfg_reg_addr_1_1
   0054 EA                  356 	mov	a,r2
   0055 F0                  357 	movx	@dptr,a
   0056 A3                  358 	inc	dptr
   0057 EB                  359 	mov	a,r3
   0058 F0                  360 	movx	@dptr,a
   0059                     361 00111$:
                            362 ;	genAssign
   0059 90s00r06            363 	mov	dptr,#_GPIO_init_i_1_1
   005C E0                  364 	movx	a,@dptr
   005D FA                  365 	mov	r2,a
                            366 ;	genCmpLt
                            367 ;	genCmp
   005E BA 20 00            368 	cjne	r2,#0x20,00122$
   0061                     369 00122$:
                            370 ;	genIfxJump
   0061 40 03               371 	jc	00123$
   0063 02s00r9E            372 	ljmp	00114$
   0066                     373 00123$:
                    0066    374 	C$core_gpio.c$47$2$2 ==.
                            375 ;	../drivers/CoreGPIO/core_gpio.c:47: HW_set_8bit_reg( cfg_reg_addr, 0 );
                            376 ;	genAssign
   0066 90s00r07            377 	mov	dptr,#_GPIO_init_cfg_reg_addr_1_1
   0069 E0                  378 	movx	a,@dptr
   006A FB                  379 	mov	r3,a
   006B A3                  380 	inc	dptr
   006C E0                  381 	movx	a,@dptr
   006D FC                  382 	mov	r4,a
                            383 ;	genAssign
   006E 90s00r00            384 	mov	dptr,#_HW_set_8bit_reg_PARM_2
   0071 74 00               385 	mov	a,#0x00
   0073 F0                  386 	movx	@dptr,a
                            387 ;	genCall
   0074 8B 82               388 	mov	dpl,r3
   0076 8C 83               389 	mov	dph,r4
   0078 C0 02               390 	push	ar2
   007A C0 03               391 	push	ar3
   007C C0 04               392 	push	ar4
   007E 12s00r00            393 	lcall	_HW_set_8bit_reg
   0081 D0 04               394 	pop	ar4
   0083 D0 03               395 	pop	ar3
   0085 D0 02               396 	pop	ar2
                    0087    397 	C$core_gpio.c$48$2$2 ==.
                            398 ;	../drivers/CoreGPIO/core_gpio.c:48: cfg_reg_addr += 4;
                            399 ;	genPlus
   0087 90s00r07            400 	mov	dptr,#_GPIO_init_cfg_reg_addr_1_1
                            401 ;	genPlusIncr
   008A 74 04               402 	mov	a,#0x04
   008C 25 03               403 	add	a,ar3
   008E F0                  404 	movx	@dptr,a
   008F 74 00               405 	mov	a,#0x00
   0091 35 04               406 	addc	a,ar4
   0093 A3                  407 	inc	dptr
   0094 F0                  408 	movx	@dptr,a
                    0095    409 	C$core_gpio.c$45$1$1 ==.
                            410 ;	../drivers/CoreGPIO/core_gpio.c:45: for( i = 0, cfg_reg_addr = base_addr; i < NB_OF_GPIO; ++i )
                            411 ;	genPlus
   0095 90s00r06            412 	mov	dptr,#_GPIO_init_i_1_1
                            413 ;	genPlusIncr
   0098 EA                  414 	mov	a,r2
   0099 04                  415 	inc	a
   009A F0                  416 	movx	@dptr,a
   009B 02s00r59            417 	ljmp	00111$
   009E                     418 00114$:
                    009E    419 	C$core_gpio.c$51$1$1 ==.
                            420 ;	../drivers/CoreGPIO/core_gpio.c:51: switch( this_gpio->apb_bus_width )
                            421 ;	genAssign
   009E 90s00r03            422 	mov	dptr,#_GPIO_init_this_gpio_1_1
   00A1 E0                  423 	movx	a,@dptr
   00A2 FA                  424 	mov	r2,a
   00A3 A3                  425 	inc	dptr
   00A4 E0                  426 	movx	a,@dptr
   00A5 FB                  427 	mov	r3,a
   00A6 A3                  428 	inc	dptr
   00A7 E0                  429 	movx	a,@dptr
   00A8 FC                  430 	mov	r4,a
                            431 ;	genPlus
                            432 ;	genPlusIncr
   00A9 74 02               433 	mov	a,#0x02
   00AB 25 02               434 	add	a,ar2
   00AD FD                  435 	mov	r5,a
   00AE 74 00               436 	mov	a,#0x00
   00B0 35 03               437 	addc	a,ar3
   00B2 FE                  438 	mov	r6,a
   00B3 8C 07               439 	mov	ar7,r4
                            440 ;	genPointerGet
                            441 ;	genGenPointerGet
   00B5 8D 82               442 	mov	dpl,r5
   00B7 8E 83               443 	mov	dph,r6
   00B9 8F F0               444 	mov	b,r7
   00BB 12s00r00            445 	lcall	__gptrget
   00BE FD                  446 	mov	r5,a
                            447 ;	genCmpEq
                            448 ;	gencjneshort
   00BF BD 00 03            449 	cjne	r5,#0x00,00124$
   00C2 02s01r6B            450 	ljmp	00103$
   00C5                     451 00124$:
                            452 ;	genCmpEq
                            453 ;	gencjneshort
   00C5 BD 01 03            454 	cjne	r5,#0x01,00125$
   00C8 02s01r08            455 	ljmp	00102$
   00CB                     456 00125$:
                            457 ;	genCmpEq
                            458 ;	gencjneshort
   00CB BD 02 02            459 	cjne	r5,#0x02,00126$
   00CE 80 03               460 	sjmp	00127$
   00D0                     461 00126$:
   00D0 02s02r2A            462 	ljmp	00107$
   00D3                     463 00127$:
                    00D3    464 	C$core_gpio.c$54$2$3 ==.
                            465 ;	../drivers/CoreGPIO/core_gpio.c:54: HAL_set_32bit_reg( this_gpio->base_addr, IRQ, CLEAR_ALL_IRQ32 );
                            466 ;	genPointerGet
                            467 ;	genGenPointerGet
   00D3 8A 82               468 	mov	dpl,r2
   00D5 8B 83               469 	mov	dph,r3
   00D7 8C F0               470 	mov	b,r4
   00D9 12s00r00            471 	lcall	__gptrget
   00DC FD                  472 	mov	r5,a
   00DD A3                  473 	inc	dptr
   00DE 12s00r00            474 	lcall	__gptrget
   00E1 FE                  475 	mov	r6,a
                            476 ;	genPlus
                            477 ;	genPlusIncr
   00E2 74 80               478 	mov	a,#0x80
   00E4 25 05               479 	add	a,ar5
   00E6 FD                  480 	mov	r5,a
   00E7 74 00               481 	mov	a,#0x00
   00E9 35 06               482 	addc	a,ar6
   00EB FE                  483 	mov	r6,a
                            484 ;	genAssign
   00EC 90s00r00            485 	mov	dptr,#_HW_set_32bit_reg_PARM_2
   00EF 74 FF               486 	mov	a,#0xFF
   00F1 F0                  487 	movx	@dptr,a
   00F2 A3                  488 	inc	dptr
   00F3 74 FF               489 	mov	a,#0xFF
   00F5 F0                  490 	movx	@dptr,a
   00F6 A3                  491 	inc	dptr
   00F7 74 FF               492 	mov	a,#0xFF
   00F9 F0                  493 	movx	@dptr,a
   00FA A3                  494 	inc	dptr
   00FB 74 FF               495 	mov	a,#0xFF
   00FD F0                  496 	movx	@dptr,a
                            497 ;	genCall
   00FE 8D 82               498 	mov	dpl,r5
   0100 8E 83               499 	mov	dph,r6
   0102 12s00r00            500 	lcall	_HW_set_32bit_reg
                    0105    501 	C$core_gpio.c$55$2$3 ==.
                            502 ;	../drivers/CoreGPIO/core_gpio.c:55: break;
   0105 02s03r03            503 	ljmp	00115$
                    0108    504 	C$core_gpio.c$57$2$3 ==.
                            505 ;	../drivers/CoreGPIO/core_gpio.c:57: case GPIO_APB_16_BITS_BUS:
   0108                     506 00102$:
                    0108    507 	C$core_gpio.c$58$2$3 ==.
                            508 ;	../drivers/CoreGPIO/core_gpio.c:58: HAL_set_16bit_reg( this_gpio->base_addr, IRQ0, (uint16_t)CLEAR_ALL_IRQ16 );
                            509 ;	genPointerGet
                            510 ;	genGenPointerGet
   0108 8A 82               511 	mov	dpl,r2
   010A 8B 83               512 	mov	dph,r3
   010C 8C F0               513 	mov	b,r4
   010E 12s00r00            514 	lcall	__gptrget
   0111 FD                  515 	mov	r5,a
   0112 A3                  516 	inc	dptr
   0113 12s00r00            517 	lcall	__gptrget
   0116 FE                  518 	mov	r6,a
                            519 ;	genPlus
                            520 ;	genPlusIncr
   0117 74 80               521 	mov	a,#0x80
   0119 25 05               522 	add	a,ar5
   011B FD                  523 	mov	r5,a
   011C 74 00               524 	mov	a,#0x00
   011E 35 06               525 	addc	a,ar6
   0120 FE                  526 	mov	r6,a
                            527 ;	genAssign
   0121 90s00r00            528 	mov	dptr,#_HW_set_16bit_reg_PARM_2
   0124 74 FF               529 	mov	a,#0xFF
   0126 F0                  530 	movx	@dptr,a
   0127 A3                  531 	inc	dptr
   0128 74 FF               532 	mov	a,#0xFF
   012A F0                  533 	movx	@dptr,a
                            534 ;	genCall
   012B 8D 82               535 	mov	dpl,r5
   012D 8E 83               536 	mov	dph,r6
   012F C0 02               537 	push	ar2
   0131 C0 03               538 	push	ar3
   0133 C0 04               539 	push	ar4
   0135 12s00r00            540 	lcall	_HW_set_16bit_reg
   0138 D0 04               541 	pop	ar4
   013A D0 03               542 	pop	ar3
   013C D0 02               543 	pop	ar2
                    013E    544 	C$core_gpio.c$59$2$3 ==.
                            545 ;	../drivers/CoreGPIO/core_gpio.c:59: HAL_set_16bit_reg( this_gpio->base_addr, IRQ1, (uint16_t)CLEAR_ALL_IRQ16 );
                            546 ;	genPointerGet
                            547 ;	genGenPointerGet
   013E 8A 82               548 	mov	dpl,r2
   0140 8B 83               549 	mov	dph,r3
   0142 8C F0               550 	mov	b,r4
   0144 12s00r00            551 	lcall	__gptrget
   0147 FD                  552 	mov	r5,a
   0148 A3                  553 	inc	dptr
   0149 12s00r00            554 	lcall	__gptrget
   014C FE                  555 	mov	r6,a
                            556 ;	genPlus
                            557 ;	genPlusIncr
   014D 74 84               558 	mov	a,#0x84
   014F 25 05               559 	add	a,ar5
   0151 FD                  560 	mov	r5,a
   0152 74 00               561 	mov	a,#0x00
   0154 35 06               562 	addc	a,ar6
   0156 FE                  563 	mov	r6,a
                            564 ;	genAssign
   0157 90s00r00            565 	mov	dptr,#_HW_set_16bit_reg_PARM_2
   015A 74 FF               566 	mov	a,#0xFF
   015C F0                  567 	movx	@dptr,a
   015D A3                  568 	inc	dptr
   015E 74 FF               569 	mov	a,#0xFF
   0160 F0                  570 	movx	@dptr,a
                            571 ;	genCall
   0161 8D 82               572 	mov	dpl,r5
   0163 8E 83               573 	mov	dph,r6
   0165 12s00r00            574 	lcall	_HW_set_16bit_reg
                    0168    575 	C$core_gpio.c$60$2$3 ==.
                            576 ;	../drivers/CoreGPIO/core_gpio.c:60: break;
   0168 02s03r03            577 	ljmp	00115$
                    016B    578 	C$core_gpio.c$62$2$3 ==.
                            579 ;	../drivers/CoreGPIO/core_gpio.c:62: case GPIO_APB_8_BITS_BUS:
   016B                     580 00103$:
                    016B    581 	C$core_gpio.c$63$2$3 ==.
                            582 ;	../drivers/CoreGPIO/core_gpio.c:63: HAL_set_8bit_reg( this_gpio->base_addr, IRQ0, (uint8_t)CLEAR_ALL_IRQ8 );
                            583 ;	genPointerGet
                            584 ;	genGenPointerGet
   016B 8A 82               585 	mov	dpl,r2
   016D 8B 83               586 	mov	dph,r3
   016F 8C F0               587 	mov	b,r4
   0171 12s00r00            588 	lcall	__gptrget
   0174 FD                  589 	mov	r5,a
   0175 A3                  590 	inc	dptr
   0176 12s00r00            591 	lcall	__gptrget
   0179 FE                  592 	mov	r6,a
                            593 ;	genPlus
                            594 ;	genPlusIncr
   017A 74 80               595 	mov	a,#0x80
   017C 25 05               596 	add	a,ar5
   017E FD                  597 	mov	r5,a
   017F 74 00               598 	mov	a,#0x00
   0181 35 06               599 	addc	a,ar6
   0183 FE                  600 	mov	r6,a
                            601 ;	genAssign
   0184 90s00r00            602 	mov	dptr,#_HW_set_8bit_reg_PARM_2
   0187 74 FF               603 	mov	a,#0xFF
   0189 F0                  604 	movx	@dptr,a
                            605 ;	genCall
   018A 8D 82               606 	mov	dpl,r5
   018C 8E 83               607 	mov	dph,r6
   018E C0 02               608 	push	ar2
   0190 C0 03               609 	push	ar3
   0192 C0 04               610 	push	ar4
   0194 12s00r00            611 	lcall	_HW_set_8bit_reg
   0197 D0 04               612 	pop	ar4
   0199 D0 03               613 	pop	ar3
   019B D0 02               614 	pop	ar2
                    019D    615 	C$core_gpio.c$64$2$3 ==.
                            616 ;	../drivers/CoreGPIO/core_gpio.c:64: HAL_set_8bit_reg( this_gpio->base_addr, IRQ1, (uint8_t)CLEAR_ALL_IRQ8 );
                            617 ;	genPointerGet
                            618 ;	genGenPointerGet
   019D 8A 82               619 	mov	dpl,r2
   019F 8B 83               620 	mov	dph,r3
   01A1 8C F0               621 	mov	b,r4
   01A3 12s00r00            622 	lcall	__gptrget
   01A6 FD                  623 	mov	r5,a
   01A7 A3                  624 	inc	dptr
   01A8 12s00r00            625 	lcall	__gptrget
   01AB FE                  626 	mov	r6,a
                            627 ;	genPlus
                            628 ;	genPlusIncr
   01AC 74 84               629 	mov	a,#0x84
   01AE 25 05               630 	add	a,ar5
   01B0 FD                  631 	mov	r5,a
   01B1 74 00               632 	mov	a,#0x00
   01B3 35 06               633 	addc	a,ar6
   01B5 FE                  634 	mov	r6,a
                            635 ;	genAssign
   01B6 90s00r00            636 	mov	dptr,#_HW_set_8bit_reg_PARM_2
   01B9 74 FF               637 	mov	a,#0xFF
   01BB F0                  638 	movx	@dptr,a
                            639 ;	genCall
   01BC 8D 82               640 	mov	dpl,r5
   01BE 8E 83               641 	mov	dph,r6
   01C0 C0 02               642 	push	ar2
   01C2 C0 03               643 	push	ar3
   01C4 C0 04               644 	push	ar4
   01C6 12s00r00            645 	lcall	_HW_set_8bit_reg
   01C9 D0 04               646 	pop	ar4
   01CB D0 03               647 	pop	ar3
   01CD D0 02               648 	pop	ar2
                    01CF    649 	C$core_gpio.c$65$2$3 ==.
                            650 ;	../drivers/CoreGPIO/core_gpio.c:65: HAL_set_8bit_reg( this_gpio->base_addr, IRQ2, (uint8_t)CLEAR_ALL_IRQ8 );
                            651 ;	genPointerGet
                            652 ;	genGenPointerGet
   01CF 8A 82               653 	mov	dpl,r2
   01D1 8B 83               654 	mov	dph,r3
   01D3 8C F0               655 	mov	b,r4
   01D5 12s00r00            656 	lcall	__gptrget
   01D8 FD                  657 	mov	r5,a
   01D9 A3                  658 	inc	dptr
   01DA 12s00r00            659 	lcall	__gptrget
   01DD FE                  660 	mov	r6,a
                            661 ;	genPlus
                            662 ;	genPlusIncr
   01DE 74 88               663 	mov	a,#0x88
   01E0 25 05               664 	add	a,ar5
   01E2 FD                  665 	mov	r5,a
   01E3 74 00               666 	mov	a,#0x00
   01E5 35 06               667 	addc	a,ar6
   01E7 FE                  668 	mov	r6,a
                            669 ;	genAssign
   01E8 90s00r00            670 	mov	dptr,#_HW_set_8bit_reg_PARM_2
   01EB 74 FF               671 	mov	a,#0xFF
   01ED F0                  672 	movx	@dptr,a
                            673 ;	genCall
   01EE 8D 82               674 	mov	dpl,r5
   01F0 8E 83               675 	mov	dph,r6
   01F2 C0 02               676 	push	ar2
   01F4 C0 03               677 	push	ar3
   01F6 C0 04               678 	push	ar4
   01F8 12s00r00            679 	lcall	_HW_set_8bit_reg
   01FB D0 04               680 	pop	ar4
   01FD D0 03               681 	pop	ar3
   01FF D0 02               682 	pop	ar2
                    0201    683 	C$core_gpio.c$66$2$3 ==.
                            684 ;	../drivers/CoreGPIO/core_gpio.c:66: HAL_set_8bit_reg( this_gpio->base_addr, IRQ3, (uint8_t)CLEAR_ALL_IRQ8 );
                            685 ;	genPointerGet
                            686 ;	genGenPointerGet
   0201 8A 82               687 	mov	dpl,r2
   0203 8B 83               688 	mov	dph,r3
   0205 8C F0               689 	mov	b,r4
   0207 12s00r00            690 	lcall	__gptrget
   020A FA                  691 	mov	r2,a
   020B A3                  692 	inc	dptr
   020C 12s00r00            693 	lcall	__gptrget
   020F FB                  694 	mov	r3,a
                            695 ;	genPlus
                            696 ;	genPlusIncr
   0210 74 8C               697 	mov	a,#0x8C
   0212 25 02               698 	add	a,ar2
   0214 FA                  699 	mov	r2,a
   0215 74 00               700 	mov	a,#0x00
   0217 35 03               701 	addc	a,ar3
   0219 FB                  702 	mov	r3,a
                            703 ;	genAssign
   021A 90s00r00            704 	mov	dptr,#_HW_set_8bit_reg_PARM_2
   021D 74 FF               705 	mov	a,#0xFF
   021F F0                  706 	movx	@dptr,a
                            707 ;	genCall
   0220 8A 82               708 	mov	dpl,r2
   0222 8B 83               709 	mov	dph,r3
   0224 12s00r00            710 	lcall	_HW_set_8bit_reg
                    0227    711 	C$core_gpio.c$67$2$3 ==.
                            712 ;	../drivers/CoreGPIO/core_gpio.c:67: break;
   0227 02s03r03            713 	ljmp	00115$
                    022A    714 	C$core_gpio.c$70$2$3 ==.
                            715 ;	../drivers/CoreGPIO/core_gpio.c:70: HAL_ASSERT(0);
   022A                     716 00107$:
                            717 ;	genPointerSet
                            718 ;     genFarPointerSet
   022A 90s00r09            719 	mov	dptr,#_GPIO_init_file_name_4_5
   022D 74 2E               720 	mov	a,#0x2E
   022F F0                  721 	movx	@dptr,a
                            722 ;	genPointerSet
                            723 ;     genFarPointerSet
   0230 90s00r0A            724 	mov	dptr,#(_GPIO_init_file_name_4_5 + 0x0001)
   0233 74 2E               725 	mov	a,#0x2E
   0235 F0                  726 	movx	@dptr,a
                            727 ;	genPointerSet
                            728 ;     genFarPointerSet
   0236 90s00r0B            729 	mov	dptr,#(_GPIO_init_file_name_4_5 + 0x0002)
   0239 74 2F               730 	mov	a,#0x2F
   023B F0                  731 	movx	@dptr,a
                            732 ;	genPointerSet
                            733 ;     genFarPointerSet
   023C 90s00r0C            734 	mov	dptr,#(_GPIO_init_file_name_4_5 + 0x0003)
   023F 74 64               735 	mov	a,#0x64
   0241 F0                  736 	movx	@dptr,a
                            737 ;	genPointerSet
                            738 ;     genFarPointerSet
   0242 90s00r0D            739 	mov	dptr,#(_GPIO_init_file_name_4_5 + 0x0004)
   0245 74 72               740 	mov	a,#0x72
   0247 F0                  741 	movx	@dptr,a
                            742 ;	genPointerSet
                            743 ;     genFarPointerSet
   0248 90s00r0E            744 	mov	dptr,#(_GPIO_init_file_name_4_5 + 0x0005)
   024B 74 69               745 	mov	a,#0x69
   024D F0                  746 	movx	@dptr,a
                            747 ;	genPointerSet
                            748 ;     genFarPointerSet
   024E 90s00r0F            749 	mov	dptr,#(_GPIO_init_file_name_4_5 + 0x0006)
   0251 74 76               750 	mov	a,#0x76
   0253 F0                  751 	movx	@dptr,a
                            752 ;	genPointerSet
                            753 ;     genFarPointerSet
   0254 90s00r10            754 	mov	dptr,#(_GPIO_init_file_name_4_5 + 0x0007)
   0257 74 65               755 	mov	a,#0x65
   0259 F0                  756 	movx	@dptr,a
                            757 ;	genPointerSet
                            758 ;     genFarPointerSet
   025A 90s00r11            759 	mov	dptr,#(_GPIO_init_file_name_4_5 + 0x0008)
   025D 74 72               760 	mov	a,#0x72
   025F F0                  761 	movx	@dptr,a
                            762 ;	genPointerSet
                            763 ;     genFarPointerSet
   0260 90s00r12            764 	mov	dptr,#(_GPIO_init_file_name_4_5 + 0x0009)
   0263 74 73               765 	mov	a,#0x73
   0265 F0                  766 	movx	@dptr,a
                            767 ;	genPointerSet
                            768 ;     genFarPointerSet
   0266 90s00r13            769 	mov	dptr,#(_GPIO_init_file_name_4_5 + 0x000a)
   0269 74 2F               770 	mov	a,#0x2F
   026B F0                  771 	movx	@dptr,a
                            772 ;	genPointerSet
                            773 ;     genFarPointerSet
   026C 90s00r14            774 	mov	dptr,#(_GPIO_init_file_name_4_5 + 0x000b)
   026F 74 43               775 	mov	a,#0x43
   0271 F0                  776 	movx	@dptr,a
                            777 ;	genPointerSet
                            778 ;     genFarPointerSet
   0272 90s00r15            779 	mov	dptr,#(_GPIO_init_file_name_4_5 + 0x000c)
   0275 74 6F               780 	mov	a,#0x6F
   0277 F0                  781 	movx	@dptr,a
                            782 ;	genPointerSet
                            783 ;     genFarPointerSet
   0278 90s00r16            784 	mov	dptr,#(_GPIO_init_file_name_4_5 + 0x000d)
   027B 74 72               785 	mov	a,#0x72
   027D F0                  786 	movx	@dptr,a
                            787 ;	genPointerSet
                            788 ;     genFarPointerSet
   027E 90s00r17            789 	mov	dptr,#(_GPIO_init_file_name_4_5 + 0x000e)
   0281 74 65               790 	mov	a,#0x65
   0283 F0                  791 	movx	@dptr,a
                            792 ;	genPointerSet
                            793 ;     genFarPointerSet
   0284 90s00r18            794 	mov	dptr,#(_GPIO_init_file_name_4_5 + 0x000f)
   0287 74 47               795 	mov	a,#0x47
   0289 F0                  796 	movx	@dptr,a
                            797 ;	genPointerSet
                            798 ;     genFarPointerSet
   028A 90s00r19            799 	mov	dptr,#(_GPIO_init_file_name_4_5 + 0x0010)
   028D 74 50               800 	mov	a,#0x50
   028F F0                  801 	movx	@dptr,a
                            802 ;	genPointerSet
                            803 ;     genFarPointerSet
   0290 90s00r1A            804 	mov	dptr,#(_GPIO_init_file_name_4_5 + 0x0011)
   0293 74 49               805 	mov	a,#0x49
   0295 F0                  806 	movx	@dptr,a
                            807 ;	genPointerSet
                            808 ;     genFarPointerSet
   0296 90s00r1B            809 	mov	dptr,#(_GPIO_init_file_name_4_5 + 0x0012)
   0299 74 4F               810 	mov	a,#0x4F
   029B F0                  811 	movx	@dptr,a
                            812 ;	genPointerSet
                            813 ;     genFarPointerSet
   029C 90s00r1C            814 	mov	dptr,#(_GPIO_init_file_name_4_5 + 0x0013)
   029F 74 2F               815 	mov	a,#0x2F
   02A1 F0                  816 	movx	@dptr,a
                            817 ;	genPointerSet
                            818 ;     genFarPointerSet
   02A2 90s00r1D            819 	mov	dptr,#(_GPIO_init_file_name_4_5 + 0x0014)
   02A5 74 63               820 	mov	a,#0x63
   02A7 F0                  821 	movx	@dptr,a
                            822 ;	genPointerSet
                            823 ;     genFarPointerSet
   02A8 90s00r1E            824 	mov	dptr,#(_GPIO_init_file_name_4_5 + 0x0015)
   02AB 74 6F               825 	mov	a,#0x6F
   02AD F0                  826 	movx	@dptr,a
                            827 ;	genPointerSet
                            828 ;     genFarPointerSet
   02AE 90s00r1F            829 	mov	dptr,#(_GPIO_init_file_name_4_5 + 0x0016)
   02B1 74 72               830 	mov	a,#0x72
   02B3 F0                  831 	movx	@dptr,a
                            832 ;	genPointerSet
                            833 ;     genFarPointerSet
   02B4 90s00r20            834 	mov	dptr,#(_GPIO_init_file_name_4_5 + 0x0017)
   02B7 74 65               835 	mov	a,#0x65
   02B9 F0                  836 	movx	@dptr,a
                            837 ;	genPointerSet
                            838 ;     genFarPointerSet
   02BA 90s00r21            839 	mov	dptr,#(_GPIO_init_file_name_4_5 + 0x0018)
   02BD 74 5F               840 	mov	a,#0x5F
   02BF F0                  841 	movx	@dptr,a
                            842 ;	genPointerSet
                            843 ;     genFarPointerSet
   02C0 90s00r22            844 	mov	dptr,#(_GPIO_init_file_name_4_5 + 0x0019)
   02C3 74 67               845 	mov	a,#0x67
   02C5 F0                  846 	movx	@dptr,a
                            847 ;	genPointerSet
                            848 ;     genFarPointerSet
   02C6 90s00r23            849 	mov	dptr,#(_GPIO_init_file_name_4_5 + 0x001a)
   02C9 74 70               850 	mov	a,#0x70
   02CB F0                  851 	movx	@dptr,a
                            852 ;	genPointerSet
                            853 ;     genFarPointerSet
   02CC 90s00r24            854 	mov	dptr,#(_GPIO_init_file_name_4_5 + 0x001b)
   02CF 74 69               855 	mov	a,#0x69
   02D1 F0                  856 	movx	@dptr,a
                            857 ;	genPointerSet
                            858 ;     genFarPointerSet
   02D2 90s00r25            859 	mov	dptr,#(_GPIO_init_file_name_4_5 + 0x001c)
   02D5 74 6F               860 	mov	a,#0x6F
   02D7 F0                  861 	movx	@dptr,a
                            862 ;	genPointerSet
                            863 ;     genFarPointerSet
   02D8 90s00r26            864 	mov	dptr,#(_GPIO_init_file_name_4_5 + 0x001d)
   02DB 74 2E               865 	mov	a,#0x2E
   02DD F0                  866 	movx	@dptr,a
                            867 ;	genPointerSet
                            868 ;     genFarPointerSet
   02DE 90s00r27            869 	mov	dptr,#(_GPIO_init_file_name_4_5 + 0x001e)
   02E1 74 63               870 	mov	a,#0x63
   02E3 F0                  871 	movx	@dptr,a
                            872 ;	genPointerSet
                            873 ;     genFarPointerSet
   02E4 90s00r28            874 	mov	dptr,#(_GPIO_init_file_name_4_5 + 0x001f)
   02E7 74 00               875 	mov	a,#0x00
   02E9 F0                  876 	movx	@dptr,a
                            877 ;	genAssign
   02EA 90s00r00            878 	mov	dptr,#_HAL_assert_fail_PARM_2
   02ED 74 46               879 	mov	a,#0x46
   02EF F0                  880 	movx	@dptr,a
   02F0 E4                  881 	clr	a
   02F1 A3                  882 	inc	dptr
   02F2 F0                  883 	movx	@dptr,a
   02F3 A3                  884 	inc	dptr
   02F4 F0                  885 	movx	@dptr,a
   02F5 A3                  886 	inc	dptr
   02F6 F0                  887 	movx	@dptr,a
                            888 ;	genCall
   02F7 75 82r09            889 	mov	dpl,#_GPIO_init_file_name_4_5
   02FA 75 83s00            890 	mov	dph,#(_GPIO_init_file_name_4_5 >> 8)
   02FD 75 F0 00            891 	mov	b,#0x00
   0300 12s00r00            892 	lcall	_HAL_assert_fail
                    0303    893 	C$core_gpio.c$72$1$1 ==.
                            894 ;	../drivers/CoreGPIO/core_gpio.c:72: }
   0303                     895 00115$:
                    0303    896 	C$core_gpio.c$73$1$1 ==.
                    0303    897 	XG$GPIO_init$0$0 ==.
   0303 22                  898 	ret
                            899 ;------------------------------------------------------------
                            900 ;Allocation info for local variables in function 'GPIO_config'
                            901 ;------------------------------------------------------------
                            902 ;port_id                   Allocated with name '_GPIO_config_PARM_2'
                            903 ;config                    Allocated with name '_GPIO_config_PARM_3'
                            904 ;this_gpio                 Allocated with name '_GPIO_config_this_gpio_1_1'
                            905 ;file_name                 Allocated with name '_GPIO_config_file_name_3_3'
                            906 ;cfg_reg_addr              Allocated with name '_GPIO_config_cfg_reg_addr_2_4'
                            907 ;file_name                 Allocated with name '_GPIO_config_file_name_4_6'
                            908 ;------------------------------------------------------------
                    0304    909 	G$GPIO_config$0$0 ==.
                    0304    910 	C$core_gpio.c$79$1$1 ==.
                            911 ;	../drivers/CoreGPIO/core_gpio.c:79: void GPIO_config
                            912 ;	-----------------------------------------
                            913 ;	 function GPIO_config
                            914 ;	-----------------------------------------
   0304                     915 _GPIO_config:
                            916 ;	genReceive
   0304 AA F0               917 	mov	r2,b
   0306 AB 83               918 	mov	r3,dph
   0308 E5 82               919 	mov	a,dpl
   030A 90s00r2E            920 	mov	dptr,#_GPIO_config_this_gpio_1_1
   030D F0                  921 	movx	@dptr,a
   030E A3                  922 	inc	dptr
   030F EB                  923 	mov	a,r3
   0310 F0                  924 	movx	@dptr,a
   0311 A3                  925 	inc	dptr
   0312 EA                  926 	mov	a,r2
   0313 F0                  927 	movx	@dptr,a
                    0314    928 	C$core_gpio.c$86$2$2 ==.
                            929 ;	../drivers/CoreGPIO/core_gpio.c:86: HAL_ASSERT( port_id < NB_OF_GPIO );
                            930 ;	genAssign
   0314 90s00r29            931 	mov	dptr,#_GPIO_config_PARM_2
   0317 E0                  932 	movx	a,@dptr
   0318 FA                  933 	mov	r2,a
                            934 ;	genCmpLt
                            935 ;	genCmp
   0319 BA 20 00            936 	cjne	r2,#0x20,00118$
   031C                     937 00118$:
   031C E4                  938 	clr	a
   031D 33                  939 	rlc	a
   031E FB                  940 	mov	r3,a
                            941 ;	genIfx
   031F EB                  942 	mov	a,r3
                            943 ;	genIfxJump
   0320 60 03               944 	jz	00119$
   0322 02s04r06            945 	ljmp	00104$
   0325                     946 00119$:
                            947 ;	genPointerSet
                            948 ;     genFarPointerSet
   0325 90s00r31            949 	mov	dptr,#_GPIO_config_file_name_3_3
   0328 74 2E               950 	mov	a,#0x2E
   032A F0                  951 	movx	@dptr,a
                            952 ;	genPointerSet
                            953 ;     genFarPointerSet
   032B 90s00r32            954 	mov	dptr,#(_GPIO_config_file_name_3_3 + 0x0001)
   032E 74 2E               955 	mov	a,#0x2E
   0330 F0                  956 	movx	@dptr,a
                            957 ;	genPointerSet
                            958 ;     genFarPointerSet
   0331 90s00r33            959 	mov	dptr,#(_GPIO_config_file_name_3_3 + 0x0002)
   0334 74 2F               960 	mov	a,#0x2F
   0336 F0                  961 	movx	@dptr,a
                            962 ;	genPointerSet
                            963 ;     genFarPointerSet
   0337 90s00r34            964 	mov	dptr,#(_GPIO_config_file_name_3_3 + 0x0003)
   033A 74 64               965 	mov	a,#0x64
   033C F0                  966 	movx	@dptr,a
                            967 ;	genPointerSet
                            968 ;     genFarPointerSet
   033D 90s00r35            969 	mov	dptr,#(_GPIO_config_file_name_3_3 + 0x0004)
   0340 74 72               970 	mov	a,#0x72
   0342 F0                  971 	movx	@dptr,a
                            972 ;	genPointerSet
                            973 ;     genFarPointerSet
   0343 90s00r36            974 	mov	dptr,#(_GPIO_config_file_name_3_3 + 0x0005)
   0346 74 69               975 	mov	a,#0x69
   0348 F0                  976 	movx	@dptr,a
                            977 ;	genPointerSet
                            978 ;     genFarPointerSet
   0349 90s00r37            979 	mov	dptr,#(_GPIO_config_file_name_3_3 + 0x0006)
   034C 74 76               980 	mov	a,#0x76
   034E F0                  981 	movx	@dptr,a
                            982 ;	genPointerSet
                            983 ;     genFarPointerSet
   034F 90s00r38            984 	mov	dptr,#(_GPIO_config_file_name_3_3 + 0x0007)
   0352 74 65               985 	mov	a,#0x65
   0354 F0                  986 	movx	@dptr,a
                            987 ;	genPointerSet
                            988 ;     genFarPointerSet
   0355 90s00r39            989 	mov	dptr,#(_GPIO_config_file_name_3_3 + 0x0008)
   0358 74 72               990 	mov	a,#0x72
   035A F0                  991 	movx	@dptr,a
                            992 ;	genPointerSet
                            993 ;     genFarPointerSet
   035B 90s00r3A            994 	mov	dptr,#(_GPIO_config_file_name_3_3 + 0x0009)
   035E 74 73               995 	mov	a,#0x73
   0360 F0                  996 	movx	@dptr,a
                            997 ;	genPointerSet
                            998 ;     genFarPointerSet
   0361 90s00r3B            999 	mov	dptr,#(_GPIO_config_file_name_3_3 + 0x000a)
   0364 74 2F              1000 	mov	a,#0x2F
   0366 F0                 1001 	movx	@dptr,a
                           1002 ;	genPointerSet
                           1003 ;     genFarPointerSet
   0367 90s00r3C           1004 	mov	dptr,#(_GPIO_config_file_name_3_3 + 0x000b)
   036A 74 43              1005 	mov	a,#0x43
   036C F0                 1006 	movx	@dptr,a
                           1007 ;	genPointerSet
                           1008 ;     genFarPointerSet
   036D 90s00r3D           1009 	mov	dptr,#(_GPIO_config_file_name_3_3 + 0x000c)
   0370 74 6F              1010 	mov	a,#0x6F
   0372 F0                 1011 	movx	@dptr,a
                           1012 ;	genPointerSet
                           1013 ;     genFarPointerSet
   0373 90s00r3E           1014 	mov	dptr,#(_GPIO_config_file_name_3_3 + 0x000d)
   0376 74 72              1015 	mov	a,#0x72
   0378 F0                 1016 	movx	@dptr,a
                           1017 ;	genPointerSet
                           1018 ;     genFarPointerSet
   0379 90s00r3F           1019 	mov	dptr,#(_GPIO_config_file_name_3_3 + 0x000e)
   037C 74 65              1020 	mov	a,#0x65
   037E F0                 1021 	movx	@dptr,a
                           1022 ;	genPointerSet
                           1023 ;     genFarPointerSet
   037F 90s00r40           1024 	mov	dptr,#(_GPIO_config_file_name_3_3 + 0x000f)
   0382 74 47              1025 	mov	a,#0x47
   0384 F0                 1026 	movx	@dptr,a
                           1027 ;	genPointerSet
                           1028 ;     genFarPointerSet
   0385 90s00r41           1029 	mov	dptr,#(_GPIO_config_file_name_3_3 + 0x0010)
   0388 74 50              1030 	mov	a,#0x50
   038A F0                 1031 	movx	@dptr,a
                           1032 ;	genPointerSet
                           1033 ;     genFarPointerSet
   038B 90s00r42           1034 	mov	dptr,#(_GPIO_config_file_name_3_3 + 0x0011)
   038E 74 49              1035 	mov	a,#0x49
   0390 F0                 1036 	movx	@dptr,a
                           1037 ;	genPointerSet
                           1038 ;     genFarPointerSet
   0391 90s00r43           1039 	mov	dptr,#(_GPIO_config_file_name_3_3 + 0x0012)
   0394 74 4F              1040 	mov	a,#0x4F
   0396 F0                 1041 	movx	@dptr,a
                           1042 ;	genPointerSet
                           1043 ;     genFarPointerSet
   0397 90s00r44           1044 	mov	dptr,#(_GPIO_config_file_name_3_3 + 0x0013)
   039A 74 2F              1045 	mov	a,#0x2F
   039C F0                 1046 	movx	@dptr,a
                           1047 ;	genPointerSet
                           1048 ;     genFarPointerSet
   039D 90s00r45           1049 	mov	dptr,#(_GPIO_config_file_name_3_3 + 0x0014)
   03A0 74 63              1050 	mov	a,#0x63
   03A2 F0                 1051 	movx	@dptr,a
                           1052 ;	genPointerSet
                           1053 ;     genFarPointerSet
   03A3 90s00r46           1054 	mov	dptr,#(_GPIO_config_file_name_3_3 + 0x0015)
   03A6 74 6F              1055 	mov	a,#0x6F
   03A8 F0                 1056 	movx	@dptr,a
                           1057 ;	genPointerSet
                           1058 ;     genFarPointerSet
   03A9 90s00r47           1059 	mov	dptr,#(_GPIO_config_file_name_3_3 + 0x0016)
   03AC 74 72              1060 	mov	a,#0x72
   03AE F0                 1061 	movx	@dptr,a
                           1062 ;	genPointerSet
                           1063 ;     genFarPointerSet
   03AF 90s00r48           1064 	mov	dptr,#(_GPIO_config_file_name_3_3 + 0x0017)
   03B2 74 65              1065 	mov	a,#0x65
   03B4 F0                 1066 	movx	@dptr,a
                           1067 ;	genPointerSet
                           1068 ;     genFarPointerSet
   03B5 90s00r49           1069 	mov	dptr,#(_GPIO_config_file_name_3_3 + 0x0018)
   03B8 74 5F              1070 	mov	a,#0x5F
   03BA F0                 1071 	movx	@dptr,a
                           1072 ;	genPointerSet
                           1073 ;     genFarPointerSet
   03BB 90s00r4A           1074 	mov	dptr,#(_GPIO_config_file_name_3_3 + 0x0019)
   03BE 74 67              1075 	mov	a,#0x67
   03C0 F0                 1076 	movx	@dptr,a
                           1077 ;	genPointerSet
                           1078 ;     genFarPointerSet
   03C1 90s00r4B           1079 	mov	dptr,#(_GPIO_config_file_name_3_3 + 0x001a)
   03C4 74 70              1080 	mov	a,#0x70
   03C6 F0                 1081 	movx	@dptr,a
                           1082 ;	genPointerSet
                           1083 ;     genFarPointerSet
   03C7 90s00r4C           1084 	mov	dptr,#(_GPIO_config_file_name_3_3 + 0x001b)
   03CA 74 69              1085 	mov	a,#0x69
   03CC F0                 1086 	movx	@dptr,a
                           1087 ;	genPointerSet
                           1088 ;     genFarPointerSet
   03CD 90s00r4D           1089 	mov	dptr,#(_GPIO_config_file_name_3_3 + 0x001c)
   03D0 74 6F              1090 	mov	a,#0x6F
   03D2 F0                 1091 	movx	@dptr,a
                           1092 ;	genPointerSet
                           1093 ;     genFarPointerSet
   03D3 90s00r4E           1094 	mov	dptr,#(_GPIO_config_file_name_3_3 + 0x001d)
   03D6 74 2E              1095 	mov	a,#0x2E
   03D8 F0                 1096 	movx	@dptr,a
                           1097 ;	genPointerSet
                           1098 ;     genFarPointerSet
   03D9 90s00r4F           1099 	mov	dptr,#(_GPIO_config_file_name_3_3 + 0x001e)
   03DC 74 63              1100 	mov	a,#0x63
   03DE F0                 1101 	movx	@dptr,a
                           1102 ;	genPointerSet
                           1103 ;     genFarPointerSet
   03DF 90s00r50           1104 	mov	dptr,#(_GPIO_config_file_name_3_3 + 0x001f)
   03E2 74 00              1105 	mov	a,#0x00
   03E4 F0                 1106 	movx	@dptr,a
                           1107 ;	genAssign
   03E5 90s00r00           1108 	mov	dptr,#_HAL_assert_fail_PARM_2
   03E8 74 56              1109 	mov	a,#0x56
   03EA F0                 1110 	movx	@dptr,a
   03EB E4                 1111 	clr	a
   03EC A3                 1112 	inc	dptr
   03ED F0                 1113 	movx	@dptr,a
   03EE A3                 1114 	inc	dptr
   03EF F0                 1115 	movx	@dptr,a
   03F0 A3                 1116 	inc	dptr
   03F1 F0                 1117 	movx	@dptr,a
                           1118 ;	genCall
   03F2 75 82r31           1119 	mov	dpl,#_GPIO_config_file_name_3_3
   03F5 75 83s00           1120 	mov	dph,#(_GPIO_config_file_name_3_3 >> 8)
   03F8 75 F0 00           1121 	mov	b,#0x00
   03FB C0 02              1122 	push	ar2
   03FD C0 03              1123 	push	ar3
   03FF 12s00r00           1124 	lcall	_HAL_assert_fail
   0402 D0 03              1125 	pop	ar3
   0404 D0 02              1126 	pop	ar2
   0406                    1127 00104$:
                    0406   1128 	C$core_gpio.c$88$1$1 ==.
                           1129 ;	../drivers/CoreGPIO/core_gpio.c:88: if ( port_id < NB_OF_GPIO )
                           1130 ;	genIfx
   0406 EB                 1131 	mov	a,r3
                           1132 ;	genIfxJump
   0407 70 03              1133 	jnz	00120$
   0409 02s05r91           1134 	ljmp	00113$
   040C                    1135 00120$:
                    040C   1136 	C$core_gpio.c$90$2$4 ==.
                           1137 ;	../drivers/CoreGPIO/core_gpio.c:90: uint32_t cfg_reg_addr = this_gpio->base_addr;
                           1138 ;	genAssign
   040C 90s00r2E           1139 	mov	dptr,#_GPIO_config_this_gpio_1_1
   040F E0                 1140 	movx	a,@dptr
   0410 FB                 1141 	mov	r3,a
   0411 A3                 1142 	inc	dptr
   0412 E0                 1143 	movx	a,@dptr
   0413 FC                 1144 	mov	r4,a
   0414 A3                 1145 	inc	dptr
   0415 E0                 1146 	movx	a,@dptr
   0416 FD                 1147 	mov	r5,a
                           1148 ;	genPointerGet
                           1149 ;	genGenPointerGet
   0417 8B 82              1150 	mov	dpl,r3
   0419 8C 83              1151 	mov	dph,r4
   041B 8D F0              1152 	mov	b,r5
   041D 12s00r00           1153 	lcall	__gptrget
   0420 FB                 1154 	mov	r3,a
   0421 A3                 1155 	inc	dptr
   0422 12s00r00           1156 	lcall	__gptrget
   0425 FC                 1157 	mov	r4,a
                           1158 ;	genCast
   0426 7D 00              1159 	mov	r5,#0x00
   0428 7E 00              1160 	mov	r6,#0x00
                    042A   1161 	C$core_gpio.c$91$2$4 ==.
                           1162 ;	../drivers/CoreGPIO/core_gpio.c:91: cfg_reg_addr += (port_id * 4);
                           1163 ;	genMult
                           1164 ;	genMultOneByte
   042A EA                 1165 	mov	a,r2
   042B 75 F0 04           1166 	mov	b,#0x04
   042E A4                 1167 	mul	ab
   042F FA                 1168 	mov	r2,a
   0430 AF F0              1169 	mov	r7,b
                           1170 ;	genCast
   0432 EF                 1171 	mov	a,r7
   0433 33                 1172 	rlc	a
   0434 95 E0              1173 	subb	a,acc
   0436 F8                 1174 	mov	r0,a
   0437 F9                 1175 	mov	r1,a
                           1176 ;	genPlus
   0438 E5 02              1177 	mov	a,ar2
   043A 25 03              1178 	add	a,ar3
   043C FB                 1179 	mov	r3,a
   043D E5 07              1180 	mov	a,ar7
   043F 35 04              1181 	addc	a,ar4
   0441 FC                 1182 	mov	r4,a
   0442 E5 00              1183 	mov	a,ar0
   0444 35 05              1184 	addc	a,ar5
   0446 FD                 1185 	mov	r5,a
   0447 E5 01              1186 	mov	a,ar1
   0449 35 06              1187 	addc	a,ar6
   044B FE                 1188 	mov	r6,a
                    044C   1189 	C$core_gpio.c$92$2$4 ==.
                           1190 ;	../drivers/CoreGPIO/core_gpio.c:92: HW_set_32bit_reg( cfg_reg_addr, config );
                           1191 ;	genCast
                           1192 ;	genAssign
   044C 90s00r2A           1193 	mov	dptr,#_GPIO_config_PARM_3
   044F E0                 1194 	movx	a,@dptr
   0450 FA                 1195 	mov	r2,a
   0451 A3                 1196 	inc	dptr
   0452 E0                 1197 	movx	a,@dptr
   0453 FD                 1198 	mov	r5,a
   0454 A3                 1199 	inc	dptr
   0455 E0                 1200 	movx	a,@dptr
   0456 FE                 1201 	mov	r6,a
   0457 A3                 1202 	inc	dptr
   0458 E0                 1203 	movx	a,@dptr
   0459 FF                 1204 	mov	r7,a
                           1205 ;	genAssign
   045A 90s00r00           1206 	mov	dptr,#_HW_set_32bit_reg_PARM_2
   045D EA                 1207 	mov	a,r2
   045E F0                 1208 	movx	@dptr,a
   045F A3                 1209 	inc	dptr
   0460 ED                 1210 	mov	a,r5
   0461 F0                 1211 	movx	@dptr,a
   0462 A3                 1212 	inc	dptr
   0463 EE                 1213 	mov	a,r6
   0464 F0                 1214 	movx	@dptr,a
   0465 A3                 1215 	inc	dptr
   0466 EF                 1216 	mov	a,r7
   0467 F0                 1217 	movx	@dptr,a
                           1218 ;	genCall
   0468 8B 82              1219 	mov	dpl,r3
   046A 8C 83              1220 	mov	dph,r4
   046C C0 02              1221 	push	ar2
   046E C0 03              1222 	push	ar3
   0470 C0 04              1223 	push	ar4
   0472 C0 05              1224 	push	ar5
   0474 C0 06              1225 	push	ar6
   0476 C0 07              1226 	push	ar7
   0478 12s00r00           1227 	lcall	_HW_set_32bit_reg
   047B D0 07              1228 	pop	ar7
   047D D0 06              1229 	pop	ar6
   047F D0 05              1230 	pop	ar5
   0481 D0 04              1231 	pop	ar4
   0483 D0 03              1232 	pop	ar3
   0485 D0 02              1233 	pop	ar2
                    0487   1234 	C$core_gpio.c$101$3$5 ==.
                           1235 ;	../drivers/CoreGPIO/core_gpio.c:101: HAL_ASSERT( HW_get_32bit_reg( cfg_reg_addr ) == config );
                           1236 ;	genCall
   0487 8B 82              1237 	mov	dpl,r3
   0489 8C 83              1238 	mov	dph,r4
   048B C0 02              1239 	push	ar2
   048D C0 05              1240 	push	ar5
   048F C0 06              1241 	push	ar6
   0491 C0 07              1242 	push	ar7
   0493 12s00r00           1243 	lcall	_HW_get_32bit_reg
   0496 AB 82              1244 	mov	r3,dpl
   0498 AC 83              1245 	mov	r4,dph
   049A A8 F0              1246 	mov	r0,b
   049C F9                 1247 	mov	r1,a
   049D D0 07              1248 	pop	ar7
   049F D0 06              1249 	pop	ar6
   04A1 D0 05              1250 	pop	ar5
   04A3 D0 02              1251 	pop	ar2
                           1252 ;	genCmpEq
                           1253 ;	gencjneshort
   04A5 EB                 1254 	mov	a,r3
   04A6 B5 02 0F           1255 	cjne	a,ar2,00121$
   04A9 EC                 1256 	mov	a,r4
   04AA B5 05 0B           1257 	cjne	a,ar5,00121$
   04AD E8                 1258 	mov	a,r0
   04AE B5 06 07           1259 	cjne	a,ar6,00121$
   04B1 E9                 1260 	mov	a,r1
   04B2 B5 07 03           1261 	cjne	a,ar7,00121$
   04B5 02s05r91           1262 	ljmp	00113$
   04B8                    1263 00121$:
                           1264 ;	genPointerSet
                           1265 ;     genFarPointerSet
   04B8 90s00r51           1266 	mov	dptr,#_GPIO_config_file_name_4_6
   04BB 74 2E              1267 	mov	a,#0x2E
   04BD F0                 1268 	movx	@dptr,a
                           1269 ;	genPointerSet
                           1270 ;     genFarPointerSet
   04BE 90s00r52           1271 	mov	dptr,#(_GPIO_config_file_name_4_6 + 0x0001)
   04C1 74 2E              1272 	mov	a,#0x2E
   04C3 F0                 1273 	movx	@dptr,a
                           1274 ;	genPointerSet
                           1275 ;     genFarPointerSet
   04C4 90s00r53           1276 	mov	dptr,#(_GPIO_config_file_name_4_6 + 0x0002)
   04C7 74 2F              1277 	mov	a,#0x2F
   04C9 F0                 1278 	movx	@dptr,a
                           1279 ;	genPointerSet
                           1280 ;     genFarPointerSet
   04CA 90s00r54           1281 	mov	dptr,#(_GPIO_config_file_name_4_6 + 0x0003)
   04CD 74 64              1282 	mov	a,#0x64
   04CF F0                 1283 	movx	@dptr,a
                           1284 ;	genPointerSet
                           1285 ;     genFarPointerSet
   04D0 90s00r55           1286 	mov	dptr,#(_GPIO_config_file_name_4_6 + 0x0004)
   04D3 74 72              1287 	mov	a,#0x72
   04D5 F0                 1288 	movx	@dptr,a
                           1289 ;	genPointerSet
                           1290 ;     genFarPointerSet
   04D6 90s00r56           1291 	mov	dptr,#(_GPIO_config_file_name_4_6 + 0x0005)
   04D9 74 69              1292 	mov	a,#0x69
   04DB F0                 1293 	movx	@dptr,a
                           1294 ;	genPointerSet
                           1295 ;     genFarPointerSet
   04DC 90s00r57           1296 	mov	dptr,#(_GPIO_config_file_name_4_6 + 0x0006)
   04DF 74 76              1297 	mov	a,#0x76
   04E1 F0                 1298 	movx	@dptr,a
                           1299 ;	genPointerSet
                           1300 ;     genFarPointerSet
   04E2 90s00r58           1301 	mov	dptr,#(_GPIO_config_file_name_4_6 + 0x0007)
   04E5 74 65              1302 	mov	a,#0x65
   04E7 F0                 1303 	movx	@dptr,a
                           1304 ;	genPointerSet
                           1305 ;     genFarPointerSet
   04E8 90s00r59           1306 	mov	dptr,#(_GPIO_config_file_name_4_6 + 0x0008)
   04EB 74 72              1307 	mov	a,#0x72
   04ED F0                 1308 	movx	@dptr,a
                           1309 ;	genPointerSet
                           1310 ;     genFarPointerSet
   04EE 90s00r5A           1311 	mov	dptr,#(_GPIO_config_file_name_4_6 + 0x0009)
   04F1 74 73              1312 	mov	a,#0x73
   04F3 F0                 1313 	movx	@dptr,a
                           1314 ;	genPointerSet
                           1315 ;     genFarPointerSet
   04F4 90s00r5B           1316 	mov	dptr,#(_GPIO_config_file_name_4_6 + 0x000a)
   04F7 74 2F              1317 	mov	a,#0x2F
   04F9 F0                 1318 	movx	@dptr,a
                           1319 ;	genPointerSet
                           1320 ;     genFarPointerSet
   04FA 90s00r5C           1321 	mov	dptr,#(_GPIO_config_file_name_4_6 + 0x000b)
   04FD 74 43              1322 	mov	a,#0x43
   04FF F0                 1323 	movx	@dptr,a
                           1324 ;	genPointerSet
                           1325 ;     genFarPointerSet
   0500 90s00r5D           1326 	mov	dptr,#(_GPIO_config_file_name_4_6 + 0x000c)
   0503 74 6F              1327 	mov	a,#0x6F
   0505 F0                 1328 	movx	@dptr,a
                           1329 ;	genPointerSet
                           1330 ;     genFarPointerSet
   0506 90s00r5E           1331 	mov	dptr,#(_GPIO_config_file_name_4_6 + 0x000d)
   0509 74 72              1332 	mov	a,#0x72
   050B F0                 1333 	movx	@dptr,a
                           1334 ;	genPointerSet
                           1335 ;     genFarPointerSet
   050C 90s00r5F           1336 	mov	dptr,#(_GPIO_config_file_name_4_6 + 0x000e)
   050F 74 65              1337 	mov	a,#0x65
   0511 F0                 1338 	movx	@dptr,a
                           1339 ;	genPointerSet
                           1340 ;     genFarPointerSet
   0512 90s00r60           1341 	mov	dptr,#(_GPIO_config_file_name_4_6 + 0x000f)
   0515 74 47              1342 	mov	a,#0x47
   0517 F0                 1343 	movx	@dptr,a
                           1344 ;	genPointerSet
                           1345 ;     genFarPointerSet
   0518 90s00r61           1346 	mov	dptr,#(_GPIO_config_file_name_4_6 + 0x0010)
   051B 74 50              1347 	mov	a,#0x50
   051D F0                 1348 	movx	@dptr,a
                           1349 ;	genPointerSet
                           1350 ;     genFarPointerSet
   051E 90s00r62           1351 	mov	dptr,#(_GPIO_config_file_name_4_6 + 0x0011)
   0521 74 49              1352 	mov	a,#0x49
   0523 F0                 1353 	movx	@dptr,a
                           1354 ;	genPointerSet
                           1355 ;     genFarPointerSet
   0524 90s00r63           1356 	mov	dptr,#(_GPIO_config_file_name_4_6 + 0x0012)
   0527 74 4F              1357 	mov	a,#0x4F
   0529 F0                 1358 	movx	@dptr,a
                           1359 ;	genPointerSet
                           1360 ;     genFarPointerSet
   052A 90s00r64           1361 	mov	dptr,#(_GPIO_config_file_name_4_6 + 0x0013)
   052D 74 2F              1362 	mov	a,#0x2F
   052F F0                 1363 	movx	@dptr,a
                           1364 ;	genPointerSet
                           1365 ;     genFarPointerSet
   0530 90s00r65           1366 	mov	dptr,#(_GPIO_config_file_name_4_6 + 0x0014)
   0533 74 63              1367 	mov	a,#0x63
   0535 F0                 1368 	movx	@dptr,a
                           1369 ;	genPointerSet
                           1370 ;     genFarPointerSet
   0536 90s00r66           1371 	mov	dptr,#(_GPIO_config_file_name_4_6 + 0x0015)
   0539 74 6F              1372 	mov	a,#0x6F
   053B F0                 1373 	movx	@dptr,a
                           1374 ;	genPointerSet
                           1375 ;     genFarPointerSet
   053C 90s00r67           1376 	mov	dptr,#(_GPIO_config_file_name_4_6 + 0x0016)
   053F 74 72              1377 	mov	a,#0x72
   0541 F0                 1378 	movx	@dptr,a
                           1379 ;	genPointerSet
                           1380 ;     genFarPointerSet
   0542 90s00r68           1381 	mov	dptr,#(_GPIO_config_file_name_4_6 + 0x0017)
   0545 74 65              1382 	mov	a,#0x65
   0547 F0                 1383 	movx	@dptr,a
                           1384 ;	genPointerSet
                           1385 ;     genFarPointerSet
   0548 90s00r69           1386 	mov	dptr,#(_GPIO_config_file_name_4_6 + 0x0018)
   054B 74 5F              1387 	mov	a,#0x5F
   054D F0                 1388 	movx	@dptr,a
                           1389 ;	genPointerSet
                           1390 ;     genFarPointerSet
   054E 90s00r6A           1391 	mov	dptr,#(_GPIO_config_file_name_4_6 + 0x0019)
   0551 74 67              1392 	mov	a,#0x67
   0553 F0                 1393 	movx	@dptr,a
                           1394 ;	genPointerSet
                           1395 ;     genFarPointerSet
   0554 90s00r6B           1396 	mov	dptr,#(_GPIO_config_file_name_4_6 + 0x001a)
   0557 74 70              1397 	mov	a,#0x70
   0559 F0                 1398 	movx	@dptr,a
                           1399 ;	genPointerSet
                           1400 ;     genFarPointerSet
   055A 90s00r6C           1401 	mov	dptr,#(_GPIO_config_file_name_4_6 + 0x001b)
   055D 74 69              1402 	mov	a,#0x69
   055F F0                 1403 	movx	@dptr,a
                           1404 ;	genPointerSet
                           1405 ;     genFarPointerSet
   0560 90s00r6D           1406 	mov	dptr,#(_GPIO_config_file_name_4_6 + 0x001c)
   0563 74 6F              1407 	mov	a,#0x6F
   0565 F0                 1408 	movx	@dptr,a
                           1409 ;	genPointerSet
                           1410 ;     genFarPointerSet
   0566 90s00r6E           1411 	mov	dptr,#(_GPIO_config_file_name_4_6 + 0x001d)
   0569 74 2E              1412 	mov	a,#0x2E
   056B F0                 1413 	movx	@dptr,a
                           1414 ;	genPointerSet
                           1415 ;     genFarPointerSet
   056C 90s00r6F           1416 	mov	dptr,#(_GPIO_config_file_name_4_6 + 0x001e)
   056F 74 63              1417 	mov	a,#0x63
   0571 F0                 1418 	movx	@dptr,a
                           1419 ;	genPointerSet
                           1420 ;     genFarPointerSet
   0572 90s00r70           1421 	mov	dptr,#(_GPIO_config_file_name_4_6 + 0x001f)
   0575 74 00              1422 	mov	a,#0x00
   0577 F0                 1423 	movx	@dptr,a
                           1424 ;	genAssign
   0578 90s00r00           1425 	mov	dptr,#_HAL_assert_fail_PARM_2
   057B 74 65              1426 	mov	a,#0x65
   057D F0                 1427 	movx	@dptr,a
   057E E4                 1428 	clr	a
   057F A3                 1429 	inc	dptr
   0580 F0                 1430 	movx	@dptr,a
   0581 A3                 1431 	inc	dptr
   0582 F0                 1432 	movx	@dptr,a
   0583 A3                 1433 	inc	dptr
   0584 F0                 1434 	movx	@dptr,a
                           1435 ;	genCall
   0585 75 82r51           1436 	mov	dpl,#_GPIO_config_file_name_4_6
   0588 75 83s00           1437 	mov	dph,#(_GPIO_config_file_name_4_6 >> 8)
   058B 75 F0 00           1438 	mov	b,#0x00
   058E 12s00r00           1439 	lcall	_HAL_assert_fail
   0591                    1440 00113$:
                    0591   1441 	C$core_gpio.c$103$2$1 ==.
                    0591   1442 	XG$GPIO_config$0$0 ==.
   0591 22                 1443 	ret
                           1444 ;------------------------------------------------------------
                           1445 ;Allocation info for local variables in function 'GPIO_set_outputs'
                           1446 ;------------------------------------------------------------
                           1447 ;sloc0                     Allocated with name '_GPIO_set_outputs_sloc0_1_0'
                           1448 ;sloc1                     Allocated with name '_GPIO_set_outputs_sloc1_1_0'
                           1449 ;sloc2                     Allocated with name '_GPIO_set_outputs_sloc2_1_0'
                           1450 ;value                     Allocated with name '_GPIO_set_outputs_PARM_2'
                           1451 ;this_gpio                 Allocated with name '_GPIO_set_outputs_this_gpio_1_1'
                           1452 ;file_name                 Allocated with name '_GPIO_set_outputs_file_name_4_4'
                           1453 ;file_name                 Allocated with name '_GPIO_set_outputs_file_name_3_6'
                           1454 ;------------------------------------------------------------
                    0592   1455 	G$GPIO_set_outputs$0$0 ==.
                    0592   1456 	C$core_gpio.c$109$2$1 ==.
                           1457 ;	../drivers/CoreGPIO/core_gpio.c:109: void GPIO_set_outputs
                           1458 ;	-----------------------------------------
                           1459 ;	 function GPIO_set_outputs
                           1460 ;	-----------------------------------------
   0592                    1461 _GPIO_set_outputs:
                           1462 ;	genReceive
   0592 AA F0              1463 	mov	r2,b
   0594 AB 83              1464 	mov	r3,dph
   0596 E5 82              1465 	mov	a,dpl
   0598 90s00r75           1466 	mov	dptr,#_GPIO_set_outputs_this_gpio_1_1
   059B F0                 1467 	movx	@dptr,a
   059C A3                 1468 	inc	dptr
   059D EB                 1469 	mov	a,r3
   059E F0                 1470 	movx	@dptr,a
   059F A3                 1471 	inc	dptr
   05A0 EA                 1472 	mov	a,r2
   05A1 F0                 1473 	movx	@dptr,a
                    05A2   1474 	C$core_gpio.c$115$1$1 ==.
                           1475 ;	../drivers/CoreGPIO/core_gpio.c:115: switch( this_gpio->apb_bus_width )
                           1476 ;	genAssign
   05A2 90s00r75           1477 	mov	dptr,#_GPIO_set_outputs_this_gpio_1_1
   05A5 E0                 1478 	movx	a,@dptr
   05A6 FA                 1479 	mov	r2,a
   05A7 A3                 1480 	inc	dptr
   05A8 E0                 1481 	movx	a,@dptr
   05A9 FB                 1482 	mov	r3,a
   05AA A3                 1483 	inc	dptr
   05AB E0                 1484 	movx	a,@dptr
   05AC FC                 1485 	mov	r4,a
                           1486 ;	genPlus
                           1487 ;	genPlusIncr
   05AD 74 02              1488 	mov	a,#0x02
   05AF 25 02              1489 	add	a,ar2
   05B1 FD                 1490 	mov	r5,a
   05B2 74 00              1491 	mov	a,#0x00
   05B4 35 03              1492 	addc	a,ar3
   05B6 FE                 1493 	mov	r6,a
   05B7 8C 07              1494 	mov	ar7,r4
                           1495 ;	genPointerGet
                           1496 ;	genGenPointerGet
   05B9 8D 82              1497 	mov	dpl,r5
   05BB 8E 83              1498 	mov	dph,r6
   05BD 8F F0              1499 	mov	b,r7
   05BF 12s00r00           1500 	lcall	__gptrget
   05C2 FD                 1501 	mov	r5,a
                           1502 ;	genCmpEq
                           1503 ;	gencjneshort
   05C3 BD 00 03           1504 	cjne	r5,#0x00,00122$
   05C6 02s06r8B           1505 	ljmp	00103$
   05C9                    1506 00122$:
                           1507 ;	genCmpEq
                           1508 ;	gencjneshort
   05C9 BD 01 03           1509 	cjne	r5,#0x01,00123$
   05CC 02s06r16           1510 	ljmp	00102$
   05CF                    1511 00123$:
                           1512 ;	genCmpEq
                           1513 ;	gencjneshort
   05CF BD 02 02           1514 	cjne	r5,#0x02,00124$
   05D2 80 03              1515 	sjmp	00125$
   05D4                    1516 00124$:
   05D4 02s07r5C           1517 	ljmp	00107$
   05D7                    1518 00125$:
                    05D7   1519 	C$core_gpio.c$118$2$2 ==.
                           1520 ;	../drivers/CoreGPIO/core_gpio.c:118: HAL_set_32bit_reg( this_gpio->base_addr, GPIO_OUT, value );
                           1521 ;	genPointerGet
                           1522 ;	genGenPointerGet
   05D7 8A 82              1523 	mov	dpl,r2
   05D9 8B 83              1524 	mov	dph,r3
   05DB 8C F0              1525 	mov	b,r4
   05DD 12s00r00           1526 	lcall	__gptrget
   05E0 FD                 1527 	mov	r5,a
   05E1 A3                 1528 	inc	dptr
   05E2 12s00r00           1529 	lcall	__gptrget
   05E5 FE                 1530 	mov	r6,a
                           1531 ;	genPlus
                           1532 ;	genPlusIncr
   05E6 74 A0              1533 	mov	a,#0xA0
   05E8 25 05              1534 	add	a,ar5
   05EA FA                 1535 	mov	r2,a
   05EB 74 00              1536 	mov	a,#0x00
   05ED 35 06              1537 	addc	a,ar6
   05EF FB                 1538 	mov	r3,a
                           1539 ;	genAssign
   05F0 90s00r71           1540 	mov	dptr,#_GPIO_set_outputs_PARM_2
   05F3 E0                 1541 	movx	a,@dptr
   05F4 FF                 1542 	mov	r7,a
   05F5 A3                 1543 	inc	dptr
   05F6 E0                 1544 	movx	a,@dptr
   05F7 F8                 1545 	mov	r0,a
   05F8 A3                 1546 	inc	dptr
   05F9 E0                 1547 	movx	a,@dptr
   05FA F9                 1548 	mov	r1,a
   05FB A3                 1549 	inc	dptr
   05FC E0                 1550 	movx	a,@dptr
   05FD FD                 1551 	mov	r5,a
                           1552 ;	genAssign
   05FE 90s00r00           1553 	mov	dptr,#_HW_set_32bit_reg_PARM_2
   0601 EF                 1554 	mov	a,r7
   0602 F0                 1555 	movx	@dptr,a
   0603 A3                 1556 	inc	dptr
   0604 E8                 1557 	mov	a,r0
   0605 F0                 1558 	movx	@dptr,a
   0606 A3                 1559 	inc	dptr
   0607 E9                 1560 	mov	a,r1
   0608 F0                 1561 	movx	@dptr,a
   0609 A3                 1562 	inc	dptr
   060A ED                 1563 	mov	a,r5
   060B F0                 1564 	movx	@dptr,a
                           1565 ;	genCall
   060C 8A 82              1566 	mov	dpl,r2
   060E 8B 83              1567 	mov	dph,r3
   0610 12s00r00           1568 	lcall	_HW_set_32bit_reg
                    0613   1569 	C$core_gpio.c$119$2$2 ==.
                           1570 ;	../drivers/CoreGPIO/core_gpio.c:119: break;
   0613 02s08r35           1571 	ljmp	00113$
                    0616   1572 	C$core_gpio.c$121$2$2 ==.
                           1573 ;	../drivers/CoreGPIO/core_gpio.c:121: case GPIO_APB_16_BITS_BUS:
   0616                    1574 00102$:
                    0616   1575 	C$core_gpio.c$122$2$2 ==.
                           1576 ;	../drivers/CoreGPIO/core_gpio.c:122: HAL_set_16bit_reg( this_gpio->base_addr, GPIO_OUT0, (uint16_t)value );
                           1577 ;	genPointerGet
                           1578 ;	genGenPointerGet
   0616 8A 82              1579 	mov	dpl,r2
   0618 8B 83              1580 	mov	dph,r3
   061A 8C F0              1581 	mov	b,r4
   061C 12s00r00           1582 	lcall	__gptrget
   061F FD                 1583 	mov	r5,a
   0620 A3                 1584 	inc	dptr
   0621 12s00r00           1585 	lcall	__gptrget
   0624 FE                 1586 	mov	r6,a
                           1587 ;	genPlus
                           1588 ;	genPlusIncr
   0625 74 A0              1589 	mov	a,#0xA0
   0627 25 05              1590 	add	a,ar5
   0629 FD                 1591 	mov	r5,a
   062A 74 00              1592 	mov	a,#0x00
   062C 35 06              1593 	addc	a,ar6
   062E FE                 1594 	mov	r6,a
                           1595 ;	genAssign
   062F 90s00r71           1596 	mov	dptr,#_GPIO_set_outputs_PARM_2
   0632 E0                 1597 	movx	a,@dptr
   0633 F5*00              1598 	mov	_GPIO_set_outputs_sloc1_1_0,a
   0635 A3                 1599 	inc	dptr
   0636 E0                 1600 	movx	a,@dptr
   0637 F5*01              1601 	mov	(_GPIO_set_outputs_sloc1_1_0 + 1),a
   0639 A3                 1602 	inc	dptr
   063A E0                 1603 	movx	a,@dptr
   063B F5*02              1604 	mov	(_GPIO_set_outputs_sloc1_1_0 + 2),a
   063D A3                 1605 	inc	dptr
   063E E0                 1606 	movx	a,@dptr
   063F F5*03              1607 	mov	(_GPIO_set_outputs_sloc1_1_0 + 3),a
                           1608 ;	genCast
   0641 90s00r00           1609 	mov	dptr,#_HW_set_16bit_reg_PARM_2
   0644 E5*00              1610 	mov	a,_GPIO_set_outputs_sloc1_1_0
   0646 F0                 1611 	movx	@dptr,a
   0647 A3                 1612 	inc	dptr
   0648 E5*01              1613 	mov	a,(_GPIO_set_outputs_sloc1_1_0 + 1)
   064A F0                 1614 	movx	@dptr,a
                           1615 ;	genCall
   064B 8D 82              1616 	mov	dpl,r5
   064D 8E 83              1617 	mov	dph,r6
   064F C0 02              1618 	push	ar2
   0651 C0 03              1619 	push	ar3
   0653 C0 04              1620 	push	ar4
   0655 12s00r00           1621 	lcall	_HW_set_16bit_reg
   0658 D0 04              1622 	pop	ar4
   065A D0 03              1623 	pop	ar3
   065C D0 02              1624 	pop	ar2
                    065E   1625 	C$core_gpio.c$123$2$2 ==.
                           1626 ;	../drivers/CoreGPIO/core_gpio.c:123: HAL_set_16bit_reg( this_gpio->base_addr, GPIO_OUT1, (uint16_t)(value >> 16) );
                           1627 ;	genPointerGet
                           1628 ;	genGenPointerGet
   065E 8A 82              1629 	mov	dpl,r2
   0660 8B 83              1630 	mov	dph,r3
   0662 8C F0              1631 	mov	b,r4
   0664 12s00r00           1632 	lcall	__gptrget
   0667 FE                 1633 	mov	r6,a
   0668 A3                 1634 	inc	dptr
   0669 12s00r00           1635 	lcall	__gptrget
   066C FD                 1636 	mov	r5,a
                           1637 ;	genPlus
                           1638 ;	genPlusIncr
   066D 74 A4              1639 	mov	a,#0xA4
   066F 25 06              1640 	add	a,ar6
   0671 FE                 1641 	mov	r6,a
   0672 74 00              1642 	mov	a,#0x00
   0674 35 05              1643 	addc	a,ar5
   0676 FD                 1644 	mov	r5,a
                           1645 ;	genGetWord
   0677 90s00r00           1646 	mov	dptr,#_HW_set_16bit_reg_PARM_2
   067A E5*02              1647 	mov	a,(_GPIO_set_outputs_sloc1_1_0 + 2)
   067C F0                 1648 	movx	@dptr,a
   067D A3                 1649 	inc	dptr
   067E E5*03              1650 	mov	a,(_GPIO_set_outputs_sloc1_1_0 + 3)
   0680 F0                 1651 	movx	@dptr,a
                           1652 ;	genCall
   0681 8E 82              1653 	mov	dpl,r6
   0683 8D 83              1654 	mov	dph,r5
   0685 12s00r00           1655 	lcall	_HW_set_16bit_reg
                    0688   1656 	C$core_gpio.c$124$2$2 ==.
                           1657 ;	../drivers/CoreGPIO/core_gpio.c:124: break;
   0688 02s08r35           1658 	ljmp	00113$
                    068B   1659 	C$core_gpio.c$126$2$2 ==.
                           1660 ;	../drivers/CoreGPIO/core_gpio.c:126: case GPIO_APB_8_BITS_BUS:
   068B                    1661 00103$:
                    068B   1662 	C$core_gpio.c$127$2$2 ==.
                           1663 ;	../drivers/CoreGPIO/core_gpio.c:127: HAL_set_8bit_reg( this_gpio->base_addr, GPIO_OUT0, (uint8_t)value );
                           1664 ;	genPointerGet
                           1665 ;	genGenPointerGet
   068B 8A 82              1666 	mov	dpl,r2
   068D 8B 83              1667 	mov	dph,r3
   068F 8C F0              1668 	mov	b,r4
   0691 12s00r00           1669 	lcall	__gptrget
   0694 FD                 1670 	mov	r5,a
   0695 A3                 1671 	inc	dptr
   0696 12s00r00           1672 	lcall	__gptrget
   0699 FE                 1673 	mov	r6,a
                           1674 ;	genPlus
                           1675 ;	genPlusIncr
   069A 74 A0              1676 	mov	a,#0xA0
   069C 25 05              1677 	add	a,ar5
   069E FD                 1678 	mov	r5,a
   069F 74 00              1679 	mov	a,#0x00
   06A1 35 06              1680 	addc	a,ar6
   06A3 FE                 1681 	mov	r6,a
                           1682 ;	genAssign
   06A4 90s00r71           1683 	mov	dptr,#_GPIO_set_outputs_PARM_2
   06A7 E0                 1684 	movx	a,@dptr
   06A8 F5*04              1685 	mov	_GPIO_set_outputs_sloc2_1_0,a
   06AA A3                 1686 	inc	dptr
   06AB E0                 1687 	movx	a,@dptr
   06AC F5*05              1688 	mov	(_GPIO_set_outputs_sloc2_1_0 + 1),a
   06AE A3                 1689 	inc	dptr
   06AF E0                 1690 	movx	a,@dptr
   06B0 F5*06              1691 	mov	(_GPIO_set_outputs_sloc2_1_0 + 2),a
   06B2 A3                 1692 	inc	dptr
   06B3 E0                 1693 	movx	a,@dptr
   06B4 F5*07              1694 	mov	(_GPIO_set_outputs_sloc2_1_0 + 3),a
                           1695 ;	genCast
   06B6 90s00r00           1696 	mov	dptr,#_HW_set_8bit_reg_PARM_2
   06B9 E5*04              1697 	mov	a,_GPIO_set_outputs_sloc2_1_0
   06BB F0                 1698 	movx	@dptr,a
                           1699 ;	genCall
   06BC 8D 82              1700 	mov	dpl,r5
   06BE 8E 83              1701 	mov	dph,r6
   06C0 C0 02              1702 	push	ar2
   06C2 C0 03              1703 	push	ar3
   06C4 C0 04              1704 	push	ar4
   06C6 12s00r00           1705 	lcall	_HW_set_8bit_reg
   06C9 D0 04              1706 	pop	ar4
   06CB D0 03              1707 	pop	ar3
   06CD D0 02              1708 	pop	ar2
                    06CF   1709 	C$core_gpio.c$128$2$2 ==.
                           1710 ;	../drivers/CoreGPIO/core_gpio.c:128: HAL_set_8bit_reg( this_gpio->base_addr, GPIO_OUT1, (uint8_t)(value >> 8) );
                           1711 ;	genPointerGet
                           1712 ;	genGenPointerGet
   06CF 8A 82              1713 	mov	dpl,r2
   06D1 8B 83              1714 	mov	dph,r3
   06D3 8C F0              1715 	mov	b,r4
   06D5 12s00r00           1716 	lcall	__gptrget
   06D8 FE                 1717 	mov	r6,a
   06D9 A3                 1718 	inc	dptr
   06DA 12s00r00           1719 	lcall	__gptrget
   06DD FD                 1720 	mov	r5,a
                           1721 ;	genPlus
                           1722 ;	genPlusIncr
   06DE 74 A4              1723 	mov	a,#0xA4
   06E0 25 06              1724 	add	a,ar6
   06E2 FE                 1725 	mov	r6,a
   06E3 74 00              1726 	mov	a,#0x00
   06E5 35 05              1727 	addc	a,ar5
   06E7 FD                 1728 	mov	r5,a
                           1729 ;	genGetByte
   06E8 90s00r00           1730 	mov	dptr,#_HW_set_8bit_reg_PARM_2
   06EB E5*05              1731 	mov	a,(_GPIO_set_outputs_sloc2_1_0 + 1)
   06ED F0                 1732 	movx	@dptr,a
                           1733 ;	genCall
   06EE 8E 82              1734 	mov	dpl,r6
   06F0 8D 83              1735 	mov	dph,r5
   06F2 C0 02              1736 	push	ar2
   06F4 C0 03              1737 	push	ar3
   06F6 C0 04              1738 	push	ar4
   06F8 12s00r00           1739 	lcall	_HW_set_8bit_reg
   06FB D0 04              1740 	pop	ar4
   06FD D0 03              1741 	pop	ar3
   06FF D0 02              1742 	pop	ar2
                    0701   1743 	C$core_gpio.c$129$2$2 ==.
                           1744 ;	../drivers/CoreGPIO/core_gpio.c:129: HAL_set_8bit_reg( this_gpio->base_addr, GPIO_OUT2, (uint8_t)(value >> 16) );
                           1745 ;	genPointerGet
                           1746 ;	genGenPointerGet
   0701 8A 82              1747 	mov	dpl,r2
   0703 8B 83              1748 	mov	dph,r3
   0705 8C F0              1749 	mov	b,r4
   0707 12s00r00           1750 	lcall	__gptrget
   070A FD                 1751 	mov	r5,a
   070B A3                 1752 	inc	dptr
   070C 12s00r00           1753 	lcall	__gptrget
   070F FE                 1754 	mov	r6,a
                           1755 ;	genPlus
                           1756 ;	genPlusIncr
   0710 74 A8              1757 	mov	a,#0xA8
   0712 25 05              1758 	add	a,ar5
   0714 FD                 1759 	mov	r5,a
   0715 74 00              1760 	mov	a,#0x00
   0717 35 06              1761 	addc	a,ar6
   0719 FE                 1762 	mov	r6,a
                           1763 ;	genGetByte
   071A 90s00r00           1764 	mov	dptr,#_HW_set_8bit_reg_PARM_2
   071D E5*06              1765 	mov	a,(_GPIO_set_outputs_sloc2_1_0 + 2)
   071F F0                 1766 	movx	@dptr,a
                           1767 ;	genCall
   0720 8D 82              1768 	mov	dpl,r5
   0722 8E 83              1769 	mov	dph,r6
   0724 C0 02              1770 	push	ar2
   0726 C0 03              1771 	push	ar3
   0728 C0 04              1772 	push	ar4
   072A 12s00r00           1773 	lcall	_HW_set_8bit_reg
   072D D0 04              1774 	pop	ar4
   072F D0 03              1775 	pop	ar3
   0731 D0 02              1776 	pop	ar2
                    0733   1777 	C$core_gpio.c$130$2$2 ==.
                           1778 ;	../drivers/CoreGPIO/core_gpio.c:130: HAL_set_8bit_reg( this_gpio->base_addr, GPIO_OUT3, (uint8_t)(value >> 24) );
                           1779 ;	genPointerGet
                           1780 ;	genGenPointerGet
   0733 8A 82              1781 	mov	dpl,r2
   0735 8B 83              1782 	mov	dph,r3
   0737 8C F0              1783 	mov	b,r4
   0739 12s00r00           1784 	lcall	__gptrget
   073C FA                 1785 	mov	r2,a
   073D A3                 1786 	inc	dptr
   073E 12s00r00           1787 	lcall	__gptrget
   0741 FB                 1788 	mov	r3,a
                           1789 ;	genPlus
                           1790 ;	genPlusIncr
   0742 74 AC              1791 	mov	a,#0xAC
   0744 25 02              1792 	add	a,ar2
   0746 FA                 1793 	mov	r2,a
   0747 74 00              1794 	mov	a,#0x00
   0749 35 03              1795 	addc	a,ar3
   074B FB                 1796 	mov	r3,a
                           1797 ;	genGetByte
   074C 90s00r00           1798 	mov	dptr,#_HW_set_8bit_reg_PARM_2
   074F E5*07              1799 	mov	a,(_GPIO_set_outputs_sloc2_1_0 + 3)
   0751 F0                 1800 	movx	@dptr,a
                           1801 ;	genCall
   0752 8A 82              1802 	mov	dpl,r2
   0754 8B 83              1803 	mov	dph,r3
   0756 12s00r00           1804 	lcall	_HW_set_8bit_reg
                    0759   1805 	C$core_gpio.c$131$2$2 ==.
                           1806 ;	../drivers/CoreGPIO/core_gpio.c:131: break;
   0759 02s08r35           1807 	ljmp	00113$
                    075C   1808 	C$core_gpio.c$134$2$2 ==.
                           1809 ;	../drivers/CoreGPIO/core_gpio.c:134: HAL_ASSERT(0);
   075C                    1810 00107$:
                           1811 ;	genPointerSet
                           1812 ;     genFarPointerSet
   075C 90s00r78           1813 	mov	dptr,#_GPIO_set_outputs_file_name_4_4
   075F 74 2E              1814 	mov	a,#0x2E
   0761 F0                 1815 	movx	@dptr,a
                           1816 ;	genPointerSet
                           1817 ;     genFarPointerSet
   0762 90s00r79           1818 	mov	dptr,#(_GPIO_set_outputs_file_name_4_4 + 0x0001)
   0765 74 2E              1819 	mov	a,#0x2E
   0767 F0                 1820 	movx	@dptr,a
                           1821 ;	genPointerSet
                           1822 ;     genFarPointerSet
   0768 90s00r7A           1823 	mov	dptr,#(_GPIO_set_outputs_file_name_4_4 + 0x0002)
   076B 74 2F              1824 	mov	a,#0x2F
   076D F0                 1825 	movx	@dptr,a
                           1826 ;	genPointerSet
                           1827 ;     genFarPointerSet
   076E 90s00r7B           1828 	mov	dptr,#(_GPIO_set_outputs_file_name_4_4 + 0x0003)
   0771 74 64              1829 	mov	a,#0x64
   0773 F0                 1830 	movx	@dptr,a
                           1831 ;	genPointerSet
                           1832 ;     genFarPointerSet
   0774 90s00r7C           1833 	mov	dptr,#(_GPIO_set_outputs_file_name_4_4 + 0x0004)
   0777 74 72              1834 	mov	a,#0x72
   0779 F0                 1835 	movx	@dptr,a
                           1836 ;	genPointerSet
                           1837 ;     genFarPointerSet
   077A 90s00r7D           1838 	mov	dptr,#(_GPIO_set_outputs_file_name_4_4 + 0x0005)
   077D 74 69              1839 	mov	a,#0x69
   077F F0                 1840 	movx	@dptr,a
                           1841 ;	genPointerSet
                           1842 ;     genFarPointerSet
   0780 90s00r7E           1843 	mov	dptr,#(_GPIO_set_outputs_file_name_4_4 + 0x0006)
   0783 74 76              1844 	mov	a,#0x76
   0785 F0                 1845 	movx	@dptr,a
                           1846 ;	genPointerSet
                           1847 ;     genFarPointerSet
   0786 90s00r7F           1848 	mov	dptr,#(_GPIO_set_outputs_file_name_4_4 + 0x0007)
   0789 74 65              1849 	mov	a,#0x65
   078B F0                 1850 	movx	@dptr,a
                           1851 ;	genPointerSet
                           1852 ;     genFarPointerSet
   078C 90s00r80           1853 	mov	dptr,#(_GPIO_set_outputs_file_name_4_4 + 0x0008)
   078F 74 72              1854 	mov	a,#0x72
   0791 F0                 1855 	movx	@dptr,a
                           1856 ;	genPointerSet
                           1857 ;     genFarPointerSet
   0792 90s00r81           1858 	mov	dptr,#(_GPIO_set_outputs_file_name_4_4 + 0x0009)
   0795 74 73              1859 	mov	a,#0x73
   0797 F0                 1860 	movx	@dptr,a
                           1861 ;	genPointerSet
                           1862 ;     genFarPointerSet
   0798 90s00r82           1863 	mov	dptr,#(_GPIO_set_outputs_file_name_4_4 + 0x000a)
   079B 74 2F              1864 	mov	a,#0x2F
   079D F0                 1865 	movx	@dptr,a
                           1866 ;	genPointerSet
                           1867 ;     genFarPointerSet
   079E 90s00r83           1868 	mov	dptr,#(_GPIO_set_outputs_file_name_4_4 + 0x000b)
   07A1 74 43              1869 	mov	a,#0x43
   07A3 F0                 1870 	movx	@dptr,a
                           1871 ;	genPointerSet
                           1872 ;     genFarPointerSet
   07A4 90s00r84           1873 	mov	dptr,#(_GPIO_set_outputs_file_name_4_4 + 0x000c)
   07A7 74 6F              1874 	mov	a,#0x6F
   07A9 F0                 1875 	movx	@dptr,a
                           1876 ;	genPointerSet
                           1877 ;     genFarPointerSet
   07AA 90s00r85           1878 	mov	dptr,#(_GPIO_set_outputs_file_name_4_4 + 0x000d)
   07AD 74 72              1879 	mov	a,#0x72
   07AF F0                 1880 	movx	@dptr,a
                           1881 ;	genPointerSet
                           1882 ;     genFarPointerSet
   07B0 90s00r86           1883 	mov	dptr,#(_GPIO_set_outputs_file_name_4_4 + 0x000e)
   07B3 74 65              1884 	mov	a,#0x65
   07B5 F0                 1885 	movx	@dptr,a
                           1886 ;	genPointerSet
                           1887 ;     genFarPointerSet
   07B6 90s00r87           1888 	mov	dptr,#(_GPIO_set_outputs_file_name_4_4 + 0x000f)
   07B9 74 47              1889 	mov	a,#0x47
   07BB F0                 1890 	movx	@dptr,a
                           1891 ;	genPointerSet
                           1892 ;     genFarPointerSet
   07BC 90s00r88           1893 	mov	dptr,#(_GPIO_set_outputs_file_name_4_4 + 0x0010)
   07BF 74 50              1894 	mov	a,#0x50
   07C1 F0                 1895 	movx	@dptr,a
                           1896 ;	genPointerSet
                           1897 ;     genFarPointerSet
   07C2 90s00r89           1898 	mov	dptr,#(_GPIO_set_outputs_file_name_4_4 + 0x0011)
   07C5 74 49              1899 	mov	a,#0x49
   07C7 F0                 1900 	movx	@dptr,a
                           1901 ;	genPointerSet
                           1902 ;     genFarPointerSet
   07C8 90s00r8A           1903 	mov	dptr,#(_GPIO_set_outputs_file_name_4_4 + 0x0012)
   07CB 74 4F              1904 	mov	a,#0x4F
   07CD F0                 1905 	movx	@dptr,a
                           1906 ;	genPointerSet
                           1907 ;     genFarPointerSet
   07CE 90s00r8B           1908 	mov	dptr,#(_GPIO_set_outputs_file_name_4_4 + 0x0013)
   07D1 74 2F              1909 	mov	a,#0x2F
   07D3 F0                 1910 	movx	@dptr,a
                           1911 ;	genPointerSet
                           1912 ;     genFarPointerSet
   07D4 90s00r8C           1913 	mov	dptr,#(_GPIO_set_outputs_file_name_4_4 + 0x0014)
   07D7 74 63              1914 	mov	a,#0x63
   07D9 F0                 1915 	movx	@dptr,a
                           1916 ;	genPointerSet
                           1917 ;     genFarPointerSet
   07DA 90s00r8D           1918 	mov	dptr,#(_GPIO_set_outputs_file_name_4_4 + 0x0015)
   07DD 74 6F              1919 	mov	a,#0x6F
   07DF F0                 1920 	movx	@dptr,a
                           1921 ;	genPointerSet
                           1922 ;     genFarPointerSet
   07E0 90s00r8E           1923 	mov	dptr,#(_GPIO_set_outputs_file_name_4_4 + 0x0016)
   07E3 74 72              1924 	mov	a,#0x72
   07E5 F0                 1925 	movx	@dptr,a
                           1926 ;	genPointerSet
                           1927 ;     genFarPointerSet
   07E6 90s00r8F           1928 	mov	dptr,#(_GPIO_set_outputs_file_name_4_4 + 0x0017)
   07E9 74 65              1929 	mov	a,#0x65
   07EB F0                 1930 	movx	@dptr,a
                           1931 ;	genPointerSet
                           1932 ;     genFarPointerSet
   07EC 90s00r90           1933 	mov	dptr,#(_GPIO_set_outputs_file_name_4_4 + 0x0018)
   07EF 74 5F              1934 	mov	a,#0x5F
   07F1 F0                 1935 	movx	@dptr,a
                           1936 ;	genPointerSet
                           1937 ;     genFarPointerSet
   07F2 90s00r91           1938 	mov	dptr,#(_GPIO_set_outputs_file_name_4_4 + 0x0019)
   07F5 74 67              1939 	mov	a,#0x67
   07F7 F0                 1940 	movx	@dptr,a
                           1941 ;	genPointerSet
                           1942 ;     genFarPointerSet
   07F8 90s00r92           1943 	mov	dptr,#(_GPIO_set_outputs_file_name_4_4 + 0x001a)
   07FB 74 70              1944 	mov	a,#0x70
   07FD F0                 1945 	movx	@dptr,a
                           1946 ;	genPointerSet
                           1947 ;     genFarPointerSet
   07FE 90s00r93           1948 	mov	dptr,#(_GPIO_set_outputs_file_name_4_4 + 0x001b)
   0801 74 69              1949 	mov	a,#0x69
   0803 F0                 1950 	movx	@dptr,a
                           1951 ;	genPointerSet
                           1952 ;     genFarPointerSet
   0804 90s00r94           1953 	mov	dptr,#(_GPIO_set_outputs_file_name_4_4 + 0x001c)
   0807 74 6F              1954 	mov	a,#0x6F
   0809 F0                 1955 	movx	@dptr,a
                           1956 ;	genPointerSet
                           1957 ;     genFarPointerSet
   080A 90s00r95           1958 	mov	dptr,#(_GPIO_set_outputs_file_name_4_4 + 0x001d)
   080D 74 2E              1959 	mov	a,#0x2E
   080F F0                 1960 	movx	@dptr,a
                           1961 ;	genPointerSet
                           1962 ;     genFarPointerSet
   0810 90s00r96           1963 	mov	dptr,#(_GPIO_set_outputs_file_name_4_4 + 0x001e)
   0813 74 63              1964 	mov	a,#0x63
   0815 F0                 1965 	movx	@dptr,a
                           1966 ;	genPointerSet
                           1967 ;     genFarPointerSet
   0816 90s00r97           1968 	mov	dptr,#(_GPIO_set_outputs_file_name_4_4 + 0x001f)
   0819 74 00              1969 	mov	a,#0x00
   081B F0                 1970 	movx	@dptr,a
                           1971 ;	genAssign
   081C 90s00r00           1972 	mov	dptr,#_HAL_assert_fail_PARM_2
   081F 74 86              1973 	mov	a,#0x86
   0821 F0                 1974 	movx	@dptr,a
   0822 E4                 1975 	clr	a
   0823 A3                 1976 	inc	dptr
   0824 F0                 1977 	movx	@dptr,a
   0825 A3                 1978 	inc	dptr
   0826 F0                 1979 	movx	@dptr,a
   0827 A3                 1980 	inc	dptr
   0828 F0                 1981 	movx	@dptr,a
                           1982 ;	genCall
   0829 75 82r78           1983 	mov	dpl,#_GPIO_set_outputs_file_name_4_4
   082C 75 83s00           1984 	mov	dph,#(_GPIO_set_outputs_file_name_4_4 >> 8)
   082F 75 F0 00           1985 	mov	b,#0x00
   0832 12s00r00           1986 	lcall	_HAL_assert_fail
                    0835   1987 	C$core_gpio.c$145$1$1 ==.
                           1988 ;	../drivers/CoreGPIO/core_gpio.c:145: HAL_ASSERT( GPIO_get_outputs( this_gpio ) == value );
   0835                    1989 00113$:
                           1990 ;	genAssign
   0835 90s00r75           1991 	mov	dptr,#_GPIO_set_outputs_this_gpio_1_1
   0838 E0                 1992 	movx	a,@dptr
   0839 FA                 1993 	mov	r2,a
   083A A3                 1994 	inc	dptr
   083B E0                 1995 	movx	a,@dptr
   083C FB                 1996 	mov	r3,a
   083D A3                 1997 	inc	dptr
   083E E0                 1998 	movx	a,@dptr
   083F FC                 1999 	mov	r4,a
                           2000 ;	genCall
   0840 8A 82              2001 	mov	dpl,r2
   0842 8B 83              2002 	mov	dph,r3
   0844 8C F0              2003 	mov	b,r4
   0846 12s0Br80           2004 	lcall	_GPIO_get_outputs
   0849 AA 82              2005 	mov	r2,dpl
   084B AB 83              2006 	mov	r3,dph
   084D AC F0              2007 	mov	r4,b
   084F FD                 2008 	mov	r5,a
                           2009 ;	genAssign
   0850 90s00r71           2010 	mov	dptr,#_GPIO_set_outputs_PARM_2
   0853 E0                 2011 	movx	a,@dptr
   0854 FE                 2012 	mov	r6,a
   0855 A3                 2013 	inc	dptr
   0856 E0                 2014 	movx	a,@dptr
   0857 FF                 2015 	mov	r7,a
   0858 A3                 2016 	inc	dptr
   0859 E0                 2017 	movx	a,@dptr
   085A F8                 2018 	mov	r0,a
   085B A3                 2019 	inc	dptr
   085C E0                 2020 	movx	a,@dptr
   085D F9                 2021 	mov	r1,a
                           2022 ;	genCmpEq
                           2023 ;	gencjneshort
   085E EA                 2024 	mov	a,r2
   085F B5 06 0F           2025 	cjne	a,ar6,00126$
   0862 EB                 2026 	mov	a,r3
   0863 B5 07 0B           2027 	cjne	a,ar7,00126$
   0866 EC                 2028 	mov	a,r4
   0867 B5 00 07           2029 	cjne	a,ar0,00126$
   086A ED                 2030 	mov	a,r5
   086B B5 01 03           2031 	cjne	a,ar1,00126$
   086E 02s09r4A           2032 	ljmp	00116$
   0871                    2033 00126$:
                           2034 ;	genPointerSet
                           2035 ;     genFarPointerSet
   0871 90s00r98           2036 	mov	dptr,#_GPIO_set_outputs_file_name_3_6
   0874 74 2E              2037 	mov	a,#0x2E
   0876 F0                 2038 	movx	@dptr,a
                           2039 ;	genPointerSet
                           2040 ;     genFarPointerSet
   0877 90s00r99           2041 	mov	dptr,#(_GPIO_set_outputs_file_name_3_6 + 0x0001)
   087A 74 2E              2042 	mov	a,#0x2E
   087C F0                 2043 	movx	@dptr,a
                           2044 ;	genPointerSet
                           2045 ;     genFarPointerSet
   087D 90s00r9A           2046 	mov	dptr,#(_GPIO_set_outputs_file_name_3_6 + 0x0002)
   0880 74 2F              2047 	mov	a,#0x2F
   0882 F0                 2048 	movx	@dptr,a
                           2049 ;	genPointerSet
                           2050 ;     genFarPointerSet
   0883 90s00r9B           2051 	mov	dptr,#(_GPIO_set_outputs_file_name_3_6 + 0x0003)
   0886 74 64              2052 	mov	a,#0x64
   0888 F0                 2053 	movx	@dptr,a
                           2054 ;	genPointerSet
                           2055 ;     genFarPointerSet
   0889 90s00r9C           2056 	mov	dptr,#(_GPIO_set_outputs_file_name_3_6 + 0x0004)
   088C 74 72              2057 	mov	a,#0x72
   088E F0                 2058 	movx	@dptr,a
                           2059 ;	genPointerSet
                           2060 ;     genFarPointerSet
   088F 90s00r9D           2061 	mov	dptr,#(_GPIO_set_outputs_file_name_3_6 + 0x0005)
   0892 74 69              2062 	mov	a,#0x69
   0894 F0                 2063 	movx	@dptr,a
                           2064 ;	genPointerSet
                           2065 ;     genFarPointerSet
   0895 90s00r9E           2066 	mov	dptr,#(_GPIO_set_outputs_file_name_3_6 + 0x0006)
   0898 74 76              2067 	mov	a,#0x76
   089A F0                 2068 	movx	@dptr,a
                           2069 ;	genPointerSet
                           2070 ;     genFarPointerSet
   089B 90s00r9F           2071 	mov	dptr,#(_GPIO_set_outputs_file_name_3_6 + 0x0007)
   089E 74 65              2072 	mov	a,#0x65
   08A0 F0                 2073 	movx	@dptr,a
                           2074 ;	genPointerSet
                           2075 ;     genFarPointerSet
   08A1 90s00rA0           2076 	mov	dptr,#(_GPIO_set_outputs_file_name_3_6 + 0x0008)
   08A4 74 72              2077 	mov	a,#0x72
   08A6 F0                 2078 	movx	@dptr,a
                           2079 ;	genPointerSet
                           2080 ;     genFarPointerSet
   08A7 90s00rA1           2081 	mov	dptr,#(_GPIO_set_outputs_file_name_3_6 + 0x0009)
   08AA 74 73              2082 	mov	a,#0x73
   08AC F0                 2083 	movx	@dptr,a
                           2084 ;	genPointerSet
                           2085 ;     genFarPointerSet
   08AD 90s00rA2           2086 	mov	dptr,#(_GPIO_set_outputs_file_name_3_6 + 0x000a)
   08B0 74 2F              2087 	mov	a,#0x2F
   08B2 F0                 2088 	movx	@dptr,a
                           2089 ;	genPointerSet
                           2090 ;     genFarPointerSet
   08B3 90s00rA3           2091 	mov	dptr,#(_GPIO_set_outputs_file_name_3_6 + 0x000b)
   08B6 74 43              2092 	mov	a,#0x43
   08B8 F0                 2093 	movx	@dptr,a
                           2094 ;	genPointerSet
                           2095 ;     genFarPointerSet
   08B9 90s00rA4           2096 	mov	dptr,#(_GPIO_set_outputs_file_name_3_6 + 0x000c)
   08BC 74 6F              2097 	mov	a,#0x6F
   08BE F0                 2098 	movx	@dptr,a
                           2099 ;	genPointerSet
                           2100 ;     genFarPointerSet
   08BF 90s00rA5           2101 	mov	dptr,#(_GPIO_set_outputs_file_name_3_6 + 0x000d)
   08C2 74 72              2102 	mov	a,#0x72
   08C4 F0                 2103 	movx	@dptr,a
                           2104 ;	genPointerSet
                           2105 ;     genFarPointerSet
   08C5 90s00rA6           2106 	mov	dptr,#(_GPIO_set_outputs_file_name_3_6 + 0x000e)
   08C8 74 65              2107 	mov	a,#0x65
   08CA F0                 2108 	movx	@dptr,a
                           2109 ;	genPointerSet
                           2110 ;     genFarPointerSet
   08CB 90s00rA7           2111 	mov	dptr,#(_GPIO_set_outputs_file_name_3_6 + 0x000f)
   08CE 74 47              2112 	mov	a,#0x47
   08D0 F0                 2113 	movx	@dptr,a
                           2114 ;	genPointerSet
                           2115 ;     genFarPointerSet
   08D1 90s00rA8           2116 	mov	dptr,#(_GPIO_set_outputs_file_name_3_6 + 0x0010)
   08D4 74 50              2117 	mov	a,#0x50
   08D6 F0                 2118 	movx	@dptr,a
                           2119 ;	genPointerSet
                           2120 ;     genFarPointerSet
   08D7 90s00rA9           2121 	mov	dptr,#(_GPIO_set_outputs_file_name_3_6 + 0x0011)
   08DA 74 49              2122 	mov	a,#0x49
   08DC F0                 2123 	movx	@dptr,a
                           2124 ;	genPointerSet
                           2125 ;     genFarPointerSet
   08DD 90s00rAA           2126 	mov	dptr,#(_GPIO_set_outputs_file_name_3_6 + 0x0012)
   08E0 74 4F              2127 	mov	a,#0x4F
   08E2 F0                 2128 	movx	@dptr,a
                           2129 ;	genPointerSet
                           2130 ;     genFarPointerSet
   08E3 90s00rAB           2131 	mov	dptr,#(_GPIO_set_outputs_file_name_3_6 + 0x0013)
   08E6 74 2F              2132 	mov	a,#0x2F
   08E8 F0                 2133 	movx	@dptr,a
                           2134 ;	genPointerSet
                           2135 ;     genFarPointerSet
   08E9 90s00rAC           2136 	mov	dptr,#(_GPIO_set_outputs_file_name_3_6 + 0x0014)
   08EC 74 63              2137 	mov	a,#0x63
   08EE F0                 2138 	movx	@dptr,a
                           2139 ;	genPointerSet
                           2140 ;     genFarPointerSet
   08EF 90s00rAD           2141 	mov	dptr,#(_GPIO_set_outputs_file_name_3_6 + 0x0015)
   08F2 74 6F              2142 	mov	a,#0x6F
   08F4 F0                 2143 	movx	@dptr,a
                           2144 ;	genPointerSet
                           2145 ;     genFarPointerSet
   08F5 90s00rAE           2146 	mov	dptr,#(_GPIO_set_outputs_file_name_3_6 + 0x0016)
   08F8 74 72              2147 	mov	a,#0x72
   08FA F0                 2148 	movx	@dptr,a
                           2149 ;	genPointerSet
                           2150 ;     genFarPointerSet
   08FB 90s00rAF           2151 	mov	dptr,#(_GPIO_set_outputs_file_name_3_6 + 0x0017)
   08FE 74 65              2152 	mov	a,#0x65
   0900 F0                 2153 	movx	@dptr,a
                           2154 ;	genPointerSet
                           2155 ;     genFarPointerSet
   0901 90s00rB0           2156 	mov	dptr,#(_GPIO_set_outputs_file_name_3_6 + 0x0018)
   0904 74 5F              2157 	mov	a,#0x5F
   0906 F0                 2158 	movx	@dptr,a
                           2159 ;	genPointerSet
                           2160 ;     genFarPointerSet
   0907 90s00rB1           2161 	mov	dptr,#(_GPIO_set_outputs_file_name_3_6 + 0x0019)
   090A 74 67              2162 	mov	a,#0x67
   090C F0                 2163 	movx	@dptr,a
                           2164 ;	genPointerSet
                           2165 ;     genFarPointerSet
   090D 90s00rB2           2166 	mov	dptr,#(_GPIO_set_outputs_file_name_3_6 + 0x001a)
   0910 74 70              2167 	mov	a,#0x70
   0912 F0                 2168 	movx	@dptr,a
                           2169 ;	genPointerSet
                           2170 ;     genFarPointerSet
   0913 90s00rB3           2171 	mov	dptr,#(_GPIO_set_outputs_file_name_3_6 + 0x001b)
   0916 74 69              2172 	mov	a,#0x69
   0918 F0                 2173 	movx	@dptr,a
                           2174 ;	genPointerSet
                           2175 ;     genFarPointerSet
   0919 90s00rB4           2176 	mov	dptr,#(_GPIO_set_outputs_file_name_3_6 + 0x001c)
   091C 74 6F              2177 	mov	a,#0x6F
   091E F0                 2178 	movx	@dptr,a
                           2179 ;	genPointerSet
                           2180 ;     genFarPointerSet
   091F 90s00rB5           2181 	mov	dptr,#(_GPIO_set_outputs_file_name_3_6 + 0x001d)
   0922 74 2E              2182 	mov	a,#0x2E
   0924 F0                 2183 	movx	@dptr,a
                           2184 ;	genPointerSet
                           2185 ;     genFarPointerSet
   0925 90s00rB6           2186 	mov	dptr,#(_GPIO_set_outputs_file_name_3_6 + 0x001e)
   0928 74 63              2187 	mov	a,#0x63
   092A F0                 2188 	movx	@dptr,a
                           2189 ;	genPointerSet
                           2190 ;     genFarPointerSet
   092B 90s00rB7           2191 	mov	dptr,#(_GPIO_set_outputs_file_name_3_6 + 0x001f)
   092E 74 00              2192 	mov	a,#0x00
   0930 F0                 2193 	movx	@dptr,a
                           2194 ;	genAssign
   0931 90s00r00           2195 	mov	dptr,#_HAL_assert_fail_PARM_2
   0934 74 91              2196 	mov	a,#0x91
   0936 F0                 2197 	movx	@dptr,a
   0937 E4                 2198 	clr	a
   0938 A3                 2199 	inc	dptr
   0939 F0                 2200 	movx	@dptr,a
   093A A3                 2201 	inc	dptr
   093B F0                 2202 	movx	@dptr,a
   093C A3                 2203 	inc	dptr
   093D F0                 2204 	movx	@dptr,a
                           2205 ;	genCall
   093E 75 82r98           2206 	mov	dpl,#_GPIO_set_outputs_file_name_3_6
   0941 75 83s00           2207 	mov	dph,#(_GPIO_set_outputs_file_name_3_6 >> 8)
   0944 75 F0 00           2208 	mov	b,#0x00
   0947 12s00r00           2209 	lcall	_HAL_assert_fail
   094A                    2210 00116$:
                    094A   2211 	C$core_gpio.c$146$1$1 ==.
                    094A   2212 	XG$GPIO_set_outputs$0$0 ==.
   094A 22                 2213 	ret
                           2214 ;------------------------------------------------------------
                           2215 ;Allocation info for local variables in function 'GPIO_get_inputs'
                           2216 ;------------------------------------------------------------
                           2217 ;this_gpio                 Allocated with name '_GPIO_get_inputs_this_gpio_1_1'
                           2218 ;gpio_in                   Allocated with name '_GPIO_get_inputs_gpio_in_1_1'
                           2219 ;file_name                 Allocated with name '_GPIO_get_inputs_file_name_4_4'
                           2220 ;------------------------------------------------------------
                    094B   2221 	G$GPIO_get_inputs$0$0 ==.
                    094B   2222 	C$core_gpio.c$152$1$1 ==.
                           2223 ;	../drivers/CoreGPIO/core_gpio.c:152: uint32_t GPIO_get_inputs
                           2224 ;	-----------------------------------------
                           2225 ;	 function GPIO_get_inputs
                           2226 ;	-----------------------------------------
   094B                    2227 _GPIO_get_inputs:
                           2228 ;	genReceive
   094B AA F0              2229 	mov	r2,b
   094D AB 83              2230 	mov	r3,dph
   094F E5 82              2231 	mov	a,dpl
   0951 90s00rB8           2232 	mov	dptr,#_GPIO_get_inputs_this_gpio_1_1
   0954 F0                 2233 	movx	@dptr,a
   0955 A3                 2234 	inc	dptr
   0956 EB                 2235 	mov	a,r3
   0957 F0                 2236 	movx	@dptr,a
   0958 A3                 2237 	inc	dptr
   0959 EA                 2238 	mov	a,r2
   095A F0                 2239 	movx	@dptr,a
                    095B   2240 	C$core_gpio.c$157$1$1 ==.
                           2241 ;	../drivers/CoreGPIO/core_gpio.c:157: uint32_t gpio_in = 0;
                           2242 ;	genAssign
   095B 90s00rBB           2243 	mov	dptr,#_GPIO_get_inputs_gpio_in_1_1
   095E E4                 2244 	clr	a
   095F F0                 2245 	movx	@dptr,a
   0960 A3                 2246 	inc	dptr
   0961 F0                 2247 	movx	@dptr,a
   0962 A3                 2248 	inc	dptr
   0963 F0                 2249 	movx	@dptr,a
   0964 A3                 2250 	inc	dptr
   0965 F0                 2251 	movx	@dptr,a
                    0966   2252 	C$core_gpio.c$159$1$1 ==.
                           2253 ;	../drivers/CoreGPIO/core_gpio.c:159: switch( this_gpio->apb_bus_width )
                           2254 ;	genAssign
   0966 90s00rB8           2255 	mov	dptr,#_GPIO_get_inputs_this_gpio_1_1
   0969 E0                 2256 	movx	a,@dptr
   096A FA                 2257 	mov	r2,a
   096B A3                 2258 	inc	dptr
   096C E0                 2259 	movx	a,@dptr
   096D FB                 2260 	mov	r3,a
   096E A3                 2261 	inc	dptr
   096F E0                 2262 	movx	a,@dptr
   0970 FC                 2263 	mov	r4,a
                           2264 ;	genPlus
                           2265 ;	genPlusIncr
   0971 74 02              2266 	mov	a,#0x02
   0973 25 02              2267 	add	a,ar2
   0975 FD                 2268 	mov	r5,a
   0976 74 00              2269 	mov	a,#0x00
   0978 35 03              2270 	addc	a,ar3
   097A FE                 2271 	mov	r6,a
   097B 8C 07              2272 	mov	ar7,r4
                           2273 ;	genPointerGet
                           2274 ;	genGenPointerGet
   097D 8D 82              2275 	mov	dpl,r5
   097F 8E 83              2276 	mov	dph,r6
   0981 8F F0              2277 	mov	b,r7
   0983 12s00r00           2278 	lcall	__gptrget
   0986 FD                 2279 	mov	r5,a
                           2280 ;	genCmpEq
                           2281 ;	gencjneshort
   0987 BD 00 03           2282 	cjne	r5,#0x00,00116$
   098A 02s0Ar0A           2283 	ljmp	00103$
   098D                    2284 00116$:
                           2285 ;	genCmpEq
                           2286 ;	gencjneshort
   098D BD 01 03           2287 	cjne	r5,#0x01,00117$
   0990 02s09rD3           2288 	ljmp	00102$
   0993                    2289 00117$:
                           2290 ;	genCmpEq
                           2291 ;	gencjneshort
   0993 BD 02 02           2292 	cjne	r5,#0x02,00118$
   0996 80 03              2293 	sjmp	00119$
   0998                    2294 00118$:
   0998 02s0Ar91           2295 	ljmp	00107$
   099B                    2296 00119$:
                    099B   2297 	C$core_gpio.c$162$2$2 ==.
                           2298 ;	../drivers/CoreGPIO/core_gpio.c:162: gpio_in = HAL_get_32bit_reg( this_gpio->base_addr, GPIO_IN );
                           2299 ;	genPointerGet
                           2300 ;	genGenPointerGet
   099B 8A 82              2301 	mov	dpl,r2
   099D 8B 83              2302 	mov	dph,r3
   099F 8C F0              2303 	mov	b,r4
   09A1 12s00r00           2304 	lcall	__gptrget
   09A4 FD                 2305 	mov	r5,a
   09A5 A3                 2306 	inc	dptr
   09A6 12s00r00           2307 	lcall	__gptrget
   09A9 FE                 2308 	mov	r6,a
                           2309 ;	genPlus
                           2310 ;	genPlusIncr
   09AA 74 90              2311 	mov	a,#0x90
   09AC 25 05              2312 	add	a,ar5
   09AE FD                 2313 	mov	r5,a
   09AF 74 00              2314 	mov	a,#0x00
   09B1 35 06              2315 	addc	a,ar6
   09B3 FE                 2316 	mov	r6,a
                           2317 ;	genCall
   09B4 8D 82              2318 	mov	dpl,r5
   09B6 8E 83              2319 	mov	dph,r6
   09B8 12s00r00           2320 	lcall	_HW_get_32bit_reg
   09BB AD 82              2321 	mov	r5,dpl
   09BD AE 83              2322 	mov	r6,dph
   09BF AF F0              2323 	mov	r7,b
   09C1 F8                 2324 	mov	r0,a
                           2325 ;	genAssign
   09C2 90s00rBB           2326 	mov	dptr,#_GPIO_get_inputs_gpio_in_1_1
   09C5 ED                 2327 	mov	a,r5
   09C6 F0                 2328 	movx	@dptr,a
   09C7 A3                 2329 	inc	dptr
   09C8 EE                 2330 	mov	a,r6
   09C9 F0                 2331 	movx	@dptr,a
   09CA A3                 2332 	inc	dptr
   09CB EF                 2333 	mov	a,r7
   09CC F0                 2334 	movx	@dptr,a
   09CD A3                 2335 	inc	dptr
   09CE E8                 2336 	mov	a,r0
   09CF F0                 2337 	movx	@dptr,a
                    09D0   2338 	C$core_gpio.c$163$2$2 ==.
                           2339 ;	../drivers/CoreGPIO/core_gpio.c:163: break;
   09D0 02s0Br6A           2340 	ljmp	00110$
                    09D3   2341 	C$core_gpio.c$165$2$2 ==.
                           2342 ;	../drivers/CoreGPIO/core_gpio.c:165: case GPIO_APB_16_BITS_BUS:
   09D3                    2343 00102$:
                    09D3   2344 	C$core_gpio.c$166$2$2 ==.
                           2345 ;	../drivers/CoreGPIO/core_gpio.c:166: gpio_in |= HAL_get_16bit_reg( this_gpio->base_addr, GPIO_IN0 );
                           2346 ;	genPointerGet
                           2347 ;	genGenPointerGet
   09D3 8A 82              2348 	mov	dpl,r2
   09D5 8B 83              2349 	mov	dph,r3
   09D7 8C F0              2350 	mov	b,r4
   09D9 12s00r00           2351 	lcall	__gptrget
   09DC FD                 2352 	mov	r5,a
   09DD A3                 2353 	inc	dptr
   09DE 12s00r00           2354 	lcall	__gptrget
   09E1 FE                 2355 	mov	r6,a
                           2356 ;	genPlus
                           2357 ;	genPlusIncr
   09E2 74 90              2358 	mov	a,#0x90
   09E4 25 05              2359 	add	a,ar5
   09E6 FD                 2360 	mov	r5,a
   09E7 74 00              2361 	mov	a,#0x00
   09E9 35 06              2362 	addc	a,ar6
   09EB FE                 2363 	mov	r6,a
                           2364 ;	genCall
   09EC 8D 82              2365 	mov	dpl,r5
   09EE 8E 83              2366 	mov	dph,r6
   09F0 12s00r00           2367 	lcall	_HW_get_16bit_reg
   09F3 AD 82              2368 	mov	r5,dpl
   09F5 AE 83              2369 	mov	r6,dph
                           2370 ;	genCast
   09F7 90s00rBB           2371 	mov	dptr,#_GPIO_get_inputs_gpio_in_1_1
   09FA ED                 2372 	mov	a,r5
   09FB F0                 2373 	movx	@dptr,a
   09FC A3                 2374 	inc	dptr
   09FD EE                 2375 	mov	a,r6
   09FE F0                 2376 	movx	@dptr,a
   09FF A3                 2377 	inc	dptr
   0A00 74 00              2378 	mov	a,#0x00
   0A02 F0                 2379 	movx	@dptr,a
   0A03 A3                 2380 	inc	dptr
   0A04 74 00              2381 	mov	a,#0x00
   0A06 F0                 2382 	movx	@dptr,a
                    0A07   2383 	C$core_gpio.c$168$2$2 ==.
                           2384 ;	../drivers/CoreGPIO/core_gpio.c:168: break;
   0A07 02s0Br6A           2385 	ljmp	00110$
                    0A0A   2386 	C$core_gpio.c$170$2$2 ==.
                           2387 ;	../drivers/CoreGPIO/core_gpio.c:170: case GPIO_APB_8_BITS_BUS:
   0A0A                    2388 00103$:
                    0A0A   2389 	C$core_gpio.c$171$2$2 ==.
                           2390 ;	../drivers/CoreGPIO/core_gpio.c:171: gpio_in |= HAL_get_8bit_reg( this_gpio->base_addr, GPIO_IN0 );
                           2391 ;	genPointerGet
                           2392 ;	genGenPointerGet
   0A0A 8A 82              2393 	mov	dpl,r2
   0A0C 8B 83              2394 	mov	dph,r3
   0A0E 8C F0              2395 	mov	b,r4
   0A10 12s00r00           2396 	lcall	__gptrget
   0A13 FD                 2397 	mov	r5,a
   0A14 A3                 2398 	inc	dptr
   0A15 12s00r00           2399 	lcall	__gptrget
   0A18 FE                 2400 	mov	r6,a
                           2401 ;	genPlus
                           2402 ;	genPlusIncr
   0A19 74 90              2403 	mov	a,#0x90
   0A1B 25 05              2404 	add	a,ar5
   0A1D FD                 2405 	mov	r5,a
   0A1E 74 00              2406 	mov	a,#0x00
   0A20 35 06              2407 	addc	a,ar6
   0A22 FE                 2408 	mov	r6,a
                           2409 ;	genCall
   0A23 8D 82              2410 	mov	dpl,r5
   0A25 8E 83              2411 	mov	dph,r6
   0A27 C0 02              2412 	push	ar2
   0A29 C0 03              2413 	push	ar3
   0A2B C0 04              2414 	push	ar4
   0A2D 12s00r00           2415 	lcall	_HW_get_8bit_reg
   0A30 AD 82              2416 	mov	r5,dpl
   0A32 D0 04              2417 	pop	ar4
   0A34 D0 03              2418 	pop	ar3
   0A36 D0 02              2419 	pop	ar2
                           2420 ;	genCast
   0A38 7E 00              2421 	mov	r6,#0x00
   0A3A 7F 00              2422 	mov	r7,#0x00
   0A3C 78 00              2423 	mov	r0,#0x00
                    0A3E   2424 	C$core_gpio.c$172$2$2 ==.
                           2425 ;	../drivers/CoreGPIO/core_gpio.c:172: gpio_in |= (HAL_get_8bit_reg( this_gpio->base_addr, GPIO_IN1 ) << 8);
                           2426 ;	genPointerGet
                           2427 ;	genGenPointerGet
   0A3E 8A 82              2428 	mov	dpl,r2
   0A40 8B 83              2429 	mov	dph,r3
   0A42 8C F0              2430 	mov	b,r4
   0A44 12s00r00           2431 	lcall	__gptrget
   0A47 FA                 2432 	mov	r2,a
   0A48 A3                 2433 	inc	dptr
   0A49 12s00r00           2434 	lcall	__gptrget
   0A4C FB                 2435 	mov	r3,a
                           2436 ;	genPlus
                           2437 ;	genPlusIncr
   0A4D 74 94              2438 	mov	a,#0x94
   0A4F 25 02              2439 	add	a,ar2
   0A51 FA                 2440 	mov	r2,a
   0A52 74 00              2441 	mov	a,#0x00
   0A54 35 03              2442 	addc	a,ar3
   0A56 FB                 2443 	mov	r3,a
                           2444 ;	genCall
   0A57 8A 82              2445 	mov	dpl,r2
   0A59 8B 83              2446 	mov	dph,r3
   0A5B C0 05              2447 	push	ar5
   0A5D C0 06              2448 	push	ar6
   0A5F C0 07              2449 	push	ar7
   0A61 C0 00              2450 	push	ar0
   0A63 12s00r00           2451 	lcall	_HW_get_8bit_reg
   0A66 AA 82              2452 	mov	r2,dpl
   0A68 D0 00              2453 	pop	ar0
   0A6A D0 07              2454 	pop	ar7
   0A6C D0 06              2455 	pop	ar6
   0A6E D0 05              2456 	pop	ar5
                           2457 ;	genCast
   0A70 7B 00              2458 	mov	r3,#0x00
                           2459 ;	genLeftShift
                           2460 ;	genLeftShiftLiteral
                           2461 ;	genlshTwo
   0A72 8A 03              2462 	mov	ar3,r2
   0A74 7A 00              2463 	mov	r2,#0x00
                           2464 ;	genCast
   0A76 EB                 2465 	mov	a,r3
   0A77 33                 2466 	rlc	a
   0A78 95 E0              2467 	subb	a,acc
   0A7A FC                 2468 	mov	r4,a
   0A7B F9                 2469 	mov	r1,a
                           2470 ;	genOr
   0A7C 90s00rBB           2471 	mov	dptr,#_GPIO_get_inputs_gpio_in_1_1
   0A7F EA                 2472 	mov	a,r2
   0A80 4D                 2473 	orl	a,r5
   0A81 F0                 2474 	movx	@dptr,a
   0A82 EB                 2475 	mov	a,r3
   0A83 4E                 2476 	orl	a,r6
   0A84 A3                 2477 	inc	dptr
   0A85 F0                 2478 	movx	@dptr,a
   0A86 EC                 2479 	mov	a,r4
   0A87 4F                 2480 	orl	a,r7
   0A88 A3                 2481 	inc	dptr
   0A89 F0                 2482 	movx	@dptr,a
   0A8A E9                 2483 	mov	a,r1
   0A8B 48                 2484 	orl	a,r0
   0A8C A3                 2485 	inc	dptr
   0A8D F0                 2486 	movx	@dptr,a
                    0A8E   2487 	C$core_gpio.c$175$2$2 ==.
                           2488 ;	../drivers/CoreGPIO/core_gpio.c:175: break;
   0A8E 02s0Br6A           2489 	ljmp	00110$
                    0A91   2490 	C$core_gpio.c$178$2$2 ==.
                           2491 ;	../drivers/CoreGPIO/core_gpio.c:178: HAL_ASSERT(0);
   0A91                    2492 00107$:
                           2493 ;	genPointerSet
                           2494 ;     genFarPointerSet
   0A91 90s00rBF           2495 	mov	dptr,#_GPIO_get_inputs_file_name_4_4
   0A94 74 2E              2496 	mov	a,#0x2E
   0A96 F0                 2497 	movx	@dptr,a
                           2498 ;	genPointerSet
                           2499 ;     genFarPointerSet
   0A97 90s00rC0           2500 	mov	dptr,#(_GPIO_get_inputs_file_name_4_4 + 0x0001)
   0A9A 74 2E              2501 	mov	a,#0x2E
   0A9C F0                 2502 	movx	@dptr,a
                           2503 ;	genPointerSet
                           2504 ;     genFarPointerSet
   0A9D 90s00rC1           2505 	mov	dptr,#(_GPIO_get_inputs_file_name_4_4 + 0x0002)
   0AA0 74 2F              2506 	mov	a,#0x2F
   0AA2 F0                 2507 	movx	@dptr,a
                           2508 ;	genPointerSet
                           2509 ;     genFarPointerSet
   0AA3 90s00rC2           2510 	mov	dptr,#(_GPIO_get_inputs_file_name_4_4 + 0x0003)
   0AA6 74 64              2511 	mov	a,#0x64
   0AA8 F0                 2512 	movx	@dptr,a
                           2513 ;	genPointerSet
                           2514 ;     genFarPointerSet
   0AA9 90s00rC3           2515 	mov	dptr,#(_GPIO_get_inputs_file_name_4_4 + 0x0004)
   0AAC 74 72              2516 	mov	a,#0x72
   0AAE F0                 2517 	movx	@dptr,a
                           2518 ;	genPointerSet
                           2519 ;     genFarPointerSet
   0AAF 90s00rC4           2520 	mov	dptr,#(_GPIO_get_inputs_file_name_4_4 + 0x0005)
   0AB2 74 69              2521 	mov	a,#0x69
   0AB4 F0                 2522 	movx	@dptr,a
                           2523 ;	genPointerSet
                           2524 ;     genFarPointerSet
   0AB5 90s00rC5           2525 	mov	dptr,#(_GPIO_get_inputs_file_name_4_4 + 0x0006)
   0AB8 74 76              2526 	mov	a,#0x76
   0ABA F0                 2527 	movx	@dptr,a
                           2528 ;	genPointerSet
                           2529 ;     genFarPointerSet
   0ABB 90s00rC6           2530 	mov	dptr,#(_GPIO_get_inputs_file_name_4_4 + 0x0007)
   0ABE 74 65              2531 	mov	a,#0x65
   0AC0 F0                 2532 	movx	@dptr,a
                           2533 ;	genPointerSet
                           2534 ;     genFarPointerSet
   0AC1 90s00rC7           2535 	mov	dptr,#(_GPIO_get_inputs_file_name_4_4 + 0x0008)
   0AC4 74 72              2536 	mov	a,#0x72
   0AC6 F0                 2537 	movx	@dptr,a
                           2538 ;	genPointerSet
                           2539 ;     genFarPointerSet
   0AC7 90s00rC8           2540 	mov	dptr,#(_GPIO_get_inputs_file_name_4_4 + 0x0009)
   0ACA 74 73              2541 	mov	a,#0x73
   0ACC F0                 2542 	movx	@dptr,a
                           2543 ;	genPointerSet
                           2544 ;     genFarPointerSet
   0ACD 90s00rC9           2545 	mov	dptr,#(_GPIO_get_inputs_file_name_4_4 + 0x000a)
   0AD0 74 2F              2546 	mov	a,#0x2F
   0AD2 F0                 2547 	movx	@dptr,a
                           2548 ;	genPointerSet
                           2549 ;     genFarPointerSet
   0AD3 90s00rCA           2550 	mov	dptr,#(_GPIO_get_inputs_file_name_4_4 + 0x000b)
   0AD6 74 43              2551 	mov	a,#0x43
   0AD8 F0                 2552 	movx	@dptr,a
                           2553 ;	genPointerSet
                           2554 ;     genFarPointerSet
   0AD9 90s00rCB           2555 	mov	dptr,#(_GPIO_get_inputs_file_name_4_4 + 0x000c)
   0ADC 74 6F              2556 	mov	a,#0x6F
   0ADE F0                 2557 	movx	@dptr,a
                           2558 ;	genPointerSet
                           2559 ;     genFarPointerSet
   0ADF 90s00rCC           2560 	mov	dptr,#(_GPIO_get_inputs_file_name_4_4 + 0x000d)
   0AE2 74 72              2561 	mov	a,#0x72
   0AE4 F0                 2562 	movx	@dptr,a
                           2563 ;	genPointerSet
                           2564 ;     genFarPointerSet
   0AE5 90s00rCD           2565 	mov	dptr,#(_GPIO_get_inputs_file_name_4_4 + 0x000e)
   0AE8 74 65              2566 	mov	a,#0x65
   0AEA F0                 2567 	movx	@dptr,a
                           2568 ;	genPointerSet
                           2569 ;     genFarPointerSet
   0AEB 90s00rCE           2570 	mov	dptr,#(_GPIO_get_inputs_file_name_4_4 + 0x000f)
   0AEE 74 47              2571 	mov	a,#0x47
   0AF0 F0                 2572 	movx	@dptr,a
                           2573 ;	genPointerSet
                           2574 ;     genFarPointerSet
   0AF1 90s00rCF           2575 	mov	dptr,#(_GPIO_get_inputs_file_name_4_4 + 0x0010)
   0AF4 74 50              2576 	mov	a,#0x50
   0AF6 F0                 2577 	movx	@dptr,a
                           2578 ;	genPointerSet
                           2579 ;     genFarPointerSet
   0AF7 90s00rD0           2580 	mov	dptr,#(_GPIO_get_inputs_file_name_4_4 + 0x0011)
   0AFA 74 49              2581 	mov	a,#0x49
   0AFC F0                 2582 	movx	@dptr,a
                           2583 ;	genPointerSet
                           2584 ;     genFarPointerSet
   0AFD 90s00rD1           2585 	mov	dptr,#(_GPIO_get_inputs_file_name_4_4 + 0x0012)
   0B00 74 4F              2586 	mov	a,#0x4F
   0B02 F0                 2587 	movx	@dptr,a
                           2588 ;	genPointerSet
                           2589 ;     genFarPointerSet
   0B03 90s00rD2           2590 	mov	dptr,#(_GPIO_get_inputs_file_name_4_4 + 0x0013)
   0B06 74 2F              2591 	mov	a,#0x2F
   0B08 F0                 2592 	movx	@dptr,a
                           2593 ;	genPointerSet
                           2594 ;     genFarPointerSet
   0B09 90s00rD3           2595 	mov	dptr,#(_GPIO_get_inputs_file_name_4_4 + 0x0014)
   0B0C 74 63              2596 	mov	a,#0x63
   0B0E F0                 2597 	movx	@dptr,a
                           2598 ;	genPointerSet
                           2599 ;     genFarPointerSet
   0B0F 90s00rD4           2600 	mov	dptr,#(_GPIO_get_inputs_file_name_4_4 + 0x0015)
   0B12 74 6F              2601 	mov	a,#0x6F
   0B14 F0                 2602 	movx	@dptr,a
                           2603 ;	genPointerSet
                           2604 ;     genFarPointerSet
   0B15 90s00rD5           2605 	mov	dptr,#(_GPIO_get_inputs_file_name_4_4 + 0x0016)
   0B18 74 72              2606 	mov	a,#0x72
   0B1A F0                 2607 	movx	@dptr,a
                           2608 ;	genPointerSet
                           2609 ;     genFarPointerSet
   0B1B 90s00rD6           2610 	mov	dptr,#(_GPIO_get_inputs_file_name_4_4 + 0x0017)
   0B1E 74 65              2611 	mov	a,#0x65
   0B20 F0                 2612 	movx	@dptr,a
                           2613 ;	genPointerSet
                           2614 ;     genFarPointerSet
   0B21 90s00rD7           2615 	mov	dptr,#(_GPIO_get_inputs_file_name_4_4 + 0x0018)
   0B24 74 5F              2616 	mov	a,#0x5F
   0B26 F0                 2617 	movx	@dptr,a
                           2618 ;	genPointerSet
                           2619 ;     genFarPointerSet
   0B27 90s00rD8           2620 	mov	dptr,#(_GPIO_get_inputs_file_name_4_4 + 0x0019)
   0B2A 74 67              2621 	mov	a,#0x67
   0B2C F0                 2622 	movx	@dptr,a
                           2623 ;	genPointerSet
                           2624 ;     genFarPointerSet
   0B2D 90s00rD9           2625 	mov	dptr,#(_GPIO_get_inputs_file_name_4_4 + 0x001a)
   0B30 74 70              2626 	mov	a,#0x70
   0B32 F0                 2627 	movx	@dptr,a
                           2628 ;	genPointerSet
                           2629 ;     genFarPointerSet
   0B33 90s00rDA           2630 	mov	dptr,#(_GPIO_get_inputs_file_name_4_4 + 0x001b)
   0B36 74 69              2631 	mov	a,#0x69
   0B38 F0                 2632 	movx	@dptr,a
                           2633 ;	genPointerSet
                           2634 ;     genFarPointerSet
   0B39 90s00rDB           2635 	mov	dptr,#(_GPIO_get_inputs_file_name_4_4 + 0x001c)
   0B3C 74 6F              2636 	mov	a,#0x6F
   0B3E F0                 2637 	movx	@dptr,a
                           2638 ;	genPointerSet
                           2639 ;     genFarPointerSet
   0B3F 90s00rDC           2640 	mov	dptr,#(_GPIO_get_inputs_file_name_4_4 + 0x001d)
   0B42 74 2E              2641 	mov	a,#0x2E
   0B44 F0                 2642 	movx	@dptr,a
                           2643 ;	genPointerSet
                           2644 ;     genFarPointerSet
   0B45 90s00rDD           2645 	mov	dptr,#(_GPIO_get_inputs_file_name_4_4 + 0x001e)
   0B48 74 63              2646 	mov	a,#0x63
   0B4A F0                 2647 	movx	@dptr,a
                           2648 ;	genPointerSet
                           2649 ;     genFarPointerSet
   0B4B 90s00rDE           2650 	mov	dptr,#(_GPIO_get_inputs_file_name_4_4 + 0x001f)
   0B4E 74 00              2651 	mov	a,#0x00
   0B50 F0                 2652 	movx	@dptr,a
                           2653 ;	genAssign
   0B51 90s00r00           2654 	mov	dptr,#_HAL_assert_fail_PARM_2
   0B54 74 B2              2655 	mov	a,#0xB2
   0B56 F0                 2656 	movx	@dptr,a
   0B57 E4                 2657 	clr	a
   0B58 A3                 2658 	inc	dptr
   0B59 F0                 2659 	movx	@dptr,a
   0B5A A3                 2660 	inc	dptr
   0B5B F0                 2661 	movx	@dptr,a
   0B5C A3                 2662 	inc	dptr
   0B5D F0                 2663 	movx	@dptr,a
                           2664 ;	genCall
   0B5E 75 82rBF           2665 	mov	dpl,#_GPIO_get_inputs_file_name_4_4
   0B61 75 83s00           2666 	mov	dph,#(_GPIO_get_inputs_file_name_4_4 >> 8)
   0B64 75 F0 00           2667 	mov	b,#0x00
   0B67 12s00r00           2668 	lcall	_HAL_assert_fail
                    0B6A   2669 	C$core_gpio.c$180$1$1 ==.
                           2670 ;	../drivers/CoreGPIO/core_gpio.c:180: }
   0B6A                    2671 00110$:
                    0B6A   2672 	C$core_gpio.c$182$1$1 ==.
                           2673 ;	../drivers/CoreGPIO/core_gpio.c:182: return gpio_in;
                           2674 ;	genAssign
   0B6A 90s00rBB           2675 	mov	dptr,#_GPIO_get_inputs_gpio_in_1_1
   0B6D E0                 2676 	movx	a,@dptr
   0B6E FA                 2677 	mov	r2,a
   0B6F A3                 2678 	inc	dptr
   0B70 E0                 2679 	movx	a,@dptr
   0B71 FB                 2680 	mov	r3,a
   0B72 A3                 2681 	inc	dptr
   0B73 E0                 2682 	movx	a,@dptr
   0B74 FC                 2683 	mov	r4,a
   0B75 A3                 2684 	inc	dptr
   0B76 E0                 2685 	movx	a,@dptr
   0B77 FD                 2686 	mov	r5,a
                           2687 ;	genRet
   0B78 8A 82              2688 	mov	dpl,r2
   0B7A 8B 83              2689 	mov	dph,r3
   0B7C 8C F0              2690 	mov	b,r4
   0B7E ED                 2691 	mov	a,r5
   0B7F                    2692 00111$:
                    0B7F   2693 	C$core_gpio.c$183$1$1 ==.
                    0B7F   2694 	XG$GPIO_get_inputs$0$0 ==.
   0B7F 22                 2695 	ret
                           2696 ;------------------------------------------------------------
                           2697 ;Allocation info for local variables in function 'GPIO_get_outputs'
                           2698 ;------------------------------------------------------------
                           2699 ;this_gpio                 Allocated with name '_GPIO_get_outputs_this_gpio_1_1'
                           2700 ;gpio_out                  Allocated with name '_GPIO_get_outputs_gpio_out_1_1'
                           2701 ;file_name                 Allocated with name '_GPIO_get_outputs_file_name_4_4'
                           2702 ;------------------------------------------------------------
                    0B80   2703 	G$GPIO_get_outputs$0$0 ==.
                    0B80   2704 	C$core_gpio.c$189$1$1 ==.
                           2705 ;	../drivers/CoreGPIO/core_gpio.c:189: uint32_t GPIO_get_outputs
                           2706 ;	-----------------------------------------
                           2707 ;	 function GPIO_get_outputs
                           2708 ;	-----------------------------------------
   0B80                    2709 _GPIO_get_outputs:
                           2710 ;	genReceive
   0B80 AA F0              2711 	mov	r2,b
   0B82 AB 83              2712 	mov	r3,dph
   0B84 E5 82              2713 	mov	a,dpl
   0B86 90s00rDF           2714 	mov	dptr,#_GPIO_get_outputs_this_gpio_1_1
   0B89 F0                 2715 	movx	@dptr,a
   0B8A A3                 2716 	inc	dptr
   0B8B EB                 2717 	mov	a,r3
   0B8C F0                 2718 	movx	@dptr,a
   0B8D A3                 2719 	inc	dptr
   0B8E EA                 2720 	mov	a,r2
   0B8F F0                 2721 	movx	@dptr,a
                    0B90   2722 	C$core_gpio.c$194$1$1 ==.
                           2723 ;	../drivers/CoreGPIO/core_gpio.c:194: uint32_t gpio_out = 0;
                           2724 ;	genAssign
   0B90 90s00rE2           2725 	mov	dptr,#_GPIO_get_outputs_gpio_out_1_1
   0B93 E4                 2726 	clr	a
   0B94 F0                 2727 	movx	@dptr,a
   0B95 A3                 2728 	inc	dptr
   0B96 F0                 2729 	movx	@dptr,a
   0B97 A3                 2730 	inc	dptr
   0B98 F0                 2731 	movx	@dptr,a
   0B99 A3                 2732 	inc	dptr
   0B9A F0                 2733 	movx	@dptr,a
                    0B9B   2734 	C$core_gpio.c$196$1$1 ==.
                           2735 ;	../drivers/CoreGPIO/core_gpio.c:196: switch( this_gpio->apb_bus_width )
                           2736 ;	genAssign
   0B9B 90s00rDF           2737 	mov	dptr,#_GPIO_get_outputs_this_gpio_1_1
   0B9E E0                 2738 	movx	a,@dptr
   0B9F FA                 2739 	mov	r2,a
   0BA0 A3                 2740 	inc	dptr
   0BA1 E0                 2741 	movx	a,@dptr
   0BA2 FB                 2742 	mov	r3,a
   0BA3 A3                 2743 	inc	dptr
   0BA4 E0                 2744 	movx	a,@dptr
   0BA5 FC                 2745 	mov	r4,a
                           2746 ;	genPlus
                           2747 ;	genPlusIncr
   0BA6 74 02              2748 	mov	a,#0x02
   0BA8 25 02              2749 	add	a,ar2
   0BAA FD                 2750 	mov	r5,a
   0BAB 74 00              2751 	mov	a,#0x00
   0BAD 35 03              2752 	addc	a,ar3
   0BAF FE                 2753 	mov	r6,a
   0BB0 8C 07              2754 	mov	ar7,r4
                           2755 ;	genPointerGet
                           2756 ;	genGenPointerGet
   0BB2 8D 82              2757 	mov	dpl,r5
   0BB4 8E 83              2758 	mov	dph,r6
   0BB6 8F F0              2759 	mov	b,r7
   0BB8 12s00r00           2760 	lcall	__gptrget
   0BBB FD                 2761 	mov	r5,a
                           2762 ;	genCmpEq
                           2763 ;	gencjneshort
   0BBC BD 00 03           2764 	cjne	r5,#0x00,00116$
   0BBF 02s0Cr3F           2765 	ljmp	00103$
   0BC2                    2766 00116$:
                           2767 ;	genCmpEq
                           2768 ;	gencjneshort
   0BC2 BD 01 03           2769 	cjne	r5,#0x01,00117$
   0BC5 02s0Cr08           2770 	ljmp	00102$
   0BC8                    2771 00117$:
                           2772 ;	genCmpEq
                           2773 ;	gencjneshort
   0BC8 BD 02 02           2774 	cjne	r5,#0x02,00118$
   0BCB 80 03              2775 	sjmp	00119$
   0BCD                    2776 00118$:
   0BCD 02s0CrC4           2777 	ljmp	00107$
   0BD0                    2778 00119$:
                    0BD0   2779 	C$core_gpio.c$199$2$2 ==.
                           2780 ;	../drivers/CoreGPIO/core_gpio.c:199: gpio_out = HAL_get_32bit_reg( this_gpio->base_addr, GPIO_OUT );
                           2781 ;	genPointerGet
                           2782 ;	genGenPointerGet
   0BD0 8A 82              2783 	mov	dpl,r2
   0BD2 8B 83              2784 	mov	dph,r3
   0BD4 8C F0              2785 	mov	b,r4
   0BD6 12s00r00           2786 	lcall	__gptrget
   0BD9 FD                 2787 	mov	r5,a
   0BDA A3                 2788 	inc	dptr
   0BDB 12s00r00           2789 	lcall	__gptrget
   0BDE FE                 2790 	mov	r6,a
                           2791 ;	genPlus
                           2792 ;	genPlusIncr
   0BDF 74 A0              2793 	mov	a,#0xA0
   0BE1 25 05              2794 	add	a,ar5
   0BE3 FD                 2795 	mov	r5,a
   0BE4 74 00              2796 	mov	a,#0x00
   0BE6 35 06              2797 	addc	a,ar6
   0BE8 FE                 2798 	mov	r6,a
                           2799 ;	genCall
   0BE9 8D 82              2800 	mov	dpl,r5
   0BEB 8E 83              2801 	mov	dph,r6
   0BED 12s00r00           2802 	lcall	_HW_get_32bit_reg
   0BF0 AD 82              2803 	mov	r5,dpl
   0BF2 AE 83              2804 	mov	r6,dph
   0BF4 AF F0              2805 	mov	r7,b
   0BF6 F8                 2806 	mov	r0,a
                           2807 ;	genAssign
   0BF7 90s00rE2           2808 	mov	dptr,#_GPIO_get_outputs_gpio_out_1_1
   0BFA ED                 2809 	mov	a,r5
   0BFB F0                 2810 	movx	@dptr,a
   0BFC A3                 2811 	inc	dptr
   0BFD EE                 2812 	mov	a,r6
   0BFE F0                 2813 	movx	@dptr,a
   0BFF A3                 2814 	inc	dptr
   0C00 EF                 2815 	mov	a,r7
   0C01 F0                 2816 	movx	@dptr,a
   0C02 A3                 2817 	inc	dptr
   0C03 E8                 2818 	mov	a,r0
   0C04 F0                 2819 	movx	@dptr,a
                    0C05   2820 	C$core_gpio.c$200$2$2 ==.
                           2821 ;	../drivers/CoreGPIO/core_gpio.c:200: break;
   0C05 02s0Dr9D           2822 	ljmp	00110$
                    0C08   2823 	C$core_gpio.c$202$2$2 ==.
                           2824 ;	../drivers/CoreGPIO/core_gpio.c:202: case GPIO_APB_16_BITS_BUS:
   0C08                    2825 00102$:
                    0C08   2826 	C$core_gpio.c$203$2$2 ==.
                           2827 ;	../drivers/CoreGPIO/core_gpio.c:203: gpio_out |= HAL_get_16bit_reg( this_gpio->base_addr, GPIO_OUT0 );
                           2828 ;	genPointerGet
                           2829 ;	genGenPointerGet
   0C08 8A 82              2830 	mov	dpl,r2
   0C0A 8B 83              2831 	mov	dph,r3
   0C0C 8C F0              2832 	mov	b,r4
   0C0E 12s00r00           2833 	lcall	__gptrget
   0C11 FD                 2834 	mov	r5,a
   0C12 A3                 2835 	inc	dptr
   0C13 12s00r00           2836 	lcall	__gptrget
   0C16 FE                 2837 	mov	r6,a
                           2838 ;	genPlus
                           2839 ;	genPlusIncr
   0C17 74 A0              2840 	mov	a,#0xA0
   0C19 25 05              2841 	add	a,ar5
   0C1B FD                 2842 	mov	r5,a
   0C1C 74 00              2843 	mov	a,#0x00
   0C1E 35 06              2844 	addc	a,ar6
   0C20 FE                 2845 	mov	r6,a
                           2846 ;	genCall
   0C21 8D 82              2847 	mov	dpl,r5
   0C23 8E 83              2848 	mov	dph,r6
   0C25 12s00r00           2849 	lcall	_HW_get_16bit_reg
   0C28 AD 82              2850 	mov	r5,dpl
   0C2A AE 83              2851 	mov	r6,dph
                           2852 ;	genCast
   0C2C 90s00rE2           2853 	mov	dptr,#_GPIO_get_outputs_gpio_out_1_1
   0C2F ED                 2854 	mov	a,r5
   0C30 F0                 2855 	movx	@dptr,a
   0C31 A3                 2856 	inc	dptr
   0C32 EE                 2857 	mov	a,r6
   0C33 F0                 2858 	movx	@dptr,a
   0C34 A3                 2859 	inc	dptr
   0C35 74 00              2860 	mov	a,#0x00
   0C37 F0                 2861 	movx	@dptr,a
   0C38 A3                 2862 	inc	dptr
   0C39 74 00              2863 	mov	a,#0x00
   0C3B F0                 2864 	movx	@dptr,a
                    0C3C   2865 	C$core_gpio.c$205$2$2 ==.
                           2866 ;	../drivers/CoreGPIO/core_gpio.c:205: break;
   0C3C 02s0Dr9D           2867 	ljmp	00110$
                    0C3F   2868 	C$core_gpio.c$207$2$2 ==.
                           2869 ;	../drivers/CoreGPIO/core_gpio.c:207: case GPIO_APB_8_BITS_BUS:
   0C3F                    2870 00103$:
                    0C3F   2871 	C$core_gpio.c$208$2$2 ==.
                           2872 ;	../drivers/CoreGPIO/core_gpio.c:208: gpio_out |= HAL_get_16bit_reg( this_gpio->base_addr, GPIO_OUT0 );
                           2873 ;	genPointerGet
                           2874 ;	genGenPointerGet
   0C3F 8A 82              2875 	mov	dpl,r2
   0C41 8B 83              2876 	mov	dph,r3
   0C43 8C F0              2877 	mov	b,r4
   0C45 12s00r00           2878 	lcall	__gptrget
   0C48 FD                 2879 	mov	r5,a
   0C49 A3                 2880 	inc	dptr
   0C4A 12s00r00           2881 	lcall	__gptrget
   0C4D FE                 2882 	mov	r6,a
                           2883 ;	genPlus
                           2884 ;	genPlusIncr
   0C4E 74 A0              2885 	mov	a,#0xA0
   0C50 25 05              2886 	add	a,ar5
   0C52 FD                 2887 	mov	r5,a
   0C53 74 00              2888 	mov	a,#0x00
   0C55 35 06              2889 	addc	a,ar6
   0C57 FE                 2890 	mov	r6,a
                           2891 ;	genCall
   0C58 8D 82              2892 	mov	dpl,r5
   0C5A 8E 83              2893 	mov	dph,r6
   0C5C C0 02              2894 	push	ar2
   0C5E C0 03              2895 	push	ar3
   0C60 C0 04              2896 	push	ar4
   0C62 12s00r00           2897 	lcall	_HW_get_16bit_reg
   0C65 AD 82              2898 	mov	r5,dpl
   0C67 AE 83              2899 	mov	r6,dph
   0C69 D0 04              2900 	pop	ar4
   0C6B D0 03              2901 	pop	ar3
   0C6D D0 02              2902 	pop	ar2
                           2903 ;	genCast
   0C6F 7F 00              2904 	mov	r7,#0x00
   0C71 78 00              2905 	mov	r0,#0x00
                    0C73   2906 	C$core_gpio.c$209$2$2 ==.
                           2907 ;	../drivers/CoreGPIO/core_gpio.c:209: gpio_out |= (HAL_get_16bit_reg( this_gpio->base_addr, GPIO_OUT1 ) << 8);
                           2908 ;	genPointerGet
                           2909 ;	genGenPointerGet
   0C73 8A 82              2910 	mov	dpl,r2
   0C75 8B 83              2911 	mov	dph,r3
   0C77 8C F0              2912 	mov	b,r4
   0C79 12s00r00           2913 	lcall	__gptrget
   0C7C FA                 2914 	mov	r2,a
   0C7D A3                 2915 	inc	dptr
   0C7E 12s00r00           2916 	lcall	__gptrget
   0C81 FB                 2917 	mov	r3,a
                           2918 ;	genPlus
                           2919 ;	genPlusIncr
   0C82 74 A4              2920 	mov	a,#0xA4
   0C84 25 02              2921 	add	a,ar2
   0C86 FA                 2922 	mov	r2,a
   0C87 74 00              2923 	mov	a,#0x00
   0C89 35 03              2924 	addc	a,ar3
   0C8B FB                 2925 	mov	r3,a
                           2926 ;	genCall
   0C8C 8A 82              2927 	mov	dpl,r2
   0C8E 8B 83              2928 	mov	dph,r3
   0C90 C0 05              2929 	push	ar5
   0C92 C0 06              2930 	push	ar6
   0C94 C0 07              2931 	push	ar7
   0C96 C0 00              2932 	push	ar0
   0C98 12s00r00           2933 	lcall	_HW_get_16bit_reg
   0C9B AA 82              2934 	mov	r2,dpl
   0C9D AB 83              2935 	mov	r3,dph
   0C9F D0 00              2936 	pop	ar0
   0CA1 D0 07              2937 	pop	ar7
   0CA3 D0 06              2938 	pop	ar6
   0CA5 D0 05              2939 	pop	ar5
                           2940 ;	genLeftShift
                           2941 ;	genLeftShiftLiteral
                           2942 ;	genlshTwo
   0CA7 8A 03              2943 	mov	ar3,r2
   0CA9 7A 00              2944 	mov	r2,#0x00
                           2945 ;	genCast
   0CAB 7C 00              2946 	mov	r4,#0x00
   0CAD 79 00              2947 	mov	r1,#0x00
                           2948 ;	genOr
   0CAF 90s00rE2           2949 	mov	dptr,#_GPIO_get_outputs_gpio_out_1_1
   0CB2 EA                 2950 	mov	a,r2
   0CB3 4D                 2951 	orl	a,r5
   0CB4 F0                 2952 	movx	@dptr,a
   0CB5 EB                 2953 	mov	a,r3
   0CB6 4E                 2954 	orl	a,r6
   0CB7 A3                 2955 	inc	dptr
   0CB8 F0                 2956 	movx	@dptr,a
   0CB9 EC                 2957 	mov	a,r4
   0CBA 4F                 2958 	orl	a,r7
   0CBB A3                 2959 	inc	dptr
   0CBC F0                 2960 	movx	@dptr,a
   0CBD E9                 2961 	mov	a,r1
   0CBE 48                 2962 	orl	a,r0
   0CBF A3                 2963 	inc	dptr
   0CC0 F0                 2964 	movx	@dptr,a
                    0CC1   2965 	C$core_gpio.c$212$2$2 ==.
                           2966 ;	../drivers/CoreGPIO/core_gpio.c:212: break;
   0CC1 02s0Dr9D           2967 	ljmp	00110$
                    0CC4   2968 	C$core_gpio.c$215$2$2 ==.
                           2969 ;	../drivers/CoreGPIO/core_gpio.c:215: HAL_ASSERT(0);
   0CC4                    2970 00107$:
                           2971 ;	genPointerSet
                           2972 ;     genFarPointerSet
   0CC4 90s00rE6           2973 	mov	dptr,#_GPIO_get_outputs_file_name_4_4
   0CC7 74 2E              2974 	mov	a,#0x2E
   0CC9 F0                 2975 	movx	@dptr,a
                           2976 ;	genPointerSet
                           2977 ;     genFarPointerSet
   0CCA 90s00rE7           2978 	mov	dptr,#(_GPIO_get_outputs_file_name_4_4 + 0x0001)
   0CCD 74 2E              2979 	mov	a,#0x2E
   0CCF F0                 2980 	movx	@dptr,a
                           2981 ;	genPointerSet
                           2982 ;     genFarPointerSet
   0CD0 90s00rE8           2983 	mov	dptr,#(_GPIO_get_outputs_file_name_4_4 + 0x0002)
   0CD3 74 2F              2984 	mov	a,#0x2F
   0CD5 F0                 2985 	movx	@dptr,a
                           2986 ;	genPointerSet
                           2987 ;     genFarPointerSet
   0CD6 90s00rE9           2988 	mov	dptr,#(_GPIO_get_outputs_file_name_4_4 + 0x0003)
   0CD9 74 64              2989 	mov	a,#0x64
   0CDB F0                 2990 	movx	@dptr,a
                           2991 ;	genPointerSet
                           2992 ;     genFarPointerSet
   0CDC 90s00rEA           2993 	mov	dptr,#(_GPIO_get_outputs_file_name_4_4 + 0x0004)
   0CDF 74 72              2994 	mov	a,#0x72
   0CE1 F0                 2995 	movx	@dptr,a
                           2996 ;	genPointerSet
                           2997 ;     genFarPointerSet
   0CE2 90s00rEB           2998 	mov	dptr,#(_GPIO_get_outputs_file_name_4_4 + 0x0005)
   0CE5 74 69              2999 	mov	a,#0x69
   0CE7 F0                 3000 	movx	@dptr,a
                           3001 ;	genPointerSet
                           3002 ;     genFarPointerSet
   0CE8 90s00rEC           3003 	mov	dptr,#(_GPIO_get_outputs_file_name_4_4 + 0x0006)
   0CEB 74 76              3004 	mov	a,#0x76
   0CED F0                 3005 	movx	@dptr,a
                           3006 ;	genPointerSet
                           3007 ;     genFarPointerSet
   0CEE 90s00rED           3008 	mov	dptr,#(_GPIO_get_outputs_file_name_4_4 + 0x0007)
   0CF1 74 65              3009 	mov	a,#0x65
   0CF3 F0                 3010 	movx	@dptr,a
                           3011 ;	genPointerSet
                           3012 ;     genFarPointerSet
   0CF4 90s00rEE           3013 	mov	dptr,#(_GPIO_get_outputs_file_name_4_4 + 0x0008)
   0CF7 74 72              3014 	mov	a,#0x72
   0CF9 F0                 3015 	movx	@dptr,a
                           3016 ;	genPointerSet
                           3017 ;     genFarPointerSet
   0CFA 90s00rEF           3018 	mov	dptr,#(_GPIO_get_outputs_file_name_4_4 + 0x0009)
   0CFD 74 73              3019 	mov	a,#0x73
   0CFF F0                 3020 	movx	@dptr,a
                           3021 ;	genPointerSet
                           3022 ;     genFarPointerSet
   0D00 90s00rF0           3023 	mov	dptr,#(_GPIO_get_outputs_file_name_4_4 + 0x000a)
   0D03 74 2F              3024 	mov	a,#0x2F
   0D05 F0                 3025 	movx	@dptr,a
                           3026 ;	genPointerSet
                           3027 ;     genFarPointerSet
   0D06 90s00rF1           3028 	mov	dptr,#(_GPIO_get_outputs_file_name_4_4 + 0x000b)
   0D09 74 43              3029 	mov	a,#0x43
   0D0B F0                 3030 	movx	@dptr,a
                           3031 ;	genPointerSet
                           3032 ;     genFarPointerSet
   0D0C 90s00rF2           3033 	mov	dptr,#(_GPIO_get_outputs_file_name_4_4 + 0x000c)
   0D0F 74 6F              3034 	mov	a,#0x6F
   0D11 F0                 3035 	movx	@dptr,a
                           3036 ;	genPointerSet
                           3037 ;     genFarPointerSet
   0D12 90s00rF3           3038 	mov	dptr,#(_GPIO_get_outputs_file_name_4_4 + 0x000d)
   0D15 74 72              3039 	mov	a,#0x72
   0D17 F0                 3040 	movx	@dptr,a
                           3041 ;	genPointerSet
                           3042 ;     genFarPointerSet
   0D18 90s00rF4           3043 	mov	dptr,#(_GPIO_get_outputs_file_name_4_4 + 0x000e)
   0D1B 74 65              3044 	mov	a,#0x65
   0D1D F0                 3045 	movx	@dptr,a
                           3046 ;	genPointerSet
                           3047 ;     genFarPointerSet
   0D1E 90s00rF5           3048 	mov	dptr,#(_GPIO_get_outputs_file_name_4_4 + 0x000f)
   0D21 74 47              3049 	mov	a,#0x47
   0D23 F0                 3050 	movx	@dptr,a
                           3051 ;	genPointerSet
                           3052 ;     genFarPointerSet
   0D24 90s00rF6           3053 	mov	dptr,#(_GPIO_get_outputs_file_name_4_4 + 0x0010)
   0D27 74 50              3054 	mov	a,#0x50
   0D29 F0                 3055 	movx	@dptr,a
                           3056 ;	genPointerSet
                           3057 ;     genFarPointerSet
   0D2A 90s00rF7           3058 	mov	dptr,#(_GPIO_get_outputs_file_name_4_4 + 0x0011)
   0D2D 74 49              3059 	mov	a,#0x49
   0D2F F0                 3060 	movx	@dptr,a
                           3061 ;	genPointerSet
                           3062 ;     genFarPointerSet
   0D30 90s00rF8           3063 	mov	dptr,#(_GPIO_get_outputs_file_name_4_4 + 0x0012)
   0D33 74 4F              3064 	mov	a,#0x4F
   0D35 F0                 3065 	movx	@dptr,a
                           3066 ;	genPointerSet
                           3067 ;     genFarPointerSet
   0D36 90s00rF9           3068 	mov	dptr,#(_GPIO_get_outputs_file_name_4_4 + 0x0013)
   0D39 74 2F              3069 	mov	a,#0x2F
   0D3B F0                 3070 	movx	@dptr,a
                           3071 ;	genPointerSet
                           3072 ;     genFarPointerSet
   0D3C 90s00rFA           3073 	mov	dptr,#(_GPIO_get_outputs_file_name_4_4 + 0x0014)
   0D3F 74 63              3074 	mov	a,#0x63
   0D41 F0                 3075 	movx	@dptr,a
                           3076 ;	genPointerSet
                           3077 ;     genFarPointerSet
   0D42 90s00rFB           3078 	mov	dptr,#(_GPIO_get_outputs_file_name_4_4 + 0x0015)
   0D45 74 6F              3079 	mov	a,#0x6F
   0D47 F0                 3080 	movx	@dptr,a
                           3081 ;	genPointerSet
                           3082 ;     genFarPointerSet
   0D48 90s00rFC           3083 	mov	dptr,#(_GPIO_get_outputs_file_name_4_4 + 0x0016)
   0D4B 74 72              3084 	mov	a,#0x72
   0D4D F0                 3085 	movx	@dptr,a
                           3086 ;	genPointerSet
                           3087 ;     genFarPointerSet
   0D4E 90s00rFD           3088 	mov	dptr,#(_GPIO_get_outputs_file_name_4_4 + 0x0017)
   0D51 74 65              3089 	mov	a,#0x65
   0D53 F0                 3090 	movx	@dptr,a
                           3091 ;	genPointerSet
                           3092 ;     genFarPointerSet
   0D54 90s00rFE           3093 	mov	dptr,#(_GPIO_get_outputs_file_name_4_4 + 0x0018)
   0D57 74 5F              3094 	mov	a,#0x5F
   0D59 F0                 3095 	movx	@dptr,a
                           3096 ;	genPointerSet
                           3097 ;     genFarPointerSet
   0D5A 90s00rFF           3098 	mov	dptr,#(_GPIO_get_outputs_file_name_4_4 + 0x0019)
   0D5D 74 67              3099 	mov	a,#0x67
   0D5F F0                 3100 	movx	@dptr,a
                           3101 ;	genPointerSet
                           3102 ;     genFarPointerSet
   0D60 90s01r00           3103 	mov	dptr,#(_GPIO_get_outputs_file_name_4_4 + 0x001a)
   0D63 74 70              3104 	mov	a,#0x70
   0D65 F0                 3105 	movx	@dptr,a
                           3106 ;	genPointerSet
                           3107 ;     genFarPointerSet
   0D66 90s01r01           3108 	mov	dptr,#(_GPIO_get_outputs_file_name_4_4 + 0x001b)
   0D69 74 69              3109 	mov	a,#0x69
   0D6B F0                 3110 	movx	@dptr,a
                           3111 ;	genPointerSet
                           3112 ;     genFarPointerSet
   0D6C 90s01r02           3113 	mov	dptr,#(_GPIO_get_outputs_file_name_4_4 + 0x001c)
   0D6F 74 6F              3114 	mov	a,#0x6F
   0D71 F0                 3115 	movx	@dptr,a
                           3116 ;	genPointerSet
                           3117 ;     genFarPointerSet
   0D72 90s01r03           3118 	mov	dptr,#(_GPIO_get_outputs_file_name_4_4 + 0x001d)
   0D75 74 2E              3119 	mov	a,#0x2E
   0D77 F0                 3120 	movx	@dptr,a
                           3121 ;	genPointerSet
                           3122 ;     genFarPointerSet
   0D78 90s01r04           3123 	mov	dptr,#(_GPIO_get_outputs_file_name_4_4 + 0x001e)
   0D7B 74 63              3124 	mov	a,#0x63
   0D7D F0                 3125 	movx	@dptr,a
                           3126 ;	genPointerSet
                           3127 ;     genFarPointerSet
   0D7E 90s01r05           3128 	mov	dptr,#(_GPIO_get_outputs_file_name_4_4 + 0x001f)
   0D81 74 00              3129 	mov	a,#0x00
   0D83 F0                 3130 	movx	@dptr,a
                           3131 ;	genAssign
   0D84 90s00r00           3132 	mov	dptr,#_HAL_assert_fail_PARM_2
   0D87 74 D7              3133 	mov	a,#0xD7
   0D89 F0                 3134 	movx	@dptr,a
   0D8A E4                 3135 	clr	a
   0D8B A3                 3136 	inc	dptr
   0D8C F0                 3137 	movx	@dptr,a
   0D8D A3                 3138 	inc	dptr
   0D8E F0                 3139 	movx	@dptr,a
   0D8F A3                 3140 	inc	dptr
   0D90 F0                 3141 	movx	@dptr,a
                           3142 ;	genCall
   0D91 75 82rE6           3143 	mov	dpl,#_GPIO_get_outputs_file_name_4_4
   0D94 75 83s00           3144 	mov	dph,#(_GPIO_get_outputs_file_name_4_4 >> 8)
   0D97 75 F0 00           3145 	mov	b,#0x00
   0D9A 12s00r00           3146 	lcall	_HAL_assert_fail
                    0D9D   3147 	C$core_gpio.c$217$1$1 ==.
                           3148 ;	../drivers/CoreGPIO/core_gpio.c:217: }
   0D9D                    3149 00110$:
                    0D9D   3150 	C$core_gpio.c$219$1$1 ==.
                           3151 ;	../drivers/CoreGPIO/core_gpio.c:219: return gpio_out;
                           3152 ;	genAssign
   0D9D 90s00rE2           3153 	mov	dptr,#_GPIO_get_outputs_gpio_out_1_1
   0DA0 E0                 3154 	movx	a,@dptr
   0DA1 FA                 3155 	mov	r2,a
   0DA2 A3                 3156 	inc	dptr
   0DA3 E0                 3157 	movx	a,@dptr
   0DA4 FB                 3158 	mov	r3,a
   0DA5 A3                 3159 	inc	dptr
   0DA6 E0                 3160 	movx	a,@dptr
   0DA7 FC                 3161 	mov	r4,a
   0DA8 A3                 3162 	inc	dptr
   0DA9 E0                 3163 	movx	a,@dptr
   0DAA FD                 3164 	mov	r5,a
                           3165 ;	genRet
   0DAB 8A 82              3166 	mov	dpl,r2
   0DAD 8B 83              3167 	mov	dph,r3
   0DAF 8C F0              3168 	mov	b,r4
   0DB1 ED                 3169 	mov	a,r5
   0DB2                    3170 00111$:
                    0DB2   3171 	C$core_gpio.c$220$1$1 ==.
                    0DB2   3172 	XG$GPIO_get_outputs$0$0 ==.
   0DB2 22                 3173 	ret
                           3174 ;------------------------------------------------------------
                           3175 ;Allocation info for local variables in function 'GPIO_set_output'
                           3176 ;------------------------------------------------------------
                           3177 ;sloc0                     Allocated with name '_GPIO_set_output_sloc0_1_0'
                           3178 ;sloc1                     Allocated with name '_GPIO_set_output_sloc1_1_0'
                           3179 ;sloc2                     Allocated with name '_GPIO_set_output_sloc2_1_0'
                           3180 ;port_id                   Allocated with name '_GPIO_set_output_PARM_2'
                           3181 ;value                     Allocated with name '_GPIO_set_output_PARM_3'
                           3182 ;this_gpio                 Allocated with name '_GPIO_set_output_this_gpio_1_1'
                           3183 ;file_name                 Allocated with name '_GPIO_set_output_file_name_3_3'
                           3184 ;outputs_state             Allocated with name '_GPIO_set_output_outputs_state_3_5'
                           3185 ;file_name                 Allocated with name '_GPIO_set_output_file_name_5_9'
                           3186 ;outputs_state             Allocated with name '_GPIO_set_output_outputs_state_3_10'
                           3187 ;gpio_out_reg_addr         Allocated with name '_GPIO_set_output_gpio_out_reg_addr_3_10'
                           3188 ;file_name                 Allocated with name '_GPIO_set_output_file_name_5_14'
                           3189 ;outputs_state             Allocated with name '_GPIO_set_output_outputs_state_3_15'
                           3190 ;gpio_out_reg_addr         Allocated with name '_GPIO_set_output_gpio_out_reg_addr_3_15'
                           3191 ;file_name                 Allocated with name '_GPIO_set_output_file_name_5_19'
                           3192 ;file_name                 Allocated with name '_GPIO_set_output_file_name_4_21'
                           3193 ;------------------------------------------------------------
                    0DB3   3194 	G$GPIO_set_output$0$0 ==.
                    0DB3   3195 	C$core_gpio.c$226$1$1 ==.
                           3196 ;	../drivers/CoreGPIO/core_gpio.c:226: void GPIO_set_output
                           3197 ;	-----------------------------------------
                           3198 ;	 function GPIO_set_output
                           3199 ;	-----------------------------------------
   0DB3                    3200 _GPIO_set_output:
                           3201 ;	genReceive
   0DB3 AA F0              3202 	mov	r2,b
   0DB5 AB 83              3203 	mov	r3,dph
   0DB7 E5 82              3204 	mov	a,dpl
   0DB9 90s01r08           3205 	mov	dptr,#_GPIO_set_output_this_gpio_1_1
   0DBC F0                 3206 	movx	@dptr,a
   0DBD A3                 3207 	inc	dptr
   0DBE EB                 3208 	mov	a,r3
   0DBF F0                 3209 	movx	@dptr,a
   0DC0 A3                 3210 	inc	dptr
   0DC1 EA                 3211 	mov	a,r2
   0DC2 F0                 3212 	movx	@dptr,a
                    0DC3   3213 	C$core_gpio.c$233$2$2 ==.
                           3214 ;	../drivers/CoreGPIO/core_gpio.c:233: HAL_ASSERT( port_id < NB_OF_GPIO );
                           3215 ;	genAssign
   0DC3 90s01r06           3216 	mov	dptr,#_GPIO_set_output_PARM_2
   0DC6 E0                 3217 	movx	a,@dptr
   0DC7 FA                 3218 	mov	r2,a
                           3219 ;	genCmpLt
                           3220 ;	genCmp
   0DC8 BA 20 00           3221 	cjne	r2,#0x20,00152$
   0DCB                    3222 00152$:
                           3223 ;	genIfxJump
   0DCB 50 03              3224 	jnc	00153$
   0DCD 02s0ErAD           3225 	ljmp	00104$
   0DD0                    3226 00153$:
                           3227 ;	genPointerSet
                           3228 ;     genFarPointerSet
   0DD0 90s01r0B           3229 	mov	dptr,#_GPIO_set_output_file_name_3_3
   0DD3 74 2E              3230 	mov	a,#0x2E
   0DD5 F0                 3231 	movx	@dptr,a
                           3232 ;	genPointerSet
                           3233 ;     genFarPointerSet
   0DD6 90s01r0C           3234 	mov	dptr,#(_GPIO_set_output_file_name_3_3 + 0x0001)
   0DD9 74 2E              3235 	mov	a,#0x2E
   0DDB F0                 3236 	movx	@dptr,a
                           3237 ;	genPointerSet
                           3238 ;     genFarPointerSet
   0DDC 90s01r0D           3239 	mov	dptr,#(_GPIO_set_output_file_name_3_3 + 0x0002)
   0DDF 74 2F              3240 	mov	a,#0x2F
   0DE1 F0                 3241 	movx	@dptr,a
                           3242 ;	genPointerSet
                           3243 ;     genFarPointerSet
   0DE2 90s01r0E           3244 	mov	dptr,#(_GPIO_set_output_file_name_3_3 + 0x0003)
   0DE5 74 64              3245 	mov	a,#0x64
   0DE7 F0                 3246 	movx	@dptr,a
                           3247 ;	genPointerSet
                           3248 ;     genFarPointerSet
   0DE8 90s01r0F           3249 	mov	dptr,#(_GPIO_set_output_file_name_3_3 + 0x0004)
   0DEB 74 72              3250 	mov	a,#0x72
   0DED F0                 3251 	movx	@dptr,a
                           3252 ;	genPointerSet
                           3253 ;     genFarPointerSet
   0DEE 90s01r10           3254 	mov	dptr,#(_GPIO_set_output_file_name_3_3 + 0x0005)
   0DF1 74 69              3255 	mov	a,#0x69
   0DF3 F0                 3256 	movx	@dptr,a
                           3257 ;	genPointerSet
                           3258 ;     genFarPointerSet
   0DF4 90s01r11           3259 	mov	dptr,#(_GPIO_set_output_file_name_3_3 + 0x0006)
   0DF7 74 76              3260 	mov	a,#0x76
   0DF9 F0                 3261 	movx	@dptr,a
                           3262 ;	genPointerSet
                           3263 ;     genFarPointerSet
   0DFA 90s01r12           3264 	mov	dptr,#(_GPIO_set_output_file_name_3_3 + 0x0007)
   0DFD 74 65              3265 	mov	a,#0x65
   0DFF F0                 3266 	movx	@dptr,a
                           3267 ;	genPointerSet
                           3268 ;     genFarPointerSet
   0E00 90s01r13           3269 	mov	dptr,#(_GPIO_set_output_file_name_3_3 + 0x0008)
   0E03 74 72              3270 	mov	a,#0x72
   0E05 F0                 3271 	movx	@dptr,a
                           3272 ;	genPointerSet
                           3273 ;     genFarPointerSet
   0E06 90s01r14           3274 	mov	dptr,#(_GPIO_set_output_file_name_3_3 + 0x0009)
   0E09 74 73              3275 	mov	a,#0x73
   0E0B F0                 3276 	movx	@dptr,a
                           3277 ;	genPointerSet
                           3278 ;     genFarPointerSet
   0E0C 90s01r15           3279 	mov	dptr,#(_GPIO_set_output_file_name_3_3 + 0x000a)
   0E0F 74 2F              3280 	mov	a,#0x2F
   0E11 F0                 3281 	movx	@dptr,a
                           3282 ;	genPointerSet
                           3283 ;     genFarPointerSet
   0E12 90s01r16           3284 	mov	dptr,#(_GPIO_set_output_file_name_3_3 + 0x000b)
   0E15 74 43              3285 	mov	a,#0x43
   0E17 F0                 3286 	movx	@dptr,a
                           3287 ;	genPointerSet
                           3288 ;     genFarPointerSet
   0E18 90s01r17           3289 	mov	dptr,#(_GPIO_set_output_file_name_3_3 + 0x000c)
   0E1B 74 6F              3290 	mov	a,#0x6F
   0E1D F0                 3291 	movx	@dptr,a
                           3292 ;	genPointerSet
                           3293 ;     genFarPointerSet
   0E1E 90s01r18           3294 	mov	dptr,#(_GPIO_set_output_file_name_3_3 + 0x000d)
   0E21 74 72              3295 	mov	a,#0x72
   0E23 F0                 3296 	movx	@dptr,a
                           3297 ;	genPointerSet
                           3298 ;     genFarPointerSet
   0E24 90s01r19           3299 	mov	dptr,#(_GPIO_set_output_file_name_3_3 + 0x000e)
   0E27 74 65              3300 	mov	a,#0x65
   0E29 F0                 3301 	movx	@dptr,a
                           3302 ;	genPointerSet
                           3303 ;     genFarPointerSet
   0E2A 90s01r1A           3304 	mov	dptr,#(_GPIO_set_output_file_name_3_3 + 0x000f)
   0E2D 74 47              3305 	mov	a,#0x47
   0E2F F0                 3306 	movx	@dptr,a
                           3307 ;	genPointerSet
                           3308 ;     genFarPointerSet
   0E30 90s01r1B           3309 	mov	dptr,#(_GPIO_set_output_file_name_3_3 + 0x0010)
   0E33 74 50              3310 	mov	a,#0x50
   0E35 F0                 3311 	movx	@dptr,a
                           3312 ;	genPointerSet
                           3313 ;     genFarPointerSet
   0E36 90s01r1C           3314 	mov	dptr,#(_GPIO_set_output_file_name_3_3 + 0x0011)
   0E39 74 49              3315 	mov	a,#0x49
   0E3B F0                 3316 	movx	@dptr,a
                           3317 ;	genPointerSet
                           3318 ;     genFarPointerSet
   0E3C 90s01r1D           3319 	mov	dptr,#(_GPIO_set_output_file_name_3_3 + 0x0012)
   0E3F 74 4F              3320 	mov	a,#0x4F
   0E41 F0                 3321 	movx	@dptr,a
                           3322 ;	genPointerSet
                           3323 ;     genFarPointerSet
   0E42 90s01r1E           3324 	mov	dptr,#(_GPIO_set_output_file_name_3_3 + 0x0013)
   0E45 74 2F              3325 	mov	a,#0x2F
   0E47 F0                 3326 	movx	@dptr,a
                           3327 ;	genPointerSet
                           3328 ;     genFarPointerSet
   0E48 90s01r1F           3329 	mov	dptr,#(_GPIO_set_output_file_name_3_3 + 0x0014)
   0E4B 74 63              3330 	mov	a,#0x63
   0E4D F0                 3331 	movx	@dptr,a
                           3332 ;	genPointerSet
                           3333 ;     genFarPointerSet
   0E4E 90s01r20           3334 	mov	dptr,#(_GPIO_set_output_file_name_3_3 + 0x0015)
   0E51 74 6F              3335 	mov	a,#0x6F
   0E53 F0                 3336 	movx	@dptr,a
                           3337 ;	genPointerSet
                           3338 ;     genFarPointerSet
   0E54 90s01r21           3339 	mov	dptr,#(_GPIO_set_output_file_name_3_3 + 0x0016)
   0E57 74 72              3340 	mov	a,#0x72
   0E59 F0                 3341 	movx	@dptr,a
                           3342 ;	genPointerSet
                           3343 ;     genFarPointerSet
   0E5A 90s01r22           3344 	mov	dptr,#(_GPIO_set_output_file_name_3_3 + 0x0017)
   0E5D 74 65              3345 	mov	a,#0x65
   0E5F F0                 3346 	movx	@dptr,a
                           3347 ;	genPointerSet
                           3348 ;     genFarPointerSet
   0E60 90s01r23           3349 	mov	dptr,#(_GPIO_set_output_file_name_3_3 + 0x0018)
   0E63 74 5F              3350 	mov	a,#0x5F
   0E65 F0                 3351 	movx	@dptr,a
                           3352 ;	genPointerSet
                           3353 ;     genFarPointerSet
   0E66 90s01r24           3354 	mov	dptr,#(_GPIO_set_output_file_name_3_3 + 0x0019)
   0E69 74 67              3355 	mov	a,#0x67
   0E6B F0                 3356 	movx	@dptr,a
                           3357 ;	genPointerSet
                           3358 ;     genFarPointerSet
   0E6C 90s01r25           3359 	mov	dptr,#(_GPIO_set_output_file_name_3_3 + 0x001a)
   0E6F 74 70              3360 	mov	a,#0x70
   0E71 F0                 3361 	movx	@dptr,a
                           3362 ;	genPointerSet
                           3363 ;     genFarPointerSet
   0E72 90s01r26           3364 	mov	dptr,#(_GPIO_set_output_file_name_3_3 + 0x001b)
   0E75 74 69              3365 	mov	a,#0x69
   0E77 F0                 3366 	movx	@dptr,a
                           3367 ;	genPointerSet
                           3368 ;     genFarPointerSet
   0E78 90s01r27           3369 	mov	dptr,#(_GPIO_set_output_file_name_3_3 + 0x001c)
   0E7B 74 6F              3370 	mov	a,#0x6F
   0E7D F0                 3371 	movx	@dptr,a
                           3372 ;	genPointerSet
                           3373 ;     genFarPointerSet
   0E7E 90s01r28           3374 	mov	dptr,#(_GPIO_set_output_file_name_3_3 + 0x001d)
   0E81 74 2E              3375 	mov	a,#0x2E
   0E83 F0                 3376 	movx	@dptr,a
                           3377 ;	genPointerSet
                           3378 ;     genFarPointerSet
   0E84 90s01r29           3379 	mov	dptr,#(_GPIO_set_output_file_name_3_3 + 0x001e)
   0E87 74 63              3380 	mov	a,#0x63
   0E89 F0                 3381 	movx	@dptr,a
                           3382 ;	genPointerSet
                           3383 ;     genFarPointerSet
   0E8A 90s01r2A           3384 	mov	dptr,#(_GPIO_set_output_file_name_3_3 + 0x001f)
   0E8D 74 00              3385 	mov	a,#0x00
   0E8F F0                 3386 	movx	@dptr,a
                           3387 ;	genAssign
   0E90 90s00r00           3388 	mov	dptr,#_HAL_assert_fail_PARM_2
   0E93 74 E9              3389 	mov	a,#0xE9
   0E95 F0                 3390 	movx	@dptr,a
   0E96 E4                 3391 	clr	a
   0E97 A3                 3392 	inc	dptr
   0E98 F0                 3393 	movx	@dptr,a
   0E99 A3                 3394 	inc	dptr
   0E9A F0                 3395 	movx	@dptr,a
   0E9B A3                 3396 	inc	dptr
   0E9C F0                 3397 	movx	@dptr,a
                           3398 ;	genCall
   0E9D 75 82r0B           3399 	mov	dpl,#_GPIO_set_output_file_name_3_3
   0EA0 75 83s01           3400 	mov	dph,#(_GPIO_set_output_file_name_3_3 >> 8)
   0EA3 75 F0 00           3401 	mov	b,#0x00
   0EA6 C0 02              3402 	push	ar2
   0EA8 12s00r00           3403 	lcall	_HAL_assert_fail
   0EAB D0 02              3404 	pop	ar2
   0EAD                    3405 00104$:
                    0EAD   3406 	C$core_gpio.c$236$1$1 ==.
                           3407 ;	../drivers/CoreGPIO/core_gpio.c:236: switch( this_gpio->apb_bus_width )
                           3408 ;	genAssign
   0EAD 90s01r08           3409 	mov	dptr,#_GPIO_set_output_this_gpio_1_1
   0EB0 E0                 3410 	movx	a,@dptr
   0EB1 FB                 3411 	mov	r3,a
   0EB2 A3                 3412 	inc	dptr
   0EB3 E0                 3413 	movx	a,@dptr
   0EB4 FC                 3414 	mov	r4,a
   0EB5 A3                 3415 	inc	dptr
   0EB6 E0                 3416 	movx	a,@dptr
   0EB7 FD                 3417 	mov	r5,a
                           3418 ;	genPlus
                           3419 ;	genPlusIncr
   0EB8 74 02              3420 	mov	a,#0x02
   0EBA 25 03              3421 	add	a,ar3
   0EBC FE                 3422 	mov	r6,a
   0EBD 74 00              3423 	mov	a,#0x00
   0EBF 35 04              3424 	addc	a,ar4
   0EC1 FF                 3425 	mov	r7,a
   0EC2 8D 00              3426 	mov	ar0,r5
                           3427 ;	genPointerGet
                           3428 ;	genGenPointerGet
   0EC4 8E 82              3429 	mov	dpl,r6
   0EC6 8F 83              3430 	mov	dph,r7
   0EC8 88 F0              3431 	mov	b,r0
   0ECA 12s00r00           3432 	lcall	__gptrget
   0ECD FE                 3433 	mov	r6,a
                           3434 ;	genCmpEq
                           3435 ;	gencjneshort
   0ECE BE 00 03           3436 	cjne	r6,#0x00,00154$
   0ED1 02s12rE5           3437 	ljmp	00124$
   0ED4                    3438 00154$:
                           3439 ;	genCmpEq
                           3440 ;	gencjneshort
   0ED4 BE 01 03           3441 	cjne	r6,#0x01,00155$
   0ED7 02s11r06           3442 	ljmp	00115$
   0EDA                    3443 00155$:
                           3444 ;	genCmpEq
                           3445 ;	gencjneshort
   0EDA BE 02 02           3446 	cjne	r6,#0x02,00156$
   0EDD 80 03              3447 	sjmp	00157$
   0EDF                    3448 00156$:
   0EDF 02s14r7D           3449 	ljmp	00136$
   0EE2                    3450 00157$:
                    0EE2   3451 	C$core_gpio.c$242$1$1 ==.
                           3452 ;	../drivers/CoreGPIO/core_gpio.c:242: outputs_state = HAL_get_32bit_reg( this_gpio->base_addr, GPIO_OUT );
                           3453 ;	genIpush
   0EE2 C0 02              3454 	push	ar2
                           3455 ;	genPointerGet
                           3456 ;	genGenPointerGet
   0EE4 8B 82              3457 	mov	dpl,r3
   0EE6 8C 83              3458 	mov	dph,r4
   0EE8 8D F0              3459 	mov	b,r5
   0EEA 12s00r00           3460 	lcall	__gptrget
   0EED FE                 3461 	mov	r6,a
   0EEE A3                 3462 	inc	dptr
   0EEF 12s00r00           3463 	lcall	__gptrget
   0EF2 FF                 3464 	mov	r7,a
                           3465 ;	genPlus
                           3466 ;	genPlusIncr
   0EF3 74 A0              3467 	mov	a,#0xA0
   0EF5 25 06              3468 	add	a,ar6
   0EF7 FE                 3469 	mov	r6,a
   0EF8 74 00              3470 	mov	a,#0x00
   0EFA 35 07              3471 	addc	a,ar7
   0EFC FF                 3472 	mov	r7,a
                           3473 ;	genCall
   0EFD 8E 82              3474 	mov	dpl,r6
   0EFF 8F 83              3475 	mov	dph,r7
   0F01 C0 02              3476 	push	ar2
   0F03 12s00r00           3477 	lcall	_HW_get_32bit_reg
   0F06 85 82*08           3478 	mov	_GPIO_set_output_sloc0_1_0,dpl
   0F09 85 83*09           3479 	mov	(_GPIO_set_output_sloc0_1_0 + 1),dph
   0F0C 85 F0*0A           3480 	mov	(_GPIO_set_output_sloc0_1_0 + 2),b
   0F0F F5*0B              3481 	mov	(_GPIO_set_output_sloc0_1_0 + 3),a
   0F11 D0 02              3482 	pop	ar2
                    0F13   3483 	C$core_gpio.c$243$3$5 ==.
                           3484 ;	../drivers/CoreGPIO/core_gpio.c:243: if ( 0 == value )
                           3485 ;	genAssign
   0F13 90s01r07           3486 	mov	dptr,#_GPIO_set_output_PARM_3
   0F16 E0                 3487 	movx	a,@dptr
   0F17 FA                 3488 	mov	r2,a
                           3489 ;	genCmpEq
                           3490 ;	gencjne
                           3491 ;	gencjneshort
   0F18 BA 00 04           3492 	cjne	r2,#0x00,00158$
   0F1B 74 01              3493 	mov	a,#0x01
   0F1D 80 01              3494 	sjmp	00159$
   0F1F                    3495 00158$:
   0F1F E4                 3496 	clr	a
   0F20                    3497 00159$:
                           3498 ;	genIpop
   0F20 D0 02              3499 	pop	ar2
                           3500 ;	genIfx
                           3501 ;	genIfxJump
   0F22 70 03              3502 	jnz	00160$
   0F24 02s0Fr60           3503 	ljmp	00108$
   0F27                    3504 00160$:
                    0F27   3505 	C$core_gpio.c$245$4$6 ==.
                           3506 ;	../drivers/CoreGPIO/core_gpio.c:245: outputs_state &= ~(1 << port_id);
                           3507 ;	genLeftShift
   0F27 8A F0              3508 	mov	b,r2
   0F29 05 F0              3509 	inc	b
   0F2B 7E 01              3510 	mov	r6,#0x01
   0F2D 7F 00              3511 	mov	r7,#0x00
   0F2F 80 07              3512 	sjmp	00162$
   0F31                    3513 00161$:
   0F31 EE                 3514 	mov	a,r6
   0F32 25 E0              3515 	add	a,acc
   0F34 FE                 3516 	mov	r6,a
   0F35 EF                 3517 	mov	a,r7
   0F36 33                 3518 	rlc	a
   0F37 FF                 3519 	mov	r7,a
   0F38                    3520 00162$:
   0F38 D5 F0 F6           3521 	djnz	b,00161$
                           3522 ;	genCpl
   0F3B EE                 3523 	mov	a,r6
   0F3C F4                 3524 	cpl	a
   0F3D FE                 3525 	mov	r6,a
   0F3E EF                 3526 	mov	a,r7
   0F3F F4                 3527 	cpl	a
   0F40 FF                 3528 	mov	r7,a
                           3529 ;	genCast
   0F41 EF                 3530 	mov	a,r7
   0F42 33                 3531 	rlc	a
   0F43 95 E0              3532 	subb	a,acc
   0F45 F8                 3533 	mov	r0,a
   0F46 F9                 3534 	mov	r1,a
                           3535 ;	genAnd
   0F47 90s01r2B           3536 	mov	dptr,#_GPIO_set_output_outputs_state_3_5
   0F4A EE                 3537 	mov	a,r6
   0F4B 55*08              3538 	anl	a,_GPIO_set_output_sloc0_1_0
   0F4D F0                 3539 	movx	@dptr,a
   0F4E EF                 3540 	mov	a,r7
   0F4F 55*09              3541 	anl	a,(_GPIO_set_output_sloc0_1_0 + 1)
   0F51 A3                 3542 	inc	dptr
   0F52 F0                 3543 	movx	@dptr,a
   0F53 E8                 3544 	mov	a,r0
   0F54 55*0A              3545 	anl	a,(_GPIO_set_output_sloc0_1_0 + 2)
   0F56 A3                 3546 	inc	dptr
   0F57 F0                 3547 	movx	@dptr,a
   0F58 E9                 3548 	mov	a,r1
   0F59 55*0B              3549 	anl	a,(_GPIO_set_output_sloc0_1_0 + 3)
   0F5B A3                 3550 	inc	dptr
   0F5C F0                 3551 	movx	@dptr,a
   0F5D 02s0Fr90           3552 	ljmp	00109$
   0F60                    3553 00108$:
                    0F60   3554 	C$core_gpio.c$249$4$7 ==.
                           3555 ;	../drivers/CoreGPIO/core_gpio.c:249: outputs_state |= 1 << port_id;
                           3556 ;	genLeftShift
   0F60 8A F0              3557 	mov	b,r2
   0F62 05 F0              3558 	inc	b
   0F64 7E 01              3559 	mov	r6,#0x01
   0F66 7F 00              3560 	mov	r7,#0x00
   0F68 80 07              3561 	sjmp	00164$
   0F6A                    3562 00163$:
   0F6A EE                 3563 	mov	a,r6
   0F6B 25 E0              3564 	add	a,acc
   0F6D FE                 3565 	mov	r6,a
   0F6E EF                 3566 	mov	a,r7
   0F6F 33                 3567 	rlc	a
   0F70 FF                 3568 	mov	r7,a
   0F71                    3569 00164$:
   0F71 D5 F0 F6           3570 	djnz	b,00163$
                           3571 ;	genCast
   0F74 EF                 3572 	mov	a,r7
   0F75 33                 3573 	rlc	a
   0F76 95 E0              3574 	subb	a,acc
   0F78 F8                 3575 	mov	r0,a
   0F79 F9                 3576 	mov	r1,a
                           3577 ;	genOr
   0F7A 90s01r2B           3578 	mov	dptr,#_GPIO_set_output_outputs_state_3_5
   0F7D EE                 3579 	mov	a,r6
   0F7E 45*08              3580 	orl	a,_GPIO_set_output_sloc0_1_0
   0F80 F0                 3581 	movx	@dptr,a
   0F81 EF                 3582 	mov	a,r7
   0F82 45*09              3583 	orl	a,(_GPIO_set_output_sloc0_1_0 + 1)
   0F84 A3                 3584 	inc	dptr
   0F85 F0                 3585 	movx	@dptr,a
   0F86 E8                 3586 	mov	a,r0
   0F87 45*0A              3587 	orl	a,(_GPIO_set_output_sloc0_1_0 + 2)
   0F89 A3                 3588 	inc	dptr
   0F8A F0                 3589 	movx	@dptr,a
   0F8B E9                 3590 	mov	a,r1
   0F8C 45*0B              3591 	orl	a,(_GPIO_set_output_sloc0_1_0 + 3)
   0F8E A3                 3592 	inc	dptr
   0F8F F0                 3593 	movx	@dptr,a
   0F90                    3594 00109$:
                    0F90   3595 	C$core_gpio.c$251$3$5 ==.
                           3596 ;	../drivers/CoreGPIO/core_gpio.c:251: HAL_set_32bit_reg( this_gpio->base_addr, GPIO_OUT, outputs_state );
                           3597 ;	genAssign
   0F90 90s01r08           3598 	mov	dptr,#_GPIO_set_output_this_gpio_1_1
   0F93 E0                 3599 	movx	a,@dptr
   0F94 FA                 3600 	mov	r2,a
   0F95 A3                 3601 	inc	dptr
   0F96 E0                 3602 	movx	a,@dptr
   0F97 FB                 3603 	mov	r3,a
   0F98 A3                 3604 	inc	dptr
   0F99 E0                 3605 	movx	a,@dptr
   0F9A FC                 3606 	mov	r4,a
                           3607 ;	genPointerGet
                           3608 ;	genGenPointerGet
   0F9B 8A 82              3609 	mov	dpl,r2
   0F9D 8B 83              3610 	mov	dph,r3
   0F9F 8C F0              3611 	mov	b,r4
   0FA1 12s00r00           3612 	lcall	__gptrget
   0FA4 F9                 3613 	mov	r1,a
   0FA5 A3                 3614 	inc	dptr
   0FA6 12s00r00           3615 	lcall	__gptrget
   0FA9 FE                 3616 	mov	r6,a
                           3617 ;	genPlus
                           3618 ;	genPlusIncr
   0FAA 74 A0              3619 	mov	a,#0xA0
   0FAC 25 01              3620 	add	a,ar1
   0FAE FD                 3621 	mov	r5,a
   0FAF 74 00              3622 	mov	a,#0x00
   0FB1 35 06              3623 	addc	a,ar6
   0FB3 FE                 3624 	mov	r6,a
                           3625 ;	genAssign
   0FB4 90s01r2B           3626 	mov	dptr,#_GPIO_set_output_outputs_state_3_5
   0FB7 E0                 3627 	movx	a,@dptr
   0FB8 F5*0C              3628 	mov	_GPIO_set_output_sloc2_1_0,a
   0FBA A3                 3629 	inc	dptr
   0FBB E0                 3630 	movx	a,@dptr
   0FBC F5*0D              3631 	mov	(_GPIO_set_output_sloc2_1_0 + 1),a
   0FBE A3                 3632 	inc	dptr
   0FBF E0                 3633 	movx	a,@dptr
   0FC0 F5*0E              3634 	mov	(_GPIO_set_output_sloc2_1_0 + 2),a
   0FC2 A3                 3635 	inc	dptr
   0FC3 E0                 3636 	movx	a,@dptr
   0FC4 F5*0F              3637 	mov	(_GPIO_set_output_sloc2_1_0 + 3),a
                           3638 ;	genAssign
   0FC6 90s00r00           3639 	mov	dptr,#_HW_set_32bit_reg_PARM_2
   0FC9 E5*0C              3640 	mov	a,_GPIO_set_output_sloc2_1_0
   0FCB F0                 3641 	movx	@dptr,a
   0FCC A3                 3642 	inc	dptr
   0FCD E5*0D              3643 	mov	a,(_GPIO_set_output_sloc2_1_0 + 1)
   0FCF F0                 3644 	movx	@dptr,a
   0FD0 A3                 3645 	inc	dptr
   0FD1 E5*0E              3646 	mov	a,(_GPIO_set_output_sloc2_1_0 + 2)
   0FD3 F0                 3647 	movx	@dptr,a
   0FD4 A3                 3648 	inc	dptr
   0FD5 E5*0F              3649 	mov	a,(_GPIO_set_output_sloc2_1_0 + 3)
   0FD7 F0                 3650 	movx	@dptr,a
                           3651 ;	genCall
   0FD8 8D 82              3652 	mov	dpl,r5
   0FDA 8E 83              3653 	mov	dph,r6
   0FDC C0 02              3654 	push	ar2
   0FDE C0 03              3655 	push	ar3
   0FE0 C0 04              3656 	push	ar4
   0FE2 12s00r00           3657 	lcall	_HW_set_32bit_reg
   0FE5 D0 04              3658 	pop	ar4
   0FE7 D0 03              3659 	pop	ar3
   0FE9 D0 02              3660 	pop	ar2
                    0FEB   3661 	C$core_gpio.c$260$4$8 ==.
                           3662 ;	../drivers/CoreGPIO/core_gpio.c:260: HAL_ASSERT( HAL_get_32bit_reg( this_gpio->base_addr, GPIO_OUT ) == outputs_state );
                           3663 ;	genPointerGet
                           3664 ;	genGenPointerGet
   0FEB 8A 82              3665 	mov	dpl,r2
   0FED 8B 83              3666 	mov	dph,r3
   0FEF 8C F0              3667 	mov	b,r4
   0FF1 12s00r00           3668 	lcall	__gptrget
   0FF4 FE                 3669 	mov	r6,a
   0FF5 A3                 3670 	inc	dptr
   0FF6 12s00r00           3671 	lcall	__gptrget
   0FF9 FF                 3672 	mov	r7,a
                           3673 ;	genPlus
                           3674 ;	genPlusIncr
   0FFA 74 A0              3675 	mov	a,#0xA0
   0FFC 25 06              3676 	add	a,ar6
   0FFE FE                 3677 	mov	r6,a
   0FFF 74 00              3678 	mov	a,#0x00
   1001 35 07              3679 	addc	a,ar7
   1003 FF                 3680 	mov	r7,a
                           3681 ;	genCall
   1004 8E 82              3682 	mov	dpl,r6
   1006 8F 83              3683 	mov	dph,r7
   1008 12s00r00           3684 	lcall	_HW_get_32bit_reg
   100B AE 82              3685 	mov	r6,dpl
   100D AF 83              3686 	mov	r7,dph
   100F A8 F0              3687 	mov	r0,b
   1011 F9                 3688 	mov	r1,a
                           3689 ;	genCmpEq
                           3690 ;	gencjneshort
   1012 EE                 3691 	mov	a,r6
   1013 B5*0C 0F           3692 	cjne	a,_GPIO_set_output_sloc2_1_0,00165$
   1016 EF                 3693 	mov	a,r7
   1017 B5*0D 0B           3694 	cjne	a,(_GPIO_set_output_sloc2_1_0 + 1),00165$
   101A E8                 3695 	mov	a,r0
   101B B5*0E 07           3696 	cjne	a,(_GPIO_set_output_sloc2_1_0 + 2),00165$
   101E E9                 3697 	mov	a,r1
   101F B5*0F 03           3698 	cjne	a,(_GPIO_set_output_sloc2_1_0 + 3),00165$
   1022 02s15r5B           3699 	ljmp	00140$
   1025                    3700 00165$:
                           3701 ;	genPointerSet
                           3702 ;     genFarPointerSet
   1025 90s01r2F           3703 	mov	dptr,#_GPIO_set_output_file_name_5_9
   1028 74 2E              3704 	mov	a,#0x2E
   102A F0                 3705 	movx	@dptr,a
                           3706 ;	genPointerSet
                           3707 ;     genFarPointerSet
   102B 90s01r30           3708 	mov	dptr,#(_GPIO_set_output_file_name_5_9 + 0x0001)
   102E 74 2E              3709 	mov	a,#0x2E
   1030 F0                 3710 	movx	@dptr,a
                           3711 ;	genPointerSet
                           3712 ;     genFarPointerSet
   1031 90s01r31           3713 	mov	dptr,#(_GPIO_set_output_file_name_5_9 + 0x0002)
   1034 74 2F              3714 	mov	a,#0x2F
   1036 F0                 3715 	movx	@dptr,a
                           3716 ;	genPointerSet
                           3717 ;     genFarPointerSet
   1037 90s01r32           3718 	mov	dptr,#(_GPIO_set_output_file_name_5_9 + 0x0003)
   103A 74 64              3719 	mov	a,#0x64
   103C F0                 3720 	movx	@dptr,a
                           3721 ;	genPointerSet
                           3722 ;     genFarPointerSet
   103D 90s01r33           3723 	mov	dptr,#(_GPIO_set_output_file_name_5_9 + 0x0004)
   1040 74 72              3724 	mov	a,#0x72
   1042 F0                 3725 	movx	@dptr,a
                           3726 ;	genPointerSet
                           3727 ;     genFarPointerSet
   1043 90s01r34           3728 	mov	dptr,#(_GPIO_set_output_file_name_5_9 + 0x0005)
   1046 74 69              3729 	mov	a,#0x69
   1048 F0                 3730 	movx	@dptr,a
                           3731 ;	genPointerSet
                           3732 ;     genFarPointerSet
   1049 90s01r35           3733 	mov	dptr,#(_GPIO_set_output_file_name_5_9 + 0x0006)
   104C 74 76              3734 	mov	a,#0x76
   104E F0                 3735 	movx	@dptr,a
                           3736 ;	genPointerSet
                           3737 ;     genFarPointerSet
   104F 90s01r36           3738 	mov	dptr,#(_GPIO_set_output_file_name_5_9 + 0x0007)
   1052 74 65              3739 	mov	a,#0x65
   1054 F0                 3740 	movx	@dptr,a
                           3741 ;	genPointerSet
                           3742 ;     genFarPointerSet
   1055 90s01r37           3743 	mov	dptr,#(_GPIO_set_output_file_name_5_9 + 0x0008)
   1058 74 72              3744 	mov	a,#0x72
   105A F0                 3745 	movx	@dptr,a
                           3746 ;	genPointerSet
                           3747 ;     genFarPointerSet
   105B 90s01r38           3748 	mov	dptr,#(_GPIO_set_output_file_name_5_9 + 0x0009)
   105E 74 73              3749 	mov	a,#0x73
   1060 F0                 3750 	movx	@dptr,a
                           3751 ;	genPointerSet
                           3752 ;     genFarPointerSet
   1061 90s01r39           3753 	mov	dptr,#(_GPIO_set_output_file_name_5_9 + 0x000a)
   1064 74 2F              3754 	mov	a,#0x2F
   1066 F0                 3755 	movx	@dptr,a
                           3756 ;	genPointerSet
                           3757 ;     genFarPointerSet
   1067 90s01r3A           3758 	mov	dptr,#(_GPIO_set_output_file_name_5_9 + 0x000b)
   106A 74 43              3759 	mov	a,#0x43
   106C F0                 3760 	movx	@dptr,a
                           3761 ;	genPointerSet
                           3762 ;     genFarPointerSet
   106D 90s01r3B           3763 	mov	dptr,#(_GPIO_set_output_file_name_5_9 + 0x000c)
   1070 74 6F              3764 	mov	a,#0x6F
   1072 F0                 3765 	movx	@dptr,a
                           3766 ;	genPointerSet
                           3767 ;     genFarPointerSet
   1073 90s01r3C           3768 	mov	dptr,#(_GPIO_set_output_file_name_5_9 + 0x000d)
   1076 74 72              3769 	mov	a,#0x72
   1078 F0                 3770 	movx	@dptr,a
                           3771 ;	genPointerSet
                           3772 ;     genFarPointerSet
   1079 90s01r3D           3773 	mov	dptr,#(_GPIO_set_output_file_name_5_9 + 0x000e)
   107C 74 65              3774 	mov	a,#0x65
   107E F0                 3775 	movx	@dptr,a
                           3776 ;	genPointerSet
                           3777 ;     genFarPointerSet
   107F 90s01r3E           3778 	mov	dptr,#(_GPIO_set_output_file_name_5_9 + 0x000f)
   1082 74 47              3779 	mov	a,#0x47
   1084 F0                 3780 	movx	@dptr,a
                           3781 ;	genPointerSet
                           3782 ;     genFarPointerSet
   1085 90s01r3F           3783 	mov	dptr,#(_GPIO_set_output_file_name_5_9 + 0x0010)
   1088 74 50              3784 	mov	a,#0x50
   108A F0                 3785 	movx	@dptr,a
                           3786 ;	genPointerSet
                           3787 ;     genFarPointerSet
   108B 90s01r40           3788 	mov	dptr,#(_GPIO_set_output_file_name_5_9 + 0x0011)
   108E 74 49              3789 	mov	a,#0x49
   1090 F0                 3790 	movx	@dptr,a
                           3791 ;	genPointerSet
                           3792 ;     genFarPointerSet
   1091 90s01r41           3793 	mov	dptr,#(_GPIO_set_output_file_name_5_9 + 0x0012)
   1094 74 4F              3794 	mov	a,#0x4F
   1096 F0                 3795 	movx	@dptr,a
                           3796 ;	genPointerSet
                           3797 ;     genFarPointerSet
   1097 90s01r42           3798 	mov	dptr,#(_GPIO_set_output_file_name_5_9 + 0x0013)
   109A 74 2F              3799 	mov	a,#0x2F
   109C F0                 3800 	movx	@dptr,a
                           3801 ;	genPointerSet
                           3802 ;     genFarPointerSet
   109D 90s01r43           3803 	mov	dptr,#(_GPIO_set_output_file_name_5_9 + 0x0014)
   10A0 74 63              3804 	mov	a,#0x63
   10A2 F0                 3805 	movx	@dptr,a
                           3806 ;	genPointerSet
                           3807 ;     genFarPointerSet
   10A3 90s01r44           3808 	mov	dptr,#(_GPIO_set_output_file_name_5_9 + 0x0015)
   10A6 74 6F              3809 	mov	a,#0x6F
   10A8 F0                 3810 	movx	@dptr,a
                           3811 ;	genPointerSet
                           3812 ;     genFarPointerSet
   10A9 90s01r45           3813 	mov	dptr,#(_GPIO_set_output_file_name_5_9 + 0x0016)
   10AC 74 72              3814 	mov	a,#0x72
   10AE F0                 3815 	movx	@dptr,a
                           3816 ;	genPointerSet
                           3817 ;     genFarPointerSet
   10AF 90s01r46           3818 	mov	dptr,#(_GPIO_set_output_file_name_5_9 + 0x0017)
   10B2 74 65              3819 	mov	a,#0x65
   10B4 F0                 3820 	movx	@dptr,a
                           3821 ;	genPointerSet
                           3822 ;     genFarPointerSet
   10B5 90s01r47           3823 	mov	dptr,#(_GPIO_set_output_file_name_5_9 + 0x0018)
   10B8 74 5F              3824 	mov	a,#0x5F
   10BA F0                 3825 	movx	@dptr,a
                           3826 ;	genPointerSet
                           3827 ;     genFarPointerSet
   10BB 90s01r48           3828 	mov	dptr,#(_GPIO_set_output_file_name_5_9 + 0x0019)
   10BE 74 67              3829 	mov	a,#0x67
   10C0 F0                 3830 	movx	@dptr,a
                           3831 ;	genPointerSet
                           3832 ;     genFarPointerSet
   10C1 90s01r49           3833 	mov	dptr,#(_GPIO_set_output_file_name_5_9 + 0x001a)
   10C4 74 70              3834 	mov	a,#0x70
   10C6 F0                 3835 	movx	@dptr,a
                           3836 ;	genPointerSet
                           3837 ;     genFarPointerSet
   10C7 90s01r4A           3838 	mov	dptr,#(_GPIO_set_output_file_name_5_9 + 0x001b)
   10CA 74 69              3839 	mov	a,#0x69
   10CC F0                 3840 	movx	@dptr,a
                           3841 ;	genPointerSet
                           3842 ;     genFarPointerSet
   10CD 90s01r4B           3843 	mov	dptr,#(_GPIO_set_output_file_name_5_9 + 0x001c)
   10D0 74 6F              3844 	mov	a,#0x6F
   10D2 F0                 3845 	movx	@dptr,a
                           3846 ;	genPointerSet
                           3847 ;     genFarPointerSet
   10D3 90s01r4C           3848 	mov	dptr,#(_GPIO_set_output_file_name_5_9 + 0x001d)
   10D6 74 2E              3849 	mov	a,#0x2E
   10D8 F0                 3850 	movx	@dptr,a
                           3851 ;	genPointerSet
                           3852 ;     genFarPointerSet
   10D9 90s01r4D           3853 	mov	dptr,#(_GPIO_set_output_file_name_5_9 + 0x001e)
   10DC 74 63              3854 	mov	a,#0x63
   10DE F0                 3855 	movx	@dptr,a
                           3856 ;	genPointerSet
                           3857 ;     genFarPointerSet
   10DF 90s01r4E           3858 	mov	dptr,#(_GPIO_set_output_file_name_5_9 + 0x001f)
   10E2 74 00              3859 	mov	a,#0x00
   10E4 F0                 3860 	movx	@dptr,a
                           3861 ;	genAssign
   10E5 90s00r00           3862 	mov	dptr,#_HAL_assert_fail_PARM_2
   10E8 74 04              3863 	mov	a,#0x04
   10EA F0                 3864 	movx	@dptr,a
   10EB A3                 3865 	inc	dptr
   10EC 74 01              3866 	mov	a,#0x01
   10EE F0                 3867 	movx	@dptr,a
   10EF A3                 3868 	inc	dptr
   10F0 74 00              3869 	mov	a,#0x00
   10F2 F0                 3870 	movx	@dptr,a
   10F3 A3                 3871 	inc	dptr
   10F4 74 00              3872 	mov	a,#0x00
   10F6 F0                 3873 	movx	@dptr,a
                           3874 ;	genCall
   10F7 75 82r2F           3875 	mov	dpl,#_GPIO_set_output_file_name_5_9
   10FA 75 83s01           3876 	mov	dph,#(_GPIO_set_output_file_name_5_9 >> 8)
   10FD 75 F0 00           3877 	mov	b,#0x00
   1100 12s00r00           3878 	lcall	_HAL_assert_fail
                    1103   3879 	C$core_gpio.c$262$2$4 ==.
                           3880 ;	../drivers/CoreGPIO/core_gpio.c:262: break;
   1103 02s15r5B           3881 	ljmp	00140$
                    1106   3882 	C$core_gpio.c$264$2$4 ==.
                           3883 ;	../drivers/CoreGPIO/core_gpio.c:264: case GPIO_APB_16_BITS_BUS:
   1106                    3884 00115$:
                    1106   3885 	C$core_gpio.c$267$3$10 ==.
                           3886 ;	../drivers/CoreGPIO/core_gpio.c:267: uint32_t gpio_out_reg_addr = this_gpio->base_addr + GPIO_OUT_REG_OFFSET + ((port_id >> 4) * 4);
                           3887 ;	genPointerGet
                           3888 ;	genGenPointerGet
   1106 8B 82              3889 	mov	dpl,r3
   1108 8C 83              3890 	mov	dph,r4
   110A 8D F0              3891 	mov	b,r5
   110C 12s00r00           3892 	lcall	__gptrget
   110F FE                 3893 	mov	r6,a
   1110 A3                 3894 	inc	dptr
   1111 12s00r00           3895 	lcall	__gptrget
   1114 FF                 3896 	mov	r7,a
                           3897 ;	genPlus
                           3898 ;	genPlusIncr
   1115 74 A0              3899 	mov	a,#0xA0
   1117 25 06              3900 	add	a,ar6
   1119 FE                 3901 	mov	r6,a
   111A 74 00              3902 	mov	a,#0x00
   111C 35 07              3903 	addc	a,ar7
   111E FF                 3904 	mov	r7,a
                           3905 ;	genRightShift
                           3906 ;	genRightShiftLiteral
                           3907 ;	genrshOne
   111F EA                 3908 	mov	a,r2
   1120 C4                 3909 	swap	a
   1121 54 0F              3910 	anl	a,#0x0f
   1123 F8                 3911 	mov	r0,a
                           3912 ;	genMult
                           3913 ;	genMultOneByte
   1124 E8                 3914 	mov	a,r0
   1125 75 F0 04           3915 	mov	b,#0x04
   1128 A4                 3916 	mul	ab
                           3917 ;	genPlus
   1129 25 06              3918 	add	a,ar6
   112B FE                 3919 	mov	r6,a
   112C E5 07              3920 	mov	a,ar7
   112E 35 F0              3921 	addc	a,b
   1130 FF                 3922 	mov	r7,a
                           3923 ;	genCast
   1131 78 00              3924 	mov	r0,#0x00
   1133 79 00              3925 	mov	r1,#0x00
                    1135   3926 	C$core_gpio.c$269$3$10 ==.
                           3927 ;	../drivers/CoreGPIO/core_gpio.c:269: outputs_state = HW_get_16bit_reg( gpio_out_reg_addr );
                           3928 ;	genCast
                           3929 ;	genCall
   1135 8E 82              3930 	mov	dpl,r6
   1137 8F 83              3931 	mov	dph,r7
   1139 C0 02              3932 	push	ar2
   113B C0 06              3933 	push	ar6
   113D C0 07              3934 	push	ar7
   113F 12s00r00           3935 	lcall	_HW_get_16bit_reg
   1142 A8 82              3936 	mov	r0,dpl
   1144 A9 83              3937 	mov	r1,dph
   1146 D0 07              3938 	pop	ar7
   1148 D0 06              3939 	pop	ar6
   114A D0 02              3940 	pop	ar2
                    114C   3941 	C$core_gpio.c$270$1$1 ==.
                           3942 ;	../drivers/CoreGPIO/core_gpio.c:270: if ( 0 == value )
                           3943 ;	genIpush
   114C C0 02              3944 	push	ar2
                           3945 ;	genAssign
   114E 90s01r07           3946 	mov	dptr,#_GPIO_set_output_PARM_3
   1151 E0                 3947 	movx	a,@dptr
   1152 FA                 3948 	mov	r2,a
                           3949 ;	genCmpEq
                           3950 ;	gencjne
                           3951 ;	gencjneshort
   1153 BA 00 04           3952 	cjne	r2,#0x00,00166$
   1156 74 01              3953 	mov	a,#0x01
   1158 80 01              3954 	sjmp	00167$
   115A                    3955 00166$:
   115A E4                 3956 	clr	a
   115B                    3957 00167$:
                           3958 ;	genIpop
   115B D0 02              3959 	pop	ar2
                           3960 ;	genIfx
                           3961 ;	genIfxJump
   115D 70 03              3962 	jnz	00168$
   115F 02s11r95           3963 	ljmp	00117$
   1162                    3964 00168$:
                    1162   3965 	C$core_gpio.c$272$1$1 ==.
                           3966 ;	../drivers/CoreGPIO/core_gpio.c:272: outputs_state &= ~(1 << (port_id & 0x0F));
                           3967 ;	genIpush
   1162 C0 06              3968 	push	ar6
   1164 C0 07              3969 	push	ar7
                           3970 ;	genAnd
   1166 74 0F              3971 	mov	a,#0x0F
   1168 5A                 3972 	anl	a,r2
   1169 FE                 3973 	mov	r6,a
                           3974 ;	genLeftShift
   116A 8E F0              3975 	mov	b,r6
   116C 05 F0              3976 	inc	b
   116E 7E 01              3977 	mov	r6,#0x01
   1170 7F 00              3978 	mov	r7,#0x00
   1172 80 07              3979 	sjmp	00170$
   1174                    3980 00169$:
   1174 EE                 3981 	mov	a,r6
   1175 25 E0              3982 	add	a,acc
   1177 FE                 3983 	mov	r6,a
   1178 EF                 3984 	mov	a,r7
   1179 33                 3985 	rlc	a
   117A FF                 3986 	mov	r7,a
   117B                    3987 00170$:
   117B D5 F0 F6           3988 	djnz	b,00169$
                           3989 ;	genCpl
   117E EE                 3990 	mov	a,r6
   117F F4                 3991 	cpl	a
   1180 FE                 3992 	mov	r6,a
   1181 EF                 3993 	mov	a,r7
   1182 F4                 3994 	cpl	a
   1183 FF                 3995 	mov	r7,a
                           3996 ;	genAnd
   1184 90s01r4F           3997 	mov	dptr,#_GPIO_set_output_outputs_state_3_10
   1187 EE                 3998 	mov	a,r6
   1188 58                 3999 	anl	a,r0
   1189 F0                 4000 	movx	@dptr,a
   118A EF                 4001 	mov	a,r7
   118B 59                 4002 	anl	a,r1
   118C A3                 4003 	inc	dptr
   118D F0                 4004 	movx	@dptr,a
                           4005 ;	genIpop
   118E D0 07              4006 	pop	ar7
   1190 D0 06              4007 	pop	ar6
   1192 02s11rBF           4008 	ljmp	00118$
   1195                    4009 00117$:
                    1195   4010 	C$core_gpio.c$276$1$1 ==.
                           4011 ;	../drivers/CoreGPIO/core_gpio.c:276: outputs_state |= 1 << (port_id & 0x0F);
                           4012 ;	genIpush
   1195 C0 06              4013 	push	ar6
   1197 C0 07              4014 	push	ar7
                           4015 ;	genAnd
   1199 74 0F              4016 	mov	a,#0x0F
   119B 5A                 4017 	anl	a,r2
   119C FE                 4018 	mov	r6,a
                           4019 ;	genLeftShift
   119D 8E F0              4020 	mov	b,r6
   119F 05 F0              4021 	inc	b
   11A1 7E 01              4022 	mov	r6,#0x01
   11A3 7F 00              4023 	mov	r7,#0x00
   11A5 80 07              4024 	sjmp	00172$
   11A7                    4025 00171$:
   11A7 EE                 4026 	mov	a,r6
   11A8 25 E0              4027 	add	a,acc
   11AA FE                 4028 	mov	r6,a
   11AB EF                 4029 	mov	a,r7
   11AC 33                 4030 	rlc	a
   11AD FF                 4031 	mov	r7,a
   11AE                    4032 00172$:
   11AE D5 F0 F6           4033 	djnz	b,00171$
                           4034 ;	genOr
   11B1 90s01r4F           4035 	mov	dptr,#_GPIO_set_output_outputs_state_3_10
   11B4 EE                 4036 	mov	a,r6
   11B5 48                 4037 	orl	a,r0
   11B6 F0                 4038 	movx	@dptr,a
   11B7 EF                 4039 	mov	a,r7
   11B8 49                 4040 	orl	a,r1
   11B9 A3                 4041 	inc	dptr
   11BA F0                 4042 	movx	@dptr,a
                    11BB   4043 	C$core_gpio.c$321$1$1 ==.
                           4044 ;	../drivers/CoreGPIO/core_gpio.c:321: }
                           4045 ;	genIpop
   11BB D0 07              4046 	pop	ar7
   11BD D0 06              4047 	pop	ar6
                    11BF   4048 	C$core_gpio.c$276$3$10 ==.
                           4049 ;	../drivers/CoreGPIO/core_gpio.c:276: outputs_state |= 1 << (port_id & 0x0F);
   11BF                    4050 00118$:
                    11BF   4051 	C$core_gpio.c$278$3$10 ==.
                           4052 ;	../drivers/CoreGPIO/core_gpio.c:278: HW_set_16bit_reg( gpio_out_reg_addr, outputs_state );
                           4053 ;	genAssign
   11BF 90s01r4F           4054 	mov	dptr,#_GPIO_set_output_outputs_state_3_10
   11C2 E0                 4055 	movx	a,@dptr
   11C3 F8                 4056 	mov	r0,a
   11C4 A3                 4057 	inc	dptr
   11C5 E0                 4058 	movx	a,@dptr
   11C6 F9                 4059 	mov	r1,a
                           4060 ;	genAssign
   11C7 90s00r00           4061 	mov	dptr,#_HW_set_16bit_reg_PARM_2
   11CA E8                 4062 	mov	a,r0
   11CB F0                 4063 	movx	@dptr,a
   11CC A3                 4064 	inc	dptr
   11CD E9                 4065 	mov	a,r1
   11CE F0                 4066 	movx	@dptr,a
                           4067 ;	genCall
   11CF 8E 82              4068 	mov	dpl,r6
   11D1 8F 83              4069 	mov	dph,r7
   11D3 C0 06              4070 	push	ar6
   11D5 C0 07              4071 	push	ar7
   11D7 C0 00              4072 	push	ar0
   11D9 C0 01              4073 	push	ar1
   11DB 12s00r00           4074 	lcall	_HW_set_16bit_reg
   11DE D0 01              4075 	pop	ar1
   11E0 D0 00              4076 	pop	ar0
   11E2 D0 07              4077 	pop	ar7
   11E4 D0 06              4078 	pop	ar6
                    11E6   4079 	C$core_gpio.c$287$4$13 ==.
                           4080 ;	../drivers/CoreGPIO/core_gpio.c:287: HAL_ASSERT( HW_get_16bit_reg( gpio_out_reg_addr ) == outputs_state );
                           4081 ;	genCall
   11E6 8E 82              4082 	mov	dpl,r6
   11E8 8F 83              4083 	mov	dph,r7
   11EA C0 00              4084 	push	ar0
   11EC C0 01              4085 	push	ar1
   11EE 12s00r00           4086 	lcall	_HW_get_16bit_reg
   11F1 AE 82              4087 	mov	r6,dpl
   11F3 AF 83              4088 	mov	r7,dph
   11F5 D0 01              4089 	pop	ar1
   11F7 D0 00              4090 	pop	ar0
                           4091 ;	genCmpEq
                           4092 ;	gencjneshort
   11F9 EE                 4093 	mov	a,r6
   11FA B5 00 07           4094 	cjne	a,ar0,00173$
   11FD EF                 4095 	mov	a,r7
   11FE B5 01 03           4096 	cjne	a,ar1,00173$
   1201 02s15r5B           4097 	ljmp	00140$
   1204                    4098 00173$:
                           4099 ;	genPointerSet
                           4100 ;     genFarPointerSet
   1204 90s01r51           4101 	mov	dptr,#_GPIO_set_output_file_name_5_14
   1207 74 2E              4102 	mov	a,#0x2E
   1209 F0                 4103 	movx	@dptr,a
                           4104 ;	genPointerSet
                           4105 ;     genFarPointerSet
   120A 90s01r52           4106 	mov	dptr,#(_GPIO_set_output_file_name_5_14 + 0x0001)
   120D 74 2E              4107 	mov	a,#0x2E
   120F F0                 4108 	movx	@dptr,a
                           4109 ;	genPointerSet
                           4110 ;     genFarPointerSet
   1210 90s01r53           4111 	mov	dptr,#(_GPIO_set_output_file_name_5_14 + 0x0002)
   1213 74 2F              4112 	mov	a,#0x2F
   1215 F0                 4113 	movx	@dptr,a
                           4114 ;	genPointerSet
                           4115 ;     genFarPointerSet
   1216 90s01r54           4116 	mov	dptr,#(_GPIO_set_output_file_name_5_14 + 0x0003)
   1219 74 64              4117 	mov	a,#0x64
   121B F0                 4118 	movx	@dptr,a
                           4119 ;	genPointerSet
                           4120 ;     genFarPointerSet
   121C 90s01r55           4121 	mov	dptr,#(_GPIO_set_output_file_name_5_14 + 0x0004)
   121F 74 72              4122 	mov	a,#0x72
   1221 F0                 4123 	movx	@dptr,a
                           4124 ;	genPointerSet
                           4125 ;     genFarPointerSet
   1222 90s01r56           4126 	mov	dptr,#(_GPIO_set_output_file_name_5_14 + 0x0005)
   1225 74 69              4127 	mov	a,#0x69
   1227 F0                 4128 	movx	@dptr,a
                           4129 ;	genPointerSet
                           4130 ;     genFarPointerSet
   1228 90s01r57           4131 	mov	dptr,#(_GPIO_set_output_file_name_5_14 + 0x0006)
   122B 74 76              4132 	mov	a,#0x76
   122D F0                 4133 	movx	@dptr,a
                           4134 ;	genPointerSet
                           4135 ;     genFarPointerSet
   122E 90s01r58           4136 	mov	dptr,#(_GPIO_set_output_file_name_5_14 + 0x0007)
   1231 74 65              4137 	mov	a,#0x65
   1233 F0                 4138 	movx	@dptr,a
                           4139 ;	genPointerSet
                           4140 ;     genFarPointerSet
   1234 90s01r59           4141 	mov	dptr,#(_GPIO_set_output_file_name_5_14 + 0x0008)
   1237 74 72              4142 	mov	a,#0x72
   1239 F0                 4143 	movx	@dptr,a
                           4144 ;	genPointerSet
                           4145 ;     genFarPointerSet
   123A 90s01r5A           4146 	mov	dptr,#(_GPIO_set_output_file_name_5_14 + 0x0009)
   123D 74 73              4147 	mov	a,#0x73
   123F F0                 4148 	movx	@dptr,a
                           4149 ;	genPointerSet
                           4150 ;     genFarPointerSet
   1240 90s01r5B           4151 	mov	dptr,#(_GPIO_set_output_file_name_5_14 + 0x000a)
   1243 74 2F              4152 	mov	a,#0x2F
   1245 F0                 4153 	movx	@dptr,a
                           4154 ;	genPointerSet
                           4155 ;     genFarPointerSet
   1246 90s01r5C           4156 	mov	dptr,#(_GPIO_set_output_file_name_5_14 + 0x000b)
   1249 74 43              4157 	mov	a,#0x43
   124B F0                 4158 	movx	@dptr,a
                           4159 ;	genPointerSet
                           4160 ;     genFarPointerSet
   124C 90s01r5D           4161 	mov	dptr,#(_GPIO_set_output_file_name_5_14 + 0x000c)
   124F 74 6F              4162 	mov	a,#0x6F
   1251 F0                 4163 	movx	@dptr,a
                           4164 ;	genPointerSet
                           4165 ;     genFarPointerSet
   1252 90s01r5E           4166 	mov	dptr,#(_GPIO_set_output_file_name_5_14 + 0x000d)
   1255 74 72              4167 	mov	a,#0x72
   1257 F0                 4168 	movx	@dptr,a
                           4169 ;	genPointerSet
                           4170 ;     genFarPointerSet
   1258 90s01r5F           4171 	mov	dptr,#(_GPIO_set_output_file_name_5_14 + 0x000e)
   125B 74 65              4172 	mov	a,#0x65
   125D F0                 4173 	movx	@dptr,a
                           4174 ;	genPointerSet
                           4175 ;     genFarPointerSet
   125E 90s01r60           4176 	mov	dptr,#(_GPIO_set_output_file_name_5_14 + 0x000f)
   1261 74 47              4177 	mov	a,#0x47
   1263 F0                 4178 	movx	@dptr,a
                           4179 ;	genPointerSet
                           4180 ;     genFarPointerSet
   1264 90s01r61           4181 	mov	dptr,#(_GPIO_set_output_file_name_5_14 + 0x0010)
   1267 74 50              4182 	mov	a,#0x50
   1269 F0                 4183 	movx	@dptr,a
                           4184 ;	genPointerSet
                           4185 ;     genFarPointerSet
   126A 90s01r62           4186 	mov	dptr,#(_GPIO_set_output_file_name_5_14 + 0x0011)
   126D 74 49              4187 	mov	a,#0x49
   126F F0                 4188 	movx	@dptr,a
                           4189 ;	genPointerSet
                           4190 ;     genFarPointerSet
   1270 90s01r63           4191 	mov	dptr,#(_GPIO_set_output_file_name_5_14 + 0x0012)
   1273 74 4F              4192 	mov	a,#0x4F
   1275 F0                 4193 	movx	@dptr,a
                           4194 ;	genPointerSet
                           4195 ;     genFarPointerSet
   1276 90s01r64           4196 	mov	dptr,#(_GPIO_set_output_file_name_5_14 + 0x0013)
   1279 74 2F              4197 	mov	a,#0x2F
   127B F0                 4198 	movx	@dptr,a
                           4199 ;	genPointerSet
                           4200 ;     genFarPointerSet
   127C 90s01r65           4201 	mov	dptr,#(_GPIO_set_output_file_name_5_14 + 0x0014)
   127F 74 63              4202 	mov	a,#0x63
   1281 F0                 4203 	movx	@dptr,a
                           4204 ;	genPointerSet
                           4205 ;     genFarPointerSet
   1282 90s01r66           4206 	mov	dptr,#(_GPIO_set_output_file_name_5_14 + 0x0015)
   1285 74 6F              4207 	mov	a,#0x6F
   1287 F0                 4208 	movx	@dptr,a
                           4209 ;	genPointerSet
                           4210 ;     genFarPointerSet
   1288 90s01r67           4211 	mov	dptr,#(_GPIO_set_output_file_name_5_14 + 0x0016)
   128B 74 72              4212 	mov	a,#0x72
   128D F0                 4213 	movx	@dptr,a
                           4214 ;	genPointerSet
                           4215 ;     genFarPointerSet
   128E 90s01r68           4216 	mov	dptr,#(_GPIO_set_output_file_name_5_14 + 0x0017)
   1291 74 65              4217 	mov	a,#0x65
   1293 F0                 4218 	movx	@dptr,a
                           4219 ;	genPointerSet
                           4220 ;     genFarPointerSet
   1294 90s01r69           4221 	mov	dptr,#(_GPIO_set_output_file_name_5_14 + 0x0018)
   1297 74 5F              4222 	mov	a,#0x5F
   1299 F0                 4223 	movx	@dptr,a
                           4224 ;	genPointerSet
                           4225 ;     genFarPointerSet
   129A 90s01r6A           4226 	mov	dptr,#(_GPIO_set_output_file_name_5_14 + 0x0019)
   129D 74 67              4227 	mov	a,#0x67
   129F F0                 4228 	movx	@dptr,a
                           4229 ;	genPointerSet
                           4230 ;     genFarPointerSet
   12A0 90s01r6B           4231 	mov	dptr,#(_GPIO_set_output_file_name_5_14 + 0x001a)
   12A3 74 70              4232 	mov	a,#0x70
   12A5 F0                 4233 	movx	@dptr,a
                           4234 ;	genPointerSet
                           4235 ;     genFarPointerSet
   12A6 90s01r6C           4236 	mov	dptr,#(_GPIO_set_output_file_name_5_14 + 0x001b)
   12A9 74 69              4237 	mov	a,#0x69
   12AB F0                 4238 	movx	@dptr,a
                           4239 ;	genPointerSet
                           4240 ;     genFarPointerSet
   12AC 90s01r6D           4241 	mov	dptr,#(_GPIO_set_output_file_name_5_14 + 0x001c)
   12AF 74 6F              4242 	mov	a,#0x6F
   12B1 F0                 4243 	movx	@dptr,a
                           4244 ;	genPointerSet
                           4245 ;     genFarPointerSet
   12B2 90s01r6E           4246 	mov	dptr,#(_GPIO_set_output_file_name_5_14 + 0x001d)
   12B5 74 2E              4247 	mov	a,#0x2E
   12B7 F0                 4248 	movx	@dptr,a
                           4249 ;	genPointerSet
                           4250 ;     genFarPointerSet
   12B8 90s01r6F           4251 	mov	dptr,#(_GPIO_set_output_file_name_5_14 + 0x001e)
   12BB 74 63              4252 	mov	a,#0x63
   12BD F0                 4253 	movx	@dptr,a
                           4254 ;	genPointerSet
                           4255 ;     genFarPointerSet
   12BE 90s01r70           4256 	mov	dptr,#(_GPIO_set_output_file_name_5_14 + 0x001f)
   12C1 74 00              4257 	mov	a,#0x00
   12C3 F0                 4258 	movx	@dptr,a
                           4259 ;	genAssign
   12C4 90s00r00           4260 	mov	dptr,#_HAL_assert_fail_PARM_2
   12C7 74 1F              4261 	mov	a,#0x1F
   12C9 F0                 4262 	movx	@dptr,a
   12CA A3                 4263 	inc	dptr
   12CB 74 01              4264 	mov	a,#0x01
   12CD F0                 4265 	movx	@dptr,a
   12CE A3                 4266 	inc	dptr
   12CF 74 00              4267 	mov	a,#0x00
   12D1 F0                 4268 	movx	@dptr,a
   12D2 A3                 4269 	inc	dptr
   12D3 74 00              4270 	mov	a,#0x00
   12D5 F0                 4271 	movx	@dptr,a
                           4272 ;	genCall
   12D6 75 82r51           4273 	mov	dpl,#_GPIO_set_output_file_name_5_14
   12D9 75 83s01           4274 	mov	dph,#(_GPIO_set_output_file_name_5_14 >> 8)
   12DC 75 F0 00           4275 	mov	b,#0x00
   12DF 12s00r00           4276 	lcall	_HAL_assert_fail
                    12E2   4277 	C$core_gpio.c$289$2$4 ==.
                           4278 ;	../drivers/CoreGPIO/core_gpio.c:289: break;
   12E2 02s15r5B           4279 	ljmp	00140$
                    12E5   4280 	C$core_gpio.c$291$2$4 ==.
                           4281 ;	../drivers/CoreGPIO/core_gpio.c:291: case GPIO_APB_8_BITS_BUS:
   12E5                    4282 00124$:
                    12E5   4283 	C$core_gpio.c$294$3$15 ==.
                           4284 ;	../drivers/CoreGPIO/core_gpio.c:294: uint32_t gpio_out_reg_addr = this_gpio->base_addr + GPIO_OUT_REG_OFFSET + ((port_id >> 3) * 4);
                           4285 ;	genPointerGet
                           4286 ;	genGenPointerGet
   12E5 8B 82              4287 	mov	dpl,r3
   12E7 8C 83              4288 	mov	dph,r4
   12E9 8D F0              4289 	mov	b,r5
   12EB 12s00r00           4290 	lcall	__gptrget
   12EE FB                 4291 	mov	r3,a
   12EF A3                 4292 	inc	dptr
   12F0 12s00r00           4293 	lcall	__gptrget
   12F3 FC                 4294 	mov	r4,a
                           4295 ;	genPlus
                           4296 ;	genPlusIncr
   12F4 74 A0              4297 	mov	a,#0xA0
   12F6 25 03              4298 	add	a,ar3
   12F8 FB                 4299 	mov	r3,a
   12F9 74 00              4300 	mov	a,#0x00
   12FB 35 04              4301 	addc	a,ar4
   12FD FC                 4302 	mov	r4,a
                           4303 ;	genRightShift
                           4304 ;	genRightShiftLiteral
                           4305 ;	genrshOne
   12FE EA                 4306 	mov	a,r2
   12FF C4                 4307 	swap	a
   1300 23                 4308 	rl	a
   1301 54 1F              4309 	anl	a,#0x1f
   1303 FD                 4310 	mov	r5,a
                           4311 ;	genMult
                           4312 ;	genMultOneByte
   1304 ED                 4313 	mov	a,r5
   1305 75 F0 04           4314 	mov	b,#0x04
   1308 A4                 4315 	mul	ab
                           4316 ;	genPlus
   1309 25 03              4317 	add	a,ar3
   130B FB                 4318 	mov	r3,a
   130C E5 04              4319 	mov	a,ar4
   130E 35 F0              4320 	addc	a,b
   1310 FC                 4321 	mov	r4,a
                           4322 ;	genCast
   1311 7D 00              4323 	mov	r5,#0x00
   1313 7E 00              4324 	mov	r6,#0x00
                    1315   4325 	C$core_gpio.c$296$3$15 ==.
                           4326 ;	../drivers/CoreGPIO/core_gpio.c:296: outputs_state = HW_get_8bit_reg( gpio_out_reg_addr );
                           4327 ;	genCast
                           4328 ;	genCall
   1315 8B 82              4329 	mov	dpl,r3
   1317 8C 83              4330 	mov	dph,r4
   1319 C0 02              4331 	push	ar2
   131B C0 03              4332 	push	ar3
   131D C0 04              4333 	push	ar4
   131F 12s00r00           4334 	lcall	_HW_get_8bit_reg
   1322 AD 82              4335 	mov	r5,dpl
   1324 D0 04              4336 	pop	ar4
   1326 D0 03              4337 	pop	ar3
   1328 D0 02              4338 	pop	ar2
                    132A   4339 	C$core_gpio.c$297$3$15 ==.
                           4340 ;	../drivers/CoreGPIO/core_gpio.c:297: if ( 0 == value )
                           4341 ;	genAssign
   132A 90s01r07           4342 	mov	dptr,#_GPIO_set_output_PARM_3
   132D E0                 4343 	movx	a,@dptr
   132E FE                 4344 	mov	r6,a
                           4345 ;	genCmpEq
                           4346 ;	gencjneshort
   132F BE 00 02           4347 	cjne	r6,#0x00,00174$
   1332 80 03              4348 	sjmp	00175$
   1334                    4349 00174$:
   1334 02s13r54           4350 	ljmp	00126$
   1337                    4351 00175$:
                    1337   4352 	C$core_gpio.c$299$4$16 ==.
                           4353 ;	../drivers/CoreGPIO/core_gpio.c:299: outputs_state &= ~(1 << (port_id & 0x07));
                           4354 ;	genAnd
   1337 74 07              4355 	mov	a,#0x07
   1339 5A                 4356 	anl	a,r2
                           4357 ;	genLeftShift
   133A F5 F0              4358 	mov	b,a
   133C 05 F0              4359 	inc	b
   133E 74 01              4360 	mov	a,#0x01
   1340 80 02              4361 	sjmp	00178$
   1342                    4362 00176$:
   1342 25 E0              4363 	add	a,acc
   1344                    4364 00178$:
   1344 D5 F0 FB           4365 	djnz	b,00176$
   1347 FE                 4366 	mov	r6,a
                           4367 ;	genCpl
   1348 EE                 4368 	mov	a,r6
   1349 F4                 4369 	cpl	a
   134A FE                 4370 	mov	r6,a
                           4371 ;	genAnd
   134B 90s01r71           4372 	mov	dptr,#_GPIO_set_output_outputs_state_3_15
   134E EE                 4373 	mov	a,r6
   134F 5D                 4374 	anl	a,r5
   1350 F0                 4375 	movx	@dptr,a
   1351 02s13r6B           4376 	ljmp	00127$
   1354                    4377 00126$:
                    1354   4378 	C$core_gpio.c$303$4$17 ==.
                           4379 ;	../drivers/CoreGPIO/core_gpio.c:303: outputs_state |= 1 << (port_id & 0x07);
                           4380 ;	genAnd
   1354 74 07              4381 	mov	a,#0x07
   1356 5A                 4382 	anl	a,r2
                           4383 ;	genLeftShift
   1357 F5 F0              4384 	mov	b,a
   1359 05 F0              4385 	inc	b
   135B 74 01              4386 	mov	a,#0x01
   135D 80 02              4387 	sjmp	00181$
   135F                    4388 00179$:
   135F 25 E0              4389 	add	a,acc
   1361                    4390 00181$:
   1361 D5 F0 FB           4391 	djnz	b,00179$
   1364 FA                 4392 	mov	r2,a
                           4393 ;	genOr
   1365 90s01r71           4394 	mov	dptr,#_GPIO_set_output_outputs_state_3_15
   1368 EA                 4395 	mov	a,r2
   1369 4D                 4396 	orl	a,r5
   136A F0                 4397 	movx	@dptr,a
   136B                    4398 00127$:
                    136B   4399 	C$core_gpio.c$305$3$15 ==.
                           4400 ;	../drivers/CoreGPIO/core_gpio.c:305: HW_set_8bit_reg( gpio_out_reg_addr, outputs_state );
                           4401 ;	genAssign
   136B 90s01r71           4402 	mov	dptr,#_GPIO_set_output_outputs_state_3_15
   136E E0                 4403 	movx	a,@dptr
   136F FA                 4404 	mov	r2,a
                           4405 ;	genAssign
   1370 90s00r00           4406 	mov	dptr,#_HW_set_8bit_reg_PARM_2
   1373 EA                 4407 	mov	a,r2
   1374 F0                 4408 	movx	@dptr,a
                           4409 ;	genCall
   1375 8B 82              4410 	mov	dpl,r3
   1377 8C 83              4411 	mov	dph,r4
   1379 C0 02              4412 	push	ar2
   137B C0 03              4413 	push	ar3
   137D C0 04              4414 	push	ar4
   137F 12s00r00           4415 	lcall	_HW_set_8bit_reg
   1382 D0 04              4416 	pop	ar4
   1384 D0 03              4417 	pop	ar3
   1386 D0 02              4418 	pop	ar2
                    1388   4419 	C$core_gpio.c$314$4$18 ==.
                           4420 ;	../drivers/CoreGPIO/core_gpio.c:314: HAL_ASSERT( HW_get_8bit_reg( gpio_out_reg_addr ) == outputs_state );
                           4421 ;	genCall
   1388 8B 82              4422 	mov	dpl,r3
   138A 8C 83              4423 	mov	dph,r4
   138C C0 02              4424 	push	ar2
   138E 12s00r00           4425 	lcall	_HW_get_8bit_reg
   1391 AB 82              4426 	mov	r3,dpl
   1393 D0 02              4427 	pop	ar2
                           4428 ;	genCmpEq
                           4429 ;	gencjneshort
   1395 EB                 4430 	mov	a,r3
   1396 B5 02 03           4431 	cjne	a,ar2,00182$
   1399 02s15r5B           4432 	ljmp	00140$
   139C                    4433 00182$:
                           4434 ;	genPointerSet
                           4435 ;     genFarPointerSet
   139C 90s01r72           4436 	mov	dptr,#_GPIO_set_output_file_name_5_19
   139F 74 2E              4437 	mov	a,#0x2E
   13A1 F0                 4438 	movx	@dptr,a
                           4439 ;	genPointerSet
                           4440 ;     genFarPointerSet
   13A2 90s01r73           4441 	mov	dptr,#(_GPIO_set_output_file_name_5_19 + 0x0001)
   13A5 74 2E              4442 	mov	a,#0x2E
   13A7 F0                 4443 	movx	@dptr,a
                           4444 ;	genPointerSet
                           4445 ;     genFarPointerSet
   13A8 90s01r74           4446 	mov	dptr,#(_GPIO_set_output_file_name_5_19 + 0x0002)
   13AB 74 2F              4447 	mov	a,#0x2F
   13AD F0                 4448 	movx	@dptr,a
                           4449 ;	genPointerSet
                           4450 ;     genFarPointerSet
   13AE 90s01r75           4451 	mov	dptr,#(_GPIO_set_output_file_name_5_19 + 0x0003)
   13B1 74 64              4452 	mov	a,#0x64
   13B3 F0                 4453 	movx	@dptr,a
                           4454 ;	genPointerSet
                           4455 ;     genFarPointerSet
   13B4 90s01r76           4456 	mov	dptr,#(_GPIO_set_output_file_name_5_19 + 0x0004)
   13B7 74 72              4457 	mov	a,#0x72
   13B9 F0                 4458 	movx	@dptr,a
                           4459 ;	genPointerSet
                           4460 ;     genFarPointerSet
   13BA 90s01r77           4461 	mov	dptr,#(_GPIO_set_output_file_name_5_19 + 0x0005)
   13BD 74 69              4462 	mov	a,#0x69
   13BF F0                 4463 	movx	@dptr,a
                           4464 ;	genPointerSet
                           4465 ;     genFarPointerSet
   13C0 90s01r78           4466 	mov	dptr,#(_GPIO_set_output_file_name_5_19 + 0x0006)
   13C3 74 76              4467 	mov	a,#0x76
   13C5 F0                 4468 	movx	@dptr,a
                           4469 ;	genPointerSet
                           4470 ;     genFarPointerSet
   13C6 90s01r79           4471 	mov	dptr,#(_GPIO_set_output_file_name_5_19 + 0x0007)
   13C9 74 65              4472 	mov	a,#0x65
   13CB F0                 4473 	movx	@dptr,a
                           4474 ;	genPointerSet
                           4475 ;     genFarPointerSet
   13CC 90s01r7A           4476 	mov	dptr,#(_GPIO_set_output_file_name_5_19 + 0x0008)
   13CF 74 72              4477 	mov	a,#0x72
   13D1 F0                 4478 	movx	@dptr,a
                           4479 ;	genPointerSet
                           4480 ;     genFarPointerSet
   13D2 90s01r7B           4481 	mov	dptr,#(_GPIO_set_output_file_name_5_19 + 0x0009)
   13D5 74 73              4482 	mov	a,#0x73
   13D7 F0                 4483 	movx	@dptr,a
                           4484 ;	genPointerSet
                           4485 ;     genFarPointerSet
   13D8 90s01r7C           4486 	mov	dptr,#(_GPIO_set_output_file_name_5_19 + 0x000a)
   13DB 74 2F              4487 	mov	a,#0x2F
   13DD F0                 4488 	movx	@dptr,a
                           4489 ;	genPointerSet
                           4490 ;     genFarPointerSet
   13DE 90s01r7D           4491 	mov	dptr,#(_GPIO_set_output_file_name_5_19 + 0x000b)
   13E1 74 43              4492 	mov	a,#0x43
   13E3 F0                 4493 	movx	@dptr,a
                           4494 ;	genPointerSet
                           4495 ;     genFarPointerSet
   13E4 90s01r7E           4496 	mov	dptr,#(_GPIO_set_output_file_name_5_19 + 0x000c)
   13E7 74 6F              4497 	mov	a,#0x6F
   13E9 F0                 4498 	movx	@dptr,a
                           4499 ;	genPointerSet
                           4500 ;     genFarPointerSet
   13EA 90s01r7F           4501 	mov	dptr,#(_GPIO_set_output_file_name_5_19 + 0x000d)
   13ED 74 72              4502 	mov	a,#0x72
   13EF F0                 4503 	movx	@dptr,a
                           4504 ;	genPointerSet
                           4505 ;     genFarPointerSet
   13F0 90s01r80           4506 	mov	dptr,#(_GPIO_set_output_file_name_5_19 + 0x000e)
   13F3 74 65              4507 	mov	a,#0x65
   13F5 F0                 4508 	movx	@dptr,a
                           4509 ;	genPointerSet
                           4510 ;     genFarPointerSet
   13F6 90s01r81           4511 	mov	dptr,#(_GPIO_set_output_file_name_5_19 + 0x000f)
   13F9 74 47              4512 	mov	a,#0x47
   13FB F0                 4513 	movx	@dptr,a
                           4514 ;	genPointerSet
                           4515 ;     genFarPointerSet
   13FC 90s01r82           4516 	mov	dptr,#(_GPIO_set_output_file_name_5_19 + 0x0010)
   13FF 74 50              4517 	mov	a,#0x50
   1401 F0                 4518 	movx	@dptr,a
                           4519 ;	genPointerSet
                           4520 ;     genFarPointerSet
   1402 90s01r83           4521 	mov	dptr,#(_GPIO_set_output_file_name_5_19 + 0x0011)
   1405 74 49              4522 	mov	a,#0x49
   1407 F0                 4523 	movx	@dptr,a
                           4524 ;	genPointerSet
                           4525 ;     genFarPointerSet
   1408 90s01r84           4526 	mov	dptr,#(_GPIO_set_output_file_name_5_19 + 0x0012)
   140B 74 4F              4527 	mov	a,#0x4F
   140D F0                 4528 	movx	@dptr,a
                           4529 ;	genPointerSet
                           4530 ;     genFarPointerSet
   140E 90s01r85           4531 	mov	dptr,#(_GPIO_set_output_file_name_5_19 + 0x0013)
   1411 74 2F              4532 	mov	a,#0x2F
   1413 F0                 4533 	movx	@dptr,a
                           4534 ;	genPointerSet
                           4535 ;     genFarPointerSet
   1414 90s01r86           4536 	mov	dptr,#(_GPIO_set_output_file_name_5_19 + 0x0014)
   1417 74 63              4537 	mov	a,#0x63
   1419 F0                 4538 	movx	@dptr,a
                           4539 ;	genPointerSet
                           4540 ;     genFarPointerSet
   141A 90s01r87           4541 	mov	dptr,#(_GPIO_set_output_file_name_5_19 + 0x0015)
   141D 74 6F              4542 	mov	a,#0x6F
   141F F0                 4543 	movx	@dptr,a
                           4544 ;	genPointerSet
                           4545 ;     genFarPointerSet
   1420 90s01r88           4546 	mov	dptr,#(_GPIO_set_output_file_name_5_19 + 0x0016)
   1423 74 72              4547 	mov	a,#0x72
   1425 F0                 4548 	movx	@dptr,a
                           4549 ;	genPointerSet
                           4550 ;     genFarPointerSet
   1426 90s01r89           4551 	mov	dptr,#(_GPIO_set_output_file_name_5_19 + 0x0017)
   1429 74 65              4552 	mov	a,#0x65
   142B F0                 4553 	movx	@dptr,a
                           4554 ;	genPointerSet
                           4555 ;     genFarPointerSet
   142C 90s01r8A           4556 	mov	dptr,#(_GPIO_set_output_file_name_5_19 + 0x0018)
   142F 74 5F              4557 	mov	a,#0x5F
   1431 F0                 4558 	movx	@dptr,a
                           4559 ;	genPointerSet
                           4560 ;     genFarPointerSet
   1432 90s01r8B           4561 	mov	dptr,#(_GPIO_set_output_file_name_5_19 + 0x0019)
   1435 74 67              4562 	mov	a,#0x67
   1437 F0                 4563 	movx	@dptr,a
                           4564 ;	genPointerSet
                           4565 ;     genFarPointerSet
   1438 90s01r8C           4566 	mov	dptr,#(_GPIO_set_output_file_name_5_19 + 0x001a)
   143B 74 70              4567 	mov	a,#0x70
   143D F0                 4568 	movx	@dptr,a
                           4569 ;	genPointerSet
                           4570 ;     genFarPointerSet
   143E 90s01r8D           4571 	mov	dptr,#(_GPIO_set_output_file_name_5_19 + 0x001b)
   1441 74 69              4572 	mov	a,#0x69
   1443 F0                 4573 	movx	@dptr,a
                           4574 ;	genPointerSet
                           4575 ;     genFarPointerSet
   1444 90s01r8E           4576 	mov	dptr,#(_GPIO_set_output_file_name_5_19 + 0x001c)
   1447 74 6F              4577 	mov	a,#0x6F
   1449 F0                 4578 	movx	@dptr,a
                           4579 ;	genPointerSet
                           4580 ;     genFarPointerSet
   144A 90s01r8F           4581 	mov	dptr,#(_GPIO_set_output_file_name_5_19 + 0x001d)
   144D 74 2E              4582 	mov	a,#0x2E
   144F F0                 4583 	movx	@dptr,a
                           4584 ;	genPointerSet
                           4585 ;     genFarPointerSet
   1450 90s01r90           4586 	mov	dptr,#(_GPIO_set_output_file_name_5_19 + 0x001e)
   1453 74 63              4587 	mov	a,#0x63
   1455 F0                 4588 	movx	@dptr,a
                           4589 ;	genPointerSet
                           4590 ;     genFarPointerSet
   1456 90s01r91           4591 	mov	dptr,#(_GPIO_set_output_file_name_5_19 + 0x001f)
   1459 74 00              4592 	mov	a,#0x00
   145B F0                 4593 	movx	@dptr,a
                           4594 ;	genAssign
   145C 90s00r00           4595 	mov	dptr,#_HAL_assert_fail_PARM_2
   145F 74 3A              4596 	mov	a,#0x3A
   1461 F0                 4597 	movx	@dptr,a
   1462 A3                 4598 	inc	dptr
   1463 74 01              4599 	mov	a,#0x01
   1465 F0                 4600 	movx	@dptr,a
   1466 A3                 4601 	inc	dptr
   1467 74 00              4602 	mov	a,#0x00
   1469 F0                 4603 	movx	@dptr,a
   146A A3                 4604 	inc	dptr
   146B 74 00              4605 	mov	a,#0x00
   146D F0                 4606 	movx	@dptr,a
                           4607 ;	genCall
   146E 75 82r72           4608 	mov	dpl,#_GPIO_set_output_file_name_5_19
   1471 75 83s01           4609 	mov	dph,#(_GPIO_set_output_file_name_5_19 >> 8)
   1474 75 F0 00           4610 	mov	b,#0x00
   1477 12s00r00           4611 	lcall	_HAL_assert_fail
                    147A   4612 	C$core_gpio.c$316$2$4 ==.
                           4613 ;	../drivers/CoreGPIO/core_gpio.c:316: break;
   147A 02s15r5B           4614 	ljmp	00140$
                    147D   4615 	C$core_gpio.c$319$2$4 ==.
                           4616 ;	../drivers/CoreGPIO/core_gpio.c:319: HAL_ASSERT(0);
   147D                    4617 00136$:
                           4618 ;	genPointerSet
                           4619 ;     genFarPointerSet
   147D 90s01r92           4620 	mov	dptr,#_GPIO_set_output_file_name_4_21
   1480 74 2E              4621 	mov	a,#0x2E
   1482 F0                 4622 	movx	@dptr,a
                           4623 ;	genPointerSet
                           4624 ;     genFarPointerSet
   1483 90s01r93           4625 	mov	dptr,#(_GPIO_set_output_file_name_4_21 + 0x0001)
   1486 74 2E              4626 	mov	a,#0x2E
   1488 F0                 4627 	movx	@dptr,a
                           4628 ;	genPointerSet
                           4629 ;     genFarPointerSet
   1489 90s01r94           4630 	mov	dptr,#(_GPIO_set_output_file_name_4_21 + 0x0002)
   148C 74 2F              4631 	mov	a,#0x2F
   148E F0                 4632 	movx	@dptr,a
                           4633 ;	genPointerSet
                           4634 ;     genFarPointerSet
   148F 90s01r95           4635 	mov	dptr,#(_GPIO_set_output_file_name_4_21 + 0x0003)
   1492 74 64              4636 	mov	a,#0x64
   1494 F0                 4637 	movx	@dptr,a
                           4638 ;	genPointerSet
                           4639 ;     genFarPointerSet
   1495 90s01r96           4640 	mov	dptr,#(_GPIO_set_output_file_name_4_21 + 0x0004)
   1498 74 72              4641 	mov	a,#0x72
   149A F0                 4642 	movx	@dptr,a
                           4643 ;	genPointerSet
                           4644 ;     genFarPointerSet
   149B 90s01r97           4645 	mov	dptr,#(_GPIO_set_output_file_name_4_21 + 0x0005)
   149E 74 69              4646 	mov	a,#0x69
   14A0 F0                 4647 	movx	@dptr,a
                           4648 ;	genPointerSet
                           4649 ;     genFarPointerSet
   14A1 90s01r98           4650 	mov	dptr,#(_GPIO_set_output_file_name_4_21 + 0x0006)
   14A4 74 76              4651 	mov	a,#0x76
   14A6 F0                 4652 	movx	@dptr,a
                           4653 ;	genPointerSet
                           4654 ;     genFarPointerSet
   14A7 90s01r99           4655 	mov	dptr,#(_GPIO_set_output_file_name_4_21 + 0x0007)
   14AA 74 65              4656 	mov	a,#0x65
   14AC F0                 4657 	movx	@dptr,a
                           4658 ;	genPointerSet
                           4659 ;     genFarPointerSet
   14AD 90s01r9A           4660 	mov	dptr,#(_GPIO_set_output_file_name_4_21 + 0x0008)
   14B0 74 72              4661 	mov	a,#0x72
   14B2 F0                 4662 	movx	@dptr,a
                           4663 ;	genPointerSet
                           4664 ;     genFarPointerSet
   14B3 90s01r9B           4665 	mov	dptr,#(_GPIO_set_output_file_name_4_21 + 0x0009)
   14B6 74 73              4666 	mov	a,#0x73
   14B8 F0                 4667 	movx	@dptr,a
                           4668 ;	genPointerSet
                           4669 ;     genFarPointerSet
   14B9 90s01r9C           4670 	mov	dptr,#(_GPIO_set_output_file_name_4_21 + 0x000a)
   14BC 74 2F              4671 	mov	a,#0x2F
   14BE F0                 4672 	movx	@dptr,a
                           4673 ;	genPointerSet
                           4674 ;     genFarPointerSet
   14BF 90s01r9D           4675 	mov	dptr,#(_GPIO_set_output_file_name_4_21 + 0x000b)
   14C2 74 43              4676 	mov	a,#0x43
   14C4 F0                 4677 	movx	@dptr,a
                           4678 ;	genPointerSet
                           4679 ;     genFarPointerSet
   14C5 90s01r9E           4680 	mov	dptr,#(_GPIO_set_output_file_name_4_21 + 0x000c)
   14C8 74 6F              4681 	mov	a,#0x6F
   14CA F0                 4682 	movx	@dptr,a
                           4683 ;	genPointerSet
                           4684 ;     genFarPointerSet
   14CB 90s01r9F           4685 	mov	dptr,#(_GPIO_set_output_file_name_4_21 + 0x000d)
   14CE 74 72              4686 	mov	a,#0x72
   14D0 F0                 4687 	movx	@dptr,a
                           4688 ;	genPointerSet
                           4689 ;     genFarPointerSet
   14D1 90s01rA0           4690 	mov	dptr,#(_GPIO_set_output_file_name_4_21 + 0x000e)
   14D4 74 65              4691 	mov	a,#0x65
   14D6 F0                 4692 	movx	@dptr,a
                           4693 ;	genPointerSet
                           4694 ;     genFarPointerSet
   14D7 90s01rA1           4695 	mov	dptr,#(_GPIO_set_output_file_name_4_21 + 0x000f)
   14DA 74 47              4696 	mov	a,#0x47
   14DC F0                 4697 	movx	@dptr,a
                           4698 ;	genPointerSet
                           4699 ;     genFarPointerSet
   14DD 90s01rA2           4700 	mov	dptr,#(_GPIO_set_output_file_name_4_21 + 0x0010)
   14E0 74 50              4701 	mov	a,#0x50
   14E2 F0                 4702 	movx	@dptr,a
                           4703 ;	genPointerSet
                           4704 ;     genFarPointerSet
   14E3 90s01rA3           4705 	mov	dptr,#(_GPIO_set_output_file_name_4_21 + 0x0011)
   14E6 74 49              4706 	mov	a,#0x49
   14E8 F0                 4707 	movx	@dptr,a
                           4708 ;	genPointerSet
                           4709 ;     genFarPointerSet
   14E9 90s01rA4           4710 	mov	dptr,#(_GPIO_set_output_file_name_4_21 + 0x0012)
   14EC 74 4F              4711 	mov	a,#0x4F
   14EE F0                 4712 	movx	@dptr,a
                           4713 ;	genPointerSet
                           4714 ;     genFarPointerSet
   14EF 90s01rA5           4715 	mov	dptr,#(_GPIO_set_output_file_name_4_21 + 0x0013)
   14F2 74 2F              4716 	mov	a,#0x2F
   14F4 F0                 4717 	movx	@dptr,a
                           4718 ;	genPointerSet
                           4719 ;     genFarPointerSet
   14F5 90s01rA6           4720 	mov	dptr,#(_GPIO_set_output_file_name_4_21 + 0x0014)
   14F8 74 63              4721 	mov	a,#0x63
   14FA F0                 4722 	movx	@dptr,a
                           4723 ;	genPointerSet
                           4724 ;     genFarPointerSet
   14FB 90s01rA7           4725 	mov	dptr,#(_GPIO_set_output_file_name_4_21 + 0x0015)
   14FE 74 6F              4726 	mov	a,#0x6F
   1500 F0                 4727 	movx	@dptr,a
                           4728 ;	genPointerSet
                           4729 ;     genFarPointerSet
   1501 90s01rA8           4730 	mov	dptr,#(_GPIO_set_output_file_name_4_21 + 0x0016)
   1504 74 72              4731 	mov	a,#0x72
   1506 F0                 4732 	movx	@dptr,a
                           4733 ;	genPointerSet
                           4734 ;     genFarPointerSet
   1507 90s01rA9           4735 	mov	dptr,#(_GPIO_set_output_file_name_4_21 + 0x0017)
   150A 74 65              4736 	mov	a,#0x65
   150C F0                 4737 	movx	@dptr,a
                           4738 ;	genPointerSet
                           4739 ;     genFarPointerSet
   150D 90s01rAA           4740 	mov	dptr,#(_GPIO_set_output_file_name_4_21 + 0x0018)
   1510 74 5F              4741 	mov	a,#0x5F
   1512 F0                 4742 	movx	@dptr,a
                           4743 ;	genPointerSet
                           4744 ;     genFarPointerSet
   1513 90s01rAB           4745 	mov	dptr,#(_GPIO_set_output_file_name_4_21 + 0x0019)
   1516 74 67              4746 	mov	a,#0x67
   1518 F0                 4747 	movx	@dptr,a
                           4748 ;	genPointerSet
                           4749 ;     genFarPointerSet
   1519 90s01rAC           4750 	mov	dptr,#(_GPIO_set_output_file_name_4_21 + 0x001a)
   151C 74 70              4751 	mov	a,#0x70
   151E F0                 4752 	movx	@dptr,a
                           4753 ;	genPointerSet
                           4754 ;     genFarPointerSet
   151F 90s01rAD           4755 	mov	dptr,#(_GPIO_set_output_file_name_4_21 + 0x001b)
   1522 74 69              4756 	mov	a,#0x69
   1524 F0                 4757 	movx	@dptr,a
                           4758 ;	genPointerSet
                           4759 ;     genFarPointerSet
   1525 90s01rAE           4760 	mov	dptr,#(_GPIO_set_output_file_name_4_21 + 0x001c)
   1528 74 6F              4761 	mov	a,#0x6F
   152A F0                 4762 	movx	@dptr,a
                           4763 ;	genPointerSet
                           4764 ;     genFarPointerSet
   152B 90s01rAF           4765 	mov	dptr,#(_GPIO_set_output_file_name_4_21 + 0x001d)
   152E 74 2E              4766 	mov	a,#0x2E
   1530 F0                 4767 	movx	@dptr,a
                           4768 ;	genPointerSet
                           4769 ;     genFarPointerSet
   1531 90s01rB0           4770 	mov	dptr,#(_GPIO_set_output_file_name_4_21 + 0x001e)
   1534 74 63              4771 	mov	a,#0x63
   1536 F0                 4772 	movx	@dptr,a
                           4773 ;	genPointerSet
                           4774 ;     genFarPointerSet
   1537 90s01rB1           4775 	mov	dptr,#(_GPIO_set_output_file_name_4_21 + 0x001f)
   153A 74 00              4776 	mov	a,#0x00
   153C F0                 4777 	movx	@dptr,a
                           4778 ;	genAssign
   153D 90s00r00           4779 	mov	dptr,#_HAL_assert_fail_PARM_2
   1540 74 3F              4780 	mov	a,#0x3F
   1542 F0                 4781 	movx	@dptr,a
   1543 A3                 4782 	inc	dptr
   1544 74 01              4783 	mov	a,#0x01
   1546 F0                 4784 	movx	@dptr,a
   1547 A3                 4785 	inc	dptr
   1548 74 00              4786 	mov	a,#0x00
   154A F0                 4787 	movx	@dptr,a
   154B A3                 4788 	inc	dptr
   154C 74 00              4789 	mov	a,#0x00
   154E F0                 4790 	movx	@dptr,a
                           4791 ;	genCall
   154F 75 82r92           4792 	mov	dpl,#_GPIO_set_output_file_name_4_21
   1552 75 83s01           4793 	mov	dph,#(_GPIO_set_output_file_name_4_21 >> 8)
   1555 75 F0 00           4794 	mov	b,#0x00
   1558 12s00r00           4795 	lcall	_HAL_assert_fail
                    155B   4796 	C$core_gpio.c$321$1$1 ==.
                           4797 ;	../drivers/CoreGPIO/core_gpio.c:321: }
   155B                    4798 00140$:
                    155B   4799 	C$core_gpio.c$322$1$1 ==.
                    155B   4800 	XG$GPIO_set_output$0$0 ==.
   155B 22                 4801 	ret
                           4802 ;------------------------------------------------------------
                           4803 ;Allocation info for local variables in function 'GPIO_drive_inout'
                           4804 ;------------------------------------------------------------
                           4805 ;port_id                   Allocated with name '_GPIO_drive_inout_PARM_2'
                           4806 ;inout_state               Allocated with name '_GPIO_drive_inout_PARM_3'
                           4807 ;this_gpio                 Allocated with name '_GPIO_drive_inout_this_gpio_1_1'
                           4808 ;config                    Allocated with name '_GPIO_drive_inout_config_1_1'
                           4809 ;cfg_reg_addr              Allocated with name '_GPIO_drive_inout_cfg_reg_addr_1_1'
                           4810 ;file_name                 Allocated with name '_GPIO_drive_inout_file_name_3_3'
                           4811 ;file_name                 Allocated with name '_GPIO_drive_inout_file_name_4_6'
                           4812 ;------------------------------------------------------------
                    155C   4813 	G$GPIO_drive_inout$0$0 ==.
                    155C   4814 	C$core_gpio.c$328$1$1 ==.
                           4815 ;	../drivers/CoreGPIO/core_gpio.c:328: void GPIO_drive_inout
                           4816 ;	-----------------------------------------
                           4817 ;	 function GPIO_drive_inout
                           4818 ;	-----------------------------------------
   155C                    4819 _GPIO_drive_inout:
                           4820 ;	genReceive
   155C AA F0              4821 	mov	r2,b
   155E AB 83              4822 	mov	r3,dph
   1560 E5 82              4823 	mov	a,dpl
   1562 90s01rB4           4824 	mov	dptr,#_GPIO_drive_inout_this_gpio_1_1
   1565 F0                 4825 	movx	@dptr,a
   1566 A3                 4826 	inc	dptr
   1567 EB                 4827 	mov	a,r3
   1568 F0                 4828 	movx	@dptr,a
   1569 A3                 4829 	inc	dptr
   156A EA                 4830 	mov	a,r2
   156B F0                 4831 	movx	@dptr,a
                    156C   4832 	C$core_gpio.c$338$2$2 ==.
                           4833 ;	../drivers/CoreGPIO/core_gpio.c:338: HAL_ASSERT( port_id < NB_OF_GPIO );
                           4834 ;	genAssign
   156C 90s01rB2           4835 	mov	dptr,#_GPIO_drive_inout_PARM_2
   156F E0                 4836 	movx	a,@dptr
   1570 FA                 4837 	mov	r2,a
                           4838 ;	genCmpLt
                           4839 ;	genCmp
   1571 BA 20 00           4840 	cjne	r2,#0x20,00122$
   1574                    4841 00122$:
                           4842 ;	genIfxJump
   1574 50 03              4843 	jnc	00123$
   1576 02s16r5B           4844 	ljmp	00104$
   1579                    4845 00123$:
                           4846 ;	genPointerSet
                           4847 ;     genFarPointerSet
   1579 90s01rB7           4848 	mov	dptr,#_GPIO_drive_inout_file_name_3_3
   157C 74 2E              4849 	mov	a,#0x2E
   157E F0                 4850 	movx	@dptr,a
                           4851 ;	genPointerSet
                           4852 ;     genFarPointerSet
   157F 90s01rB8           4853 	mov	dptr,#(_GPIO_drive_inout_file_name_3_3 + 0x0001)
   1582 74 2E              4854 	mov	a,#0x2E
   1584 F0                 4855 	movx	@dptr,a
                           4856 ;	genPointerSet
                           4857 ;     genFarPointerSet
   1585 90s01rB9           4858 	mov	dptr,#(_GPIO_drive_inout_file_name_3_3 + 0x0002)
   1588 74 2F              4859 	mov	a,#0x2F
   158A F0                 4860 	movx	@dptr,a
                           4861 ;	genPointerSet
                           4862 ;     genFarPointerSet
   158B 90s01rBA           4863 	mov	dptr,#(_GPIO_drive_inout_file_name_3_3 + 0x0003)
   158E 74 64              4864 	mov	a,#0x64
   1590 F0                 4865 	movx	@dptr,a
                           4866 ;	genPointerSet
                           4867 ;     genFarPointerSet
   1591 90s01rBB           4868 	mov	dptr,#(_GPIO_drive_inout_file_name_3_3 + 0x0004)
   1594 74 72              4869 	mov	a,#0x72
   1596 F0                 4870 	movx	@dptr,a
                           4871 ;	genPointerSet
                           4872 ;     genFarPointerSet
   1597 90s01rBC           4873 	mov	dptr,#(_GPIO_drive_inout_file_name_3_3 + 0x0005)
   159A 74 69              4874 	mov	a,#0x69
   159C F0                 4875 	movx	@dptr,a
                           4876 ;	genPointerSet
                           4877 ;     genFarPointerSet
   159D 90s01rBD           4878 	mov	dptr,#(_GPIO_drive_inout_file_name_3_3 + 0x0006)
   15A0 74 76              4879 	mov	a,#0x76
   15A2 F0                 4880 	movx	@dptr,a
                           4881 ;	genPointerSet
                           4882 ;     genFarPointerSet
   15A3 90s01rBE           4883 	mov	dptr,#(_GPIO_drive_inout_file_name_3_3 + 0x0007)
   15A6 74 65              4884 	mov	a,#0x65
   15A8 F0                 4885 	movx	@dptr,a
                           4886 ;	genPointerSet
                           4887 ;     genFarPointerSet
   15A9 90s01rBF           4888 	mov	dptr,#(_GPIO_drive_inout_file_name_3_3 + 0x0008)
   15AC 74 72              4889 	mov	a,#0x72
   15AE F0                 4890 	movx	@dptr,a
                           4891 ;	genPointerSet
                           4892 ;     genFarPointerSet
   15AF 90s01rC0           4893 	mov	dptr,#(_GPIO_drive_inout_file_name_3_3 + 0x0009)
   15B2 74 73              4894 	mov	a,#0x73
   15B4 F0                 4895 	movx	@dptr,a
                           4896 ;	genPointerSet
                           4897 ;     genFarPointerSet
   15B5 90s01rC1           4898 	mov	dptr,#(_GPIO_drive_inout_file_name_3_3 + 0x000a)
   15B8 74 2F              4899 	mov	a,#0x2F
   15BA F0                 4900 	movx	@dptr,a
                           4901 ;	genPointerSet
                           4902 ;     genFarPointerSet
   15BB 90s01rC2           4903 	mov	dptr,#(_GPIO_drive_inout_file_name_3_3 + 0x000b)
   15BE 74 43              4904 	mov	a,#0x43
   15C0 F0                 4905 	movx	@dptr,a
                           4906 ;	genPointerSet
                           4907 ;     genFarPointerSet
   15C1 90s01rC3           4908 	mov	dptr,#(_GPIO_drive_inout_file_name_3_3 + 0x000c)
   15C4 74 6F              4909 	mov	a,#0x6F
   15C6 F0                 4910 	movx	@dptr,a
                           4911 ;	genPointerSet
                           4912 ;     genFarPointerSet
   15C7 90s01rC4           4913 	mov	dptr,#(_GPIO_drive_inout_file_name_3_3 + 0x000d)
   15CA 74 72              4914 	mov	a,#0x72
   15CC F0                 4915 	movx	@dptr,a
                           4916 ;	genPointerSet
                           4917 ;     genFarPointerSet
   15CD 90s01rC5           4918 	mov	dptr,#(_GPIO_drive_inout_file_name_3_3 + 0x000e)
   15D0 74 65              4919 	mov	a,#0x65
   15D2 F0                 4920 	movx	@dptr,a
                           4921 ;	genPointerSet
                           4922 ;     genFarPointerSet
   15D3 90s01rC6           4923 	mov	dptr,#(_GPIO_drive_inout_file_name_3_3 + 0x000f)
   15D6 74 47              4924 	mov	a,#0x47
   15D8 F0                 4925 	movx	@dptr,a
                           4926 ;	genPointerSet
                           4927 ;     genFarPointerSet
   15D9 90s01rC7           4928 	mov	dptr,#(_GPIO_drive_inout_file_name_3_3 + 0x0010)
   15DC 74 50              4929 	mov	a,#0x50
   15DE F0                 4930 	movx	@dptr,a
                           4931 ;	genPointerSet
                           4932 ;     genFarPointerSet
   15DF 90s01rC8           4933 	mov	dptr,#(_GPIO_drive_inout_file_name_3_3 + 0x0011)
   15E2 74 49              4934 	mov	a,#0x49
   15E4 F0                 4935 	movx	@dptr,a
                           4936 ;	genPointerSet
                           4937 ;     genFarPointerSet
   15E5 90s01rC9           4938 	mov	dptr,#(_GPIO_drive_inout_file_name_3_3 + 0x0012)
   15E8 74 4F              4939 	mov	a,#0x4F
   15EA F0                 4940 	movx	@dptr,a
                           4941 ;	genPointerSet
                           4942 ;     genFarPointerSet
   15EB 90s01rCA           4943 	mov	dptr,#(_GPIO_drive_inout_file_name_3_3 + 0x0013)
   15EE 74 2F              4944 	mov	a,#0x2F
   15F0 F0                 4945 	movx	@dptr,a
                           4946 ;	genPointerSet
                           4947 ;     genFarPointerSet
   15F1 90s01rCB           4948 	mov	dptr,#(_GPIO_drive_inout_file_name_3_3 + 0x0014)
   15F4 74 63              4949 	mov	a,#0x63
   15F6 F0                 4950 	movx	@dptr,a
                           4951 ;	genPointerSet
                           4952 ;     genFarPointerSet
   15F7 90s01rCC           4953 	mov	dptr,#(_GPIO_drive_inout_file_name_3_3 + 0x0015)
   15FA 74 6F              4954 	mov	a,#0x6F
   15FC F0                 4955 	movx	@dptr,a
                           4956 ;	genPointerSet
                           4957 ;     genFarPointerSet
   15FD 90s01rCD           4958 	mov	dptr,#(_GPIO_drive_inout_file_name_3_3 + 0x0016)
   1600 74 72              4959 	mov	a,#0x72
   1602 F0                 4960 	movx	@dptr,a
                           4961 ;	genPointerSet
                           4962 ;     genFarPointerSet
   1603 90s01rCE           4963 	mov	dptr,#(_GPIO_drive_inout_file_name_3_3 + 0x0017)
   1606 74 65              4964 	mov	a,#0x65
   1608 F0                 4965 	movx	@dptr,a
                           4966 ;	genPointerSet
                           4967 ;     genFarPointerSet
   1609 90s01rCF           4968 	mov	dptr,#(_GPIO_drive_inout_file_name_3_3 + 0x0018)
   160C 74 5F              4969 	mov	a,#0x5F
   160E F0                 4970 	movx	@dptr,a
                           4971 ;	genPointerSet
                           4972 ;     genFarPointerSet
   160F 90s01rD0           4973 	mov	dptr,#(_GPIO_drive_inout_file_name_3_3 + 0x0019)
   1612 74 67              4974 	mov	a,#0x67
   1614 F0                 4975 	movx	@dptr,a
                           4976 ;	genPointerSet
                           4977 ;     genFarPointerSet
   1615 90s01rD1           4978 	mov	dptr,#(_GPIO_drive_inout_file_name_3_3 + 0x001a)
   1618 74 70              4979 	mov	a,#0x70
   161A F0                 4980 	movx	@dptr,a
                           4981 ;	genPointerSet
                           4982 ;     genFarPointerSet
   161B 90s01rD2           4983 	mov	dptr,#(_GPIO_drive_inout_file_name_3_3 + 0x001b)
   161E 74 69              4984 	mov	a,#0x69
   1620 F0                 4985 	movx	@dptr,a
                           4986 ;	genPointerSet
                           4987 ;     genFarPointerSet
   1621 90s01rD3           4988 	mov	dptr,#(_GPIO_drive_inout_file_name_3_3 + 0x001c)
   1624 74 6F              4989 	mov	a,#0x6F
   1626 F0                 4990 	movx	@dptr,a
                           4991 ;	genPointerSet
                           4992 ;     genFarPointerSet
   1627 90s01rD4           4993 	mov	dptr,#(_GPIO_drive_inout_file_name_3_3 + 0x001d)
   162A 74 2E              4994 	mov	a,#0x2E
   162C F0                 4995 	movx	@dptr,a
                           4996 ;	genPointerSet
                           4997 ;     genFarPointerSet
   162D 90s01rD5           4998 	mov	dptr,#(_GPIO_drive_inout_file_name_3_3 + 0x001e)
   1630 74 63              4999 	mov	a,#0x63
   1632 F0                 5000 	movx	@dptr,a
                           5001 ;	genPointerSet
                           5002 ;     genFarPointerSet
   1633 90s01rD6           5003 	mov	dptr,#(_GPIO_drive_inout_file_name_3_3 + 0x001f)
   1636 74 00              5004 	mov	a,#0x00
   1638 F0                 5005 	movx	@dptr,a
                           5006 ;	genAssign
   1639 90s00r00           5007 	mov	dptr,#_HAL_assert_fail_PARM_2
   163C 74 52              5008 	mov	a,#0x52
   163E F0                 5009 	movx	@dptr,a
   163F A3                 5010 	inc	dptr
   1640 74 01              5011 	mov	a,#0x01
   1642 F0                 5012 	movx	@dptr,a
   1643 A3                 5013 	inc	dptr
   1644 74 00              5014 	mov	a,#0x00
   1646 F0                 5015 	movx	@dptr,a
   1647 A3                 5016 	inc	dptr
   1648 74 00              5017 	mov	a,#0x00
   164A F0                 5018 	movx	@dptr,a
                           5019 ;	genCall
   164B 75 82rB7           5020 	mov	dpl,#_GPIO_drive_inout_file_name_3_3
   164E 75 83s01           5021 	mov	dph,#(_GPIO_drive_inout_file_name_3_3 >> 8)
   1651 75 F0 00           5022 	mov	b,#0x00
   1654 C0 02              5023 	push	ar2
   1656 12s00r00           5024 	lcall	_HAL_assert_fail
   1659 D0 02              5025 	pop	ar2
   165B                    5026 00104$:
                    165B   5027 	C$core_gpio.c$340$1$1 ==.
                           5028 ;	../drivers/CoreGPIO/core_gpio.c:340: switch( inout_state )
                           5029 ;	genAssign
   165B 90s01rB3           5030 	mov	dptr,#_GPIO_drive_inout_PARM_3
   165E E0                 5031 	movx	a,@dptr
   165F FB                 5032 	mov	r3,a
                           5033 ;	genCmpEq
                           5034 ;	gencjneshort
   1660 BB 00 03           5035 	cjne	r3,#0x00,00124$
   1663 02s16rEC           5036 	ljmp	00107$
   1666                    5037 00124$:
                           5038 ;	genCmpEq
                           5039 ;	gencjneshort
   1666 BB 01 03           5040 	cjne	r3,#0x01,00125$
   1669 02s16r75           5041 	ljmp	00106$
   166C                    5042 00125$:
                           5043 ;	genCmpEq
                           5044 ;	gencjneshort
   166C BB 02 03           5045 	cjne	r3,#0x02,00126$
   166F 02s17r63           5046 	ljmp	00108$
   1672                    5047 00126$:
   1672 02s17rB7           5048 	ljmp	00112$
                    1675   5049 	C$core_gpio.c$342$2$4 ==.
                           5050 ;	../drivers/CoreGPIO/core_gpio.c:342: case GPIO_DRIVE_HIGH:
   1675                    5051 00106$:
                    1675   5052 	C$core_gpio.c$344$2$4 ==.
                           5053 ;	../drivers/CoreGPIO/core_gpio.c:344: GPIO_set_output( this_gpio, port_id, 1 );
                           5054 ;	genAssign
   1675 90s01rB4           5055 	mov	dptr,#_GPIO_drive_inout_this_gpio_1_1
   1678 E0                 5056 	movx	a,@dptr
   1679 FB                 5057 	mov	r3,a
   167A A3                 5058 	inc	dptr
   167B E0                 5059 	movx	a,@dptr
   167C FC                 5060 	mov	r4,a
   167D A3                 5061 	inc	dptr
   167E E0                 5062 	movx	a,@dptr
   167F FD                 5063 	mov	r5,a
                           5064 ;	genAssign
   1680 90s01r06           5065 	mov	dptr,#_GPIO_set_output_PARM_2
   1683 EA                 5066 	mov	a,r2
   1684 F0                 5067 	movx	@dptr,a
                           5068 ;	genAssign
   1685 90s01r07           5069 	mov	dptr,#_GPIO_set_output_PARM_3
   1688 74 01              5070 	mov	a,#0x01
   168A F0                 5071 	movx	@dptr,a
                           5072 ;	genCall
   168B 8B 82              5073 	mov	dpl,r3
   168D 8C 83              5074 	mov	dph,r4
   168F 8D F0              5075 	mov	b,r5
   1691 C0 02              5076 	push	ar2
   1693 12s0DrB3           5077 	lcall	_GPIO_set_output
   1696 D0 02              5078 	pop	ar2
                    1698   5079 	C$core_gpio.c$347$2$4 ==.
                           5080 ;	../drivers/CoreGPIO/core_gpio.c:347: cfg_reg_addr = this_gpio->base_addr + (port_id * 4);
                           5081 ;	genAssign
   1698 90s01rB4           5082 	mov	dptr,#_GPIO_drive_inout_this_gpio_1_1
   169B E0                 5083 	movx	a,@dptr
   169C FB                 5084 	mov	r3,a
   169D A3                 5085 	inc	dptr
   169E E0                 5086 	movx	a,@dptr
   169F FC                 5087 	mov	r4,a
   16A0 A3                 5088 	inc	dptr
   16A1 E0                 5089 	movx	a,@dptr
   16A2 FD                 5090 	mov	r5,a
                           5091 ;	genPointerGet
                           5092 ;	genGenPointerGet
   16A3 8B 82              5093 	mov	dpl,r3
   16A5 8C 83              5094 	mov	dph,r4
   16A7 8D F0              5095 	mov	b,r5
   16A9 12s00r00           5096 	lcall	__gptrget
   16AC FB                 5097 	mov	r3,a
   16AD A3                 5098 	inc	dptr
   16AE 12s00r00           5099 	lcall	__gptrget
   16B1 FC                 5100 	mov	r4,a
                           5101 ;	genMult
                           5102 ;	genMultOneByte
   16B2 EA                 5103 	mov	a,r2
   16B3 75 F0 04           5104 	mov	b,#0x04
   16B6 A4                 5105 	mul	ab
                           5106 ;	genPlus
   16B7 25 03              5107 	add	a,ar3
   16B9 FB                 5108 	mov	r3,a
   16BA E5 04              5109 	mov	a,ar4
   16BC 35 F0              5110 	addc	a,b
   16BE FC                 5111 	mov	r4,a
                           5112 ;	genCast
   16BF 7D 00              5113 	mov	r5,#0x00
   16C1 7E 00              5114 	mov	r6,#0x00
                    16C3   5115 	C$core_gpio.c$348$2$4 ==.
                           5116 ;	../drivers/CoreGPIO/core_gpio.c:348: config = HW_get_8bit_reg( cfg_reg_addr );
                           5117 ;	genCast
                           5118 ;	genCall
   16C3 8B 82              5119 	mov	dpl,r3
   16C5 8C 83              5120 	mov	dph,r4
   16C7 C0 03              5121 	push	ar3
   16C9 C0 04              5122 	push	ar4
   16CB 12s00r00           5123 	lcall	_HW_get_8bit_reg
   16CE AD 82              5124 	mov	r5,dpl
   16D0 D0 04              5125 	pop	ar4
   16D2 D0 03              5126 	pop	ar3
                           5127 ;	genCast
   16D4 7E 00              5128 	mov	r6,#0x00
   16D6 7F 00              5129 	mov	r7,#0x00
   16D8 78 00              5130 	mov	r0,#0x00
                    16DA   5131 	C$core_gpio.c$349$2$4 ==.
                           5132 ;	../drivers/CoreGPIO/core_gpio.c:349: config |= OUTPUT_BUFFER_ENABLE_MASK;
                           5133 ;	genOr
   16DA 43 05 04           5134 	orl	ar5,#0x04
                    16DD   5135 	C$core_gpio.c$350$2$4 ==.
                           5136 ;	../drivers/CoreGPIO/core_gpio.c:350: HW_set_8bit_reg( cfg_reg_addr, config );
                           5137 ;	genCast
   16DD 90s00r00           5138 	mov	dptr,#_HW_set_8bit_reg_PARM_2
   16E0 ED                 5139 	mov	a,r5
   16E1 F0                 5140 	movx	@dptr,a
                           5141 ;	genCall
   16E2 8B 82              5142 	mov	dpl,r3
   16E4 8C 83              5143 	mov	dph,r4
   16E6 12s00r00           5144 	lcall	_HW_set_8bit_reg
                    16E9   5145 	C$core_gpio.c$351$2$4 ==.
                           5146 ;	../drivers/CoreGPIO/core_gpio.c:351: break;
   16E9 02s18r95           5147 	ljmp	00116$
                    16EC   5148 	C$core_gpio.c$353$2$4 ==.
                           5149 ;	../drivers/CoreGPIO/core_gpio.c:353: case GPIO_DRIVE_LOW:
   16EC                    5150 00107$:
                    16EC   5151 	C$core_gpio.c$355$2$4 ==.
                           5152 ;	../drivers/CoreGPIO/core_gpio.c:355: GPIO_set_output( this_gpio, port_id, 0 );
                           5153 ;	genAssign
   16EC 90s01rB4           5154 	mov	dptr,#_GPIO_drive_inout_this_gpio_1_1
   16EF E0                 5155 	movx	a,@dptr
   16F0 FB                 5156 	mov	r3,a
   16F1 A3                 5157 	inc	dptr
   16F2 E0                 5158 	movx	a,@dptr
   16F3 FC                 5159 	mov	r4,a
   16F4 A3                 5160 	inc	dptr
   16F5 E0                 5161 	movx	a,@dptr
   16F6 FD                 5162 	mov	r5,a
                           5163 ;	genAssign
   16F7 90s01r06           5164 	mov	dptr,#_GPIO_set_output_PARM_2
   16FA EA                 5165 	mov	a,r2
   16FB F0                 5166 	movx	@dptr,a
                           5167 ;	genAssign
   16FC 90s01r07           5168 	mov	dptr,#_GPIO_set_output_PARM_3
   16FF 74 00              5169 	mov	a,#0x00
   1701 F0                 5170 	movx	@dptr,a
                           5171 ;	genCall
   1702 8B 82              5172 	mov	dpl,r3
   1704 8C 83              5173 	mov	dph,r4
   1706 8D F0              5174 	mov	b,r5
   1708 C0 02              5175 	push	ar2
   170A 12s0DrB3           5176 	lcall	_GPIO_set_output
   170D D0 02              5177 	pop	ar2
                    170F   5178 	C$core_gpio.c$358$2$4 ==.
                           5179 ;	../drivers/CoreGPIO/core_gpio.c:358: cfg_reg_addr = this_gpio->base_addr + (port_id * 4);
                           5180 ;	genAssign
   170F 90s01rB4           5181 	mov	dptr,#_GPIO_drive_inout_this_gpio_1_1
   1712 E0                 5182 	movx	a,@dptr
   1713 FB                 5183 	mov	r3,a
   1714 A3                 5184 	inc	dptr
   1715 E0                 5185 	movx	a,@dptr
   1716 FC                 5186 	mov	r4,a
   1717 A3                 5187 	inc	dptr
   1718 E0                 5188 	movx	a,@dptr
   1719 FD                 5189 	mov	r5,a
                           5190 ;	genPointerGet
                           5191 ;	genGenPointerGet
   171A 8B 82              5192 	mov	dpl,r3
   171C 8C 83              5193 	mov	dph,r4
   171E 8D F0              5194 	mov	b,r5
   1720 12s00r00           5195 	lcall	__gptrget
   1723 FB                 5196 	mov	r3,a
   1724 A3                 5197 	inc	dptr
   1725 12s00r00           5198 	lcall	__gptrget
   1728 FC                 5199 	mov	r4,a
                           5200 ;	genMult
                           5201 ;	genMultOneByte
   1729 EA                 5202 	mov	a,r2
   172A 75 F0 04           5203 	mov	b,#0x04
   172D A4                 5204 	mul	ab
                           5205 ;	genPlus
   172E 25 03              5206 	add	a,ar3
   1730 FB                 5207 	mov	r3,a
   1731 E5 04              5208 	mov	a,ar4
   1733 35 F0              5209 	addc	a,b
   1735 FC                 5210 	mov	r4,a
                           5211 ;	genCast
   1736 7D 00              5212 	mov	r5,#0x00
   1738 7E 00              5213 	mov	r6,#0x00
                    173A   5214 	C$core_gpio.c$359$2$4 ==.
                           5215 ;	../drivers/CoreGPIO/core_gpio.c:359: config = HW_get_8bit_reg( cfg_reg_addr );
                           5216 ;	genCast
                           5217 ;	genCall
   173A 8B 82              5218 	mov	dpl,r3
   173C 8C 83              5219 	mov	dph,r4
   173E C0 03              5220 	push	ar3
   1740 C0 04              5221 	push	ar4
   1742 12s00r00           5222 	lcall	_HW_get_8bit_reg
   1745 AD 82              5223 	mov	r5,dpl
   1747 D0 04              5224 	pop	ar4
   1749 D0 03              5225 	pop	ar3
                           5226 ;	genCast
   174B 7E 00              5227 	mov	r6,#0x00
   174D 7F 00              5228 	mov	r7,#0x00
   174F 78 00              5229 	mov	r0,#0x00
                    1751   5230 	C$core_gpio.c$360$2$4 ==.
                           5231 ;	../drivers/CoreGPIO/core_gpio.c:360: config |= OUTPUT_BUFFER_ENABLE_MASK;
                           5232 ;	genOr
   1751 43 05 04           5233 	orl	ar5,#0x04
                    1754   5234 	C$core_gpio.c$361$2$4 ==.
                           5235 ;	../drivers/CoreGPIO/core_gpio.c:361: HW_set_8bit_reg( cfg_reg_addr, config );
                           5236 ;	genCast
   1754 90s00r00           5237 	mov	dptr,#_HW_set_8bit_reg_PARM_2
   1757 ED                 5238 	mov	a,r5
   1758 F0                 5239 	movx	@dptr,a
                           5240 ;	genCall
   1759 8B 82              5241 	mov	dpl,r3
   175B 8C 83              5242 	mov	dph,r4
   175D 12s00r00           5243 	lcall	_HW_set_8bit_reg
                    1760   5244 	C$core_gpio.c$362$2$4 ==.
                           5245 ;	../drivers/CoreGPIO/core_gpio.c:362: break;
   1760 02s18r95           5246 	ljmp	00116$
                    1763   5247 	C$core_gpio.c$364$2$4 ==.
                           5248 ;	../drivers/CoreGPIO/core_gpio.c:364: case GPIO_HIGH_Z:
   1763                    5249 00108$:
                    1763   5250 	C$core_gpio.c$366$2$4 ==.
                           5251 ;	../drivers/CoreGPIO/core_gpio.c:366: cfg_reg_addr = this_gpio->base_addr + (port_id * 4);
                           5252 ;	genAssign
   1763 90s01rB4           5253 	mov	dptr,#_GPIO_drive_inout_this_gpio_1_1
   1766 E0                 5254 	movx	a,@dptr
   1767 FB                 5255 	mov	r3,a
   1768 A3                 5256 	inc	dptr
   1769 E0                 5257 	movx	a,@dptr
   176A FC                 5258 	mov	r4,a
   176B A3                 5259 	inc	dptr
   176C E0                 5260 	movx	a,@dptr
   176D FD                 5261 	mov	r5,a
                           5262 ;	genPointerGet
                           5263 ;	genGenPointerGet
   176E 8B 82              5264 	mov	dpl,r3
   1770 8C 83              5265 	mov	dph,r4
   1772 8D F0              5266 	mov	b,r5
   1774 12s00r00           5267 	lcall	__gptrget
   1777 FB                 5268 	mov	r3,a
   1778 A3                 5269 	inc	dptr
   1779 12s00r00           5270 	lcall	__gptrget
   177C FC                 5271 	mov	r4,a
                           5272 ;	genMult
                           5273 ;	genMultOneByte
   177D EA                 5274 	mov	a,r2
   177E 75 F0 04           5275 	mov	b,#0x04
   1781 A4                 5276 	mul	ab
                           5277 ;	genPlus
   1782 25 03              5278 	add	a,ar3
   1784 FB                 5279 	mov	r3,a
   1785 E5 04              5280 	mov	a,ar4
   1787 35 F0              5281 	addc	a,b
   1789 FC                 5282 	mov	r4,a
                           5283 ;	genCast
   178A 7A 00              5284 	mov	r2,#0x00
   178C 7D 00              5285 	mov	r5,#0x00
                    178E   5286 	C$core_gpio.c$367$2$4 ==.
                           5287 ;	../drivers/CoreGPIO/core_gpio.c:367: config = HW_get_8bit_reg( cfg_reg_addr );
                           5288 ;	genCast
                           5289 ;	genCall
   178E 8B 82              5290 	mov	dpl,r3
   1790 8C 83              5291 	mov	dph,r4
   1792 C0 03              5292 	push	ar3
   1794 C0 04              5293 	push	ar4
   1796 12s00r00           5294 	lcall	_HW_get_8bit_reg
   1799 AA 82              5295 	mov	r2,dpl
   179B D0 04              5296 	pop	ar4
   179D D0 03              5297 	pop	ar3
                           5298 ;	genCast
   179F 7D 00              5299 	mov	r5,#0x00
   17A1 7E 00              5300 	mov	r6,#0x00
   17A3 7F 00              5301 	mov	r7,#0x00
                    17A5   5302 	C$core_gpio.c$368$2$4 ==.
                           5303 ;	../drivers/CoreGPIO/core_gpio.c:368: config &= ~OUTPUT_BUFFER_ENABLE_MASK;
                           5304 ;	genAnd
   17A5 53 02 FB           5305 	anl	ar2,#0xFB
                    17A8   5306 	C$core_gpio.c$369$2$4 ==.
                           5307 ;	../drivers/CoreGPIO/core_gpio.c:369: HW_set_8bit_reg( cfg_reg_addr, config );
                           5308 ;	genCast
   17A8 90s00r00           5309 	mov	dptr,#_HW_set_8bit_reg_PARM_2
   17AB EA                 5310 	mov	a,r2
   17AC F0                 5311 	movx	@dptr,a
                           5312 ;	genCall
   17AD 8B 82              5313 	mov	dpl,r3
   17AF 8C 83              5314 	mov	dph,r4
   17B1 12s00r00           5315 	lcall	_HW_set_8bit_reg
                    17B4   5316 	C$core_gpio.c$370$2$4 ==.
                           5317 ;	../drivers/CoreGPIO/core_gpio.c:370: break;
   17B4 02s18r95           5318 	ljmp	00116$
                    17B7   5319 	C$core_gpio.c$373$2$4 ==.
                           5320 ;	../drivers/CoreGPIO/core_gpio.c:373: HAL_ASSERT(0);
   17B7                    5321 00112$:
                           5322 ;	genPointerSet
                           5323 ;     genFarPointerSet
   17B7 90s01rD7           5324 	mov	dptr,#_GPIO_drive_inout_file_name_4_6
   17BA 74 2E              5325 	mov	a,#0x2E
   17BC F0                 5326 	movx	@dptr,a
                           5327 ;	genPointerSet
                           5328 ;     genFarPointerSet
   17BD 90s01rD8           5329 	mov	dptr,#(_GPIO_drive_inout_file_name_4_6 + 0x0001)
   17C0 74 2E              5330 	mov	a,#0x2E
   17C2 F0                 5331 	movx	@dptr,a
                           5332 ;	genPointerSet
                           5333 ;     genFarPointerSet
   17C3 90s01rD9           5334 	mov	dptr,#(_GPIO_drive_inout_file_name_4_6 + 0x0002)
   17C6 74 2F              5335 	mov	a,#0x2F
   17C8 F0                 5336 	movx	@dptr,a
                           5337 ;	genPointerSet
                           5338 ;     genFarPointerSet
   17C9 90s01rDA           5339 	mov	dptr,#(_GPIO_drive_inout_file_name_4_6 + 0x0003)
   17CC 74 64              5340 	mov	a,#0x64
   17CE F0                 5341 	movx	@dptr,a
                           5342 ;	genPointerSet
                           5343 ;     genFarPointerSet
   17CF 90s01rDB           5344 	mov	dptr,#(_GPIO_drive_inout_file_name_4_6 + 0x0004)
   17D2 74 72              5345 	mov	a,#0x72
   17D4 F0                 5346 	movx	@dptr,a
                           5347 ;	genPointerSet
                           5348 ;     genFarPointerSet
   17D5 90s01rDC           5349 	mov	dptr,#(_GPIO_drive_inout_file_name_4_6 + 0x0005)
   17D8 74 69              5350 	mov	a,#0x69
   17DA F0                 5351 	movx	@dptr,a
                           5352 ;	genPointerSet
                           5353 ;     genFarPointerSet
   17DB 90s01rDD           5354 	mov	dptr,#(_GPIO_drive_inout_file_name_4_6 + 0x0006)
   17DE 74 76              5355 	mov	a,#0x76
   17E0 F0                 5356 	movx	@dptr,a
                           5357 ;	genPointerSet
                           5358 ;     genFarPointerSet
   17E1 90s01rDE           5359 	mov	dptr,#(_GPIO_drive_inout_file_name_4_6 + 0x0007)
   17E4 74 65              5360 	mov	a,#0x65
   17E6 F0                 5361 	movx	@dptr,a
                           5362 ;	genPointerSet
                           5363 ;     genFarPointerSet
   17E7 90s01rDF           5364 	mov	dptr,#(_GPIO_drive_inout_file_name_4_6 + 0x0008)
   17EA 74 72              5365 	mov	a,#0x72
   17EC F0                 5366 	movx	@dptr,a
                           5367 ;	genPointerSet
                           5368 ;     genFarPointerSet
   17ED 90s01rE0           5369 	mov	dptr,#(_GPIO_drive_inout_file_name_4_6 + 0x0009)
   17F0 74 73              5370 	mov	a,#0x73
   17F2 F0                 5371 	movx	@dptr,a
                           5372 ;	genPointerSet
                           5373 ;     genFarPointerSet
   17F3 90s01rE1           5374 	mov	dptr,#(_GPIO_drive_inout_file_name_4_6 + 0x000a)
   17F6 74 2F              5375 	mov	a,#0x2F
   17F8 F0                 5376 	movx	@dptr,a
                           5377 ;	genPointerSet
                           5378 ;     genFarPointerSet
   17F9 90s01rE2           5379 	mov	dptr,#(_GPIO_drive_inout_file_name_4_6 + 0x000b)
   17FC 74 43              5380 	mov	a,#0x43
   17FE F0                 5381 	movx	@dptr,a
                           5382 ;	genPointerSet
                           5383 ;     genFarPointerSet
   17FF 90s01rE3           5384 	mov	dptr,#(_GPIO_drive_inout_file_name_4_6 + 0x000c)
   1802 74 6F              5385 	mov	a,#0x6F
   1804 F0                 5386 	movx	@dptr,a
                           5387 ;	genPointerSet
                           5388 ;     genFarPointerSet
   1805 90s01rE4           5389 	mov	dptr,#(_GPIO_drive_inout_file_name_4_6 + 0x000d)
   1808 74 72              5390 	mov	a,#0x72
   180A F0                 5391 	movx	@dptr,a
                           5392 ;	genPointerSet
                           5393 ;     genFarPointerSet
   180B 90s01rE5           5394 	mov	dptr,#(_GPIO_drive_inout_file_name_4_6 + 0x000e)
   180E 74 65              5395 	mov	a,#0x65
   1810 F0                 5396 	movx	@dptr,a
                           5397 ;	genPointerSet
                           5398 ;     genFarPointerSet
   1811 90s01rE6           5399 	mov	dptr,#(_GPIO_drive_inout_file_name_4_6 + 0x000f)
   1814 74 47              5400 	mov	a,#0x47
   1816 F0                 5401 	movx	@dptr,a
                           5402 ;	genPointerSet
                           5403 ;     genFarPointerSet
   1817 90s01rE7           5404 	mov	dptr,#(_GPIO_drive_inout_file_name_4_6 + 0x0010)
   181A 74 50              5405 	mov	a,#0x50
   181C F0                 5406 	movx	@dptr,a
                           5407 ;	genPointerSet
                           5408 ;     genFarPointerSet
   181D 90s01rE8           5409 	mov	dptr,#(_GPIO_drive_inout_file_name_4_6 + 0x0011)
   1820 74 49              5410 	mov	a,#0x49
   1822 F0                 5411 	movx	@dptr,a
                           5412 ;	genPointerSet
                           5413 ;     genFarPointerSet
   1823 90s01rE9           5414 	mov	dptr,#(_GPIO_drive_inout_file_name_4_6 + 0x0012)
   1826 74 4F              5415 	mov	a,#0x4F
   1828 F0                 5416 	movx	@dptr,a
                           5417 ;	genPointerSet
                           5418 ;     genFarPointerSet
   1829 90s01rEA           5419 	mov	dptr,#(_GPIO_drive_inout_file_name_4_6 + 0x0013)
   182C 74 2F              5420 	mov	a,#0x2F
   182E F0                 5421 	movx	@dptr,a
                           5422 ;	genPointerSet
                           5423 ;     genFarPointerSet
   182F 90s01rEB           5424 	mov	dptr,#(_GPIO_drive_inout_file_name_4_6 + 0x0014)
   1832 74 63              5425 	mov	a,#0x63
   1834 F0                 5426 	movx	@dptr,a
                           5427 ;	genPointerSet
                           5428 ;     genFarPointerSet
   1835 90s01rEC           5429 	mov	dptr,#(_GPIO_drive_inout_file_name_4_6 + 0x0015)
   1838 74 6F              5430 	mov	a,#0x6F
   183A F0                 5431 	movx	@dptr,a
                           5432 ;	genPointerSet
                           5433 ;     genFarPointerSet
   183B 90s01rED           5434 	mov	dptr,#(_GPIO_drive_inout_file_name_4_6 + 0x0016)
   183E 74 72              5435 	mov	a,#0x72
   1840 F0                 5436 	movx	@dptr,a
                           5437 ;	genPointerSet
                           5438 ;     genFarPointerSet
   1841 90s01rEE           5439 	mov	dptr,#(_GPIO_drive_inout_file_name_4_6 + 0x0017)
   1844 74 65              5440 	mov	a,#0x65
   1846 F0                 5441 	movx	@dptr,a
                           5442 ;	genPointerSet
                           5443 ;     genFarPointerSet
   1847 90s01rEF           5444 	mov	dptr,#(_GPIO_drive_inout_file_name_4_6 + 0x0018)
   184A 74 5F              5445 	mov	a,#0x5F
   184C F0                 5446 	movx	@dptr,a
                           5447 ;	genPointerSet
                           5448 ;     genFarPointerSet
   184D 90s01rF0           5449 	mov	dptr,#(_GPIO_drive_inout_file_name_4_6 + 0x0019)
   1850 74 67              5450 	mov	a,#0x67
   1852 F0                 5451 	movx	@dptr,a
                           5452 ;	genPointerSet
                           5453 ;     genFarPointerSet
   1853 90s01rF1           5454 	mov	dptr,#(_GPIO_drive_inout_file_name_4_6 + 0x001a)
   1856 74 70              5455 	mov	a,#0x70
   1858 F0                 5456 	movx	@dptr,a
                           5457 ;	genPointerSet
                           5458 ;     genFarPointerSet
   1859 90s01rF2           5459 	mov	dptr,#(_GPIO_drive_inout_file_name_4_6 + 0x001b)
   185C 74 69              5460 	mov	a,#0x69
   185E F0                 5461 	movx	@dptr,a
                           5462 ;	genPointerSet
                           5463 ;     genFarPointerSet
   185F 90s01rF3           5464 	mov	dptr,#(_GPIO_drive_inout_file_name_4_6 + 0x001c)
   1862 74 6F              5465 	mov	a,#0x6F
   1864 F0                 5466 	movx	@dptr,a
                           5467 ;	genPointerSet
                           5468 ;     genFarPointerSet
   1865 90s01rF4           5469 	mov	dptr,#(_GPIO_drive_inout_file_name_4_6 + 0x001d)
   1868 74 2E              5470 	mov	a,#0x2E
   186A F0                 5471 	movx	@dptr,a
                           5472 ;	genPointerSet
                           5473 ;     genFarPointerSet
   186B 90s01rF5           5474 	mov	dptr,#(_GPIO_drive_inout_file_name_4_6 + 0x001e)
   186E 74 63              5475 	mov	a,#0x63
   1870 F0                 5476 	movx	@dptr,a
                           5477 ;	genPointerSet
                           5478 ;     genFarPointerSet
   1871 90s01rF6           5479 	mov	dptr,#(_GPIO_drive_inout_file_name_4_6 + 0x001f)
   1874 74 00              5480 	mov	a,#0x00
   1876 F0                 5481 	movx	@dptr,a
                           5482 ;	genAssign
   1877 90s00r00           5483 	mov	dptr,#_HAL_assert_fail_PARM_2
   187A 74 75              5484 	mov	a,#0x75
   187C F0                 5485 	movx	@dptr,a
   187D A3                 5486 	inc	dptr
   187E 74 01              5487 	mov	a,#0x01
   1880 F0                 5488 	movx	@dptr,a
   1881 A3                 5489 	inc	dptr
   1882 74 00              5490 	mov	a,#0x00
   1884 F0                 5491 	movx	@dptr,a
   1885 A3                 5492 	inc	dptr
   1886 74 00              5493 	mov	a,#0x00
   1888 F0                 5494 	movx	@dptr,a
                           5495 ;	genCall
   1889 75 82rD7           5496 	mov	dpl,#_GPIO_drive_inout_file_name_4_6
   188C 75 83s01           5497 	mov	dph,#(_GPIO_drive_inout_file_name_4_6 >> 8)
   188F 75 F0 00           5498 	mov	b,#0x00
   1892 12s00r00           5499 	lcall	_HAL_assert_fail
                    1895   5500 	C$core_gpio.c$375$1$1 ==.
                           5501 ;	../drivers/CoreGPIO/core_gpio.c:375: }
   1895                    5502 00116$:
                    1895   5503 	C$core_gpio.c$376$1$1 ==.
                    1895   5504 	XG$GPIO_drive_inout$0$0 ==.
   1895 22                 5505 	ret
                           5506 ;------------------------------------------------------------
                           5507 ;Allocation info for local variables in function 'GPIO_enable_irq'
                           5508 ;------------------------------------------------------------
                           5509 ;port_id                   Allocated with name '_GPIO_enable_irq_PARM_2'
                           5510 ;this_gpio                 Allocated with name '_GPIO_enable_irq_this_gpio_1_1'
                           5511 ;cfg_value                 Allocated with name '_GPIO_enable_irq_cfg_value_1_1'
                           5512 ;cfg_reg_addr              Allocated with name '_GPIO_enable_irq_cfg_reg_addr_1_1'
                           5513 ;file_name                 Allocated with name '_GPIO_enable_irq_file_name_3_3'
                           5514 ;------------------------------------------------------------
                    1896   5515 	G$GPIO_enable_irq$0$0 ==.
                    1896   5516 	C$core_gpio.c$382$1$1 ==.
                           5517 ;	../drivers/CoreGPIO/core_gpio.c:382: void GPIO_enable_irq
                           5518 ;	-----------------------------------------
                           5519 ;	 function GPIO_enable_irq
                           5520 ;	-----------------------------------------
   1896                    5521 _GPIO_enable_irq:
                           5522 ;	genReceive
   1896 AA F0              5523 	mov	r2,b
   1898 AB 83              5524 	mov	r3,dph
   189A E5 82              5525 	mov	a,dpl
   189C 90s01rF8           5526 	mov	dptr,#_GPIO_enable_irq_this_gpio_1_1
   189F F0                 5527 	movx	@dptr,a
   18A0 A3                 5528 	inc	dptr
   18A1 EB                 5529 	mov	a,r3
   18A2 F0                 5530 	movx	@dptr,a
   18A3 A3                 5531 	inc	dptr
   18A4 EA                 5532 	mov	a,r2
   18A5 F0                 5533 	movx	@dptr,a
                    18A6   5534 	C$core_gpio.c$389$1$1 ==.
                           5535 ;	../drivers/CoreGPIO/core_gpio.c:389: uint32_t cfg_reg_addr = this_gpio->base_addr;
                           5536 ;	genAssign
   18A6 90s01rF8           5537 	mov	dptr,#_GPIO_enable_irq_this_gpio_1_1
   18A9 E0                 5538 	movx	a,@dptr
   18AA FA                 5539 	mov	r2,a
   18AB A3                 5540 	inc	dptr
   18AC E0                 5541 	movx	a,@dptr
   18AD FB                 5542 	mov	r3,a
   18AE A3                 5543 	inc	dptr
   18AF E0                 5544 	movx	a,@dptr
   18B0 FC                 5545 	mov	r4,a
                           5546 ;	genPointerGet
                           5547 ;	genGenPointerGet
   18B1 8A 82              5548 	mov	dpl,r2
   18B3 8B 83              5549 	mov	dph,r3
   18B5 8C F0              5550 	mov	b,r4
   18B7 12s00r00           5551 	lcall	__gptrget
   18BA FA                 5552 	mov	r2,a
   18BB A3                 5553 	inc	dptr
   18BC 12s00r00           5554 	lcall	__gptrget
   18BF FB                 5555 	mov	r3,a
                           5556 ;	genCast
   18C0 7C 00              5557 	mov	r4,#0x00
   18C2 7D 00              5558 	mov	r5,#0x00
                    18C4   5559 	C$core_gpio.c$391$2$2 ==.
                           5560 ;	../drivers/CoreGPIO/core_gpio.c:391: HAL_ASSERT( port_id < NB_OF_GPIO );
                           5561 ;	genAssign
   18C4 90s01rF7           5562 	mov	dptr,#_GPIO_enable_irq_PARM_2
   18C7 E0                 5563 	movx	a,@dptr
   18C8 FE                 5564 	mov	r6,a
                           5565 ;	genCmpLt
                           5566 ;	genCmp
   18C9 BE 20 00           5567 	cjne	r6,#0x20,00112$
   18CC                    5568 00112$:
   18CC E4                 5569 	clr	a
   18CD 33                 5570 	rlc	a
   18CE FF                 5571 	mov	r7,a
                           5572 ;	genIfx
   18CF EF                 5573 	mov	a,r7
                           5574 ;	genIfxJump
   18D0 60 03              5575 	jz	00113$
   18D2 02s19rCB           5576 	ljmp	00104$
   18D5                    5577 00113$:
                           5578 ;	genPointerSet
                           5579 ;     genFarPointerSet
   18D5 90s01rFB           5580 	mov	dptr,#_GPIO_enable_irq_file_name_3_3
   18D8 74 2E              5581 	mov	a,#0x2E
   18DA F0                 5582 	movx	@dptr,a
                           5583 ;	genPointerSet
                           5584 ;     genFarPointerSet
   18DB 90s01rFC           5585 	mov	dptr,#(_GPIO_enable_irq_file_name_3_3 + 0x0001)
   18DE 74 2E              5586 	mov	a,#0x2E
   18E0 F0                 5587 	movx	@dptr,a
                           5588 ;	genPointerSet
                           5589 ;     genFarPointerSet
   18E1 90s01rFD           5590 	mov	dptr,#(_GPIO_enable_irq_file_name_3_3 + 0x0002)
   18E4 74 2F              5591 	mov	a,#0x2F
   18E6 F0                 5592 	movx	@dptr,a
                           5593 ;	genPointerSet
                           5594 ;     genFarPointerSet
   18E7 90s01rFE           5595 	mov	dptr,#(_GPIO_enable_irq_file_name_3_3 + 0x0003)
   18EA 74 64              5596 	mov	a,#0x64
   18EC F0                 5597 	movx	@dptr,a
                           5598 ;	genPointerSet
                           5599 ;     genFarPointerSet
   18ED 90s01rFF           5600 	mov	dptr,#(_GPIO_enable_irq_file_name_3_3 + 0x0004)
   18F0 74 72              5601 	mov	a,#0x72
   18F2 F0                 5602 	movx	@dptr,a
                           5603 ;	genPointerSet
                           5604 ;     genFarPointerSet
   18F3 90s02r00           5605 	mov	dptr,#(_GPIO_enable_irq_file_name_3_3 + 0x0005)
   18F6 74 69              5606 	mov	a,#0x69
   18F8 F0                 5607 	movx	@dptr,a
                           5608 ;	genPointerSet
                           5609 ;     genFarPointerSet
   18F9 90s02r01           5610 	mov	dptr,#(_GPIO_enable_irq_file_name_3_3 + 0x0006)
   18FC 74 76              5611 	mov	a,#0x76
   18FE F0                 5612 	movx	@dptr,a
                           5613 ;	genPointerSet
                           5614 ;     genFarPointerSet
   18FF 90s02r02           5615 	mov	dptr,#(_GPIO_enable_irq_file_name_3_3 + 0x0007)
   1902 74 65              5616 	mov	a,#0x65
   1904 F0                 5617 	movx	@dptr,a
                           5618 ;	genPointerSet
                           5619 ;     genFarPointerSet
   1905 90s02r03           5620 	mov	dptr,#(_GPIO_enable_irq_file_name_3_3 + 0x0008)
   1908 74 72              5621 	mov	a,#0x72
   190A F0                 5622 	movx	@dptr,a
                           5623 ;	genPointerSet
                           5624 ;     genFarPointerSet
   190B 90s02r04           5625 	mov	dptr,#(_GPIO_enable_irq_file_name_3_3 + 0x0009)
   190E 74 73              5626 	mov	a,#0x73
   1910 F0                 5627 	movx	@dptr,a
                           5628 ;	genPointerSet
                           5629 ;     genFarPointerSet
   1911 90s02r05           5630 	mov	dptr,#(_GPIO_enable_irq_file_name_3_3 + 0x000a)
   1914 74 2F              5631 	mov	a,#0x2F
   1916 F0                 5632 	movx	@dptr,a
                           5633 ;	genPointerSet
                           5634 ;     genFarPointerSet
   1917 90s02r06           5635 	mov	dptr,#(_GPIO_enable_irq_file_name_3_3 + 0x000b)
   191A 74 43              5636 	mov	a,#0x43
   191C F0                 5637 	movx	@dptr,a
                           5638 ;	genPointerSet
                           5639 ;     genFarPointerSet
   191D 90s02r07           5640 	mov	dptr,#(_GPIO_enable_irq_file_name_3_3 + 0x000c)
   1920 74 6F              5641 	mov	a,#0x6F
   1922 F0                 5642 	movx	@dptr,a
                           5643 ;	genPointerSet
                           5644 ;     genFarPointerSet
   1923 90s02r08           5645 	mov	dptr,#(_GPIO_enable_irq_file_name_3_3 + 0x000d)
   1926 74 72              5646 	mov	a,#0x72
   1928 F0                 5647 	movx	@dptr,a
                           5648 ;	genPointerSet
                           5649 ;     genFarPointerSet
   1929 90s02r09           5650 	mov	dptr,#(_GPIO_enable_irq_file_name_3_3 + 0x000e)
   192C 74 65              5651 	mov	a,#0x65
   192E F0                 5652 	movx	@dptr,a
                           5653 ;	genPointerSet
                           5654 ;     genFarPointerSet
   192F 90s02r0A           5655 	mov	dptr,#(_GPIO_enable_irq_file_name_3_3 + 0x000f)
   1932 74 47              5656 	mov	a,#0x47
   1934 F0                 5657 	movx	@dptr,a
                           5658 ;	genPointerSet
                           5659 ;     genFarPointerSet
   1935 90s02r0B           5660 	mov	dptr,#(_GPIO_enable_irq_file_name_3_3 + 0x0010)
   1938 74 50              5661 	mov	a,#0x50
   193A F0                 5662 	movx	@dptr,a
                           5663 ;	genPointerSet
                           5664 ;     genFarPointerSet
   193B 90s02r0C           5665 	mov	dptr,#(_GPIO_enable_irq_file_name_3_3 + 0x0011)
   193E 74 49              5666 	mov	a,#0x49
   1940 F0                 5667 	movx	@dptr,a
                           5668 ;	genPointerSet
                           5669 ;     genFarPointerSet
   1941 90s02r0D           5670 	mov	dptr,#(_GPIO_enable_irq_file_name_3_3 + 0x0012)
   1944 74 4F              5671 	mov	a,#0x4F
   1946 F0                 5672 	movx	@dptr,a
                           5673 ;	genPointerSet
                           5674 ;     genFarPointerSet
   1947 90s02r0E           5675 	mov	dptr,#(_GPIO_enable_irq_file_name_3_3 + 0x0013)
   194A 74 2F              5676 	mov	a,#0x2F
   194C F0                 5677 	movx	@dptr,a
                           5678 ;	genPointerSet
                           5679 ;     genFarPointerSet
   194D 90s02r0F           5680 	mov	dptr,#(_GPIO_enable_irq_file_name_3_3 + 0x0014)
   1950 74 63              5681 	mov	a,#0x63
   1952 F0                 5682 	movx	@dptr,a
                           5683 ;	genPointerSet
                           5684 ;     genFarPointerSet
   1953 90s02r10           5685 	mov	dptr,#(_GPIO_enable_irq_file_name_3_3 + 0x0015)
   1956 74 6F              5686 	mov	a,#0x6F
   1958 F0                 5687 	movx	@dptr,a
                           5688 ;	genPointerSet
                           5689 ;     genFarPointerSet
   1959 90s02r11           5690 	mov	dptr,#(_GPIO_enable_irq_file_name_3_3 + 0x0016)
   195C 74 72              5691 	mov	a,#0x72
   195E F0                 5692 	movx	@dptr,a
                           5693 ;	genPointerSet
                           5694 ;     genFarPointerSet
   195F 90s02r12           5695 	mov	dptr,#(_GPIO_enable_irq_file_name_3_3 + 0x0017)
   1962 74 65              5696 	mov	a,#0x65
   1964 F0                 5697 	movx	@dptr,a
                           5698 ;	genPointerSet
                           5699 ;     genFarPointerSet
   1965 90s02r13           5700 	mov	dptr,#(_GPIO_enable_irq_file_name_3_3 + 0x0018)
   1968 74 5F              5701 	mov	a,#0x5F
   196A F0                 5702 	movx	@dptr,a
                           5703 ;	genPointerSet
                           5704 ;     genFarPointerSet
   196B 90s02r14           5705 	mov	dptr,#(_GPIO_enable_irq_file_name_3_3 + 0x0019)
   196E 74 67              5706 	mov	a,#0x67
   1970 F0                 5707 	movx	@dptr,a
                           5708 ;	genPointerSet
                           5709 ;     genFarPointerSet
   1971 90s02r15           5710 	mov	dptr,#(_GPIO_enable_irq_file_name_3_3 + 0x001a)
   1974 74 70              5711 	mov	a,#0x70
   1976 F0                 5712 	movx	@dptr,a
                           5713 ;	genPointerSet
                           5714 ;     genFarPointerSet
   1977 90s02r16           5715 	mov	dptr,#(_GPIO_enable_irq_file_name_3_3 + 0x001b)
   197A 74 69              5716 	mov	a,#0x69
   197C F0                 5717 	movx	@dptr,a
                           5718 ;	genPointerSet
                           5719 ;     genFarPointerSet
   197D 90s02r17           5720 	mov	dptr,#(_GPIO_enable_irq_file_name_3_3 + 0x001c)
   1980 74 6F              5721 	mov	a,#0x6F
   1982 F0                 5722 	movx	@dptr,a
                           5723 ;	genPointerSet
                           5724 ;     genFarPointerSet
   1983 90s02r18           5725 	mov	dptr,#(_GPIO_enable_irq_file_name_3_3 + 0x001d)
   1986 74 2E              5726 	mov	a,#0x2E
   1988 F0                 5727 	movx	@dptr,a
                           5728 ;	genPointerSet
                           5729 ;     genFarPointerSet
   1989 90s02r19           5730 	mov	dptr,#(_GPIO_enable_irq_file_name_3_3 + 0x001e)
   198C 74 63              5731 	mov	a,#0x63
   198E F0                 5732 	movx	@dptr,a
                           5733 ;	genPointerSet
                           5734 ;     genFarPointerSet
   198F 90s02r1A           5735 	mov	dptr,#(_GPIO_enable_irq_file_name_3_3 + 0x001f)
   1992 74 00              5736 	mov	a,#0x00
   1994 F0                 5737 	movx	@dptr,a
                           5738 ;	genAssign
   1995 90s00r00           5739 	mov	dptr,#_HAL_assert_fail_PARM_2
   1998 74 87              5740 	mov	a,#0x87
   199A F0                 5741 	movx	@dptr,a
   199B A3                 5742 	inc	dptr
   199C 74 01              5743 	mov	a,#0x01
   199E F0                 5744 	movx	@dptr,a
   199F A3                 5745 	inc	dptr
   19A0 74 00              5746 	mov	a,#0x00
   19A2 F0                 5747 	movx	@dptr,a
   19A3 A3                 5748 	inc	dptr
   19A4 74 00              5749 	mov	a,#0x00
   19A6 F0                 5750 	movx	@dptr,a
                           5751 ;	genCall
   19A7 75 82rFB           5752 	mov	dpl,#_GPIO_enable_irq_file_name_3_3
   19AA 75 83s01           5753 	mov	dph,#(_GPIO_enable_irq_file_name_3_3 >> 8)
   19AD 75 F0 00           5754 	mov	b,#0x00
   19B0 C0 02              5755 	push	ar2
   19B2 C0 03              5756 	push	ar3
   19B4 C0 04              5757 	push	ar4
   19B6 C0 05              5758 	push	ar5
   19B8 C0 06              5759 	push	ar6
   19BA C0 07              5760 	push	ar7
   19BC 12s00r00           5761 	lcall	_HAL_assert_fail
   19BF D0 07              5762 	pop	ar7
   19C1 D0 06              5763 	pop	ar6
   19C3 D0 05              5764 	pop	ar5
   19C5 D0 04              5765 	pop	ar4
   19C7 D0 03              5766 	pop	ar3
   19C9 D0 02              5767 	pop	ar2
   19CB                    5768 00104$:
                    19CB   5769 	C$core_gpio.c$393$1$1 ==.
                           5770 ;	../drivers/CoreGPIO/core_gpio.c:393: if ( port_id < NB_OF_GPIO )
                           5771 ;	genIfx
   19CB EF                 5772 	mov	a,r7
                           5773 ;	genIfxJump
   19CC 70 03              5774 	jnz	00114$
   19CE 02s1Ar19           5775 	ljmp	00108$
   19D1                    5776 00114$:
                    19D1   5777 	C$core_gpio.c$395$2$4 ==.
                           5778 ;	../drivers/CoreGPIO/core_gpio.c:395: cfg_reg_addr += (port_id * 4);
                           5779 ;	genMult
                           5780 ;	genMultOneByte
   19D1 EE                 5781 	mov	a,r6
   19D2 75 F0 04           5782 	mov	b,#0x04
   19D5 A4                 5783 	mul	ab
   19D6 FE                 5784 	mov	r6,a
   19D7 AF F0              5785 	mov	r7,b
                           5786 ;	genCast
   19D9 EF                 5787 	mov	a,r7
   19DA 33                 5788 	rlc	a
   19DB 95 E0              5789 	subb	a,acc
   19DD F8                 5790 	mov	r0,a
   19DE F9                 5791 	mov	r1,a
                           5792 ;	genPlus
   19DF E5 06              5793 	mov	a,ar6
   19E1 25 02              5794 	add	a,ar2
   19E3 FA                 5795 	mov	r2,a
   19E4 E5 07              5796 	mov	a,ar7
   19E6 35 03              5797 	addc	a,ar3
   19E8 FB                 5798 	mov	r3,a
   19E9 E5 00              5799 	mov	a,ar0
   19EB 35 04              5800 	addc	a,ar4
   19ED FC                 5801 	mov	r4,a
   19EE E5 01              5802 	mov	a,ar1
   19F0 35 05              5803 	addc	a,ar5
   19F2 FD                 5804 	mov	r5,a
                    19F3   5805 	C$core_gpio.c$396$2$4 ==.
                           5806 ;	../drivers/CoreGPIO/core_gpio.c:396: cfg_value = HW_get_8bit_reg( cfg_reg_addr );
                           5807 ;	genCast
                           5808 ;	genCall
   19F3 8A 82              5809 	mov	dpl,r2
   19F5 8B 83              5810 	mov	dph,r3
   19F7 C0 02              5811 	push	ar2
   19F9 C0 03              5812 	push	ar3
   19FB 12s00r00           5813 	lcall	_HW_get_8bit_reg
   19FE AC 82              5814 	mov	r4,dpl
   1A00 D0 03              5815 	pop	ar3
   1A02 D0 02              5816 	pop	ar2
                           5817 ;	genCast
   1A04 7D 00              5818 	mov	r5,#0x00
   1A06 7E 00              5819 	mov	r6,#0x00
   1A08 7F 00              5820 	mov	r7,#0x00
                    1A0A   5821 	C$core_gpio.c$397$2$4 ==.
                           5822 ;	../drivers/CoreGPIO/core_gpio.c:397: cfg_value |= GPIO_INT_ENABLE_MASK;
                           5823 ;	genOr
   1A0A 43 04 08           5824 	orl	ar4,#0x08
                    1A0D   5825 	C$core_gpio.c$398$2$4 ==.
                           5826 ;	../drivers/CoreGPIO/core_gpio.c:398: HW_set_8bit_reg( cfg_reg_addr, cfg_value );
                           5827 ;	genCast
   1A0D 90s00r00           5828 	mov	dptr,#_HW_set_8bit_reg_PARM_2
   1A10 EC                 5829 	mov	a,r4
   1A11 F0                 5830 	movx	@dptr,a
                           5831 ;	genCall
   1A12 8A 82              5832 	mov	dpl,r2
   1A14 8B 83              5833 	mov	dph,r3
   1A16 12s00r00           5834 	lcall	_HW_set_8bit_reg
   1A19                    5835 00108$:
                    1A19   5836 	C$core_gpio.c$400$2$1 ==.
                    1A19   5837 	XG$GPIO_enable_irq$0$0 ==.
   1A19 22                 5838 	ret
                           5839 ;------------------------------------------------------------
                           5840 ;Allocation info for local variables in function 'GPIO_disable_irq'
                           5841 ;------------------------------------------------------------
                           5842 ;port_id                   Allocated with name '_GPIO_disable_irq_PARM_2'
                           5843 ;this_gpio                 Allocated with name '_GPIO_disable_irq_this_gpio_1_1'
                           5844 ;cfg_value                 Allocated with name '_GPIO_disable_irq_cfg_value_1_1'
                           5845 ;cfg_reg_addr              Allocated with name '_GPIO_disable_irq_cfg_reg_addr_1_1'
                           5846 ;file_name                 Allocated with name '_GPIO_disable_irq_file_name_3_3'
                           5847 ;------------------------------------------------------------
                    1A1A   5848 	G$GPIO_disable_irq$0$0 ==.
                    1A1A   5849 	C$core_gpio.c$406$2$1 ==.
                           5850 ;	../drivers/CoreGPIO/core_gpio.c:406: void GPIO_disable_irq
                           5851 ;	-----------------------------------------
                           5852 ;	 function GPIO_disable_irq
                           5853 ;	-----------------------------------------
   1A1A                    5854 _GPIO_disable_irq:
                           5855 ;	genReceive
   1A1A AA F0              5856 	mov	r2,b
   1A1C AB 83              5857 	mov	r3,dph
   1A1E E5 82              5858 	mov	a,dpl
   1A20 90s02r1C           5859 	mov	dptr,#_GPIO_disable_irq_this_gpio_1_1
   1A23 F0                 5860 	movx	@dptr,a
   1A24 A3                 5861 	inc	dptr
   1A25 EB                 5862 	mov	a,r3
   1A26 F0                 5863 	movx	@dptr,a
   1A27 A3                 5864 	inc	dptr
   1A28 EA                 5865 	mov	a,r2
   1A29 F0                 5866 	movx	@dptr,a
                    1A2A   5867 	C$core_gpio.c$413$1$1 ==.
                           5868 ;	../drivers/CoreGPIO/core_gpio.c:413: uint32_t cfg_reg_addr = this_gpio->base_addr;
                           5869 ;	genAssign
   1A2A 90s02r1C           5870 	mov	dptr,#_GPIO_disable_irq_this_gpio_1_1
   1A2D E0                 5871 	movx	a,@dptr
   1A2E FA                 5872 	mov	r2,a
   1A2F A3                 5873 	inc	dptr
   1A30 E0                 5874 	movx	a,@dptr
   1A31 FB                 5875 	mov	r3,a
   1A32 A3                 5876 	inc	dptr
   1A33 E0                 5877 	movx	a,@dptr
   1A34 FC                 5878 	mov	r4,a
                           5879 ;	genPointerGet
                           5880 ;	genGenPointerGet
   1A35 8A 82              5881 	mov	dpl,r2
   1A37 8B 83              5882 	mov	dph,r3
   1A39 8C F0              5883 	mov	b,r4
   1A3B 12s00r00           5884 	lcall	__gptrget
   1A3E FA                 5885 	mov	r2,a
   1A3F A3                 5886 	inc	dptr
   1A40 12s00r00           5887 	lcall	__gptrget
   1A43 FB                 5888 	mov	r3,a
                           5889 ;	genCast
   1A44 7C 00              5890 	mov	r4,#0x00
   1A46 7D 00              5891 	mov	r5,#0x00
                    1A48   5892 	C$core_gpio.c$415$2$2 ==.
                           5893 ;	../drivers/CoreGPIO/core_gpio.c:415: HAL_ASSERT( port_id < NB_OF_GPIO );
                           5894 ;	genAssign
   1A48 90s02r1B           5895 	mov	dptr,#_GPIO_disable_irq_PARM_2
   1A4B E0                 5896 	movx	a,@dptr
   1A4C FE                 5897 	mov	r6,a
                           5898 ;	genCmpLt
                           5899 ;	genCmp
   1A4D BE 20 00           5900 	cjne	r6,#0x20,00112$
   1A50                    5901 00112$:
   1A50 E4                 5902 	clr	a
   1A51 33                 5903 	rlc	a
   1A52 FF                 5904 	mov	r7,a
                           5905 ;	genIfx
   1A53 EF                 5906 	mov	a,r7
                           5907 ;	genIfxJump
   1A54 60 03              5908 	jz	00113$
   1A56 02s1Br4F           5909 	ljmp	00104$
   1A59                    5910 00113$:
                           5911 ;	genPointerSet
                           5912 ;     genFarPointerSet
   1A59 90s02r1F           5913 	mov	dptr,#_GPIO_disable_irq_file_name_3_3
   1A5C 74 2E              5914 	mov	a,#0x2E
   1A5E F0                 5915 	movx	@dptr,a
                           5916 ;	genPointerSet
                           5917 ;     genFarPointerSet
   1A5F 90s02r20           5918 	mov	dptr,#(_GPIO_disable_irq_file_name_3_3 + 0x0001)
   1A62 74 2E              5919 	mov	a,#0x2E
   1A64 F0                 5920 	movx	@dptr,a
                           5921 ;	genPointerSet
                           5922 ;     genFarPointerSet
   1A65 90s02r21           5923 	mov	dptr,#(_GPIO_disable_irq_file_name_3_3 + 0x0002)
   1A68 74 2F              5924 	mov	a,#0x2F
   1A6A F0                 5925 	movx	@dptr,a
                           5926 ;	genPointerSet
                           5927 ;     genFarPointerSet
   1A6B 90s02r22           5928 	mov	dptr,#(_GPIO_disable_irq_file_name_3_3 + 0x0003)
   1A6E 74 64              5929 	mov	a,#0x64
   1A70 F0                 5930 	movx	@dptr,a
                           5931 ;	genPointerSet
                           5932 ;     genFarPointerSet
   1A71 90s02r23           5933 	mov	dptr,#(_GPIO_disable_irq_file_name_3_3 + 0x0004)
   1A74 74 72              5934 	mov	a,#0x72
   1A76 F0                 5935 	movx	@dptr,a
                           5936 ;	genPointerSet
                           5937 ;     genFarPointerSet
   1A77 90s02r24           5938 	mov	dptr,#(_GPIO_disable_irq_file_name_3_3 + 0x0005)
   1A7A 74 69              5939 	mov	a,#0x69
   1A7C F0                 5940 	movx	@dptr,a
                           5941 ;	genPointerSet
                           5942 ;     genFarPointerSet
   1A7D 90s02r25           5943 	mov	dptr,#(_GPIO_disable_irq_file_name_3_3 + 0x0006)
   1A80 74 76              5944 	mov	a,#0x76
   1A82 F0                 5945 	movx	@dptr,a
                           5946 ;	genPointerSet
                           5947 ;     genFarPointerSet
   1A83 90s02r26           5948 	mov	dptr,#(_GPIO_disable_irq_file_name_3_3 + 0x0007)
   1A86 74 65              5949 	mov	a,#0x65
   1A88 F0                 5950 	movx	@dptr,a
                           5951 ;	genPointerSet
                           5952 ;     genFarPointerSet
   1A89 90s02r27           5953 	mov	dptr,#(_GPIO_disable_irq_file_name_3_3 + 0x0008)
   1A8C 74 72              5954 	mov	a,#0x72
   1A8E F0                 5955 	movx	@dptr,a
                           5956 ;	genPointerSet
                           5957 ;     genFarPointerSet
   1A8F 90s02r28           5958 	mov	dptr,#(_GPIO_disable_irq_file_name_3_3 + 0x0009)
   1A92 74 73              5959 	mov	a,#0x73
   1A94 F0                 5960 	movx	@dptr,a
                           5961 ;	genPointerSet
                           5962 ;     genFarPointerSet
   1A95 90s02r29           5963 	mov	dptr,#(_GPIO_disable_irq_file_name_3_3 + 0x000a)
   1A98 74 2F              5964 	mov	a,#0x2F
   1A9A F0                 5965 	movx	@dptr,a
                           5966 ;	genPointerSet
                           5967 ;     genFarPointerSet
   1A9B 90s02r2A           5968 	mov	dptr,#(_GPIO_disable_irq_file_name_3_3 + 0x000b)
   1A9E 74 43              5969 	mov	a,#0x43
   1AA0 F0                 5970 	movx	@dptr,a
                           5971 ;	genPointerSet
                           5972 ;     genFarPointerSet
   1AA1 90s02r2B           5973 	mov	dptr,#(_GPIO_disable_irq_file_name_3_3 + 0x000c)
   1AA4 74 6F              5974 	mov	a,#0x6F
   1AA6 F0                 5975 	movx	@dptr,a
                           5976 ;	genPointerSet
                           5977 ;     genFarPointerSet
   1AA7 90s02r2C           5978 	mov	dptr,#(_GPIO_disable_irq_file_name_3_3 + 0x000d)
   1AAA 74 72              5979 	mov	a,#0x72
   1AAC F0                 5980 	movx	@dptr,a
                           5981 ;	genPointerSet
                           5982 ;     genFarPointerSet
   1AAD 90s02r2D           5983 	mov	dptr,#(_GPIO_disable_irq_file_name_3_3 + 0x000e)
   1AB0 74 65              5984 	mov	a,#0x65
   1AB2 F0                 5985 	movx	@dptr,a
                           5986 ;	genPointerSet
                           5987 ;     genFarPointerSet
   1AB3 90s02r2E           5988 	mov	dptr,#(_GPIO_disable_irq_file_name_3_3 + 0x000f)
   1AB6 74 47              5989 	mov	a,#0x47
   1AB8 F0                 5990 	movx	@dptr,a
                           5991 ;	genPointerSet
                           5992 ;     genFarPointerSet
   1AB9 90s02r2F           5993 	mov	dptr,#(_GPIO_disable_irq_file_name_3_3 + 0x0010)
   1ABC 74 50              5994 	mov	a,#0x50
   1ABE F0                 5995 	movx	@dptr,a
                           5996 ;	genPointerSet
                           5997 ;     genFarPointerSet
   1ABF 90s02r30           5998 	mov	dptr,#(_GPIO_disable_irq_file_name_3_3 + 0x0011)
   1AC2 74 49              5999 	mov	a,#0x49
   1AC4 F0                 6000 	movx	@dptr,a
                           6001 ;	genPointerSet
                           6002 ;     genFarPointerSet
   1AC5 90s02r31           6003 	mov	dptr,#(_GPIO_disable_irq_file_name_3_3 + 0x0012)
   1AC8 74 4F              6004 	mov	a,#0x4F
   1ACA F0                 6005 	movx	@dptr,a
                           6006 ;	genPointerSet
                           6007 ;     genFarPointerSet
   1ACB 90s02r32           6008 	mov	dptr,#(_GPIO_disable_irq_file_name_3_3 + 0x0013)
   1ACE 74 2F              6009 	mov	a,#0x2F
   1AD0 F0                 6010 	movx	@dptr,a
                           6011 ;	genPointerSet
                           6012 ;     genFarPointerSet
   1AD1 90s02r33           6013 	mov	dptr,#(_GPIO_disable_irq_file_name_3_3 + 0x0014)
   1AD4 74 63              6014 	mov	a,#0x63
   1AD6 F0                 6015 	movx	@dptr,a
                           6016 ;	genPointerSet
                           6017 ;     genFarPointerSet
   1AD7 90s02r34           6018 	mov	dptr,#(_GPIO_disable_irq_file_name_3_3 + 0x0015)
   1ADA 74 6F              6019 	mov	a,#0x6F
   1ADC F0                 6020 	movx	@dptr,a
                           6021 ;	genPointerSet
                           6022 ;     genFarPointerSet
   1ADD 90s02r35           6023 	mov	dptr,#(_GPIO_disable_irq_file_name_3_3 + 0x0016)
   1AE0 74 72              6024 	mov	a,#0x72
   1AE2 F0                 6025 	movx	@dptr,a
                           6026 ;	genPointerSet
                           6027 ;     genFarPointerSet
   1AE3 90s02r36           6028 	mov	dptr,#(_GPIO_disable_irq_file_name_3_3 + 0x0017)
   1AE6 74 65              6029 	mov	a,#0x65
   1AE8 F0                 6030 	movx	@dptr,a
                           6031 ;	genPointerSet
                           6032 ;     genFarPointerSet
   1AE9 90s02r37           6033 	mov	dptr,#(_GPIO_disable_irq_file_name_3_3 + 0x0018)
   1AEC 74 5F              6034 	mov	a,#0x5F
   1AEE F0                 6035 	movx	@dptr,a
                           6036 ;	genPointerSet
                           6037 ;     genFarPointerSet
   1AEF 90s02r38           6038 	mov	dptr,#(_GPIO_disable_irq_file_name_3_3 + 0x0019)
   1AF2 74 67              6039 	mov	a,#0x67
   1AF4 F0                 6040 	movx	@dptr,a
                           6041 ;	genPointerSet
                           6042 ;     genFarPointerSet
   1AF5 90s02r39           6043 	mov	dptr,#(_GPIO_disable_irq_file_name_3_3 + 0x001a)
   1AF8 74 70              6044 	mov	a,#0x70
   1AFA F0                 6045 	movx	@dptr,a
                           6046 ;	genPointerSet
                           6047 ;     genFarPointerSet
   1AFB 90s02r3A           6048 	mov	dptr,#(_GPIO_disable_irq_file_name_3_3 + 0x001b)
   1AFE 74 69              6049 	mov	a,#0x69
   1B00 F0                 6050 	movx	@dptr,a
                           6051 ;	genPointerSet
                           6052 ;     genFarPointerSet
   1B01 90s02r3B           6053 	mov	dptr,#(_GPIO_disable_irq_file_name_3_3 + 0x001c)
   1B04 74 6F              6054 	mov	a,#0x6F
   1B06 F0                 6055 	movx	@dptr,a
                           6056 ;	genPointerSet
                           6057 ;     genFarPointerSet
   1B07 90s02r3C           6058 	mov	dptr,#(_GPIO_disable_irq_file_name_3_3 + 0x001d)
   1B0A 74 2E              6059 	mov	a,#0x2E
   1B0C F0                 6060 	movx	@dptr,a
                           6061 ;	genPointerSet
                           6062 ;     genFarPointerSet
   1B0D 90s02r3D           6063 	mov	dptr,#(_GPIO_disable_irq_file_name_3_3 + 0x001e)
   1B10 74 63              6064 	mov	a,#0x63
   1B12 F0                 6065 	movx	@dptr,a
                           6066 ;	genPointerSet
                           6067 ;     genFarPointerSet
   1B13 90s02r3E           6068 	mov	dptr,#(_GPIO_disable_irq_file_name_3_3 + 0x001f)
   1B16 74 00              6069 	mov	a,#0x00
   1B18 F0                 6070 	movx	@dptr,a
                           6071 ;	genAssign
   1B19 90s00r00           6072 	mov	dptr,#_HAL_assert_fail_PARM_2
   1B1C 74 9F              6073 	mov	a,#0x9F
   1B1E F0                 6074 	movx	@dptr,a
   1B1F A3                 6075 	inc	dptr
   1B20 74 01              6076 	mov	a,#0x01
   1B22 F0                 6077 	movx	@dptr,a
   1B23 A3                 6078 	inc	dptr
   1B24 74 00              6079 	mov	a,#0x00
   1B26 F0                 6080 	movx	@dptr,a
   1B27 A3                 6081 	inc	dptr
   1B28 74 00              6082 	mov	a,#0x00
   1B2A F0                 6083 	movx	@dptr,a
                           6084 ;	genCall
   1B2B 75 82r1F           6085 	mov	dpl,#_GPIO_disable_irq_file_name_3_3
   1B2E 75 83s02           6086 	mov	dph,#(_GPIO_disable_irq_file_name_3_3 >> 8)
   1B31 75 F0 00           6087 	mov	b,#0x00
   1B34 C0 02              6088 	push	ar2
   1B36 C0 03              6089 	push	ar3
   1B38 C0 04              6090 	push	ar4
   1B3A C0 05              6091 	push	ar5
   1B3C C0 06              6092 	push	ar6
   1B3E C0 07              6093 	push	ar7
   1B40 12s00r00           6094 	lcall	_HAL_assert_fail
   1B43 D0 07              6095 	pop	ar7
   1B45 D0 06              6096 	pop	ar6
   1B47 D0 05              6097 	pop	ar5
   1B49 D0 04              6098 	pop	ar4
   1B4B D0 03              6099 	pop	ar3
   1B4D D0 02              6100 	pop	ar2
   1B4F                    6101 00104$:
                    1B4F   6102 	C$core_gpio.c$417$1$1 ==.
                           6103 ;	../drivers/CoreGPIO/core_gpio.c:417: if ( port_id < NB_OF_GPIO )
                           6104 ;	genIfx
   1B4F EF                 6105 	mov	a,r7
                           6106 ;	genIfxJump
   1B50 70 03              6107 	jnz	00114$
   1B52 02s1Br9D           6108 	ljmp	00108$
   1B55                    6109 00114$:
                    1B55   6110 	C$core_gpio.c$419$2$4 ==.
                           6111 ;	../drivers/CoreGPIO/core_gpio.c:419: cfg_reg_addr += (port_id * 4);
                           6112 ;	genMult
                           6113 ;	genMultOneByte
   1B55 EE                 6114 	mov	a,r6
   1B56 75 F0 04           6115 	mov	b,#0x04
   1B59 A4                 6116 	mul	ab
   1B5A FE                 6117 	mov	r6,a
   1B5B AF F0              6118 	mov	r7,b
                           6119 ;	genCast
   1B5D EF                 6120 	mov	a,r7
   1B5E 33                 6121 	rlc	a
   1B5F 95 E0              6122 	subb	a,acc
   1B61 F8                 6123 	mov	r0,a
   1B62 F9                 6124 	mov	r1,a
                           6125 ;	genPlus
   1B63 E5 06              6126 	mov	a,ar6
   1B65 25 02              6127 	add	a,ar2
   1B67 FA                 6128 	mov	r2,a
   1B68 E5 07              6129 	mov	a,ar7
   1B6A 35 03              6130 	addc	a,ar3
   1B6C FB                 6131 	mov	r3,a
   1B6D E5 00              6132 	mov	a,ar0
   1B6F 35 04              6133 	addc	a,ar4
   1B71 FC                 6134 	mov	r4,a
   1B72 E5 01              6135 	mov	a,ar1
   1B74 35 05              6136 	addc	a,ar5
   1B76 FD                 6137 	mov	r5,a
                    1B77   6138 	C$core_gpio.c$420$2$4 ==.
                           6139 ;	../drivers/CoreGPIO/core_gpio.c:420: cfg_value = HW_get_8bit_reg( cfg_reg_addr );
                           6140 ;	genCast
                           6141 ;	genCall
   1B77 8A 82              6142 	mov	dpl,r2
   1B79 8B 83              6143 	mov	dph,r3
   1B7B C0 02              6144 	push	ar2
   1B7D C0 03              6145 	push	ar3
   1B7F 12s00r00           6146 	lcall	_HW_get_8bit_reg
   1B82 AC 82              6147 	mov	r4,dpl
   1B84 D0 03              6148 	pop	ar3
   1B86 D0 02              6149 	pop	ar2
                           6150 ;	genCast
   1B88 7D 00              6151 	mov	r5,#0x00
   1B8A 7E 00              6152 	mov	r6,#0x00
   1B8C 7F 00              6153 	mov	r7,#0x00
                    1B8E   6154 	C$core_gpio.c$421$2$4 ==.
                           6155 ;	../drivers/CoreGPIO/core_gpio.c:421: cfg_value &= ~GPIO_INT_ENABLE_MASK;
                           6156 ;	genAnd
   1B8E 53 04 F7           6157 	anl	ar4,#0xF7
                    1B91   6158 	C$core_gpio.c$422$2$4 ==.
                           6159 ;	../drivers/CoreGPIO/core_gpio.c:422: HW_set_8bit_reg( cfg_reg_addr, cfg_value );
                           6160 ;	genCast
   1B91 90s00r00           6161 	mov	dptr,#_HW_set_8bit_reg_PARM_2
   1B94 EC                 6162 	mov	a,r4
   1B95 F0                 6163 	movx	@dptr,a
                           6164 ;	genCall
   1B96 8A 82              6165 	mov	dpl,r2
   1B98 8B 83              6166 	mov	dph,r3
   1B9A 12s00r00           6167 	lcall	_HW_set_8bit_reg
   1B9D                    6168 00108$:
                    1B9D   6169 	C$core_gpio.c$424$2$1 ==.
                    1B9D   6170 	XG$GPIO_disable_irq$0$0 ==.
   1B9D 22                 6171 	ret
                           6172 ;------------------------------------------------------------
                           6173 ;Allocation info for local variables in function 'GPIO_clear_irq'
                           6174 ;------------------------------------------------------------
                           6175 ;sloc0                     Allocated with name '_GPIO_clear_irq_sloc0_1_0'
                           6176 ;port_id                   Allocated with name '_GPIO_clear_irq_PARM_2'
                           6177 ;this_gpio                 Allocated with name '_GPIO_clear_irq_this_gpio_1_1'
                           6178 ;irq_clr_value             Allocated with name '_GPIO_clear_irq_irq_clr_value_1_1'
                           6179 ;file_name                 Allocated with name '_GPIO_clear_irq_file_name_4_4'
                           6180 ;------------------------------------------------------------
                    1B9E   6181 	G$GPIO_clear_irq$0$0 ==.
                    1B9E   6182 	C$core_gpio.c$430$2$1 ==.
                           6183 ;	../drivers/CoreGPIO/core_gpio.c:430: void GPIO_clear_irq
                           6184 ;	-----------------------------------------
                           6185 ;	 function GPIO_clear_irq
                           6186 ;	-----------------------------------------
   1B9E                    6187 _GPIO_clear_irq:
                           6188 ;	genReceive
   1B9E AA F0              6189 	mov	r2,b
   1BA0 AB 83              6190 	mov	r3,dph
   1BA2 E5 82              6191 	mov	a,dpl
   1BA4 90s02r40           6192 	mov	dptr,#_GPIO_clear_irq_this_gpio_1_1
   1BA7 F0                 6193 	movx	@dptr,a
   1BA8 A3                 6194 	inc	dptr
   1BA9 EB                 6195 	mov	a,r3
   1BAA F0                 6196 	movx	@dptr,a
   1BAB A3                 6197 	inc	dptr
   1BAC EA                 6198 	mov	a,r2
   1BAD F0                 6199 	movx	@dptr,a
                    1BAE   6200 	C$core_gpio.c$436$1$1 ==.
                           6201 ;	../drivers/CoreGPIO/core_gpio.c:436: uint32_t irq_clr_value = ((uint32_t)1) << ((uint32_t)port_id);
                           6202 ;	genAssign
   1BAE 90s02r3F           6203 	mov	dptr,#_GPIO_clear_irq_PARM_2
   1BB1 E0                 6204 	movx	a,@dptr
   1BB2 FA                 6205 	mov	r2,a
                           6206 ;	genCast
   1BB3 7B 00              6207 	mov	r3,#0x00
   1BB5 7C 00              6208 	mov	r4,#0x00
   1BB7 7D 00              6209 	mov	r5,#0x00
                           6210 ;	genLeftShift
   1BB9 8A F0              6211 	mov	b,r2
   1BBB 05 F0              6212 	inc	b
   1BBD 75*10 01           6213 	mov	_GPIO_clear_irq_sloc0_1_0,#0x01
   1BC0 75*11 00           6214 	mov	(_GPIO_clear_irq_sloc0_1_0 + 1),#0x00
   1BC3 75*12 00           6215 	mov	(_GPIO_clear_irq_sloc0_1_0 + 2),#0x00
   1BC6 75*13 00           6216 	mov	(_GPIO_clear_irq_sloc0_1_0 + 3),#0x00
   1BC9 80 15              6217 	sjmp	00117$
   1BCB                    6218 00116$:
   1BCB E5*10              6219 	mov	a,_GPIO_clear_irq_sloc0_1_0
   1BCD 25 E0              6220 	add	a,acc
   1BCF F5*10              6221 	mov	_GPIO_clear_irq_sloc0_1_0,a
   1BD1 E5*11              6222 	mov	a,(_GPIO_clear_irq_sloc0_1_0 + 1)
   1BD3 33                 6223 	rlc	a
   1BD4 F5*11              6224 	mov	(_GPIO_clear_irq_sloc0_1_0 + 1),a
   1BD6 E5*12              6225 	mov	a,(_GPIO_clear_irq_sloc0_1_0 + 2)
   1BD8 33                 6226 	rlc	a
   1BD9 F5*12              6227 	mov	(_GPIO_clear_irq_sloc0_1_0 + 2),a
   1BDB E5*13              6228 	mov	a,(_GPIO_clear_irq_sloc0_1_0 + 3)
   1BDD 33                 6229 	rlc	a
   1BDE F5*13              6230 	mov	(_GPIO_clear_irq_sloc0_1_0 + 3),a
   1BE0                    6231 00117$:
   1BE0 D5 F0 E8           6232 	djnz	b,00116$
                    1BE3   6233 	C$core_gpio.c$438$1$1 ==.
                           6234 ;	../drivers/CoreGPIO/core_gpio.c:438: switch( this_gpio->apb_bus_width )
                           6235 ;	genAssign
   1BE3 90s02r40           6236 	mov	dptr,#_GPIO_clear_irq_this_gpio_1_1
   1BE6 E0                 6237 	movx	a,@dptr
   1BE7 FE                 6238 	mov	r6,a
   1BE8 A3                 6239 	inc	dptr
   1BE9 E0                 6240 	movx	a,@dptr
   1BEA FF                 6241 	mov	r7,a
   1BEB A3                 6242 	inc	dptr
   1BEC E0                 6243 	movx	a,@dptr
   1BED F8                 6244 	mov	r0,a
                           6245 ;	genPlus
                           6246 ;	genPlusIncr
   1BEE 74 02              6247 	mov	a,#0x02
   1BF0 25 06              6248 	add	a,ar6
   1BF2 F9                 6249 	mov	r1,a
   1BF3 74 00              6250 	mov	a,#0x00
   1BF5 35 07              6251 	addc	a,ar7
   1BF7 FA                 6252 	mov	r2,a
   1BF8 88 03              6253 	mov	ar3,r0
                           6254 ;	genPointerGet
                           6255 ;	genGenPointerGet
   1BFA 89 82              6256 	mov	dpl,r1
   1BFC 8A 83              6257 	mov	dph,r2
   1BFE 8B F0              6258 	mov	b,r3
   1C00 12s00r00           6259 	lcall	__gptrget
   1C03 FA                 6260 	mov	r2,a
                           6261 ;	genCmpEq
                           6262 ;	gencjneshort
   1C04 BA 00 03           6263 	cjne	r2,#0x00,00118$
   1C07 02s1CrB0           6264 	ljmp	00103$
   1C0A                    6265 00118$:
                           6266 ;	genCmpEq
                           6267 ;	gencjneshort
   1C0A BA 01 03           6268 	cjne	r2,#0x01,00119$
   1C0D 02s1Cr4D           6269 	ljmp	00102$
   1C10                    6270 00119$:
                           6271 ;	genCmpEq
                           6272 ;	gencjneshort
   1C10 BA 02 02           6273 	cjne	r2,#0x02,00120$
   1C13 80 03              6274 	sjmp	00121$
   1C15                    6275 00120$:
   1C15 02s1Dr6F           6276 	ljmp	00107$
   1C18                    6277 00121$:
                    1C18   6278 	C$core_gpio.c$441$2$2 ==.
                           6279 ;	../drivers/CoreGPIO/core_gpio.c:441: HAL_set_32bit_reg( this_gpio->base_addr, IRQ, irq_clr_value );
                           6280 ;	genPointerGet
                           6281 ;	genGenPointerGet
   1C18 8E 82              6282 	mov	dpl,r6
   1C1A 8F 83              6283 	mov	dph,r7
   1C1C 88 F0              6284 	mov	b,r0
   1C1E 12s00r00           6285 	lcall	__gptrget
   1C21 FA                 6286 	mov	r2,a
   1C22 A3                 6287 	inc	dptr
   1C23 12s00r00           6288 	lcall	__gptrget
   1C26 FB                 6289 	mov	r3,a
                           6290 ;	genPlus
                           6291 ;	genPlusIncr
   1C27 74 80              6292 	mov	a,#0x80
   1C29 25 02              6293 	add	a,ar2
   1C2B FA                 6294 	mov	r2,a
   1C2C 74 00              6295 	mov	a,#0x00
   1C2E 35 03              6296 	addc	a,ar3
   1C30 FB                 6297 	mov	r3,a
                           6298 ;	genAssign
   1C31 90s00r00           6299 	mov	dptr,#_HW_set_32bit_reg_PARM_2
   1C34 E5*10              6300 	mov	a,_GPIO_clear_irq_sloc0_1_0
   1C36 F0                 6301 	movx	@dptr,a
   1C37 A3                 6302 	inc	dptr
   1C38 E5*11              6303 	mov	a,(_GPIO_clear_irq_sloc0_1_0 + 1)
   1C3A F0                 6304 	movx	@dptr,a
   1C3B A3                 6305 	inc	dptr
   1C3C E5*12              6306 	mov	a,(_GPIO_clear_irq_sloc0_1_0 + 2)
   1C3E F0                 6307 	movx	@dptr,a
   1C3F A3                 6308 	inc	dptr
   1C40 E5*13              6309 	mov	a,(_GPIO_clear_irq_sloc0_1_0 + 3)
   1C42 F0                 6310 	movx	@dptr,a
                           6311 ;	genCall
   1C43 8A 82              6312 	mov	dpl,r2
   1C45 8B 83              6313 	mov	dph,r3
   1C47 12s00r00           6314 	lcall	_HW_set_32bit_reg
                    1C4A   6315 	C$core_gpio.c$442$2$2 ==.
                           6316 ;	../drivers/CoreGPIO/core_gpio.c:442: break;
   1C4A 02s1Er4D           6317 	ljmp	00111$
                    1C4D   6318 	C$core_gpio.c$444$2$2 ==.
                           6319 ;	../drivers/CoreGPIO/core_gpio.c:444: case GPIO_APB_16_BITS_BUS:
   1C4D                    6320 00102$:
                    1C4D   6321 	C$core_gpio.c$445$2$2 ==.
                           6322 ;	../drivers/CoreGPIO/core_gpio.c:445: HAL_set_16bit_reg( this_gpio->base_addr, IRQ0, irq_clr_value );
                           6323 ;	genPointerGet
                           6324 ;	genGenPointerGet
   1C4D 8E 82              6325 	mov	dpl,r6
   1C4F 8F 83              6326 	mov	dph,r7
   1C51 88 F0              6327 	mov	b,r0
   1C53 12s00r00           6328 	lcall	__gptrget
   1C56 FA                 6329 	mov	r2,a
   1C57 A3                 6330 	inc	dptr
   1C58 12s00r00           6331 	lcall	__gptrget
   1C5B FB                 6332 	mov	r3,a
                           6333 ;	genPlus
                           6334 ;	genPlusIncr
   1C5C 74 80              6335 	mov	a,#0x80
   1C5E 25 02              6336 	add	a,ar2
   1C60 FA                 6337 	mov	r2,a
   1C61 74 00              6338 	mov	a,#0x00
   1C63 35 03              6339 	addc	a,ar3
   1C65 FB                 6340 	mov	r3,a
                           6341 ;	genCast
   1C66 90s00r00           6342 	mov	dptr,#_HW_set_16bit_reg_PARM_2
   1C69 E5*10              6343 	mov	a,_GPIO_clear_irq_sloc0_1_0
   1C6B F0                 6344 	movx	@dptr,a
   1C6C A3                 6345 	inc	dptr
   1C6D E5*11              6346 	mov	a,(_GPIO_clear_irq_sloc0_1_0 + 1)
   1C6F F0                 6347 	movx	@dptr,a
                           6348 ;	genCall
   1C70 8A 82              6349 	mov	dpl,r2
   1C72 8B 83              6350 	mov	dph,r3
   1C74 C0 06              6351 	push	ar6
   1C76 C0 07              6352 	push	ar7
   1C78 C0 00              6353 	push	ar0
   1C7A 12s00r00           6354 	lcall	_HW_set_16bit_reg
   1C7D D0 00              6355 	pop	ar0
   1C7F D0 07              6356 	pop	ar7
   1C81 D0 06              6357 	pop	ar6
                    1C83   6358 	C$core_gpio.c$446$2$2 ==.
                           6359 ;	../drivers/CoreGPIO/core_gpio.c:446: HAL_set_16bit_reg( this_gpio->base_addr, IRQ1, irq_clr_value >> 16 );
                           6360 ;	genPointerGet
                           6361 ;	genGenPointerGet
   1C83 8E 82              6362 	mov	dpl,r6
   1C85 8F 83              6363 	mov	dph,r7
   1C87 88 F0              6364 	mov	b,r0
   1C89 12s00r00           6365 	lcall	__gptrget
   1C8C FA                 6366 	mov	r2,a
   1C8D A3                 6367 	inc	dptr
   1C8E 12s00r00           6368 	lcall	__gptrget
   1C91 FB                 6369 	mov	r3,a
                           6370 ;	genPlus
                           6371 ;	genPlusIncr
   1C92 74 84              6372 	mov	a,#0x84
   1C94 25 02              6373 	add	a,ar2
   1C96 FA                 6374 	mov	r2,a
   1C97 74 00              6375 	mov	a,#0x00
   1C99 35 03              6376 	addc	a,ar3
   1C9B FB                 6377 	mov	r3,a
                           6378 ;	genGetWord
   1C9C 90s00r00           6379 	mov	dptr,#_HW_set_16bit_reg_PARM_2
   1C9F E5*12              6380 	mov	a,(_GPIO_clear_irq_sloc0_1_0 + 2)
   1CA1 F0                 6381 	movx	@dptr,a
   1CA2 A3                 6382 	inc	dptr
   1CA3 E5*13              6383 	mov	a,(_GPIO_clear_irq_sloc0_1_0 + 3)
   1CA5 F0                 6384 	movx	@dptr,a
                           6385 ;	genCall
   1CA6 8A 82              6386 	mov	dpl,r2
   1CA8 8B 83              6387 	mov	dph,r3
   1CAA 12s00r00           6388 	lcall	_HW_set_16bit_reg
                    1CAD   6389 	C$core_gpio.c$447$2$2 ==.
                           6390 ;	../drivers/CoreGPIO/core_gpio.c:447: break;
   1CAD 02s1Er4D           6391 	ljmp	00111$
                    1CB0   6392 	C$core_gpio.c$449$2$2 ==.
                           6393 ;	../drivers/CoreGPIO/core_gpio.c:449: case GPIO_APB_8_BITS_BUS:
   1CB0                    6394 00103$:
                    1CB0   6395 	C$core_gpio.c$450$2$2 ==.
                           6396 ;	../drivers/CoreGPIO/core_gpio.c:450: HAL_set_8bit_reg( this_gpio->base_addr, IRQ0, irq_clr_value );
                           6397 ;	genPointerGet
                           6398 ;	genGenPointerGet
   1CB0 8E 82              6399 	mov	dpl,r6
   1CB2 8F 83              6400 	mov	dph,r7
   1CB4 88 F0              6401 	mov	b,r0
   1CB6 12s00r00           6402 	lcall	__gptrget
   1CB9 FA                 6403 	mov	r2,a
   1CBA A3                 6404 	inc	dptr
   1CBB 12s00r00           6405 	lcall	__gptrget
   1CBE FB                 6406 	mov	r3,a
                           6407 ;	genPlus
                           6408 ;	genPlusIncr
   1CBF 74 80              6409 	mov	a,#0x80
   1CC1 25 02              6410 	add	a,ar2
   1CC3 FA                 6411 	mov	r2,a
   1CC4 74 00              6412 	mov	a,#0x00
   1CC6 35 03              6413 	addc	a,ar3
   1CC8 FB                 6414 	mov	r3,a
                           6415 ;	genCast
   1CC9 90s00r00           6416 	mov	dptr,#_HW_set_8bit_reg_PARM_2
   1CCC E5*10              6417 	mov	a,_GPIO_clear_irq_sloc0_1_0
   1CCE F0                 6418 	movx	@dptr,a
                           6419 ;	genCall
   1CCF 8A 82              6420 	mov	dpl,r2
   1CD1 8B 83              6421 	mov	dph,r3
   1CD3 C0 06              6422 	push	ar6
   1CD5 C0 07              6423 	push	ar7
   1CD7 C0 00              6424 	push	ar0
   1CD9 12s00r00           6425 	lcall	_HW_set_8bit_reg
   1CDC D0 00              6426 	pop	ar0
   1CDE D0 07              6427 	pop	ar7
   1CE0 D0 06              6428 	pop	ar6
                    1CE2   6429 	C$core_gpio.c$451$2$2 ==.
                           6430 ;	../drivers/CoreGPIO/core_gpio.c:451: HAL_set_8bit_reg( this_gpio->base_addr, IRQ1, irq_clr_value >> 8 );
                           6431 ;	genPointerGet
                           6432 ;	genGenPointerGet
   1CE2 8E 82              6433 	mov	dpl,r6
   1CE4 8F 83              6434 	mov	dph,r7
   1CE6 88 F0              6435 	mov	b,r0
   1CE8 12s00r00           6436 	lcall	__gptrget
   1CEB FA                 6437 	mov	r2,a
   1CEC A3                 6438 	inc	dptr
   1CED 12s00r00           6439 	lcall	__gptrget
   1CF0 FB                 6440 	mov	r3,a
                           6441 ;	genPlus
                           6442 ;	genPlusIncr
   1CF1 74 84              6443 	mov	a,#0x84
   1CF3 25 02              6444 	add	a,ar2
   1CF5 FA                 6445 	mov	r2,a
   1CF6 74 00              6446 	mov	a,#0x00
   1CF8 35 03              6447 	addc	a,ar3
   1CFA FB                 6448 	mov	r3,a
                           6449 ;	genGetByte
   1CFB 90s00r00           6450 	mov	dptr,#_HW_set_8bit_reg_PARM_2
   1CFE E5*11              6451 	mov	a,(_GPIO_clear_irq_sloc0_1_0 + 1)
   1D00 F0                 6452 	movx	@dptr,a
                           6453 ;	genCall
   1D01 8A 82              6454 	mov	dpl,r2
   1D03 8B 83              6455 	mov	dph,r3
   1D05 C0 06              6456 	push	ar6
   1D07 C0 07              6457 	push	ar7
   1D09 C0 00              6458 	push	ar0
   1D0B 12s00r00           6459 	lcall	_HW_set_8bit_reg
   1D0E D0 00              6460 	pop	ar0
   1D10 D0 07              6461 	pop	ar7
   1D12 D0 06              6462 	pop	ar6
                    1D14   6463 	C$core_gpio.c$452$2$2 ==.
                           6464 ;	../drivers/CoreGPIO/core_gpio.c:452: HAL_set_8bit_reg( this_gpio->base_addr, IRQ2, irq_clr_value >> 16 );
                           6465 ;	genPointerGet
                           6466 ;	genGenPointerGet
   1D14 8E 82              6467 	mov	dpl,r6
   1D16 8F 83              6468 	mov	dph,r7
   1D18 88 F0              6469 	mov	b,r0
   1D1A 12s00r00           6470 	lcall	__gptrget
   1D1D FA                 6471 	mov	r2,a
   1D1E A3                 6472 	inc	dptr
   1D1F 12s00r00           6473 	lcall	__gptrget
   1D22 FB                 6474 	mov	r3,a
                           6475 ;	genPlus
                           6476 ;	genPlusIncr
   1D23 74 88              6477 	mov	a,#0x88
   1D25 25 02              6478 	add	a,ar2
   1D27 FA                 6479 	mov	r2,a
   1D28 74 00              6480 	mov	a,#0x00
   1D2A 35 03              6481 	addc	a,ar3
   1D2C FB                 6482 	mov	r3,a
                           6483 ;	genGetByte
   1D2D 90s00r00           6484 	mov	dptr,#_HW_set_8bit_reg_PARM_2
   1D30 E5*12              6485 	mov	a,(_GPIO_clear_irq_sloc0_1_0 + 2)
   1D32 F0                 6486 	movx	@dptr,a
                           6487 ;	genCall
   1D33 8A 82              6488 	mov	dpl,r2
   1D35 8B 83              6489 	mov	dph,r3
   1D37 C0 06              6490 	push	ar6
   1D39 C0 07              6491 	push	ar7
   1D3B C0 00              6492 	push	ar0
   1D3D 12s00r00           6493 	lcall	_HW_set_8bit_reg
   1D40 D0 00              6494 	pop	ar0
   1D42 D0 07              6495 	pop	ar7
   1D44 D0 06              6496 	pop	ar6
                    1D46   6497 	C$core_gpio.c$453$2$2 ==.
                           6498 ;	../drivers/CoreGPIO/core_gpio.c:453: HAL_set_8bit_reg( this_gpio->base_addr, IRQ3, irq_clr_value >> 24 );
                           6499 ;	genPointerGet
                           6500 ;	genGenPointerGet
   1D46 8E 82              6501 	mov	dpl,r6
   1D48 8F 83              6502 	mov	dph,r7
   1D4A 88 F0              6503 	mov	b,r0
   1D4C 12s00r00           6504 	lcall	__gptrget
   1D4F FE                 6505 	mov	r6,a
   1D50 A3                 6506 	inc	dptr
   1D51 12s00r00           6507 	lcall	__gptrget
   1D54 FF                 6508 	mov	r7,a
                           6509 ;	genPlus
                           6510 ;	genPlusIncr
   1D55 74 8C              6511 	mov	a,#0x8C
   1D57 25 06              6512 	add	a,ar6
   1D59 FE                 6513 	mov	r6,a
   1D5A 74 00              6514 	mov	a,#0x00
   1D5C 35 07              6515 	addc	a,ar7
   1D5E FF                 6516 	mov	r7,a
                           6517 ;	genGetByte
   1D5F 90s00r00           6518 	mov	dptr,#_HW_set_8bit_reg_PARM_2
   1D62 E5*13              6519 	mov	a,(_GPIO_clear_irq_sloc0_1_0 + 3)
   1D64 F0                 6520 	movx	@dptr,a
                           6521 ;	genCall
   1D65 8E 82              6522 	mov	dpl,r6
   1D67 8F 83              6523 	mov	dph,r7
   1D69 12s00r00           6524 	lcall	_HW_set_8bit_reg
                    1D6C   6525 	C$core_gpio.c$454$2$2 ==.
                           6526 ;	../drivers/CoreGPIO/core_gpio.c:454: break;
   1D6C 02s1Er4D           6527 	ljmp	00111$
                    1D6F   6528 	C$core_gpio.c$457$2$2 ==.
                           6529 ;	../drivers/CoreGPIO/core_gpio.c:457: HAL_ASSERT(0);
   1D6F                    6530 00107$:
                           6531 ;	genPointerSet
                           6532 ;     genFarPointerSet
   1D6F 90s02r43           6533 	mov	dptr,#_GPIO_clear_irq_file_name_4_4
   1D72 74 2E              6534 	mov	a,#0x2E
   1D74 F0                 6535 	movx	@dptr,a
                           6536 ;	genPointerSet
                           6537 ;     genFarPointerSet
   1D75 90s02r44           6538 	mov	dptr,#(_GPIO_clear_irq_file_name_4_4 + 0x0001)
   1D78 74 2E              6539 	mov	a,#0x2E
   1D7A F0                 6540 	movx	@dptr,a
                           6541 ;	genPointerSet
                           6542 ;     genFarPointerSet
   1D7B 90s02r45           6543 	mov	dptr,#(_GPIO_clear_irq_file_name_4_4 + 0x0002)
   1D7E 74 2F              6544 	mov	a,#0x2F
   1D80 F0                 6545 	movx	@dptr,a
                           6546 ;	genPointerSet
                           6547 ;     genFarPointerSet
   1D81 90s02r46           6548 	mov	dptr,#(_GPIO_clear_irq_file_name_4_4 + 0x0003)
   1D84 74 64              6549 	mov	a,#0x64
   1D86 F0                 6550 	movx	@dptr,a
                           6551 ;	genPointerSet
                           6552 ;     genFarPointerSet
   1D87 90s02r47           6553 	mov	dptr,#(_GPIO_clear_irq_file_name_4_4 + 0x0004)
   1D8A 74 72              6554 	mov	a,#0x72
   1D8C F0                 6555 	movx	@dptr,a
                           6556 ;	genPointerSet
                           6557 ;     genFarPointerSet
   1D8D 90s02r48           6558 	mov	dptr,#(_GPIO_clear_irq_file_name_4_4 + 0x0005)
   1D90 74 69              6559 	mov	a,#0x69
   1D92 F0                 6560 	movx	@dptr,a
                           6561 ;	genPointerSet
                           6562 ;     genFarPointerSet
   1D93 90s02r49           6563 	mov	dptr,#(_GPIO_clear_irq_file_name_4_4 + 0x0006)
   1D96 74 76              6564 	mov	a,#0x76
   1D98 F0                 6565 	movx	@dptr,a
                           6566 ;	genPointerSet
                           6567 ;     genFarPointerSet
   1D99 90s02r4A           6568 	mov	dptr,#(_GPIO_clear_irq_file_name_4_4 + 0x0007)
   1D9C 74 65              6569 	mov	a,#0x65
   1D9E F0                 6570 	movx	@dptr,a
                           6571 ;	genPointerSet
                           6572 ;     genFarPointerSet
   1D9F 90s02r4B           6573 	mov	dptr,#(_GPIO_clear_irq_file_name_4_4 + 0x0008)
   1DA2 74 72              6574 	mov	a,#0x72
   1DA4 F0                 6575 	movx	@dptr,a
                           6576 ;	genPointerSet
                           6577 ;     genFarPointerSet
   1DA5 90s02r4C           6578 	mov	dptr,#(_GPIO_clear_irq_file_name_4_4 + 0x0009)
   1DA8 74 73              6579 	mov	a,#0x73
   1DAA F0                 6580 	movx	@dptr,a
                           6581 ;	genPointerSet
                           6582 ;     genFarPointerSet
   1DAB 90s02r4D           6583 	mov	dptr,#(_GPIO_clear_irq_file_name_4_4 + 0x000a)
   1DAE 74 2F              6584 	mov	a,#0x2F
   1DB0 F0                 6585 	movx	@dptr,a
                           6586 ;	genPointerSet
                           6587 ;     genFarPointerSet
   1DB1 90s02r4E           6588 	mov	dptr,#(_GPIO_clear_irq_file_name_4_4 + 0x000b)
   1DB4 74 43              6589 	mov	a,#0x43
   1DB6 F0                 6590 	movx	@dptr,a
                           6591 ;	genPointerSet
                           6592 ;     genFarPointerSet
   1DB7 90s02r4F           6593 	mov	dptr,#(_GPIO_clear_irq_file_name_4_4 + 0x000c)
   1DBA 74 6F              6594 	mov	a,#0x6F
   1DBC F0                 6595 	movx	@dptr,a
                           6596 ;	genPointerSet
                           6597 ;     genFarPointerSet
   1DBD 90s02r50           6598 	mov	dptr,#(_GPIO_clear_irq_file_name_4_4 + 0x000d)
   1DC0 74 72              6599 	mov	a,#0x72
   1DC2 F0                 6600 	movx	@dptr,a
                           6601 ;	genPointerSet
                           6602 ;     genFarPointerSet
   1DC3 90s02r51           6603 	mov	dptr,#(_GPIO_clear_irq_file_name_4_4 + 0x000e)
   1DC6 74 65              6604 	mov	a,#0x65
   1DC8 F0                 6605 	movx	@dptr,a
                           6606 ;	genPointerSet
                           6607 ;     genFarPointerSet
   1DC9 90s02r52           6608 	mov	dptr,#(_GPIO_clear_irq_file_name_4_4 + 0x000f)
   1DCC 74 47              6609 	mov	a,#0x47
   1DCE F0                 6610 	movx	@dptr,a
                           6611 ;	genPointerSet
                           6612 ;     genFarPointerSet
   1DCF 90s02r53           6613 	mov	dptr,#(_GPIO_clear_irq_file_name_4_4 + 0x0010)
   1DD2 74 50              6614 	mov	a,#0x50
   1DD4 F0                 6615 	movx	@dptr,a
                           6616 ;	genPointerSet
                           6617 ;     genFarPointerSet
   1DD5 90s02r54           6618 	mov	dptr,#(_GPIO_clear_irq_file_name_4_4 + 0x0011)
   1DD8 74 49              6619 	mov	a,#0x49
   1DDA F0                 6620 	movx	@dptr,a
                           6621 ;	genPointerSet
                           6622 ;     genFarPointerSet
   1DDB 90s02r55           6623 	mov	dptr,#(_GPIO_clear_irq_file_name_4_4 + 0x0012)
   1DDE 74 4F              6624 	mov	a,#0x4F
   1DE0 F0                 6625 	movx	@dptr,a
                           6626 ;	genPointerSet
                           6627 ;     genFarPointerSet
   1DE1 90s02r56           6628 	mov	dptr,#(_GPIO_clear_irq_file_name_4_4 + 0x0013)
   1DE4 74 2F              6629 	mov	a,#0x2F
   1DE6 F0                 6630 	movx	@dptr,a
                           6631 ;	genPointerSet
                           6632 ;     genFarPointerSet
   1DE7 90s02r57           6633 	mov	dptr,#(_GPIO_clear_irq_file_name_4_4 + 0x0014)
   1DEA 74 63              6634 	mov	a,#0x63
   1DEC F0                 6635 	movx	@dptr,a
                           6636 ;	genPointerSet
                           6637 ;     genFarPointerSet
   1DED 90s02r58           6638 	mov	dptr,#(_GPIO_clear_irq_file_name_4_4 + 0x0015)
   1DF0 74 6F              6639 	mov	a,#0x6F
   1DF2 F0                 6640 	movx	@dptr,a
                           6641 ;	genPointerSet
                           6642 ;     genFarPointerSet
   1DF3 90s02r59           6643 	mov	dptr,#(_GPIO_clear_irq_file_name_4_4 + 0x0016)
   1DF6 74 72              6644 	mov	a,#0x72
   1DF8 F0                 6645 	movx	@dptr,a
                           6646 ;	genPointerSet
                           6647 ;     genFarPointerSet
   1DF9 90s02r5A           6648 	mov	dptr,#(_GPIO_clear_irq_file_name_4_4 + 0x0017)
   1DFC 74 65              6649 	mov	a,#0x65
   1DFE F0                 6650 	movx	@dptr,a
                           6651 ;	genPointerSet
                           6652 ;     genFarPointerSet
   1DFF 90s02r5B           6653 	mov	dptr,#(_GPIO_clear_irq_file_name_4_4 + 0x0018)
   1E02 74 5F              6654 	mov	a,#0x5F
   1E04 F0                 6655 	movx	@dptr,a
                           6656 ;	genPointerSet
                           6657 ;     genFarPointerSet
   1E05 90s02r5C           6658 	mov	dptr,#(_GPIO_clear_irq_file_name_4_4 + 0x0019)
   1E08 74 67              6659 	mov	a,#0x67
   1E0A F0                 6660 	movx	@dptr,a
                           6661 ;	genPointerSet
                           6662 ;     genFarPointerSet
   1E0B 90s02r5D           6663 	mov	dptr,#(_GPIO_clear_irq_file_name_4_4 + 0x001a)
   1E0E 74 70              6664 	mov	a,#0x70
   1E10 F0                 6665 	movx	@dptr,a
                           6666 ;	genPointerSet
                           6667 ;     genFarPointerSet
   1E11 90s02r5E           6668 	mov	dptr,#(_GPIO_clear_irq_file_name_4_4 + 0x001b)
   1E14 74 69              6669 	mov	a,#0x69
   1E16 F0                 6670 	movx	@dptr,a
                           6671 ;	genPointerSet
                           6672 ;     genFarPointerSet
   1E17 90s02r5F           6673 	mov	dptr,#(_GPIO_clear_irq_file_name_4_4 + 0x001c)
   1E1A 74 6F              6674 	mov	a,#0x6F
   1E1C F0                 6675 	movx	@dptr,a
                           6676 ;	genPointerSet
                           6677 ;     genFarPointerSet
   1E1D 90s02r60           6678 	mov	dptr,#(_GPIO_clear_irq_file_name_4_4 + 0x001d)
   1E20 74 2E              6679 	mov	a,#0x2E
   1E22 F0                 6680 	movx	@dptr,a
                           6681 ;	genPointerSet
                           6682 ;     genFarPointerSet
   1E23 90s02r61           6683 	mov	dptr,#(_GPIO_clear_irq_file_name_4_4 + 0x001e)
   1E26 74 63              6684 	mov	a,#0x63
   1E28 F0                 6685 	movx	@dptr,a
                           6686 ;	genPointerSet
                           6687 ;     genFarPointerSet
   1E29 90s02r62           6688 	mov	dptr,#(_GPIO_clear_irq_file_name_4_4 + 0x001f)
   1E2C 74 00              6689 	mov	a,#0x00
   1E2E F0                 6690 	movx	@dptr,a
                           6691 ;	genAssign
   1E2F 90s00r00           6692 	mov	dptr,#_HAL_assert_fail_PARM_2
   1E32 74 C9              6693 	mov	a,#0xC9
   1E34 F0                 6694 	movx	@dptr,a
   1E35 A3                 6695 	inc	dptr
   1E36 74 01              6696 	mov	a,#0x01
   1E38 F0                 6697 	movx	@dptr,a
   1E39 A3                 6698 	inc	dptr
   1E3A 74 00              6699 	mov	a,#0x00
   1E3C F0                 6700 	movx	@dptr,a
   1E3D A3                 6701 	inc	dptr
   1E3E 74 00              6702 	mov	a,#0x00
   1E40 F0                 6703 	movx	@dptr,a
                           6704 ;	genCall
   1E41 75 82r43           6705 	mov	dpl,#_GPIO_clear_irq_file_name_4_4
   1E44 75 83s02           6706 	mov	dph,#(_GPIO_clear_irq_file_name_4_4 >> 8)
   1E47 75 F0 00           6707 	mov	b,#0x00
   1E4A 12s00r00           6708 	lcall	_HAL_assert_fail
                    1E4D   6709 	C$core_gpio.c$459$1$1 ==.
                           6710 ;	../drivers/CoreGPIO/core_gpio.c:459: }
   1E4D                    6711 00111$:
                    1E4D   6712 	C$core_gpio.c$460$1$1 ==.
                    1E4D   6713 	XG$GPIO_clear_irq$0$0 ==.
   1E4D 22                 6714 	ret
                           6715 	.area CSEG    (CODE)
                           6716 	.area CONST   (CODE)
                           6717 	.area XINIT   (CODE)
                           6718 	.area CABS    (ABS,CODE)
