                              1 ;--------------------------------------------------------
                              2 ; File Created by SDCC : FreeWare ANSI-C Compiler
                              3 ; Version 2.6.3 #4543 (Dec 31 2006)
                              4 ; This file generated Mon May 02 12:51:58 2016
                              5 ;--------------------------------------------------------
                              6 	.module ___drivers_CoreTimer_core_timer
                              7 	.optsdcc -mmcs51 --model-large
                              8 	
                              9 ;--------------------------------------------------------
                             10 ; Public variables in this module
                             11 ;--------------------------------------------------------
                             12 	.globl _TMR_reload_PARM_2
                             13 	.globl _TMR_init_PARM_5
                             14 	.globl _TMR_init_PARM_4
                             15 	.globl _TMR_init_PARM_3
                             16 	.globl _TMR_init_PARM_2
                             17 	.globl _TMR_init
                             18 	.globl _TMR_start
                             19 	.globl _TMR_stop
                             20 	.globl _TMR_enable_int
                             21 	.globl _TMR_clear_int
                             22 	.globl _TMR_current_value
                             23 	.globl _TMR_reload
                             24 ;--------------------------------------------------------
                             25 ; special function registers
                             26 ;--------------------------------------------------------
                             27 	.area RSEG    (DATA)
                             28 ;--------------------------------------------------------
                             29 ; special function bits
                             30 ;--------------------------------------------------------
                             31 	.area RSEG    (DATA)
                             32 ;--------------------------------------------------------
                             33 ; overlayable register banks
                             34 ;--------------------------------------------------------
                             35 	.area REG_BANK_0	(REL,OVR,DATA)
   0000                      36 	.ds 8
                             37 ;--------------------------------------------------------
                             38 ; internal ram data
                             39 ;--------------------------------------------------------
                             40 	.area DSEG    (DATA)
                    0000     41 LTMR_init$sloc0$1$0==.
   0000                      42 _TMR_init_sloc0_1_0:
   0000                      43 	.ds 4
                    0004     44 LTMR_init$sloc1$1$0==.
   0004                      45 _TMR_init_sloc1_1_0:
   0004                      46 	.ds 2
                             47 ;--------------------------------------------------------
                             48 ; overlayable items in internal ram 
                             49 ;--------------------------------------------------------
                             50 	.area OSEG    (OVR,DATA)
                             51 ;--------------------------------------------------------
                             52 ; indirectly addressable internal ram data
                             53 ;--------------------------------------------------------
                             54 	.area ISEG    (DATA)
                             55 ;--------------------------------------------------------
                             56 ; absolute internal ram data
                             57 ;--------------------------------------------------------
                             58 	.area IABS    (ABS,DATA)
                             59 	.area IABS    (ABS,DATA)
                             60 ;--------------------------------------------------------
                             61 ; bit data
                             62 ;--------------------------------------------------------
                             63 	.area BSEG    (BIT)
                             64 ;--------------------------------------------------------
                             65 ; paged external ram data
                             66 ;--------------------------------------------------------
                             67 	.area PSEG    (PAG,XDATA)
                             68 ;--------------------------------------------------------
                             69 ; external ram data
                             70 ;--------------------------------------------------------
                             71 	.area XSEG    (XDATA)
                    0000     72 F___drivers_CoreTimer_core_timer$NULL_timer_instance$0$0==.
   0000                      73 _NULL_timer_instance:
   0000                      74 	.ds 3
                    0003     75 LTMR_init$address$1$1==.
   0003                      76 _TMR_init_PARM_2:
   0003                      77 	.ds 2
                    0005     78 LTMR_init$mode$1$1==.
   0005                      79 _TMR_init_PARM_3:
   0005                      80 	.ds 1
                    0006     81 LTMR_init$prescale$1$1==.
   0006                      82 _TMR_init_PARM_4:
   0006                      83 	.ds 4
                    000A     84 LTMR_init$load_value$1$1==.
   000A                      85 _TMR_init_PARM_5:
   000A                      86 	.ds 4
                    000E     87 LTMR_init$this_timer$1$1==.
   000E                      88 _TMR_init_this_timer_1_1:
   000E                      89 	.ds 3
                    0011     90 LTMR_init$file_name$3$3==.
   0011                      91 _TMR_init_file_name_3_3:
   0011                      92 	.ds 34
                    0033     93 LTMR_init$file_name$3$5==.
   0033                      94 _TMR_init_file_name_3_5:
   0033                      95 	.ds 34
                    0055     96 LTMR_init$file_name$3$7==.
   0055                      97 _TMR_init_file_name_3_7:
   0055                      98 	.ds 34
                    0077     99 LTMR_start$this_timer$1$1==.
   0077                     100 _TMR_start_this_timer_1_1:
   0077                     101 	.ds 3
                    007A    102 LTMR_start$file_name$3$3==.
   007A                     103 _TMR_start_file_name_3_3:
   007A                     104 	.ds 34
                    009C    105 LTMR_stop$this_timer$1$1==.
   009C                     106 _TMR_stop_this_timer_1_1:
   009C                     107 	.ds 3
                    009F    108 LTMR_stop$file_name$3$3==.
   009F                     109 _TMR_stop_file_name_3_3:
   009F                     110 	.ds 34
                    00C1    111 LTMR_enable_int$this_timer$1$1==.
   00C1                     112 _TMR_enable_int_this_timer_1_1:
   00C1                     113 	.ds 3
                    00C4    114 LTMR_enable_int$file_name$3$3==.
   00C4                     115 _TMR_enable_int_file_name_3_3:
   00C4                     116 	.ds 34
                    00E6    117 LTMR_clear_int$this_timer$1$1==.
   00E6                     118 _TMR_clear_int_this_timer_1_1:
   00E6                     119 	.ds 3
                    00E9    120 LTMR_clear_int$file_name$3$3==.
   00E9                     121 _TMR_clear_int_file_name_3_3:
   00E9                     122 	.ds 34
                    010B    123 LTMR_current_value$this_timer$1$1==.
   010B                     124 _TMR_current_value_this_timer_1_1:
   010B                     125 	.ds 3
                    010E    126 LTMR_current_value$file_name$3$3==.
   010E                     127 _TMR_current_value_file_name_3_3:
   010E                     128 	.ds 34
                    0130    129 LTMR_reload$load_value$1$1==.
   0130                     130 _TMR_reload_PARM_2:
   0130                     131 	.ds 4
                    0134    132 LTMR_reload$this_timer$1$1==.
   0134                     133 _TMR_reload_this_timer_1_1:
   0134                     134 	.ds 3
                    0137    135 LTMR_reload$file_name$3$3==.
   0137                     136 _TMR_reload_file_name_3_3:
   0137                     137 	.ds 34
                    0159    138 LTMR_reload$file_name$3$5==.
   0159                     139 _TMR_reload_file_name_3_5:
   0159                     140 	.ds 34
                            141 ;--------------------------------------------------------
                            142 ; external initialized ram data
                            143 ;--------------------------------------------------------
                            144 	.area XISEG   (XDATA)
                            145 	.area HOME    (CODE)
                            146 	.area GSINIT0 (CODE)
                            147 	.area GSINIT1 (CODE)
                            148 	.area GSINIT2 (CODE)
                            149 	.area GSINIT3 (CODE)
                            150 	.area GSINIT4 (CODE)
                            151 	.area GSINIT5 (CODE)
                            152 	.area GSINIT  (CODE)
                            153 	.area GSFINAL (CODE)
                            154 	.area CSEG    (CODE)
                            155 ;--------------------------------------------------------
                            156 ; global & static initialisations
                            157 ;--------------------------------------------------------
                            158 	.area HOME    (CODE)
                            159 	.area GSINIT  (CODE)
                            160 	.area GSFINAL (CODE)
                            161 	.area GSINIT  (CODE)
                            162 ;--------------------------------------------------------
                            163 ; Home
                            164 ;--------------------------------------------------------
                            165 	.area HOME    (CODE)
                            166 	.area HOME    (CODE)
                            167 ;--------------------------------------------------------
                            168 ; code
                            169 ;--------------------------------------------------------
                            170 	.area CSEG    (CODE)
                            171 ;------------------------------------------------------------
                            172 ;Allocation info for local variables in function 'TMR_init'
                            173 ;------------------------------------------------------------
                            174 ;sloc0                     Allocated with name '_TMR_init_sloc0_1_0'
                            175 ;sloc1                     Allocated with name '_TMR_init_sloc1_1_0'
                            176 ;address                   Allocated with name '_TMR_init_PARM_2'
                            177 ;mode                      Allocated with name '_TMR_init_PARM_3'
                            178 ;prescale                  Allocated with name '_TMR_init_PARM_4'
                            179 ;load_value                Allocated with name '_TMR_init_PARM_5'
                            180 ;this_timer                Allocated with name '_TMR_init_this_timer_1_1'
                            181 ;file_name                 Allocated with name '_TMR_init_file_name_3_3'
                            182 ;file_name                 Allocated with name '_TMR_init_file_name_3_5'
                            183 ;file_name                 Allocated with name '_TMR_init_file_name_3_7'
                            184 ;------------------------------------------------------------
                    0000    185 	G$TMR_init$0$0 ==.
                    0000    186 	C$core_timer.c$24$0$0 ==.
                            187 ;	../drivers/CoreTimer/core_timer.c:24: TMR_init
                            188 ;	-----------------------------------------
                            189 ;	 function TMR_init
                            190 ;	-----------------------------------------
   0000                     191 _TMR_init:
                    0002    192 	ar2 = 0x02
                    0003    193 	ar3 = 0x03
                    0004    194 	ar4 = 0x04
                    0005    195 	ar5 = 0x05
                    0006    196 	ar6 = 0x06
                    0007    197 	ar7 = 0x07
                    0000    198 	ar0 = 0x00
                    0001    199 	ar1 = 0x01
                            200 ;	genReceive
   0000 AA F0               201 	mov	r2,b
   0002 AB 83               202 	mov	r3,dph
   0004 E5 82               203 	mov	a,dpl
   0006 90s00r0E            204 	mov	dptr,#_TMR_init_this_timer_1_1
   0009 F0                  205 	movx	@dptr,a
   000A A3                  206 	inc	dptr
   000B EB                  207 	mov	a,r3
   000C F0                  208 	movx	@dptr,a
   000D A3                  209 	inc	dptr
   000E EA                  210 	mov	a,r2
   000F F0                  211 	movx	@dptr,a
                    0010    212 	C$core_timer.c$33$2$2 ==.
                            213 ;	../drivers/CoreTimer/core_timer.c:33: HAL_ASSERT( this_timer != NULL_timer_instance )
                            214 ;	genAssign
   0010 90s00r0E            215 	mov	dptr,#_TMR_init_this_timer_1_1
   0013 E0                  216 	movx	a,@dptr
   0014 FA                  217 	mov	r2,a
   0015 A3                  218 	inc	dptr
   0016 E0                  219 	movx	a,@dptr
   0017 FB                  220 	mov	r3,a
   0018 A3                  221 	inc	dptr
   0019 E0                  222 	movx	a,@dptr
   001A FC                  223 	mov	r4,a
                            224 ;	genAssign
   001B 90s00r00            225 	mov	dptr,#_NULL_timer_instance
   001E E0                  226 	movx	a,@dptr
   001F FD                  227 	mov	r5,a
   0020 A3                  228 	inc	dptr
   0021 E0                  229 	movx	a,@dptr
   0022 FE                  230 	mov	r6,a
   0023 A3                  231 	inc	dptr
   0024 E0                  232 	movx	a,@dptr
   0025 FF                  233 	mov	r7,a
                            234 ;	genCmpEq
                            235 ;	gencjneshort
   0026 EA                  236 	mov	a,r2
   0027 B5 05 0A            237 	cjne	a,ar5,00125$
   002A EB                  238 	mov	a,r3
   002B B5 06 06            239 	cjne	a,ar6,00125$
   002E EC                  240 	mov	a,r4
   002F B5 07 02            241 	cjne	a,ar7,00125$
   0032 80 03               242 	sjmp	00126$
   0034                     243 00125$:
   0034 02s01r1C            244 	ljmp	00104$
   0037                     245 00126$:
                            246 ;	genPointerSet
                            247 ;     genFarPointerSet
   0037 90s00r11            248 	mov	dptr,#_TMR_init_file_name_3_3
   003A 74 2E               249 	mov	a,#0x2E
   003C F0                  250 	movx	@dptr,a
                            251 ;	genPointerSet
                            252 ;     genFarPointerSet
   003D 90s00r12            253 	mov	dptr,#(_TMR_init_file_name_3_3 + 0x0001)
   0040 74 2E               254 	mov	a,#0x2E
   0042 F0                  255 	movx	@dptr,a
                            256 ;	genPointerSet
                            257 ;     genFarPointerSet
   0043 90s00r13            258 	mov	dptr,#(_TMR_init_file_name_3_3 + 0x0002)
   0046 74 2F               259 	mov	a,#0x2F
   0048 F0                  260 	movx	@dptr,a
                            261 ;	genPointerSet
                            262 ;     genFarPointerSet
   0049 90s00r14            263 	mov	dptr,#(_TMR_init_file_name_3_3 + 0x0003)
   004C 74 64               264 	mov	a,#0x64
   004E F0                  265 	movx	@dptr,a
                            266 ;	genPointerSet
                            267 ;     genFarPointerSet
   004F 90s00r15            268 	mov	dptr,#(_TMR_init_file_name_3_3 + 0x0004)
   0052 74 72               269 	mov	a,#0x72
   0054 F0                  270 	movx	@dptr,a
                            271 ;	genPointerSet
                            272 ;     genFarPointerSet
   0055 90s00r16            273 	mov	dptr,#(_TMR_init_file_name_3_3 + 0x0005)
   0058 74 69               274 	mov	a,#0x69
   005A F0                  275 	movx	@dptr,a
                            276 ;	genPointerSet
                            277 ;     genFarPointerSet
   005B 90s00r17            278 	mov	dptr,#(_TMR_init_file_name_3_3 + 0x0006)
   005E 74 76               279 	mov	a,#0x76
   0060 F0                  280 	movx	@dptr,a
                            281 ;	genPointerSet
                            282 ;     genFarPointerSet
   0061 90s00r18            283 	mov	dptr,#(_TMR_init_file_name_3_3 + 0x0007)
   0064 74 65               284 	mov	a,#0x65
   0066 F0                  285 	movx	@dptr,a
                            286 ;	genPointerSet
                            287 ;     genFarPointerSet
   0067 90s00r19            288 	mov	dptr,#(_TMR_init_file_name_3_3 + 0x0008)
   006A 74 72               289 	mov	a,#0x72
   006C F0                  290 	movx	@dptr,a
                            291 ;	genPointerSet
                            292 ;     genFarPointerSet
   006D 90s00r1A            293 	mov	dptr,#(_TMR_init_file_name_3_3 + 0x0009)
   0070 74 73               294 	mov	a,#0x73
   0072 F0                  295 	movx	@dptr,a
                            296 ;	genPointerSet
                            297 ;     genFarPointerSet
   0073 90s00r1B            298 	mov	dptr,#(_TMR_init_file_name_3_3 + 0x000a)
   0076 74 2F               299 	mov	a,#0x2F
   0078 F0                  300 	movx	@dptr,a
                            301 ;	genPointerSet
                            302 ;     genFarPointerSet
   0079 90s00r1C            303 	mov	dptr,#(_TMR_init_file_name_3_3 + 0x000b)
   007C 74 43               304 	mov	a,#0x43
   007E F0                  305 	movx	@dptr,a
                            306 ;	genPointerSet
                            307 ;     genFarPointerSet
   007F 90s00r1D            308 	mov	dptr,#(_TMR_init_file_name_3_3 + 0x000c)
   0082 74 6F               309 	mov	a,#0x6F
   0084 F0                  310 	movx	@dptr,a
                            311 ;	genPointerSet
                            312 ;     genFarPointerSet
   0085 90s00r1E            313 	mov	dptr,#(_TMR_init_file_name_3_3 + 0x000d)
   0088 74 72               314 	mov	a,#0x72
   008A F0                  315 	movx	@dptr,a
                            316 ;	genPointerSet
                            317 ;     genFarPointerSet
   008B 90s00r1F            318 	mov	dptr,#(_TMR_init_file_name_3_3 + 0x000e)
   008E 74 65               319 	mov	a,#0x65
   0090 F0                  320 	movx	@dptr,a
                            321 ;	genPointerSet
                            322 ;     genFarPointerSet
   0091 90s00r20            323 	mov	dptr,#(_TMR_init_file_name_3_3 + 0x000f)
   0094 74 54               324 	mov	a,#0x54
   0096 F0                  325 	movx	@dptr,a
                            326 ;	genPointerSet
                            327 ;     genFarPointerSet
   0097 90s00r21            328 	mov	dptr,#(_TMR_init_file_name_3_3 + 0x0010)
   009A 74 69               329 	mov	a,#0x69
   009C F0                  330 	movx	@dptr,a
                            331 ;	genPointerSet
                            332 ;     genFarPointerSet
   009D 90s00r22            333 	mov	dptr,#(_TMR_init_file_name_3_3 + 0x0011)
   00A0 74 6D               334 	mov	a,#0x6D
   00A2 F0                  335 	movx	@dptr,a
                            336 ;	genPointerSet
                            337 ;     genFarPointerSet
   00A3 90s00r23            338 	mov	dptr,#(_TMR_init_file_name_3_3 + 0x0012)
   00A6 74 65               339 	mov	a,#0x65
   00A8 F0                  340 	movx	@dptr,a
                            341 ;	genPointerSet
                            342 ;     genFarPointerSet
   00A9 90s00r24            343 	mov	dptr,#(_TMR_init_file_name_3_3 + 0x0013)
   00AC 74 72               344 	mov	a,#0x72
   00AE F0                  345 	movx	@dptr,a
                            346 ;	genPointerSet
                            347 ;     genFarPointerSet
   00AF 90s00r25            348 	mov	dptr,#(_TMR_init_file_name_3_3 + 0x0014)
   00B2 74 2F               349 	mov	a,#0x2F
   00B4 F0                  350 	movx	@dptr,a
                            351 ;	genPointerSet
                            352 ;     genFarPointerSet
   00B5 90s00r26            353 	mov	dptr,#(_TMR_init_file_name_3_3 + 0x0015)
   00B8 74 63               354 	mov	a,#0x63
   00BA F0                  355 	movx	@dptr,a
                            356 ;	genPointerSet
                            357 ;     genFarPointerSet
   00BB 90s00r27            358 	mov	dptr,#(_TMR_init_file_name_3_3 + 0x0016)
   00BE 74 6F               359 	mov	a,#0x6F
   00C0 F0                  360 	movx	@dptr,a
                            361 ;	genPointerSet
                            362 ;     genFarPointerSet
   00C1 90s00r28            363 	mov	dptr,#(_TMR_init_file_name_3_3 + 0x0017)
   00C4 74 72               364 	mov	a,#0x72
   00C6 F0                  365 	movx	@dptr,a
                            366 ;	genPointerSet
                            367 ;     genFarPointerSet
   00C7 90s00r29            368 	mov	dptr,#(_TMR_init_file_name_3_3 + 0x0018)
   00CA 74 65               369 	mov	a,#0x65
   00CC F0                  370 	movx	@dptr,a
                            371 ;	genPointerSet
                            372 ;     genFarPointerSet
   00CD 90s00r2A            373 	mov	dptr,#(_TMR_init_file_name_3_3 + 0x0019)
   00D0 74 5F               374 	mov	a,#0x5F
   00D2 F0                  375 	movx	@dptr,a
                            376 ;	genPointerSet
                            377 ;     genFarPointerSet
   00D3 90s00r2B            378 	mov	dptr,#(_TMR_init_file_name_3_3 + 0x001a)
   00D6 74 74               379 	mov	a,#0x74
   00D8 F0                  380 	movx	@dptr,a
                            381 ;	genPointerSet
                            382 ;     genFarPointerSet
   00D9 90s00r2C            383 	mov	dptr,#(_TMR_init_file_name_3_3 + 0x001b)
   00DC 74 69               384 	mov	a,#0x69
   00DE F0                  385 	movx	@dptr,a
                            386 ;	genPointerSet
                            387 ;     genFarPointerSet
   00DF 90s00r2D            388 	mov	dptr,#(_TMR_init_file_name_3_3 + 0x001c)
   00E2 74 6D               389 	mov	a,#0x6D
   00E4 F0                  390 	movx	@dptr,a
                            391 ;	genPointerSet
                            392 ;     genFarPointerSet
   00E5 90s00r2E            393 	mov	dptr,#(_TMR_init_file_name_3_3 + 0x001d)
   00E8 74 65               394 	mov	a,#0x65
   00EA F0                  395 	movx	@dptr,a
                            396 ;	genPointerSet
                            397 ;     genFarPointerSet
   00EB 90s00r2F            398 	mov	dptr,#(_TMR_init_file_name_3_3 + 0x001e)
   00EE 74 72               399 	mov	a,#0x72
   00F0 F0                  400 	movx	@dptr,a
                            401 ;	genPointerSet
                            402 ;     genFarPointerSet
   00F1 90s00r30            403 	mov	dptr,#(_TMR_init_file_name_3_3 + 0x001f)
   00F4 74 2E               404 	mov	a,#0x2E
   00F6 F0                  405 	movx	@dptr,a
                            406 ;	genPointerSet
                            407 ;     genFarPointerSet
   00F7 90s00r31            408 	mov	dptr,#(_TMR_init_file_name_3_3 + 0x0020)
   00FA 74 63               409 	mov	a,#0x63
   00FC F0                  410 	movx	@dptr,a
                            411 ;	genPointerSet
                            412 ;     genFarPointerSet
   00FD 90s00r32            413 	mov	dptr,#(_TMR_init_file_name_3_3 + 0x0021)
   0100 74 00               414 	mov	a,#0x00
   0102 F0                  415 	movx	@dptr,a
                            416 ;	genAssign
   0103 90s00r00            417 	mov	dptr,#_HAL_assert_fail_PARM_2
   0106 74 21               418 	mov	a,#0x21
   0108 F0                  419 	movx	@dptr,a
   0109 E4                  420 	clr	a
   010A A3                  421 	inc	dptr
   010B F0                  422 	movx	@dptr,a
   010C A3                  423 	inc	dptr
   010D F0                  424 	movx	@dptr,a
   010E A3                  425 	inc	dptr
   010F F0                  426 	movx	@dptr,a
                            427 ;	genCall
   0110 75 82r11            428 	mov	dpl,#_TMR_init_file_name_3_3
   0113 75 83s00            429 	mov	dph,#(_TMR_init_file_name_3_3 >> 8)
   0116 75 F0 00            430 	mov	b,#0x00
   0119 12s00r00            431 	lcall	_HAL_assert_fail
   011C                     432 00104$:
                    011C    433 	C$core_timer.c$34$2$4 ==.
                            434 ;	../drivers/CoreTimer/core_timer.c:34: HAL_ASSERT( prescale <= PRESCALER_DIV_1024 )
                            435 ;	genAssign
   011C 90s00r06            436 	mov	dptr,#_TMR_init_PARM_4
   011F E0                  437 	movx	a,@dptr
   0120 FA                  438 	mov	r2,a
   0121 A3                  439 	inc	dptr
   0122 E0                  440 	movx	a,@dptr
   0123 FB                  441 	mov	r3,a
   0124 A3                  442 	inc	dptr
   0125 E0                  443 	movx	a,@dptr
   0126 FC                  444 	mov	r4,a
   0127 A3                  445 	inc	dptr
   0128 E0                  446 	movx	a,@dptr
   0129 FD                  447 	mov	r5,a
                            448 ;	genCmpGt
                            449 ;	genCmp
   012A C3                  450 	clr	c
   012B 74 09               451 	mov	a,#0x09
   012D 9A                  452 	subb	a,r2
   012E 74 00               453 	mov	a,#0x00
   0130 9B                  454 	subb	a,r3
   0131 74 00               455 	mov	a,#0x00
   0133 9C                  456 	subb	a,r4
   0134 74 00               457 	mov	a,#0x00
   0136 9D                  458 	subb	a,r5
                            459 ;	genIfxJump
   0137 40 03               460 	jc	00127$
   0139 02s02r31            461 	ljmp	00109$
   013C                     462 00127$:
                            463 ;	genPointerSet
                            464 ;     genFarPointerSet
   013C 90s00r33            465 	mov	dptr,#_TMR_init_file_name_3_5
   013F 74 2E               466 	mov	a,#0x2E
   0141 F0                  467 	movx	@dptr,a
                            468 ;	genPointerSet
                            469 ;     genFarPointerSet
   0142 90s00r34            470 	mov	dptr,#(_TMR_init_file_name_3_5 + 0x0001)
   0145 74 2E               471 	mov	a,#0x2E
   0147 F0                  472 	movx	@dptr,a
                            473 ;	genPointerSet
                            474 ;     genFarPointerSet
   0148 90s00r35            475 	mov	dptr,#(_TMR_init_file_name_3_5 + 0x0002)
   014B 74 2F               476 	mov	a,#0x2F
   014D F0                  477 	movx	@dptr,a
                            478 ;	genPointerSet
                            479 ;     genFarPointerSet
   014E 90s00r36            480 	mov	dptr,#(_TMR_init_file_name_3_5 + 0x0003)
   0151 74 64               481 	mov	a,#0x64
   0153 F0                  482 	movx	@dptr,a
                            483 ;	genPointerSet
                            484 ;     genFarPointerSet
   0154 90s00r37            485 	mov	dptr,#(_TMR_init_file_name_3_5 + 0x0004)
   0157 74 72               486 	mov	a,#0x72
   0159 F0                  487 	movx	@dptr,a
                            488 ;	genPointerSet
                            489 ;     genFarPointerSet
   015A 90s00r38            490 	mov	dptr,#(_TMR_init_file_name_3_5 + 0x0005)
   015D 74 69               491 	mov	a,#0x69
   015F F0                  492 	movx	@dptr,a
                            493 ;	genPointerSet
                            494 ;     genFarPointerSet
   0160 90s00r39            495 	mov	dptr,#(_TMR_init_file_name_3_5 + 0x0006)
   0163 74 76               496 	mov	a,#0x76
   0165 F0                  497 	movx	@dptr,a
                            498 ;	genPointerSet
                            499 ;     genFarPointerSet
   0166 90s00r3A            500 	mov	dptr,#(_TMR_init_file_name_3_5 + 0x0007)
   0169 74 65               501 	mov	a,#0x65
   016B F0                  502 	movx	@dptr,a
                            503 ;	genPointerSet
                            504 ;     genFarPointerSet
   016C 90s00r3B            505 	mov	dptr,#(_TMR_init_file_name_3_5 + 0x0008)
   016F 74 72               506 	mov	a,#0x72
   0171 F0                  507 	movx	@dptr,a
                            508 ;	genPointerSet
                            509 ;     genFarPointerSet
   0172 90s00r3C            510 	mov	dptr,#(_TMR_init_file_name_3_5 + 0x0009)
   0175 74 73               511 	mov	a,#0x73
   0177 F0                  512 	movx	@dptr,a
                            513 ;	genPointerSet
                            514 ;     genFarPointerSet
   0178 90s00r3D            515 	mov	dptr,#(_TMR_init_file_name_3_5 + 0x000a)
   017B 74 2F               516 	mov	a,#0x2F
   017D F0                  517 	movx	@dptr,a
                            518 ;	genPointerSet
                            519 ;     genFarPointerSet
   017E 90s00r3E            520 	mov	dptr,#(_TMR_init_file_name_3_5 + 0x000b)
   0181 74 43               521 	mov	a,#0x43
   0183 F0                  522 	movx	@dptr,a
                            523 ;	genPointerSet
                            524 ;     genFarPointerSet
   0184 90s00r3F            525 	mov	dptr,#(_TMR_init_file_name_3_5 + 0x000c)
   0187 74 6F               526 	mov	a,#0x6F
   0189 F0                  527 	movx	@dptr,a
                            528 ;	genPointerSet
                            529 ;     genFarPointerSet
   018A 90s00r40            530 	mov	dptr,#(_TMR_init_file_name_3_5 + 0x000d)
   018D 74 72               531 	mov	a,#0x72
   018F F0                  532 	movx	@dptr,a
                            533 ;	genPointerSet
                            534 ;     genFarPointerSet
   0190 90s00r41            535 	mov	dptr,#(_TMR_init_file_name_3_5 + 0x000e)
   0193 74 65               536 	mov	a,#0x65
   0195 F0                  537 	movx	@dptr,a
                            538 ;	genPointerSet
                            539 ;     genFarPointerSet
   0196 90s00r42            540 	mov	dptr,#(_TMR_init_file_name_3_5 + 0x000f)
   0199 74 54               541 	mov	a,#0x54
   019B F0                  542 	movx	@dptr,a
                            543 ;	genPointerSet
                            544 ;     genFarPointerSet
   019C 90s00r43            545 	mov	dptr,#(_TMR_init_file_name_3_5 + 0x0010)
   019F 74 69               546 	mov	a,#0x69
   01A1 F0                  547 	movx	@dptr,a
                            548 ;	genPointerSet
                            549 ;     genFarPointerSet
   01A2 90s00r44            550 	mov	dptr,#(_TMR_init_file_name_3_5 + 0x0011)
   01A5 74 6D               551 	mov	a,#0x6D
   01A7 F0                  552 	movx	@dptr,a
                            553 ;	genPointerSet
                            554 ;     genFarPointerSet
   01A8 90s00r45            555 	mov	dptr,#(_TMR_init_file_name_3_5 + 0x0012)
   01AB 74 65               556 	mov	a,#0x65
   01AD F0                  557 	movx	@dptr,a
                            558 ;	genPointerSet
                            559 ;     genFarPointerSet
   01AE 90s00r46            560 	mov	dptr,#(_TMR_init_file_name_3_5 + 0x0013)
   01B1 74 72               561 	mov	a,#0x72
   01B3 F0                  562 	movx	@dptr,a
                            563 ;	genPointerSet
                            564 ;     genFarPointerSet
   01B4 90s00r47            565 	mov	dptr,#(_TMR_init_file_name_3_5 + 0x0014)
   01B7 74 2F               566 	mov	a,#0x2F
   01B9 F0                  567 	movx	@dptr,a
                            568 ;	genPointerSet
                            569 ;     genFarPointerSet
   01BA 90s00r48            570 	mov	dptr,#(_TMR_init_file_name_3_5 + 0x0015)
   01BD 74 63               571 	mov	a,#0x63
   01BF F0                  572 	movx	@dptr,a
                            573 ;	genPointerSet
                            574 ;     genFarPointerSet
   01C0 90s00r49            575 	mov	dptr,#(_TMR_init_file_name_3_5 + 0x0016)
   01C3 74 6F               576 	mov	a,#0x6F
   01C5 F0                  577 	movx	@dptr,a
                            578 ;	genPointerSet
                            579 ;     genFarPointerSet
   01C6 90s00r4A            580 	mov	dptr,#(_TMR_init_file_name_3_5 + 0x0017)
   01C9 74 72               581 	mov	a,#0x72
   01CB F0                  582 	movx	@dptr,a
                            583 ;	genPointerSet
                            584 ;     genFarPointerSet
   01CC 90s00r4B            585 	mov	dptr,#(_TMR_init_file_name_3_5 + 0x0018)
   01CF 74 65               586 	mov	a,#0x65
   01D1 F0                  587 	movx	@dptr,a
                            588 ;	genPointerSet
                            589 ;     genFarPointerSet
   01D2 90s00r4C            590 	mov	dptr,#(_TMR_init_file_name_3_5 + 0x0019)
   01D5 74 5F               591 	mov	a,#0x5F
   01D7 F0                  592 	movx	@dptr,a
                            593 ;	genPointerSet
                            594 ;     genFarPointerSet
   01D8 90s00r4D            595 	mov	dptr,#(_TMR_init_file_name_3_5 + 0x001a)
   01DB 74 74               596 	mov	a,#0x74
   01DD F0                  597 	movx	@dptr,a
                            598 ;	genPointerSet
                            599 ;     genFarPointerSet
   01DE 90s00r4E            600 	mov	dptr,#(_TMR_init_file_name_3_5 + 0x001b)
   01E1 74 69               601 	mov	a,#0x69
   01E3 F0                  602 	movx	@dptr,a
                            603 ;	genPointerSet
                            604 ;     genFarPointerSet
   01E4 90s00r4F            605 	mov	dptr,#(_TMR_init_file_name_3_5 + 0x001c)
   01E7 74 6D               606 	mov	a,#0x6D
   01E9 F0                  607 	movx	@dptr,a
                            608 ;	genPointerSet
                            609 ;     genFarPointerSet
   01EA 90s00r50            610 	mov	dptr,#(_TMR_init_file_name_3_5 + 0x001d)
   01ED 74 65               611 	mov	a,#0x65
   01EF F0                  612 	movx	@dptr,a
                            613 ;	genPointerSet
                            614 ;     genFarPointerSet
   01F0 90s00r51            615 	mov	dptr,#(_TMR_init_file_name_3_5 + 0x001e)
   01F3 74 72               616 	mov	a,#0x72
   01F5 F0                  617 	movx	@dptr,a
                            618 ;	genPointerSet
                            619 ;     genFarPointerSet
   01F6 90s00r52            620 	mov	dptr,#(_TMR_init_file_name_3_5 + 0x001f)
   01F9 74 2E               621 	mov	a,#0x2E
   01FB F0                  622 	movx	@dptr,a
                            623 ;	genPointerSet
                            624 ;     genFarPointerSet
   01FC 90s00r53            625 	mov	dptr,#(_TMR_init_file_name_3_5 + 0x0020)
   01FF 74 63               626 	mov	a,#0x63
   0201 F0                  627 	movx	@dptr,a
                            628 ;	genPointerSet
                            629 ;     genFarPointerSet
   0202 90s00r54            630 	mov	dptr,#(_TMR_init_file_name_3_5 + 0x0021)
   0205 74 00               631 	mov	a,#0x00
   0207 F0                  632 	movx	@dptr,a
                            633 ;	genAssign
   0208 90s00r00            634 	mov	dptr,#_HAL_assert_fail_PARM_2
   020B 74 22               635 	mov	a,#0x22
   020D F0                  636 	movx	@dptr,a
   020E E4                  637 	clr	a
   020F A3                  638 	inc	dptr
   0210 F0                  639 	movx	@dptr,a
   0211 A3                  640 	inc	dptr
   0212 F0                  641 	movx	@dptr,a
   0213 A3                  642 	inc	dptr
   0214 F0                  643 	movx	@dptr,a
                            644 ;	genCall
   0215 75 82r33            645 	mov	dpl,#_TMR_init_file_name_3_5
   0218 75 83s00            646 	mov	dph,#(_TMR_init_file_name_3_5 >> 8)
   021B 75 F0 00            647 	mov	b,#0x00
   021E C0 02               648 	push	ar2
   0220 C0 03               649 	push	ar3
   0222 C0 04               650 	push	ar4
   0224 C0 05               651 	push	ar5
   0226 12s00r00            652 	lcall	_HAL_assert_fail
   0229 D0 05               653 	pop	ar5
   022B D0 04               654 	pop	ar4
   022D D0 03               655 	pop	ar3
   022F D0 02               656 	pop	ar2
   0231                     657 00109$:
                    0231    658 	C$core_timer.c$35$2$6 ==.
                            659 ;	../drivers/CoreTimer/core_timer.c:35: HAL_ASSERT( load_value != 0 )
                            660 ;	genAssign
   0231 90s00r0A            661 	mov	dptr,#_TMR_init_PARM_5
   0234 E0                  662 	movx	a,@dptr
   0235 F5*00               663 	mov	_TMR_init_sloc0_1_0,a
   0237 A3                  664 	inc	dptr
   0238 E0                  665 	movx	a,@dptr
   0239 F5*01               666 	mov	(_TMR_init_sloc0_1_0 + 1),a
   023B A3                  667 	inc	dptr
   023C E0                  668 	movx	a,@dptr
   023D F5*02               669 	mov	(_TMR_init_sloc0_1_0 + 2),a
   023F A3                  670 	inc	dptr
   0240 E0                  671 	movx	a,@dptr
   0241 F5*03               672 	mov	(_TMR_init_sloc0_1_0 + 3),a
                            673 ;	genCmpEq
                            674 ;	gencjneshort
   0243 E5*00               675 	mov	a,_TMR_init_sloc0_1_0
   0245 70 0E               676 	jnz	00128$
   0247 E5*01               677 	mov	a,(_TMR_init_sloc0_1_0 + 1)
   0249 70 0A               678 	jnz	00128$
   024B E5*02               679 	mov	a,(_TMR_init_sloc0_1_0 + 2)
   024D 70 06               680 	jnz	00128$
   024F E5*03               681 	mov	a,(_TMR_init_sloc0_1_0 + 3)
   0251 70 02               682 	jnz	00128$
   0253 80 03               683 	sjmp	00129$
   0255                     684 00128$:
   0255 02s03r4D            685 	ljmp	00114$
   0258                     686 00129$:
                            687 ;	genPointerSet
                            688 ;     genFarPointerSet
   0258 90s00r55            689 	mov	dptr,#_TMR_init_file_name_3_7
   025B 74 2E               690 	mov	a,#0x2E
   025D F0                  691 	movx	@dptr,a
                            692 ;	genPointerSet
                            693 ;     genFarPointerSet
   025E 90s00r56            694 	mov	dptr,#(_TMR_init_file_name_3_7 + 0x0001)
   0261 74 2E               695 	mov	a,#0x2E
   0263 F0                  696 	movx	@dptr,a
                            697 ;	genPointerSet
                            698 ;     genFarPointerSet
   0264 90s00r57            699 	mov	dptr,#(_TMR_init_file_name_3_7 + 0x0002)
   0267 74 2F               700 	mov	a,#0x2F
   0269 F0                  701 	movx	@dptr,a
                            702 ;	genPointerSet
                            703 ;     genFarPointerSet
   026A 90s00r58            704 	mov	dptr,#(_TMR_init_file_name_3_7 + 0x0003)
   026D 74 64               705 	mov	a,#0x64
   026F F0                  706 	movx	@dptr,a
                            707 ;	genPointerSet
                            708 ;     genFarPointerSet
   0270 90s00r59            709 	mov	dptr,#(_TMR_init_file_name_3_7 + 0x0004)
   0273 74 72               710 	mov	a,#0x72
   0275 F0                  711 	movx	@dptr,a
                            712 ;	genPointerSet
                            713 ;     genFarPointerSet
   0276 90s00r5A            714 	mov	dptr,#(_TMR_init_file_name_3_7 + 0x0005)
   0279 74 69               715 	mov	a,#0x69
   027B F0                  716 	movx	@dptr,a
                            717 ;	genPointerSet
                            718 ;     genFarPointerSet
   027C 90s00r5B            719 	mov	dptr,#(_TMR_init_file_name_3_7 + 0x0006)
   027F 74 76               720 	mov	a,#0x76
   0281 F0                  721 	movx	@dptr,a
                            722 ;	genPointerSet
                            723 ;     genFarPointerSet
   0282 90s00r5C            724 	mov	dptr,#(_TMR_init_file_name_3_7 + 0x0007)
   0285 74 65               725 	mov	a,#0x65
   0287 F0                  726 	movx	@dptr,a
                            727 ;	genPointerSet
                            728 ;     genFarPointerSet
   0288 90s00r5D            729 	mov	dptr,#(_TMR_init_file_name_3_7 + 0x0008)
   028B 74 72               730 	mov	a,#0x72
   028D F0                  731 	movx	@dptr,a
                            732 ;	genPointerSet
                            733 ;     genFarPointerSet
   028E 90s00r5E            734 	mov	dptr,#(_TMR_init_file_name_3_7 + 0x0009)
   0291 74 73               735 	mov	a,#0x73
   0293 F0                  736 	movx	@dptr,a
                            737 ;	genPointerSet
                            738 ;     genFarPointerSet
   0294 90s00r5F            739 	mov	dptr,#(_TMR_init_file_name_3_7 + 0x000a)
   0297 74 2F               740 	mov	a,#0x2F
   0299 F0                  741 	movx	@dptr,a
                            742 ;	genPointerSet
                            743 ;     genFarPointerSet
   029A 90s00r60            744 	mov	dptr,#(_TMR_init_file_name_3_7 + 0x000b)
   029D 74 43               745 	mov	a,#0x43
   029F F0                  746 	movx	@dptr,a
                            747 ;	genPointerSet
                            748 ;     genFarPointerSet
   02A0 90s00r61            749 	mov	dptr,#(_TMR_init_file_name_3_7 + 0x000c)
   02A3 74 6F               750 	mov	a,#0x6F
   02A5 F0                  751 	movx	@dptr,a
                            752 ;	genPointerSet
                            753 ;     genFarPointerSet
   02A6 90s00r62            754 	mov	dptr,#(_TMR_init_file_name_3_7 + 0x000d)
   02A9 74 72               755 	mov	a,#0x72
   02AB F0                  756 	movx	@dptr,a
                            757 ;	genPointerSet
                            758 ;     genFarPointerSet
   02AC 90s00r63            759 	mov	dptr,#(_TMR_init_file_name_3_7 + 0x000e)
   02AF 74 65               760 	mov	a,#0x65
   02B1 F0                  761 	movx	@dptr,a
                            762 ;	genPointerSet
                            763 ;     genFarPointerSet
   02B2 90s00r64            764 	mov	dptr,#(_TMR_init_file_name_3_7 + 0x000f)
   02B5 74 54               765 	mov	a,#0x54
   02B7 F0                  766 	movx	@dptr,a
                            767 ;	genPointerSet
                            768 ;     genFarPointerSet
   02B8 90s00r65            769 	mov	dptr,#(_TMR_init_file_name_3_7 + 0x0010)
   02BB 74 69               770 	mov	a,#0x69
   02BD F0                  771 	movx	@dptr,a
                            772 ;	genPointerSet
                            773 ;     genFarPointerSet
   02BE 90s00r66            774 	mov	dptr,#(_TMR_init_file_name_3_7 + 0x0011)
   02C1 74 6D               775 	mov	a,#0x6D
   02C3 F0                  776 	movx	@dptr,a
                            777 ;	genPointerSet
                            778 ;     genFarPointerSet
   02C4 90s00r67            779 	mov	dptr,#(_TMR_init_file_name_3_7 + 0x0012)
   02C7 74 65               780 	mov	a,#0x65
   02C9 F0                  781 	movx	@dptr,a
                            782 ;	genPointerSet
                            783 ;     genFarPointerSet
   02CA 90s00r68            784 	mov	dptr,#(_TMR_init_file_name_3_7 + 0x0013)
   02CD 74 72               785 	mov	a,#0x72
   02CF F0                  786 	movx	@dptr,a
                            787 ;	genPointerSet
                            788 ;     genFarPointerSet
   02D0 90s00r69            789 	mov	dptr,#(_TMR_init_file_name_3_7 + 0x0014)
   02D3 74 2F               790 	mov	a,#0x2F
   02D5 F0                  791 	movx	@dptr,a
                            792 ;	genPointerSet
                            793 ;     genFarPointerSet
   02D6 90s00r6A            794 	mov	dptr,#(_TMR_init_file_name_3_7 + 0x0015)
   02D9 74 63               795 	mov	a,#0x63
   02DB F0                  796 	movx	@dptr,a
                            797 ;	genPointerSet
                            798 ;     genFarPointerSet
   02DC 90s00r6B            799 	mov	dptr,#(_TMR_init_file_name_3_7 + 0x0016)
   02DF 74 6F               800 	mov	a,#0x6F
   02E1 F0                  801 	movx	@dptr,a
                            802 ;	genPointerSet
                            803 ;     genFarPointerSet
   02E2 90s00r6C            804 	mov	dptr,#(_TMR_init_file_name_3_7 + 0x0017)
   02E5 74 72               805 	mov	a,#0x72
   02E7 F0                  806 	movx	@dptr,a
                            807 ;	genPointerSet
                            808 ;     genFarPointerSet
   02E8 90s00r6D            809 	mov	dptr,#(_TMR_init_file_name_3_7 + 0x0018)
   02EB 74 65               810 	mov	a,#0x65
   02ED F0                  811 	movx	@dptr,a
                            812 ;	genPointerSet
                            813 ;     genFarPointerSet
   02EE 90s00r6E            814 	mov	dptr,#(_TMR_init_file_name_3_7 + 0x0019)
   02F1 74 5F               815 	mov	a,#0x5F
   02F3 F0                  816 	movx	@dptr,a
                            817 ;	genPointerSet
                            818 ;     genFarPointerSet
   02F4 90s00r6F            819 	mov	dptr,#(_TMR_init_file_name_3_7 + 0x001a)
   02F7 74 74               820 	mov	a,#0x74
   02F9 F0                  821 	movx	@dptr,a
                            822 ;	genPointerSet
                            823 ;     genFarPointerSet
   02FA 90s00r70            824 	mov	dptr,#(_TMR_init_file_name_3_7 + 0x001b)
   02FD 74 69               825 	mov	a,#0x69
   02FF F0                  826 	movx	@dptr,a
                            827 ;	genPointerSet
                            828 ;     genFarPointerSet
   0300 90s00r71            829 	mov	dptr,#(_TMR_init_file_name_3_7 + 0x001c)
   0303 74 6D               830 	mov	a,#0x6D
   0305 F0                  831 	movx	@dptr,a
                            832 ;	genPointerSet
                            833 ;     genFarPointerSet
   0306 90s00r72            834 	mov	dptr,#(_TMR_init_file_name_3_7 + 0x001d)
   0309 74 65               835 	mov	a,#0x65
   030B F0                  836 	movx	@dptr,a
                            837 ;	genPointerSet
                            838 ;     genFarPointerSet
   030C 90s00r73            839 	mov	dptr,#(_TMR_init_file_name_3_7 + 0x001e)
   030F 74 72               840 	mov	a,#0x72
   0311 F0                  841 	movx	@dptr,a
                            842 ;	genPointerSet
                            843 ;     genFarPointerSet
   0312 90s00r74            844 	mov	dptr,#(_TMR_init_file_name_3_7 + 0x001f)
   0315 74 2E               845 	mov	a,#0x2E
   0317 F0                  846 	movx	@dptr,a
                            847 ;	genPointerSet
                            848 ;     genFarPointerSet
   0318 90s00r75            849 	mov	dptr,#(_TMR_init_file_name_3_7 + 0x0020)
   031B 74 63               850 	mov	a,#0x63
   031D F0                  851 	movx	@dptr,a
                            852 ;	genPointerSet
                            853 ;     genFarPointerSet
   031E 90s00r76            854 	mov	dptr,#(_TMR_init_file_name_3_7 + 0x0021)
   0321 74 00               855 	mov	a,#0x00
   0323 F0                  856 	movx	@dptr,a
                            857 ;	genAssign
   0324 90s00r00            858 	mov	dptr,#_HAL_assert_fail_PARM_2
   0327 74 23               859 	mov	a,#0x23
   0329 F0                  860 	movx	@dptr,a
   032A E4                  861 	clr	a
   032B A3                  862 	inc	dptr
   032C F0                  863 	movx	@dptr,a
   032D A3                  864 	inc	dptr
   032E F0                  865 	movx	@dptr,a
   032F A3                  866 	inc	dptr
   0330 F0                  867 	movx	@dptr,a
                            868 ;	genCall
   0331 75 82r55            869 	mov	dpl,#_TMR_init_file_name_3_7
   0334 75 83s00            870 	mov	dph,#(_TMR_init_file_name_3_7 >> 8)
   0337 75 F0 00            871 	mov	b,#0x00
   033A C0 02               872 	push	ar2
   033C C0 03               873 	push	ar3
   033E C0 04               874 	push	ar4
   0340 C0 05               875 	push	ar5
   0342 12s00r00            876 	lcall	_HAL_assert_fail
   0345 D0 05               877 	pop	ar5
   0347 D0 04               878 	pop	ar4
   0349 D0 03               879 	pop	ar3
   034B D0 02               880 	pop	ar2
   034D                     881 00114$:
                    034D    882 	C$core_timer.c$37$1$1 ==.
                            883 ;	../drivers/CoreTimer/core_timer.c:37: this_timer->base_address = address;
                            884 ;	genAssign
   034D 90s00r0E            885 	mov	dptr,#_TMR_init_this_timer_1_1
   0350 E0                  886 	movx	a,@dptr
   0351 FE                  887 	mov	r6,a
   0352 A3                  888 	inc	dptr
   0353 E0                  889 	movx	a,@dptr
   0354 FF                  890 	mov	r7,a
   0355 A3                  891 	inc	dptr
   0356 E0                  892 	movx	a,@dptr
   0357 F8                  893 	mov	r0,a
                            894 ;	genAssign
   0358 90s00r03            895 	mov	dptr,#_TMR_init_PARM_2
   035B E0                  896 	movx	a,@dptr
   035C F5*04               897 	mov	_TMR_init_sloc1_1_0,a
   035E A3                  898 	inc	dptr
   035F E0                  899 	movx	a,@dptr
   0360 F5*05               900 	mov	(_TMR_init_sloc1_1_0 + 1),a
                            901 ;	genPointerSet
                            902 ;	genGenPointerSet
   0362 8E 82               903 	mov	dpl,r6
   0364 8F 83               904 	mov	dph,r7
   0366 88 F0               905 	mov	b,r0
   0368 E5*04               906 	mov	a,_TMR_init_sloc1_1_0
   036A 12s00r00            907 	lcall	__gptrput
   036D A3                  908 	inc	dptr
   036E E5*05               909 	mov	a,(_TMR_init_sloc1_1_0 + 1)
   0370 12s00r00            910 	lcall	__gptrput
                    0373    911 	C$core_timer.c$40$1$1 ==.
                            912 ;	../drivers/CoreTimer/core_timer.c:40: HAL_set_32bit_reg_field( address, InterruptEnable,0 );
                            913 ;	genPlus
                            914 ;	genPlusIncr
   0373 74 08               915 	mov	a,#0x08
   0375 25*04               916 	add	a,_TMR_init_sloc1_1_0
   0377 FE                  917 	mov	r6,a
   0378 74 00               918 	mov	a,#0x00
   037A 35*05               919 	addc	a,(_TMR_init_sloc1_1_0 + 1)
   037C FF                  920 	mov	r7,a
                            921 ;	genAssign
   037D 90s00r00            922 	mov	dptr,#_HW_set_32bit_reg_field_PARM_2
   0380 74 01               923 	mov	a,#0x01
   0382 F0                  924 	movx	@dptr,a
                            925 ;	genAssign
   0383 90s00r00            926 	mov	dptr,#_HW_set_32bit_reg_field_PARM_3
   0386 74 02               927 	mov	a,#0x02
   0388 F0                  928 	movx	@dptr,a
   0389 E4                  929 	clr	a
   038A A3                  930 	inc	dptr
   038B F0                  931 	movx	@dptr,a
   038C A3                  932 	inc	dptr
   038D F0                  933 	movx	@dptr,a
   038E A3                  934 	inc	dptr
   038F F0                  935 	movx	@dptr,a
                            936 ;	genAssign
   0390 90s00r00            937 	mov	dptr,#_HW_set_32bit_reg_field_PARM_4
   0393 E4                  938 	clr	a
   0394 F0                  939 	movx	@dptr,a
   0395 A3                  940 	inc	dptr
   0396 F0                  941 	movx	@dptr,a
   0397 A3                  942 	inc	dptr
   0398 F0                  943 	movx	@dptr,a
   0399 A3                  944 	inc	dptr
   039A F0                  945 	movx	@dptr,a
                            946 ;	genCall
   039B 8E 82               947 	mov	dpl,r6
   039D 8F 83               948 	mov	dph,r7
   039F C0 02               949 	push	ar2
   03A1 C0 03               950 	push	ar3
   03A3 C0 04               951 	push	ar4
   03A5 C0 05               952 	push	ar5
   03A7 C0 06               953 	push	ar6
   03A9 C0 07               954 	push	ar7
   03AB 12s00r00            955 	lcall	_HW_set_32bit_reg_field
   03AE D0 07               956 	pop	ar7
   03B0 D0 06               957 	pop	ar6
   03B2 D0 05               958 	pop	ar5
   03B4 D0 04               959 	pop	ar4
   03B6 D0 03               960 	pop	ar3
   03B8 D0 02               961 	pop	ar2
                    03BA    962 	C$core_timer.c$43$1$1 ==.
                            963 ;	../drivers/CoreTimer/core_timer.c:43: HAL_set_32bit_reg_field( address, TimerEnable, 0 );
                            964 ;	genAssign
   03BA 90s00r00            965 	mov	dptr,#_HW_set_32bit_reg_field_PARM_2
   03BD 74 00               966 	mov	a,#0x00
   03BF F0                  967 	movx	@dptr,a
                            968 ;	genAssign
   03C0 90s00r00            969 	mov	dptr,#_HW_set_32bit_reg_field_PARM_3
   03C3 74 01               970 	mov	a,#0x01
   03C5 F0                  971 	movx	@dptr,a
   03C6 E4                  972 	clr	a
   03C7 A3                  973 	inc	dptr
   03C8 F0                  974 	movx	@dptr,a
   03C9 A3                  975 	inc	dptr
   03CA F0                  976 	movx	@dptr,a
   03CB A3                  977 	inc	dptr
   03CC F0                  978 	movx	@dptr,a
                            979 ;	genAssign
   03CD 90s00r00            980 	mov	dptr,#_HW_set_32bit_reg_field_PARM_4
   03D0 E4                  981 	clr	a
   03D1 F0                  982 	movx	@dptr,a
   03D2 A3                  983 	inc	dptr
   03D3 F0                  984 	movx	@dptr,a
   03D4 A3                  985 	inc	dptr
   03D5 F0                  986 	movx	@dptr,a
   03D6 A3                  987 	inc	dptr
   03D7 F0                  988 	movx	@dptr,a
                            989 ;	genCall
   03D8 8E 82               990 	mov	dpl,r6
   03DA 8F 83               991 	mov	dph,r7
   03DC C0 02               992 	push	ar2
   03DE C0 03               993 	push	ar3
   03E0 C0 04               994 	push	ar4
   03E2 C0 05               995 	push	ar5
   03E4 12s00r00            996 	lcall	_HW_set_32bit_reg_field
   03E7 D0 05               997 	pop	ar5
   03E9 D0 04               998 	pop	ar4
   03EB D0 03               999 	pop	ar3
   03ED D0 02              1000 	pop	ar2
                    03EF   1001 	C$core_timer.c$46$1$1 ==.
                           1002 ;	../drivers/CoreTimer/core_timer.c:46: HAL_set_32bit_reg( address, TimerIntClr, 1 );
                           1003 ;	genPlus
                           1004 ;	genPlusIncr
   03EF 74 10              1005 	mov	a,#0x10
   03F1 25*04              1006 	add	a,_TMR_init_sloc1_1_0
   03F3 FE                 1007 	mov	r6,a
   03F4 74 00              1008 	mov	a,#0x00
   03F6 35*05              1009 	addc	a,(_TMR_init_sloc1_1_0 + 1)
   03F8 FF                 1010 	mov	r7,a
                           1011 ;	genAssign
   03F9 90s00r00           1012 	mov	dptr,#_HW_set_32bit_reg_PARM_2
   03FC 74 01              1013 	mov	a,#0x01
   03FE F0                 1014 	movx	@dptr,a
   03FF E4                 1015 	clr	a
   0400 A3                 1016 	inc	dptr
   0401 F0                 1017 	movx	@dptr,a
   0402 A3                 1018 	inc	dptr
   0403 F0                 1019 	movx	@dptr,a
   0404 A3                 1020 	inc	dptr
   0405 F0                 1021 	movx	@dptr,a
                           1022 ;	genCall
   0406 8E 82              1023 	mov	dpl,r6
   0408 8F 83              1024 	mov	dph,r7
   040A C0 02              1025 	push	ar2
   040C C0 03              1026 	push	ar3
   040E C0 04              1027 	push	ar4
   0410 C0 05              1028 	push	ar5
   0412 12s00r00           1029 	lcall	_HW_set_32bit_reg
   0415 D0 05              1030 	pop	ar5
   0417 D0 04              1031 	pop	ar4
   0419 D0 03              1032 	pop	ar3
   041B D0 02              1033 	pop	ar2
                    041D   1034 	C$core_timer.c$49$1$1 ==.
                           1035 ;	../drivers/CoreTimer/core_timer.c:49: HAL_set_32bit_reg( address, TimerPrescale, prescale );
                           1036 ;	genPlus
                           1037 ;	genPlusIncr
   041D 74 0C              1038 	mov	a,#0x0C
   041F 25*04              1039 	add	a,_TMR_init_sloc1_1_0
   0421 FE                 1040 	mov	r6,a
   0422 74 00              1041 	mov	a,#0x00
   0424 35*05              1042 	addc	a,(_TMR_init_sloc1_1_0 + 1)
   0426 FF                 1043 	mov	r7,a
                           1044 ;	genAssign
   0427 90s00r00           1045 	mov	dptr,#_HW_set_32bit_reg_PARM_2
   042A EA                 1046 	mov	a,r2
   042B F0                 1047 	movx	@dptr,a
   042C A3                 1048 	inc	dptr
   042D EB                 1049 	mov	a,r3
   042E F0                 1050 	movx	@dptr,a
   042F A3                 1051 	inc	dptr
   0430 EC                 1052 	mov	a,r4
   0431 F0                 1053 	movx	@dptr,a
   0432 A3                 1054 	inc	dptr
   0433 ED                 1055 	mov	a,r5
   0434 F0                 1056 	movx	@dptr,a
                           1057 ;	genCall
   0435 8E 82              1058 	mov	dpl,r6
   0437 8F 83              1059 	mov	dph,r7
   0439 12s00r00           1060 	lcall	_HW_set_32bit_reg
                    043C   1061 	C$core_timer.c$50$1$1 ==.
                           1062 ;	../drivers/CoreTimer/core_timer.c:50: HAL_set_32bit_reg( address, TimerLoad, load_value );
                           1063 ;	genAssign
   043C 90s00r00           1064 	mov	dptr,#_HW_set_32bit_reg_PARM_2
   043F E5*00              1065 	mov	a,_TMR_init_sloc0_1_0
   0441 F0                 1066 	movx	@dptr,a
   0442 A3                 1067 	inc	dptr
   0443 E5*01              1068 	mov	a,(_TMR_init_sloc0_1_0 + 1)
   0445 F0                 1069 	movx	@dptr,a
   0446 A3                 1070 	inc	dptr
   0447 E5*02              1071 	mov	a,(_TMR_init_sloc0_1_0 + 2)
   0449 F0                 1072 	movx	@dptr,a
   044A A3                 1073 	inc	dptr
   044B E5*03              1074 	mov	a,(_TMR_init_sloc0_1_0 + 3)
   044D F0                 1075 	movx	@dptr,a
                           1076 ;	genCall
   044E 85*04 82           1077 	mov	dpl,_TMR_init_sloc1_1_0
   0451 85*05 83           1078 	mov	dph,(_TMR_init_sloc1_1_0 + 1)
   0454 12s00r00           1079 	lcall	_HW_set_32bit_reg
                    0457   1080 	C$core_timer.c$53$1$1 ==.
                           1081 ;	../drivers/CoreTimer/core_timer.c:53: if ( mode == TMR_CONTINUOUS_MODE )
                           1082 ;	genAssign
   0457 90s00r05           1083 	mov	dptr,#_TMR_init_PARM_3
   045A E0                 1084 	movx	a,@dptr
   045B FA                 1085 	mov	r2,a
                           1086 ;	genIfx
   045C EA                 1087 	mov	a,r2
                           1088 ;	genIfxJump
   045D 60 03              1089 	jz	00130$
   045F 02s04r94           1090 	ljmp	00117$
   0462                    1091 00130$:
                    0462   1092 	C$core_timer.c$55$2$8 ==.
                           1093 ;	../drivers/CoreTimer/core_timer.c:55: HAL_set_32bit_reg_field( address, TimerMode, 0 );
                           1094 ;	genPlus
                           1095 ;	genPlusIncr
   0462 74 08              1096 	mov	a,#0x08
   0464 25*04              1097 	add	a,_TMR_init_sloc1_1_0
   0466 FA                 1098 	mov	r2,a
   0467 74 00              1099 	mov	a,#0x00
   0469 35*05              1100 	addc	a,(_TMR_init_sloc1_1_0 + 1)
   046B FB                 1101 	mov	r3,a
                           1102 ;	genAssign
   046C 90s00r00           1103 	mov	dptr,#_HW_set_32bit_reg_field_PARM_2
   046F 74 02              1104 	mov	a,#0x02
   0471 F0                 1105 	movx	@dptr,a
                           1106 ;	genAssign
   0472 90s00r00           1107 	mov	dptr,#_HW_set_32bit_reg_field_PARM_3
   0475 74 04              1108 	mov	a,#0x04
   0477 F0                 1109 	movx	@dptr,a
   0478 E4                 1110 	clr	a
   0479 A3                 1111 	inc	dptr
   047A F0                 1112 	movx	@dptr,a
   047B A3                 1113 	inc	dptr
   047C F0                 1114 	movx	@dptr,a
   047D A3                 1115 	inc	dptr
   047E F0                 1116 	movx	@dptr,a
                           1117 ;	genAssign
   047F 90s00r00           1118 	mov	dptr,#_HW_set_32bit_reg_field_PARM_4
   0482 E4                 1119 	clr	a
   0483 F0                 1120 	movx	@dptr,a
   0484 A3                 1121 	inc	dptr
   0485 F0                 1122 	movx	@dptr,a
   0486 A3                 1123 	inc	dptr
   0487 F0                 1124 	movx	@dptr,a
   0488 A3                 1125 	inc	dptr
   0489 F0                 1126 	movx	@dptr,a
                           1127 ;	genCall
   048A 8A 82              1128 	mov	dpl,r2
   048C 8B 83              1129 	mov	dph,r3
   048E 12s00r00           1130 	lcall	_HW_set_32bit_reg_field
   0491 02s04rC5           1131 	ljmp	00119$
   0494                    1132 00117$:
                    0494   1133 	C$core_timer.c$60$2$9 ==.
                           1134 ;	../drivers/CoreTimer/core_timer.c:60: HAL_set_32bit_reg_field( address, TimerMode, 1 );
                           1135 ;	genPlus
                           1136 ;	genPlusIncr
   0494 74 08              1137 	mov	a,#0x08
   0496 25*04              1138 	add	a,_TMR_init_sloc1_1_0
   0498 FA                 1139 	mov	r2,a
   0499 74 00              1140 	mov	a,#0x00
   049B 35*05              1141 	addc	a,(_TMR_init_sloc1_1_0 + 1)
   049D FB                 1142 	mov	r3,a
                           1143 ;	genAssign
   049E 90s00r00           1144 	mov	dptr,#_HW_set_32bit_reg_field_PARM_2
   04A1 74 02              1145 	mov	a,#0x02
   04A3 F0                 1146 	movx	@dptr,a
                           1147 ;	genAssign
   04A4 90s00r00           1148 	mov	dptr,#_HW_set_32bit_reg_field_PARM_3
   04A7 74 04              1149 	mov	a,#0x04
   04A9 F0                 1150 	movx	@dptr,a
   04AA E4                 1151 	clr	a
   04AB A3                 1152 	inc	dptr
   04AC F0                 1153 	movx	@dptr,a
   04AD A3                 1154 	inc	dptr
   04AE F0                 1155 	movx	@dptr,a
   04AF A3                 1156 	inc	dptr
   04B0 F0                 1157 	movx	@dptr,a
                           1158 ;	genAssign
   04B1 90s00r00           1159 	mov	dptr,#_HW_set_32bit_reg_field_PARM_4
   04B4 74 01              1160 	mov	a,#0x01
   04B6 F0                 1161 	movx	@dptr,a
   04B7 E4                 1162 	clr	a
   04B8 A3                 1163 	inc	dptr
   04B9 F0                 1164 	movx	@dptr,a
   04BA A3                 1165 	inc	dptr
   04BB F0                 1166 	movx	@dptr,a
   04BC A3                 1167 	inc	dptr
   04BD F0                 1168 	movx	@dptr,a
                           1169 ;	genCall
   04BE 8A 82              1170 	mov	dpl,r2
   04C0 8B 83              1171 	mov	dph,r3
   04C2 12s00r00           1172 	lcall	_HW_set_32bit_reg_field
   04C5                    1173 00119$:
                    04C5   1174 	C$core_timer.c$62$1$1 ==.
                    04C5   1175 	XG$TMR_init$0$0 ==.
   04C5 22                 1176 	ret
                           1177 ;------------------------------------------------------------
                           1178 ;Allocation info for local variables in function 'TMR_start'
                           1179 ;------------------------------------------------------------
                           1180 ;this_timer                Allocated with name '_TMR_start_this_timer_1_1'
                           1181 ;file_name                 Allocated with name '_TMR_start_file_name_3_3'
                           1182 ;------------------------------------------------------------
                    04C6   1183 	G$TMR_start$0$0 ==.
                    04C6   1184 	C$core_timer.c$69$1$1 ==.
                           1185 ;	../drivers/CoreTimer/core_timer.c:69: TMR_start
                           1186 ;	-----------------------------------------
                           1187 ;	 function TMR_start
                           1188 ;	-----------------------------------------
   04C6                    1189 _TMR_start:
                           1190 ;	genReceive
   04C6 AA F0              1191 	mov	r2,b
   04C8 AB 83              1192 	mov	r3,dph
   04CA E5 82              1193 	mov	a,dpl
   04CC 90s00r77           1194 	mov	dptr,#_TMR_start_this_timer_1_1
   04CF F0                 1195 	movx	@dptr,a
   04D0 A3                 1196 	inc	dptr
   04D1 EB                 1197 	mov	a,r3
   04D2 F0                 1198 	movx	@dptr,a
   04D3 A3                 1199 	inc	dptr
   04D4 EA                 1200 	mov	a,r2
   04D5 F0                 1201 	movx	@dptr,a
                    04D6   1202 	C$core_timer.c$74$2$2 ==.
                           1203 ;	../drivers/CoreTimer/core_timer.c:74: HAL_ASSERT( this_timer != NULL_timer_instance )
                           1204 ;	genAssign
   04D6 90s00r77           1205 	mov	dptr,#_TMR_start_this_timer_1_1
   04D9 E0                 1206 	movx	a,@dptr
   04DA FA                 1207 	mov	r2,a
   04DB A3                 1208 	inc	dptr
   04DC E0                 1209 	movx	a,@dptr
   04DD FB                 1210 	mov	r3,a
   04DE A3                 1211 	inc	dptr
   04DF E0                 1212 	movx	a,@dptr
   04E0 FC                 1213 	mov	r4,a
                           1214 ;	genAssign
   04E1 90s00r00           1215 	mov	dptr,#_NULL_timer_instance
   04E4 E0                 1216 	movx	a,@dptr
   04E5 FD                 1217 	mov	r5,a
   04E6 A3                 1218 	inc	dptr
   04E7 E0                 1219 	movx	a,@dptr
   04E8 FE                 1220 	mov	r6,a
   04E9 A3                 1221 	inc	dptr
   04EA E0                 1222 	movx	a,@dptr
   04EB FF                 1223 	mov	r7,a
                           1224 ;	genCmpEq
                           1225 ;	gencjneshort
   04EC EA                 1226 	mov	a,r2
   04ED B5 05 0A           1227 	cjne	a,ar5,00109$
   04F0 EB                 1228 	mov	a,r3
   04F1 B5 06 06           1229 	cjne	a,ar6,00109$
   04F4 EC                 1230 	mov	a,r4
   04F5 B5 07 02           1231 	cjne	a,ar7,00109$
   04F8 80 03              1232 	sjmp	00110$
   04FA                    1233 00109$:
   04FA 02s05rE2           1234 	ljmp	00104$
   04FD                    1235 00110$:
                           1236 ;	genPointerSet
                           1237 ;     genFarPointerSet
   04FD 90s00r7A           1238 	mov	dptr,#_TMR_start_file_name_3_3
   0500 74 2E              1239 	mov	a,#0x2E
   0502 F0                 1240 	movx	@dptr,a
                           1241 ;	genPointerSet
                           1242 ;     genFarPointerSet
   0503 90s00r7B           1243 	mov	dptr,#(_TMR_start_file_name_3_3 + 0x0001)
   0506 74 2E              1244 	mov	a,#0x2E
   0508 F0                 1245 	movx	@dptr,a
                           1246 ;	genPointerSet
                           1247 ;     genFarPointerSet
   0509 90s00r7C           1248 	mov	dptr,#(_TMR_start_file_name_3_3 + 0x0002)
   050C 74 2F              1249 	mov	a,#0x2F
   050E F0                 1250 	movx	@dptr,a
                           1251 ;	genPointerSet
                           1252 ;     genFarPointerSet
   050F 90s00r7D           1253 	mov	dptr,#(_TMR_start_file_name_3_3 + 0x0003)
   0512 74 64              1254 	mov	a,#0x64
   0514 F0                 1255 	movx	@dptr,a
                           1256 ;	genPointerSet
                           1257 ;     genFarPointerSet
   0515 90s00r7E           1258 	mov	dptr,#(_TMR_start_file_name_3_3 + 0x0004)
   0518 74 72              1259 	mov	a,#0x72
   051A F0                 1260 	movx	@dptr,a
                           1261 ;	genPointerSet
                           1262 ;     genFarPointerSet
   051B 90s00r7F           1263 	mov	dptr,#(_TMR_start_file_name_3_3 + 0x0005)
   051E 74 69              1264 	mov	a,#0x69
   0520 F0                 1265 	movx	@dptr,a
                           1266 ;	genPointerSet
                           1267 ;     genFarPointerSet
   0521 90s00r80           1268 	mov	dptr,#(_TMR_start_file_name_3_3 + 0x0006)
   0524 74 76              1269 	mov	a,#0x76
   0526 F0                 1270 	movx	@dptr,a
                           1271 ;	genPointerSet
                           1272 ;     genFarPointerSet
   0527 90s00r81           1273 	mov	dptr,#(_TMR_start_file_name_3_3 + 0x0007)
   052A 74 65              1274 	mov	a,#0x65
   052C F0                 1275 	movx	@dptr,a
                           1276 ;	genPointerSet
                           1277 ;     genFarPointerSet
   052D 90s00r82           1278 	mov	dptr,#(_TMR_start_file_name_3_3 + 0x0008)
   0530 74 72              1279 	mov	a,#0x72
   0532 F0                 1280 	movx	@dptr,a
                           1281 ;	genPointerSet
                           1282 ;     genFarPointerSet
   0533 90s00r83           1283 	mov	dptr,#(_TMR_start_file_name_3_3 + 0x0009)
   0536 74 73              1284 	mov	a,#0x73
   0538 F0                 1285 	movx	@dptr,a
                           1286 ;	genPointerSet
                           1287 ;     genFarPointerSet
   0539 90s00r84           1288 	mov	dptr,#(_TMR_start_file_name_3_3 + 0x000a)
   053C 74 2F              1289 	mov	a,#0x2F
   053E F0                 1290 	movx	@dptr,a
                           1291 ;	genPointerSet
                           1292 ;     genFarPointerSet
   053F 90s00r85           1293 	mov	dptr,#(_TMR_start_file_name_3_3 + 0x000b)
   0542 74 43              1294 	mov	a,#0x43
   0544 F0                 1295 	movx	@dptr,a
                           1296 ;	genPointerSet
                           1297 ;     genFarPointerSet
   0545 90s00r86           1298 	mov	dptr,#(_TMR_start_file_name_3_3 + 0x000c)
   0548 74 6F              1299 	mov	a,#0x6F
   054A F0                 1300 	movx	@dptr,a
                           1301 ;	genPointerSet
                           1302 ;     genFarPointerSet
   054B 90s00r87           1303 	mov	dptr,#(_TMR_start_file_name_3_3 + 0x000d)
   054E 74 72              1304 	mov	a,#0x72
   0550 F0                 1305 	movx	@dptr,a
                           1306 ;	genPointerSet
                           1307 ;     genFarPointerSet
   0551 90s00r88           1308 	mov	dptr,#(_TMR_start_file_name_3_3 + 0x000e)
   0554 74 65              1309 	mov	a,#0x65
   0556 F0                 1310 	movx	@dptr,a
                           1311 ;	genPointerSet
                           1312 ;     genFarPointerSet
   0557 90s00r89           1313 	mov	dptr,#(_TMR_start_file_name_3_3 + 0x000f)
   055A 74 54              1314 	mov	a,#0x54
   055C F0                 1315 	movx	@dptr,a
                           1316 ;	genPointerSet
                           1317 ;     genFarPointerSet
   055D 90s00r8A           1318 	mov	dptr,#(_TMR_start_file_name_3_3 + 0x0010)
   0560 74 69              1319 	mov	a,#0x69
   0562 F0                 1320 	movx	@dptr,a
                           1321 ;	genPointerSet
                           1322 ;     genFarPointerSet
   0563 90s00r8B           1323 	mov	dptr,#(_TMR_start_file_name_3_3 + 0x0011)
   0566 74 6D              1324 	mov	a,#0x6D
   0568 F0                 1325 	movx	@dptr,a
                           1326 ;	genPointerSet
                           1327 ;     genFarPointerSet
   0569 90s00r8C           1328 	mov	dptr,#(_TMR_start_file_name_3_3 + 0x0012)
   056C 74 65              1329 	mov	a,#0x65
   056E F0                 1330 	movx	@dptr,a
                           1331 ;	genPointerSet
                           1332 ;     genFarPointerSet
   056F 90s00r8D           1333 	mov	dptr,#(_TMR_start_file_name_3_3 + 0x0013)
   0572 74 72              1334 	mov	a,#0x72
   0574 F0                 1335 	movx	@dptr,a
                           1336 ;	genPointerSet
                           1337 ;     genFarPointerSet
   0575 90s00r8E           1338 	mov	dptr,#(_TMR_start_file_name_3_3 + 0x0014)
   0578 74 2F              1339 	mov	a,#0x2F
   057A F0                 1340 	movx	@dptr,a
                           1341 ;	genPointerSet
                           1342 ;     genFarPointerSet
   057B 90s00r8F           1343 	mov	dptr,#(_TMR_start_file_name_3_3 + 0x0015)
   057E 74 63              1344 	mov	a,#0x63
   0580 F0                 1345 	movx	@dptr,a
                           1346 ;	genPointerSet
                           1347 ;     genFarPointerSet
   0581 90s00r90           1348 	mov	dptr,#(_TMR_start_file_name_3_3 + 0x0016)
   0584 74 6F              1349 	mov	a,#0x6F
   0586 F0                 1350 	movx	@dptr,a
                           1351 ;	genPointerSet
                           1352 ;     genFarPointerSet
   0587 90s00r91           1353 	mov	dptr,#(_TMR_start_file_name_3_3 + 0x0017)
   058A 74 72              1354 	mov	a,#0x72
   058C F0                 1355 	movx	@dptr,a
                           1356 ;	genPointerSet
                           1357 ;     genFarPointerSet
   058D 90s00r92           1358 	mov	dptr,#(_TMR_start_file_name_3_3 + 0x0018)
   0590 74 65              1359 	mov	a,#0x65
   0592 F0                 1360 	movx	@dptr,a
                           1361 ;	genPointerSet
                           1362 ;     genFarPointerSet
   0593 90s00r93           1363 	mov	dptr,#(_TMR_start_file_name_3_3 + 0x0019)
   0596 74 5F              1364 	mov	a,#0x5F
   0598 F0                 1365 	movx	@dptr,a
                           1366 ;	genPointerSet
                           1367 ;     genFarPointerSet
   0599 90s00r94           1368 	mov	dptr,#(_TMR_start_file_name_3_3 + 0x001a)
   059C 74 74              1369 	mov	a,#0x74
   059E F0                 1370 	movx	@dptr,a
                           1371 ;	genPointerSet
                           1372 ;     genFarPointerSet
   059F 90s00r95           1373 	mov	dptr,#(_TMR_start_file_name_3_3 + 0x001b)
   05A2 74 69              1374 	mov	a,#0x69
   05A4 F0                 1375 	movx	@dptr,a
                           1376 ;	genPointerSet
                           1377 ;     genFarPointerSet
   05A5 90s00r96           1378 	mov	dptr,#(_TMR_start_file_name_3_3 + 0x001c)
   05A8 74 6D              1379 	mov	a,#0x6D
   05AA F0                 1380 	movx	@dptr,a
                           1381 ;	genPointerSet
                           1382 ;     genFarPointerSet
   05AB 90s00r97           1383 	mov	dptr,#(_TMR_start_file_name_3_3 + 0x001d)
   05AE 74 65              1384 	mov	a,#0x65
   05B0 F0                 1385 	movx	@dptr,a
                           1386 ;	genPointerSet
                           1387 ;     genFarPointerSet
   05B1 90s00r98           1388 	mov	dptr,#(_TMR_start_file_name_3_3 + 0x001e)
   05B4 74 72              1389 	mov	a,#0x72
   05B6 F0                 1390 	movx	@dptr,a
                           1391 ;	genPointerSet
                           1392 ;     genFarPointerSet
   05B7 90s00r99           1393 	mov	dptr,#(_TMR_start_file_name_3_3 + 0x001f)
   05BA 74 2E              1394 	mov	a,#0x2E
   05BC F0                 1395 	movx	@dptr,a
                           1396 ;	genPointerSet
                           1397 ;     genFarPointerSet
   05BD 90s00r9A           1398 	mov	dptr,#(_TMR_start_file_name_3_3 + 0x0020)
   05C0 74 63              1399 	mov	a,#0x63
   05C2 F0                 1400 	movx	@dptr,a
                           1401 ;	genPointerSet
                           1402 ;     genFarPointerSet
   05C3 90s00r9B           1403 	mov	dptr,#(_TMR_start_file_name_3_3 + 0x0021)
   05C6 74 00              1404 	mov	a,#0x00
   05C8 F0                 1405 	movx	@dptr,a
                           1406 ;	genAssign
   05C9 90s00r00           1407 	mov	dptr,#_HAL_assert_fail_PARM_2
   05CC 74 4A              1408 	mov	a,#0x4A
   05CE F0                 1409 	movx	@dptr,a
   05CF E4                 1410 	clr	a
   05D0 A3                 1411 	inc	dptr
   05D1 F0                 1412 	movx	@dptr,a
   05D2 A3                 1413 	inc	dptr
   05D3 F0                 1414 	movx	@dptr,a
   05D4 A3                 1415 	inc	dptr
   05D5 F0                 1416 	movx	@dptr,a
                           1417 ;	genCall
   05D6 75 82r7A           1418 	mov	dpl,#_TMR_start_file_name_3_3
   05D9 75 83s00           1419 	mov	dph,#(_TMR_start_file_name_3_3 >> 8)
   05DC 75 F0 00           1420 	mov	b,#0x00
   05DF 12s00r00           1421 	lcall	_HAL_assert_fail
   05E2                    1422 00104$:
                    05E2   1423 	C$core_timer.c$76$1$1 ==.
                           1424 ;	../drivers/CoreTimer/core_timer.c:76: HAL_set_32bit_reg_field( this_timer->base_address, TimerEnable, 1 );
                           1425 ;	genAssign
   05E2 90s00r77           1426 	mov	dptr,#_TMR_start_this_timer_1_1
   05E5 E0                 1427 	movx	a,@dptr
   05E6 FA                 1428 	mov	r2,a
   05E7 A3                 1429 	inc	dptr
   05E8 E0                 1430 	movx	a,@dptr
   05E9 FB                 1431 	mov	r3,a
   05EA A3                 1432 	inc	dptr
   05EB E0                 1433 	movx	a,@dptr
   05EC FC                 1434 	mov	r4,a
                           1435 ;	genPointerGet
                           1436 ;	genGenPointerGet
   05ED 8A 82              1437 	mov	dpl,r2
   05EF 8B 83              1438 	mov	dph,r3
   05F1 8C F0              1439 	mov	b,r4
   05F3 12s00r00           1440 	lcall	__gptrget
   05F6 FA                 1441 	mov	r2,a
   05F7 A3                 1442 	inc	dptr
   05F8 12s00r00           1443 	lcall	__gptrget
   05FB FB                 1444 	mov	r3,a
                           1445 ;	genPlus
                           1446 ;	genPlusIncr
   05FC 74 08              1447 	mov	a,#0x08
   05FE 25 02              1448 	add	a,ar2
   0600 FA                 1449 	mov	r2,a
   0601 74 00              1450 	mov	a,#0x00
   0603 35 03              1451 	addc	a,ar3
   0605 FB                 1452 	mov	r3,a
                           1453 ;	genAssign
   0606 90s00r00           1454 	mov	dptr,#_HW_set_32bit_reg_field_PARM_2
   0609 74 00              1455 	mov	a,#0x00
   060B F0                 1456 	movx	@dptr,a
                           1457 ;	genAssign
   060C 90s00r00           1458 	mov	dptr,#_HW_set_32bit_reg_field_PARM_3
   060F 74 01              1459 	mov	a,#0x01
   0611 F0                 1460 	movx	@dptr,a
   0612 E4                 1461 	clr	a
   0613 A3                 1462 	inc	dptr
   0614 F0                 1463 	movx	@dptr,a
   0615 A3                 1464 	inc	dptr
   0616 F0                 1465 	movx	@dptr,a
   0617 A3                 1466 	inc	dptr
   0618 F0                 1467 	movx	@dptr,a
                           1468 ;	genAssign
   0619 90s00r00           1469 	mov	dptr,#_HW_set_32bit_reg_field_PARM_4
   061C 74 01              1470 	mov	a,#0x01
   061E F0                 1471 	movx	@dptr,a
   061F E4                 1472 	clr	a
   0620 A3                 1473 	inc	dptr
   0621 F0                 1474 	movx	@dptr,a
   0622 A3                 1475 	inc	dptr
   0623 F0                 1476 	movx	@dptr,a
   0624 A3                 1477 	inc	dptr
   0625 F0                 1478 	movx	@dptr,a
                           1479 ;	genCall
   0626 8A 82              1480 	mov	dpl,r2
   0628 8B 83              1481 	mov	dph,r3
   062A 12s00r00           1482 	lcall	_HW_set_32bit_reg_field
   062D                    1483 00106$:
                    062D   1484 	C$core_timer.c$77$1$1 ==.
                    062D   1485 	XG$TMR_start$0$0 ==.
   062D 22                 1486 	ret
                           1487 ;------------------------------------------------------------
                           1488 ;Allocation info for local variables in function 'TMR_stop'
                           1489 ;------------------------------------------------------------
                           1490 ;this_timer                Allocated with name '_TMR_stop_this_timer_1_1'
                           1491 ;file_name                 Allocated with name '_TMR_stop_file_name_3_3'
                           1492 ;------------------------------------------------------------
                    062E   1493 	G$TMR_stop$0$0 ==.
                    062E   1494 	C$core_timer.c$84$1$1 ==.
                           1495 ;	../drivers/CoreTimer/core_timer.c:84: TMR_stop
                           1496 ;	-----------------------------------------
                           1497 ;	 function TMR_stop
                           1498 ;	-----------------------------------------
   062E                    1499 _TMR_stop:
                           1500 ;	genReceive
   062E AA F0              1501 	mov	r2,b
   0630 AB 83              1502 	mov	r3,dph
   0632 E5 82              1503 	mov	a,dpl
   0634 90s00r9C           1504 	mov	dptr,#_TMR_stop_this_timer_1_1
   0637 F0                 1505 	movx	@dptr,a
   0638 A3                 1506 	inc	dptr
   0639 EB                 1507 	mov	a,r3
   063A F0                 1508 	movx	@dptr,a
   063B A3                 1509 	inc	dptr
   063C EA                 1510 	mov	a,r2
   063D F0                 1511 	movx	@dptr,a
                    063E   1512 	C$core_timer.c$89$2$2 ==.
                           1513 ;	../drivers/CoreTimer/core_timer.c:89: HAL_ASSERT( this_timer != NULL_timer_instance )
                           1514 ;	genAssign
   063E 90s00r9C           1515 	mov	dptr,#_TMR_stop_this_timer_1_1
   0641 E0                 1516 	movx	a,@dptr
   0642 FA                 1517 	mov	r2,a
   0643 A3                 1518 	inc	dptr
   0644 E0                 1519 	movx	a,@dptr
   0645 FB                 1520 	mov	r3,a
   0646 A3                 1521 	inc	dptr
   0647 E0                 1522 	movx	a,@dptr
   0648 FC                 1523 	mov	r4,a
                           1524 ;	genAssign
   0649 90s00r00           1525 	mov	dptr,#_NULL_timer_instance
   064C E0                 1526 	movx	a,@dptr
   064D FD                 1527 	mov	r5,a
   064E A3                 1528 	inc	dptr
   064F E0                 1529 	movx	a,@dptr
   0650 FE                 1530 	mov	r6,a
   0651 A3                 1531 	inc	dptr
   0652 E0                 1532 	movx	a,@dptr
   0653 FF                 1533 	mov	r7,a
                           1534 ;	genCmpEq
                           1535 ;	gencjneshort
   0654 EA                 1536 	mov	a,r2
   0655 B5 05 0A           1537 	cjne	a,ar5,00109$
   0658 EB                 1538 	mov	a,r3
   0659 B5 06 06           1539 	cjne	a,ar6,00109$
   065C EC                 1540 	mov	a,r4
   065D B5 07 02           1541 	cjne	a,ar7,00109$
   0660 80 03              1542 	sjmp	00110$
   0662                    1543 00109$:
   0662 02s07r4A           1544 	ljmp	00104$
   0665                    1545 00110$:
                           1546 ;	genPointerSet
                           1547 ;     genFarPointerSet
   0665 90s00r9F           1548 	mov	dptr,#_TMR_stop_file_name_3_3
   0668 74 2E              1549 	mov	a,#0x2E
   066A F0                 1550 	movx	@dptr,a
                           1551 ;	genPointerSet
                           1552 ;     genFarPointerSet
   066B 90s00rA0           1553 	mov	dptr,#(_TMR_stop_file_name_3_3 + 0x0001)
   066E 74 2E              1554 	mov	a,#0x2E
   0670 F0                 1555 	movx	@dptr,a
                           1556 ;	genPointerSet
                           1557 ;     genFarPointerSet
   0671 90s00rA1           1558 	mov	dptr,#(_TMR_stop_file_name_3_3 + 0x0002)
   0674 74 2F              1559 	mov	a,#0x2F
   0676 F0                 1560 	movx	@dptr,a
                           1561 ;	genPointerSet
                           1562 ;     genFarPointerSet
   0677 90s00rA2           1563 	mov	dptr,#(_TMR_stop_file_name_3_3 + 0x0003)
   067A 74 64              1564 	mov	a,#0x64
   067C F0                 1565 	movx	@dptr,a
                           1566 ;	genPointerSet
                           1567 ;     genFarPointerSet
   067D 90s00rA3           1568 	mov	dptr,#(_TMR_stop_file_name_3_3 + 0x0004)
   0680 74 72              1569 	mov	a,#0x72
   0682 F0                 1570 	movx	@dptr,a
                           1571 ;	genPointerSet
                           1572 ;     genFarPointerSet
   0683 90s00rA4           1573 	mov	dptr,#(_TMR_stop_file_name_3_3 + 0x0005)
   0686 74 69              1574 	mov	a,#0x69
   0688 F0                 1575 	movx	@dptr,a
                           1576 ;	genPointerSet
                           1577 ;     genFarPointerSet
   0689 90s00rA5           1578 	mov	dptr,#(_TMR_stop_file_name_3_3 + 0x0006)
   068C 74 76              1579 	mov	a,#0x76
   068E F0                 1580 	movx	@dptr,a
                           1581 ;	genPointerSet
                           1582 ;     genFarPointerSet
   068F 90s00rA6           1583 	mov	dptr,#(_TMR_stop_file_name_3_3 + 0x0007)
   0692 74 65              1584 	mov	a,#0x65
   0694 F0                 1585 	movx	@dptr,a
                           1586 ;	genPointerSet
                           1587 ;     genFarPointerSet
   0695 90s00rA7           1588 	mov	dptr,#(_TMR_stop_file_name_3_3 + 0x0008)
   0698 74 72              1589 	mov	a,#0x72
   069A F0                 1590 	movx	@dptr,a
                           1591 ;	genPointerSet
                           1592 ;     genFarPointerSet
   069B 90s00rA8           1593 	mov	dptr,#(_TMR_stop_file_name_3_3 + 0x0009)
   069E 74 73              1594 	mov	a,#0x73
   06A0 F0                 1595 	movx	@dptr,a
                           1596 ;	genPointerSet
                           1597 ;     genFarPointerSet
   06A1 90s00rA9           1598 	mov	dptr,#(_TMR_stop_file_name_3_3 + 0x000a)
   06A4 74 2F              1599 	mov	a,#0x2F
   06A6 F0                 1600 	movx	@dptr,a
                           1601 ;	genPointerSet
                           1602 ;     genFarPointerSet
   06A7 90s00rAA           1603 	mov	dptr,#(_TMR_stop_file_name_3_3 + 0x000b)
   06AA 74 43              1604 	mov	a,#0x43
   06AC F0                 1605 	movx	@dptr,a
                           1606 ;	genPointerSet
                           1607 ;     genFarPointerSet
   06AD 90s00rAB           1608 	mov	dptr,#(_TMR_stop_file_name_3_3 + 0x000c)
   06B0 74 6F              1609 	mov	a,#0x6F
   06B2 F0                 1610 	movx	@dptr,a
                           1611 ;	genPointerSet
                           1612 ;     genFarPointerSet
   06B3 90s00rAC           1613 	mov	dptr,#(_TMR_stop_file_name_3_3 + 0x000d)
   06B6 74 72              1614 	mov	a,#0x72
   06B8 F0                 1615 	movx	@dptr,a
                           1616 ;	genPointerSet
                           1617 ;     genFarPointerSet
   06B9 90s00rAD           1618 	mov	dptr,#(_TMR_stop_file_name_3_3 + 0x000e)
   06BC 74 65              1619 	mov	a,#0x65
   06BE F0                 1620 	movx	@dptr,a
                           1621 ;	genPointerSet
                           1622 ;     genFarPointerSet
   06BF 90s00rAE           1623 	mov	dptr,#(_TMR_stop_file_name_3_3 + 0x000f)
   06C2 74 54              1624 	mov	a,#0x54
   06C4 F0                 1625 	movx	@dptr,a
                           1626 ;	genPointerSet
                           1627 ;     genFarPointerSet
   06C5 90s00rAF           1628 	mov	dptr,#(_TMR_stop_file_name_3_3 + 0x0010)
   06C8 74 69              1629 	mov	a,#0x69
   06CA F0                 1630 	movx	@dptr,a
                           1631 ;	genPointerSet
                           1632 ;     genFarPointerSet
   06CB 90s00rB0           1633 	mov	dptr,#(_TMR_stop_file_name_3_3 + 0x0011)
   06CE 74 6D              1634 	mov	a,#0x6D
   06D0 F0                 1635 	movx	@dptr,a
                           1636 ;	genPointerSet
                           1637 ;     genFarPointerSet
   06D1 90s00rB1           1638 	mov	dptr,#(_TMR_stop_file_name_3_3 + 0x0012)
   06D4 74 65              1639 	mov	a,#0x65
   06D6 F0                 1640 	movx	@dptr,a
                           1641 ;	genPointerSet
                           1642 ;     genFarPointerSet
   06D7 90s00rB2           1643 	mov	dptr,#(_TMR_stop_file_name_3_3 + 0x0013)
   06DA 74 72              1644 	mov	a,#0x72
   06DC F0                 1645 	movx	@dptr,a
                           1646 ;	genPointerSet
                           1647 ;     genFarPointerSet
   06DD 90s00rB3           1648 	mov	dptr,#(_TMR_stop_file_name_3_3 + 0x0014)
   06E0 74 2F              1649 	mov	a,#0x2F
   06E2 F0                 1650 	movx	@dptr,a
                           1651 ;	genPointerSet
                           1652 ;     genFarPointerSet
   06E3 90s00rB4           1653 	mov	dptr,#(_TMR_stop_file_name_3_3 + 0x0015)
   06E6 74 63              1654 	mov	a,#0x63
   06E8 F0                 1655 	movx	@dptr,a
                           1656 ;	genPointerSet
                           1657 ;     genFarPointerSet
   06E9 90s00rB5           1658 	mov	dptr,#(_TMR_stop_file_name_3_3 + 0x0016)
   06EC 74 6F              1659 	mov	a,#0x6F
   06EE F0                 1660 	movx	@dptr,a
                           1661 ;	genPointerSet
                           1662 ;     genFarPointerSet
   06EF 90s00rB6           1663 	mov	dptr,#(_TMR_stop_file_name_3_3 + 0x0017)
   06F2 74 72              1664 	mov	a,#0x72
   06F4 F0                 1665 	movx	@dptr,a
                           1666 ;	genPointerSet
                           1667 ;     genFarPointerSet
   06F5 90s00rB7           1668 	mov	dptr,#(_TMR_stop_file_name_3_3 + 0x0018)
   06F8 74 65              1669 	mov	a,#0x65
   06FA F0                 1670 	movx	@dptr,a
                           1671 ;	genPointerSet
                           1672 ;     genFarPointerSet
   06FB 90s00rB8           1673 	mov	dptr,#(_TMR_stop_file_name_3_3 + 0x0019)
   06FE 74 5F              1674 	mov	a,#0x5F
   0700 F0                 1675 	movx	@dptr,a
                           1676 ;	genPointerSet
                           1677 ;     genFarPointerSet
   0701 90s00rB9           1678 	mov	dptr,#(_TMR_stop_file_name_3_3 + 0x001a)
   0704 74 74              1679 	mov	a,#0x74
   0706 F0                 1680 	movx	@dptr,a
                           1681 ;	genPointerSet
                           1682 ;     genFarPointerSet
   0707 90s00rBA           1683 	mov	dptr,#(_TMR_stop_file_name_3_3 + 0x001b)
   070A 74 69              1684 	mov	a,#0x69
   070C F0                 1685 	movx	@dptr,a
                           1686 ;	genPointerSet
                           1687 ;     genFarPointerSet
   070D 90s00rBB           1688 	mov	dptr,#(_TMR_stop_file_name_3_3 + 0x001c)
   0710 74 6D              1689 	mov	a,#0x6D
   0712 F0                 1690 	movx	@dptr,a
                           1691 ;	genPointerSet
                           1692 ;     genFarPointerSet
   0713 90s00rBC           1693 	mov	dptr,#(_TMR_stop_file_name_3_3 + 0x001d)
   0716 74 65              1694 	mov	a,#0x65
   0718 F0                 1695 	movx	@dptr,a
                           1696 ;	genPointerSet
                           1697 ;     genFarPointerSet
   0719 90s00rBD           1698 	mov	dptr,#(_TMR_stop_file_name_3_3 + 0x001e)
   071C 74 72              1699 	mov	a,#0x72
   071E F0                 1700 	movx	@dptr,a
                           1701 ;	genPointerSet
                           1702 ;     genFarPointerSet
   071F 90s00rBE           1703 	mov	dptr,#(_TMR_stop_file_name_3_3 + 0x001f)
   0722 74 2E              1704 	mov	a,#0x2E
   0724 F0                 1705 	movx	@dptr,a
                           1706 ;	genPointerSet
                           1707 ;     genFarPointerSet
   0725 90s00rBF           1708 	mov	dptr,#(_TMR_stop_file_name_3_3 + 0x0020)
   0728 74 63              1709 	mov	a,#0x63
   072A F0                 1710 	movx	@dptr,a
                           1711 ;	genPointerSet
                           1712 ;     genFarPointerSet
   072B 90s00rC0           1713 	mov	dptr,#(_TMR_stop_file_name_3_3 + 0x0021)
   072E 74 00              1714 	mov	a,#0x00
   0730 F0                 1715 	movx	@dptr,a
                           1716 ;	genAssign
   0731 90s00r00           1717 	mov	dptr,#_HAL_assert_fail_PARM_2
   0734 74 59              1718 	mov	a,#0x59
   0736 F0                 1719 	movx	@dptr,a
   0737 E4                 1720 	clr	a
   0738 A3                 1721 	inc	dptr
   0739 F0                 1722 	movx	@dptr,a
   073A A3                 1723 	inc	dptr
   073B F0                 1724 	movx	@dptr,a
   073C A3                 1725 	inc	dptr
   073D F0                 1726 	movx	@dptr,a
                           1727 ;	genCall
   073E 75 82r9F           1728 	mov	dpl,#_TMR_stop_file_name_3_3
   0741 75 83s00           1729 	mov	dph,#(_TMR_stop_file_name_3_3 >> 8)
   0744 75 F0 00           1730 	mov	b,#0x00
   0747 12s00r00           1731 	lcall	_HAL_assert_fail
   074A                    1732 00104$:
                    074A   1733 	C$core_timer.c$91$1$1 ==.
                           1734 ;	../drivers/CoreTimer/core_timer.c:91: HAL_set_32bit_reg_field( this_timer->base_address, TimerEnable, 0 );
                           1735 ;	genAssign
   074A 90s00r9C           1736 	mov	dptr,#_TMR_stop_this_timer_1_1
   074D E0                 1737 	movx	a,@dptr
   074E FA                 1738 	mov	r2,a
   074F A3                 1739 	inc	dptr
   0750 E0                 1740 	movx	a,@dptr
   0751 FB                 1741 	mov	r3,a
   0752 A3                 1742 	inc	dptr
   0753 E0                 1743 	movx	a,@dptr
   0754 FC                 1744 	mov	r4,a
                           1745 ;	genPointerGet
                           1746 ;	genGenPointerGet
   0755 8A 82              1747 	mov	dpl,r2
   0757 8B 83              1748 	mov	dph,r3
   0759 8C F0              1749 	mov	b,r4
   075B 12s00r00           1750 	lcall	__gptrget
   075E FA                 1751 	mov	r2,a
   075F A3                 1752 	inc	dptr
   0760 12s00r00           1753 	lcall	__gptrget
   0763 FB                 1754 	mov	r3,a
                           1755 ;	genPlus
                           1756 ;	genPlusIncr
   0764 74 08              1757 	mov	a,#0x08
   0766 25 02              1758 	add	a,ar2
   0768 FA                 1759 	mov	r2,a
   0769 74 00              1760 	mov	a,#0x00
   076B 35 03              1761 	addc	a,ar3
   076D FB                 1762 	mov	r3,a
                           1763 ;	genAssign
   076E 90s00r00           1764 	mov	dptr,#_HW_set_32bit_reg_field_PARM_2
   0771 74 00              1765 	mov	a,#0x00
   0773 F0                 1766 	movx	@dptr,a
                           1767 ;	genAssign
   0774 90s00r00           1768 	mov	dptr,#_HW_set_32bit_reg_field_PARM_3
   0777 74 01              1769 	mov	a,#0x01
   0779 F0                 1770 	movx	@dptr,a
   077A E4                 1771 	clr	a
   077B A3                 1772 	inc	dptr
   077C F0                 1773 	movx	@dptr,a
   077D A3                 1774 	inc	dptr
   077E F0                 1775 	movx	@dptr,a
   077F A3                 1776 	inc	dptr
   0780 F0                 1777 	movx	@dptr,a
                           1778 ;	genAssign
   0781 90s00r00           1779 	mov	dptr,#_HW_set_32bit_reg_field_PARM_4
   0784 E4                 1780 	clr	a
   0785 F0                 1781 	movx	@dptr,a
   0786 A3                 1782 	inc	dptr
   0787 F0                 1783 	movx	@dptr,a
   0788 A3                 1784 	inc	dptr
   0789 F0                 1785 	movx	@dptr,a
   078A A3                 1786 	inc	dptr
   078B F0                 1787 	movx	@dptr,a
                           1788 ;	genCall
   078C 8A 82              1789 	mov	dpl,r2
   078E 8B 83              1790 	mov	dph,r3
   0790 12s00r00           1791 	lcall	_HW_set_32bit_reg_field
   0793                    1792 00106$:
                    0793   1793 	C$core_timer.c$92$1$1 ==.
                    0793   1794 	XG$TMR_stop$0$0 ==.
   0793 22                 1795 	ret
                           1796 ;------------------------------------------------------------
                           1797 ;Allocation info for local variables in function 'TMR_enable_int'
                           1798 ;------------------------------------------------------------
                           1799 ;this_timer                Allocated with name '_TMR_enable_int_this_timer_1_1'
                           1800 ;file_name                 Allocated with name '_TMR_enable_int_file_name_3_3'
                           1801 ;------------------------------------------------------------
                    0794   1802 	G$TMR_enable_int$0$0 ==.
                    0794   1803 	C$core_timer.c$100$1$1 ==.
                           1804 ;	../drivers/CoreTimer/core_timer.c:100: TMR_enable_int
                           1805 ;	-----------------------------------------
                           1806 ;	 function TMR_enable_int
                           1807 ;	-----------------------------------------
   0794                    1808 _TMR_enable_int:
                           1809 ;	genReceive
   0794 AA F0              1810 	mov	r2,b
   0796 AB 83              1811 	mov	r3,dph
   0798 E5 82              1812 	mov	a,dpl
   079A 90s00rC1           1813 	mov	dptr,#_TMR_enable_int_this_timer_1_1
   079D F0                 1814 	movx	@dptr,a
   079E A3                 1815 	inc	dptr
   079F EB                 1816 	mov	a,r3
   07A0 F0                 1817 	movx	@dptr,a
   07A1 A3                 1818 	inc	dptr
   07A2 EA                 1819 	mov	a,r2
   07A3 F0                 1820 	movx	@dptr,a
                    07A4   1821 	C$core_timer.c$105$2$2 ==.
                           1822 ;	../drivers/CoreTimer/core_timer.c:105: HAL_ASSERT( this_timer != NULL_timer_instance )
                           1823 ;	genAssign
   07A4 90s00rC1           1824 	mov	dptr,#_TMR_enable_int_this_timer_1_1
   07A7 E0                 1825 	movx	a,@dptr
   07A8 FA                 1826 	mov	r2,a
   07A9 A3                 1827 	inc	dptr
   07AA E0                 1828 	movx	a,@dptr
   07AB FB                 1829 	mov	r3,a
   07AC A3                 1830 	inc	dptr
   07AD E0                 1831 	movx	a,@dptr
   07AE FC                 1832 	mov	r4,a
                           1833 ;	genAssign
   07AF 90s00r00           1834 	mov	dptr,#_NULL_timer_instance
   07B2 E0                 1835 	movx	a,@dptr
   07B3 FD                 1836 	mov	r5,a
   07B4 A3                 1837 	inc	dptr
   07B5 E0                 1838 	movx	a,@dptr
   07B6 FE                 1839 	mov	r6,a
   07B7 A3                 1840 	inc	dptr
   07B8 E0                 1841 	movx	a,@dptr
   07B9 FF                 1842 	mov	r7,a
                           1843 ;	genCmpEq
                           1844 ;	gencjneshort
   07BA EA                 1845 	mov	a,r2
   07BB B5 05 0A           1846 	cjne	a,ar5,00109$
   07BE EB                 1847 	mov	a,r3
   07BF B5 06 06           1848 	cjne	a,ar6,00109$
   07C2 EC                 1849 	mov	a,r4
   07C3 B5 07 02           1850 	cjne	a,ar7,00109$
   07C6 80 03              1851 	sjmp	00110$
   07C8                    1852 00109$:
   07C8 02s08rB0           1853 	ljmp	00104$
   07CB                    1854 00110$:
                           1855 ;	genPointerSet
                           1856 ;     genFarPointerSet
   07CB 90s00rC4           1857 	mov	dptr,#_TMR_enable_int_file_name_3_3
   07CE 74 2E              1858 	mov	a,#0x2E
   07D0 F0                 1859 	movx	@dptr,a
                           1860 ;	genPointerSet
                           1861 ;     genFarPointerSet
   07D1 90s00rC5           1862 	mov	dptr,#(_TMR_enable_int_file_name_3_3 + 0x0001)
   07D4 74 2E              1863 	mov	a,#0x2E
   07D6 F0                 1864 	movx	@dptr,a
                           1865 ;	genPointerSet
                           1866 ;     genFarPointerSet
   07D7 90s00rC6           1867 	mov	dptr,#(_TMR_enable_int_file_name_3_3 + 0x0002)
   07DA 74 2F              1868 	mov	a,#0x2F
   07DC F0                 1869 	movx	@dptr,a
                           1870 ;	genPointerSet
                           1871 ;     genFarPointerSet
   07DD 90s00rC7           1872 	mov	dptr,#(_TMR_enable_int_file_name_3_3 + 0x0003)
   07E0 74 64              1873 	mov	a,#0x64
   07E2 F0                 1874 	movx	@dptr,a
                           1875 ;	genPointerSet
                           1876 ;     genFarPointerSet
   07E3 90s00rC8           1877 	mov	dptr,#(_TMR_enable_int_file_name_3_3 + 0x0004)
   07E6 74 72              1878 	mov	a,#0x72
   07E8 F0                 1879 	movx	@dptr,a
                           1880 ;	genPointerSet
                           1881 ;     genFarPointerSet
   07E9 90s00rC9           1882 	mov	dptr,#(_TMR_enable_int_file_name_3_3 + 0x0005)
   07EC 74 69              1883 	mov	a,#0x69
   07EE F0                 1884 	movx	@dptr,a
                           1885 ;	genPointerSet
                           1886 ;     genFarPointerSet
   07EF 90s00rCA           1887 	mov	dptr,#(_TMR_enable_int_file_name_3_3 + 0x0006)
   07F2 74 76              1888 	mov	a,#0x76
   07F4 F0                 1889 	movx	@dptr,a
                           1890 ;	genPointerSet
                           1891 ;     genFarPointerSet
   07F5 90s00rCB           1892 	mov	dptr,#(_TMR_enable_int_file_name_3_3 + 0x0007)
   07F8 74 65              1893 	mov	a,#0x65
   07FA F0                 1894 	movx	@dptr,a
                           1895 ;	genPointerSet
                           1896 ;     genFarPointerSet
   07FB 90s00rCC           1897 	mov	dptr,#(_TMR_enable_int_file_name_3_3 + 0x0008)
   07FE 74 72              1898 	mov	a,#0x72
   0800 F0                 1899 	movx	@dptr,a
                           1900 ;	genPointerSet
                           1901 ;     genFarPointerSet
   0801 90s00rCD           1902 	mov	dptr,#(_TMR_enable_int_file_name_3_3 + 0x0009)
   0804 74 73              1903 	mov	a,#0x73
   0806 F0                 1904 	movx	@dptr,a
                           1905 ;	genPointerSet
                           1906 ;     genFarPointerSet
   0807 90s00rCE           1907 	mov	dptr,#(_TMR_enable_int_file_name_3_3 + 0x000a)
   080A 74 2F              1908 	mov	a,#0x2F
   080C F0                 1909 	movx	@dptr,a
                           1910 ;	genPointerSet
                           1911 ;     genFarPointerSet
   080D 90s00rCF           1912 	mov	dptr,#(_TMR_enable_int_file_name_3_3 + 0x000b)
   0810 74 43              1913 	mov	a,#0x43
   0812 F0                 1914 	movx	@dptr,a
                           1915 ;	genPointerSet
                           1916 ;     genFarPointerSet
   0813 90s00rD0           1917 	mov	dptr,#(_TMR_enable_int_file_name_3_3 + 0x000c)
   0816 74 6F              1918 	mov	a,#0x6F
   0818 F0                 1919 	movx	@dptr,a
                           1920 ;	genPointerSet
                           1921 ;     genFarPointerSet
   0819 90s00rD1           1922 	mov	dptr,#(_TMR_enable_int_file_name_3_3 + 0x000d)
   081C 74 72              1923 	mov	a,#0x72
   081E F0                 1924 	movx	@dptr,a
                           1925 ;	genPointerSet
                           1926 ;     genFarPointerSet
   081F 90s00rD2           1927 	mov	dptr,#(_TMR_enable_int_file_name_3_3 + 0x000e)
   0822 74 65              1928 	mov	a,#0x65
   0824 F0                 1929 	movx	@dptr,a
                           1930 ;	genPointerSet
                           1931 ;     genFarPointerSet
   0825 90s00rD3           1932 	mov	dptr,#(_TMR_enable_int_file_name_3_3 + 0x000f)
   0828 74 54              1933 	mov	a,#0x54
   082A F0                 1934 	movx	@dptr,a
                           1935 ;	genPointerSet
                           1936 ;     genFarPointerSet
   082B 90s00rD4           1937 	mov	dptr,#(_TMR_enable_int_file_name_3_3 + 0x0010)
   082E 74 69              1938 	mov	a,#0x69
   0830 F0                 1939 	movx	@dptr,a
                           1940 ;	genPointerSet
                           1941 ;     genFarPointerSet
   0831 90s00rD5           1942 	mov	dptr,#(_TMR_enable_int_file_name_3_3 + 0x0011)
   0834 74 6D              1943 	mov	a,#0x6D
   0836 F0                 1944 	movx	@dptr,a
                           1945 ;	genPointerSet
                           1946 ;     genFarPointerSet
   0837 90s00rD6           1947 	mov	dptr,#(_TMR_enable_int_file_name_3_3 + 0x0012)
   083A 74 65              1948 	mov	a,#0x65
   083C F0                 1949 	movx	@dptr,a
                           1950 ;	genPointerSet
                           1951 ;     genFarPointerSet
   083D 90s00rD7           1952 	mov	dptr,#(_TMR_enable_int_file_name_3_3 + 0x0013)
   0840 74 72              1953 	mov	a,#0x72
   0842 F0                 1954 	movx	@dptr,a
                           1955 ;	genPointerSet
                           1956 ;     genFarPointerSet
   0843 90s00rD8           1957 	mov	dptr,#(_TMR_enable_int_file_name_3_3 + 0x0014)
   0846 74 2F              1958 	mov	a,#0x2F
   0848 F0                 1959 	movx	@dptr,a
                           1960 ;	genPointerSet
                           1961 ;     genFarPointerSet
   0849 90s00rD9           1962 	mov	dptr,#(_TMR_enable_int_file_name_3_3 + 0x0015)
   084C 74 63              1963 	mov	a,#0x63
   084E F0                 1964 	movx	@dptr,a
                           1965 ;	genPointerSet
                           1966 ;     genFarPointerSet
   084F 90s00rDA           1967 	mov	dptr,#(_TMR_enable_int_file_name_3_3 + 0x0016)
   0852 74 6F              1968 	mov	a,#0x6F
   0854 F0                 1969 	movx	@dptr,a
                           1970 ;	genPointerSet
                           1971 ;     genFarPointerSet
   0855 90s00rDB           1972 	mov	dptr,#(_TMR_enable_int_file_name_3_3 + 0x0017)
   0858 74 72              1973 	mov	a,#0x72
   085A F0                 1974 	movx	@dptr,a
                           1975 ;	genPointerSet
                           1976 ;     genFarPointerSet
   085B 90s00rDC           1977 	mov	dptr,#(_TMR_enable_int_file_name_3_3 + 0x0018)
   085E 74 65              1978 	mov	a,#0x65
   0860 F0                 1979 	movx	@dptr,a
                           1980 ;	genPointerSet
                           1981 ;     genFarPointerSet
   0861 90s00rDD           1982 	mov	dptr,#(_TMR_enable_int_file_name_3_3 + 0x0019)
   0864 74 5F              1983 	mov	a,#0x5F
   0866 F0                 1984 	movx	@dptr,a
                           1985 ;	genPointerSet
                           1986 ;     genFarPointerSet
   0867 90s00rDE           1987 	mov	dptr,#(_TMR_enable_int_file_name_3_3 + 0x001a)
   086A 74 74              1988 	mov	a,#0x74
   086C F0                 1989 	movx	@dptr,a
                           1990 ;	genPointerSet
                           1991 ;     genFarPointerSet
   086D 90s00rDF           1992 	mov	dptr,#(_TMR_enable_int_file_name_3_3 + 0x001b)
   0870 74 69              1993 	mov	a,#0x69
   0872 F0                 1994 	movx	@dptr,a
                           1995 ;	genPointerSet
                           1996 ;     genFarPointerSet
   0873 90s00rE0           1997 	mov	dptr,#(_TMR_enable_int_file_name_3_3 + 0x001c)
   0876 74 6D              1998 	mov	a,#0x6D
   0878 F0                 1999 	movx	@dptr,a
                           2000 ;	genPointerSet
                           2001 ;     genFarPointerSet
   0879 90s00rE1           2002 	mov	dptr,#(_TMR_enable_int_file_name_3_3 + 0x001d)
   087C 74 65              2003 	mov	a,#0x65
   087E F0                 2004 	movx	@dptr,a
                           2005 ;	genPointerSet
                           2006 ;     genFarPointerSet
   087F 90s00rE2           2007 	mov	dptr,#(_TMR_enable_int_file_name_3_3 + 0x001e)
   0882 74 72              2008 	mov	a,#0x72
   0884 F0                 2009 	movx	@dptr,a
                           2010 ;	genPointerSet
                           2011 ;     genFarPointerSet
   0885 90s00rE3           2012 	mov	dptr,#(_TMR_enable_int_file_name_3_3 + 0x001f)
   0888 74 2E              2013 	mov	a,#0x2E
   088A F0                 2014 	movx	@dptr,a
                           2015 ;	genPointerSet
                           2016 ;     genFarPointerSet
   088B 90s00rE4           2017 	mov	dptr,#(_TMR_enable_int_file_name_3_3 + 0x0020)
   088E 74 63              2018 	mov	a,#0x63
   0890 F0                 2019 	movx	@dptr,a
                           2020 ;	genPointerSet
                           2021 ;     genFarPointerSet
   0891 90s00rE5           2022 	mov	dptr,#(_TMR_enable_int_file_name_3_3 + 0x0021)
   0894 74 00              2023 	mov	a,#0x00
   0896 F0                 2024 	movx	@dptr,a
                           2025 ;	genAssign
   0897 90s00r00           2026 	mov	dptr,#_HAL_assert_fail_PARM_2
   089A 74 69              2027 	mov	a,#0x69
   089C F0                 2028 	movx	@dptr,a
   089D E4                 2029 	clr	a
   089E A3                 2030 	inc	dptr
   089F F0                 2031 	movx	@dptr,a
   08A0 A3                 2032 	inc	dptr
   08A1 F0                 2033 	movx	@dptr,a
   08A2 A3                 2034 	inc	dptr
   08A3 F0                 2035 	movx	@dptr,a
                           2036 ;	genCall
   08A4 75 82rC4           2037 	mov	dpl,#_TMR_enable_int_file_name_3_3
   08A7 75 83s00           2038 	mov	dph,#(_TMR_enable_int_file_name_3_3 >> 8)
   08AA 75 F0 00           2039 	mov	b,#0x00
   08AD 12s00r00           2040 	lcall	_HAL_assert_fail
   08B0                    2041 00104$:
                    08B0   2042 	C$core_timer.c$107$1$1 ==.
                           2043 ;	../drivers/CoreTimer/core_timer.c:107: HAL_set_32bit_reg_field( this_timer->base_address, InterruptEnable, 1 );
                           2044 ;	genAssign
   08B0 90s00rC1           2045 	mov	dptr,#_TMR_enable_int_this_timer_1_1
   08B3 E0                 2046 	movx	a,@dptr
   08B4 FA                 2047 	mov	r2,a
   08B5 A3                 2048 	inc	dptr
   08B6 E0                 2049 	movx	a,@dptr
   08B7 FB                 2050 	mov	r3,a
   08B8 A3                 2051 	inc	dptr
   08B9 E0                 2052 	movx	a,@dptr
   08BA FC                 2053 	mov	r4,a
                           2054 ;	genPointerGet
                           2055 ;	genGenPointerGet
   08BB 8A 82              2056 	mov	dpl,r2
   08BD 8B 83              2057 	mov	dph,r3
   08BF 8C F0              2058 	mov	b,r4
   08C1 12s00r00           2059 	lcall	__gptrget
   08C4 FA                 2060 	mov	r2,a
   08C5 A3                 2061 	inc	dptr
   08C6 12s00r00           2062 	lcall	__gptrget
   08C9 FB                 2063 	mov	r3,a
                           2064 ;	genPlus
                           2065 ;	genPlusIncr
   08CA 74 08              2066 	mov	a,#0x08
   08CC 25 02              2067 	add	a,ar2
   08CE FA                 2068 	mov	r2,a
   08CF 74 00              2069 	mov	a,#0x00
   08D1 35 03              2070 	addc	a,ar3
   08D3 FB                 2071 	mov	r3,a
                           2072 ;	genAssign
   08D4 90s00r00           2073 	mov	dptr,#_HW_set_32bit_reg_field_PARM_2
   08D7 74 01              2074 	mov	a,#0x01
   08D9 F0                 2075 	movx	@dptr,a
                           2076 ;	genAssign
   08DA 90s00r00           2077 	mov	dptr,#_HW_set_32bit_reg_field_PARM_3
   08DD 74 02              2078 	mov	a,#0x02
   08DF F0                 2079 	movx	@dptr,a
   08E0 E4                 2080 	clr	a
   08E1 A3                 2081 	inc	dptr
   08E2 F0                 2082 	movx	@dptr,a
   08E3 A3                 2083 	inc	dptr
   08E4 F0                 2084 	movx	@dptr,a
   08E5 A3                 2085 	inc	dptr
   08E6 F0                 2086 	movx	@dptr,a
                           2087 ;	genAssign
   08E7 90s00r00           2088 	mov	dptr,#_HW_set_32bit_reg_field_PARM_4
   08EA 74 01              2089 	mov	a,#0x01
   08EC F0                 2090 	movx	@dptr,a
   08ED E4                 2091 	clr	a
   08EE A3                 2092 	inc	dptr
   08EF F0                 2093 	movx	@dptr,a
   08F0 A3                 2094 	inc	dptr
   08F1 F0                 2095 	movx	@dptr,a
   08F2 A3                 2096 	inc	dptr
   08F3 F0                 2097 	movx	@dptr,a
                           2098 ;	genCall
   08F4 8A 82              2099 	mov	dpl,r2
   08F6 8B 83              2100 	mov	dph,r3
   08F8 12s00r00           2101 	lcall	_HW_set_32bit_reg_field
   08FB                    2102 00106$:
                    08FB   2103 	C$core_timer.c$108$1$1 ==.
                    08FB   2104 	XG$TMR_enable_int$0$0 ==.
   08FB 22                 2105 	ret
                           2106 ;------------------------------------------------------------
                           2107 ;Allocation info for local variables in function 'TMR_clear_int'
                           2108 ;------------------------------------------------------------
                           2109 ;this_timer                Allocated with name '_TMR_clear_int_this_timer_1_1'
                           2110 ;file_name                 Allocated with name '_TMR_clear_int_file_name_3_3'
                           2111 ;------------------------------------------------------------
                    08FC   2112 	G$TMR_clear_int$0$0 ==.
                    08FC   2113 	C$core_timer.c$115$1$1 ==.
                           2114 ;	../drivers/CoreTimer/core_timer.c:115: TMR_clear_int
                           2115 ;	-----------------------------------------
                           2116 ;	 function TMR_clear_int
                           2117 ;	-----------------------------------------
   08FC                    2118 _TMR_clear_int:
                           2119 ;	genReceive
   08FC AA F0              2120 	mov	r2,b
   08FE AB 83              2121 	mov	r3,dph
   0900 E5 82              2122 	mov	a,dpl
   0902 90s00rE6           2123 	mov	dptr,#_TMR_clear_int_this_timer_1_1
   0905 F0                 2124 	movx	@dptr,a
   0906 A3                 2125 	inc	dptr
   0907 EB                 2126 	mov	a,r3
   0908 F0                 2127 	movx	@dptr,a
   0909 A3                 2128 	inc	dptr
   090A EA                 2129 	mov	a,r2
   090B F0                 2130 	movx	@dptr,a
                    090C   2131 	C$core_timer.c$120$2$2 ==.
                           2132 ;	../drivers/CoreTimer/core_timer.c:120: HAL_ASSERT( this_timer != NULL_timer_instance )
                           2133 ;	genAssign
   090C 90s00rE6           2134 	mov	dptr,#_TMR_clear_int_this_timer_1_1
   090F E0                 2135 	movx	a,@dptr
   0910 FA                 2136 	mov	r2,a
   0911 A3                 2137 	inc	dptr
   0912 E0                 2138 	movx	a,@dptr
   0913 FB                 2139 	mov	r3,a
   0914 A3                 2140 	inc	dptr
   0915 E0                 2141 	movx	a,@dptr
   0916 FC                 2142 	mov	r4,a
                           2143 ;	genAssign
   0917 90s00r00           2144 	mov	dptr,#_NULL_timer_instance
   091A E0                 2145 	movx	a,@dptr
   091B FD                 2146 	mov	r5,a
   091C A3                 2147 	inc	dptr
   091D E0                 2148 	movx	a,@dptr
   091E FE                 2149 	mov	r6,a
   091F A3                 2150 	inc	dptr
   0920 E0                 2151 	movx	a,@dptr
   0921 FF                 2152 	mov	r7,a
                           2153 ;	genCmpEq
                           2154 ;	gencjneshort
   0922 EA                 2155 	mov	a,r2
   0923 B5 05 0A           2156 	cjne	a,ar5,00109$
   0926 EB                 2157 	mov	a,r3
   0927 B5 06 06           2158 	cjne	a,ar6,00109$
   092A EC                 2159 	mov	a,r4
   092B B5 07 02           2160 	cjne	a,ar7,00109$
   092E 80 03              2161 	sjmp	00110$
   0930                    2162 00109$:
   0930 02s0Ar18           2163 	ljmp	00104$
   0933                    2164 00110$:
                           2165 ;	genPointerSet
                           2166 ;     genFarPointerSet
   0933 90s00rE9           2167 	mov	dptr,#_TMR_clear_int_file_name_3_3
   0936 74 2E              2168 	mov	a,#0x2E
   0938 F0                 2169 	movx	@dptr,a
                           2170 ;	genPointerSet
                           2171 ;     genFarPointerSet
   0939 90s00rEA           2172 	mov	dptr,#(_TMR_clear_int_file_name_3_3 + 0x0001)
   093C 74 2E              2173 	mov	a,#0x2E
   093E F0                 2174 	movx	@dptr,a
                           2175 ;	genPointerSet
                           2176 ;     genFarPointerSet
   093F 90s00rEB           2177 	mov	dptr,#(_TMR_clear_int_file_name_3_3 + 0x0002)
   0942 74 2F              2178 	mov	a,#0x2F
   0944 F0                 2179 	movx	@dptr,a
                           2180 ;	genPointerSet
                           2181 ;     genFarPointerSet
   0945 90s00rEC           2182 	mov	dptr,#(_TMR_clear_int_file_name_3_3 + 0x0003)
   0948 74 64              2183 	mov	a,#0x64
   094A F0                 2184 	movx	@dptr,a
                           2185 ;	genPointerSet
                           2186 ;     genFarPointerSet
   094B 90s00rED           2187 	mov	dptr,#(_TMR_clear_int_file_name_3_3 + 0x0004)
   094E 74 72              2188 	mov	a,#0x72
   0950 F0                 2189 	movx	@dptr,a
                           2190 ;	genPointerSet
                           2191 ;     genFarPointerSet
   0951 90s00rEE           2192 	mov	dptr,#(_TMR_clear_int_file_name_3_3 + 0x0005)
   0954 74 69              2193 	mov	a,#0x69
   0956 F0                 2194 	movx	@dptr,a
                           2195 ;	genPointerSet
                           2196 ;     genFarPointerSet
   0957 90s00rEF           2197 	mov	dptr,#(_TMR_clear_int_file_name_3_3 + 0x0006)
   095A 74 76              2198 	mov	a,#0x76
   095C F0                 2199 	movx	@dptr,a
                           2200 ;	genPointerSet
                           2201 ;     genFarPointerSet
   095D 90s00rF0           2202 	mov	dptr,#(_TMR_clear_int_file_name_3_3 + 0x0007)
   0960 74 65              2203 	mov	a,#0x65
   0962 F0                 2204 	movx	@dptr,a
                           2205 ;	genPointerSet
                           2206 ;     genFarPointerSet
   0963 90s00rF1           2207 	mov	dptr,#(_TMR_clear_int_file_name_3_3 + 0x0008)
   0966 74 72              2208 	mov	a,#0x72
   0968 F0                 2209 	movx	@dptr,a
                           2210 ;	genPointerSet
                           2211 ;     genFarPointerSet
   0969 90s00rF2           2212 	mov	dptr,#(_TMR_clear_int_file_name_3_3 + 0x0009)
   096C 74 73              2213 	mov	a,#0x73
   096E F0                 2214 	movx	@dptr,a
                           2215 ;	genPointerSet
                           2216 ;     genFarPointerSet
   096F 90s00rF3           2217 	mov	dptr,#(_TMR_clear_int_file_name_3_3 + 0x000a)
   0972 74 2F              2218 	mov	a,#0x2F
   0974 F0                 2219 	movx	@dptr,a
                           2220 ;	genPointerSet
                           2221 ;     genFarPointerSet
   0975 90s00rF4           2222 	mov	dptr,#(_TMR_clear_int_file_name_3_3 + 0x000b)
   0978 74 43              2223 	mov	a,#0x43
   097A F0                 2224 	movx	@dptr,a
                           2225 ;	genPointerSet
                           2226 ;     genFarPointerSet
   097B 90s00rF5           2227 	mov	dptr,#(_TMR_clear_int_file_name_3_3 + 0x000c)
   097E 74 6F              2228 	mov	a,#0x6F
   0980 F0                 2229 	movx	@dptr,a
                           2230 ;	genPointerSet
                           2231 ;     genFarPointerSet
   0981 90s00rF6           2232 	mov	dptr,#(_TMR_clear_int_file_name_3_3 + 0x000d)
   0984 74 72              2233 	mov	a,#0x72
   0986 F0                 2234 	movx	@dptr,a
                           2235 ;	genPointerSet
                           2236 ;     genFarPointerSet
   0987 90s00rF7           2237 	mov	dptr,#(_TMR_clear_int_file_name_3_3 + 0x000e)
   098A 74 65              2238 	mov	a,#0x65
   098C F0                 2239 	movx	@dptr,a
                           2240 ;	genPointerSet
                           2241 ;     genFarPointerSet
   098D 90s00rF8           2242 	mov	dptr,#(_TMR_clear_int_file_name_3_3 + 0x000f)
   0990 74 54              2243 	mov	a,#0x54
   0992 F0                 2244 	movx	@dptr,a
                           2245 ;	genPointerSet
                           2246 ;     genFarPointerSet
   0993 90s00rF9           2247 	mov	dptr,#(_TMR_clear_int_file_name_3_3 + 0x0010)
   0996 74 69              2248 	mov	a,#0x69
   0998 F0                 2249 	movx	@dptr,a
                           2250 ;	genPointerSet
                           2251 ;     genFarPointerSet
   0999 90s00rFA           2252 	mov	dptr,#(_TMR_clear_int_file_name_3_3 + 0x0011)
   099C 74 6D              2253 	mov	a,#0x6D
   099E F0                 2254 	movx	@dptr,a
                           2255 ;	genPointerSet
                           2256 ;     genFarPointerSet
   099F 90s00rFB           2257 	mov	dptr,#(_TMR_clear_int_file_name_3_3 + 0x0012)
   09A2 74 65              2258 	mov	a,#0x65
   09A4 F0                 2259 	movx	@dptr,a
                           2260 ;	genPointerSet
                           2261 ;     genFarPointerSet
   09A5 90s00rFC           2262 	mov	dptr,#(_TMR_clear_int_file_name_3_3 + 0x0013)
   09A8 74 72              2263 	mov	a,#0x72
   09AA F0                 2264 	movx	@dptr,a
                           2265 ;	genPointerSet
                           2266 ;     genFarPointerSet
   09AB 90s00rFD           2267 	mov	dptr,#(_TMR_clear_int_file_name_3_3 + 0x0014)
   09AE 74 2F              2268 	mov	a,#0x2F
   09B0 F0                 2269 	movx	@dptr,a
                           2270 ;	genPointerSet
                           2271 ;     genFarPointerSet
   09B1 90s00rFE           2272 	mov	dptr,#(_TMR_clear_int_file_name_3_3 + 0x0015)
   09B4 74 63              2273 	mov	a,#0x63
   09B6 F0                 2274 	movx	@dptr,a
                           2275 ;	genPointerSet
                           2276 ;     genFarPointerSet
   09B7 90s00rFF           2277 	mov	dptr,#(_TMR_clear_int_file_name_3_3 + 0x0016)
   09BA 74 6F              2278 	mov	a,#0x6F
   09BC F0                 2279 	movx	@dptr,a
                           2280 ;	genPointerSet
                           2281 ;     genFarPointerSet
   09BD 90s01r00           2282 	mov	dptr,#(_TMR_clear_int_file_name_3_3 + 0x0017)
   09C0 74 72              2283 	mov	a,#0x72
   09C2 F0                 2284 	movx	@dptr,a
                           2285 ;	genPointerSet
                           2286 ;     genFarPointerSet
   09C3 90s01r01           2287 	mov	dptr,#(_TMR_clear_int_file_name_3_3 + 0x0018)
   09C6 74 65              2288 	mov	a,#0x65
   09C8 F0                 2289 	movx	@dptr,a
                           2290 ;	genPointerSet
                           2291 ;     genFarPointerSet
   09C9 90s01r02           2292 	mov	dptr,#(_TMR_clear_int_file_name_3_3 + 0x0019)
   09CC 74 5F              2293 	mov	a,#0x5F
   09CE F0                 2294 	movx	@dptr,a
                           2295 ;	genPointerSet
                           2296 ;     genFarPointerSet
   09CF 90s01r03           2297 	mov	dptr,#(_TMR_clear_int_file_name_3_3 + 0x001a)
   09D2 74 74              2298 	mov	a,#0x74
   09D4 F0                 2299 	movx	@dptr,a
                           2300 ;	genPointerSet
                           2301 ;     genFarPointerSet
   09D5 90s01r04           2302 	mov	dptr,#(_TMR_clear_int_file_name_3_3 + 0x001b)
   09D8 74 69              2303 	mov	a,#0x69
   09DA F0                 2304 	movx	@dptr,a
                           2305 ;	genPointerSet
                           2306 ;     genFarPointerSet
   09DB 90s01r05           2307 	mov	dptr,#(_TMR_clear_int_file_name_3_3 + 0x001c)
   09DE 74 6D              2308 	mov	a,#0x6D
   09E0 F0                 2309 	movx	@dptr,a
                           2310 ;	genPointerSet
                           2311 ;     genFarPointerSet
   09E1 90s01r06           2312 	mov	dptr,#(_TMR_clear_int_file_name_3_3 + 0x001d)
   09E4 74 65              2313 	mov	a,#0x65
   09E6 F0                 2314 	movx	@dptr,a
                           2315 ;	genPointerSet
                           2316 ;     genFarPointerSet
   09E7 90s01r07           2317 	mov	dptr,#(_TMR_clear_int_file_name_3_3 + 0x001e)
   09EA 74 72              2318 	mov	a,#0x72
   09EC F0                 2319 	movx	@dptr,a
                           2320 ;	genPointerSet
                           2321 ;     genFarPointerSet
   09ED 90s01r08           2322 	mov	dptr,#(_TMR_clear_int_file_name_3_3 + 0x001f)
   09F0 74 2E              2323 	mov	a,#0x2E
   09F2 F0                 2324 	movx	@dptr,a
                           2325 ;	genPointerSet
                           2326 ;     genFarPointerSet
   09F3 90s01r09           2327 	mov	dptr,#(_TMR_clear_int_file_name_3_3 + 0x0020)
   09F6 74 63              2328 	mov	a,#0x63
   09F8 F0                 2329 	movx	@dptr,a
                           2330 ;	genPointerSet
                           2331 ;     genFarPointerSet
   09F9 90s01r0A           2332 	mov	dptr,#(_TMR_clear_int_file_name_3_3 + 0x0021)
   09FC 74 00              2333 	mov	a,#0x00
   09FE F0                 2334 	movx	@dptr,a
                           2335 ;	genAssign
   09FF 90s00r00           2336 	mov	dptr,#_HAL_assert_fail_PARM_2
   0A02 74 78              2337 	mov	a,#0x78
   0A04 F0                 2338 	movx	@dptr,a
   0A05 E4                 2339 	clr	a
   0A06 A3                 2340 	inc	dptr
   0A07 F0                 2341 	movx	@dptr,a
   0A08 A3                 2342 	inc	dptr
   0A09 F0                 2343 	movx	@dptr,a
   0A0A A3                 2344 	inc	dptr
   0A0B F0                 2345 	movx	@dptr,a
                           2346 ;	genCall
   0A0C 75 82rE9           2347 	mov	dpl,#_TMR_clear_int_file_name_3_3
   0A0F 75 83s00           2348 	mov	dph,#(_TMR_clear_int_file_name_3_3 >> 8)
   0A12 75 F0 00           2349 	mov	b,#0x00
   0A15 12s00r00           2350 	lcall	_HAL_assert_fail
   0A18                    2351 00104$:
                    0A18   2352 	C$core_timer.c$122$1$1 ==.
                           2353 ;	../drivers/CoreTimer/core_timer.c:122: HAL_set_32bit_reg( this_timer->base_address, TimerIntClr, 0x01 );
                           2354 ;	genAssign
   0A18 90s00rE6           2355 	mov	dptr,#_TMR_clear_int_this_timer_1_1
   0A1B E0                 2356 	movx	a,@dptr
   0A1C FA                 2357 	mov	r2,a
   0A1D A3                 2358 	inc	dptr
   0A1E E0                 2359 	movx	a,@dptr
   0A1F FB                 2360 	mov	r3,a
   0A20 A3                 2361 	inc	dptr
   0A21 E0                 2362 	movx	a,@dptr
   0A22 FC                 2363 	mov	r4,a
                           2364 ;	genPointerGet
                           2365 ;	genGenPointerGet
   0A23 8A 82              2366 	mov	dpl,r2
   0A25 8B 83              2367 	mov	dph,r3
   0A27 8C F0              2368 	mov	b,r4
   0A29 12s00r00           2369 	lcall	__gptrget
   0A2C FA                 2370 	mov	r2,a
   0A2D A3                 2371 	inc	dptr
   0A2E 12s00r00           2372 	lcall	__gptrget
   0A31 FB                 2373 	mov	r3,a
                           2374 ;	genPlus
                           2375 ;	genPlusIncr
   0A32 74 10              2376 	mov	a,#0x10
   0A34 25 02              2377 	add	a,ar2
   0A36 FA                 2378 	mov	r2,a
   0A37 74 00              2379 	mov	a,#0x00
   0A39 35 03              2380 	addc	a,ar3
   0A3B FB                 2381 	mov	r3,a
                           2382 ;	genAssign
   0A3C 90s00r00           2383 	mov	dptr,#_HW_set_32bit_reg_PARM_2
   0A3F 74 01              2384 	mov	a,#0x01
   0A41 F0                 2385 	movx	@dptr,a
   0A42 E4                 2386 	clr	a
   0A43 A3                 2387 	inc	dptr
   0A44 F0                 2388 	movx	@dptr,a
   0A45 A3                 2389 	inc	dptr
   0A46 F0                 2390 	movx	@dptr,a
   0A47 A3                 2391 	inc	dptr
   0A48 F0                 2392 	movx	@dptr,a
                           2393 ;	genCall
   0A49 8A 82              2394 	mov	dpl,r2
   0A4B 8B 83              2395 	mov	dph,r3
   0A4D 12s00r00           2396 	lcall	_HW_set_32bit_reg
   0A50                    2397 00106$:
                    0A50   2398 	C$core_timer.c$123$1$1 ==.
                    0A50   2399 	XG$TMR_clear_int$0$0 ==.
   0A50 22                 2400 	ret
                           2401 ;------------------------------------------------------------
                           2402 ;Allocation info for local variables in function 'TMR_current_value'
                           2403 ;------------------------------------------------------------
                           2404 ;this_timer                Allocated with name '_TMR_current_value_this_timer_1_1'
                           2405 ;value                     Allocated with name '_TMR_current_value_value_1_1'
                           2406 ;file_name                 Allocated with name '_TMR_current_value_file_name_3_3'
                           2407 ;------------------------------------------------------------
                    0A51   2408 	G$TMR_current_value$0$0 ==.
                    0A51   2409 	C$core_timer.c$130$1$1 ==.
                           2410 ;	../drivers/CoreTimer/core_timer.c:130: TMR_current_value
                           2411 ;	-----------------------------------------
                           2412 ;	 function TMR_current_value
                           2413 ;	-----------------------------------------
   0A51                    2414 _TMR_current_value:
                           2415 ;	genReceive
   0A51 AA F0              2416 	mov	r2,b
   0A53 AB 83              2417 	mov	r3,dph
   0A55 E5 82              2418 	mov	a,dpl
   0A57 90s01r0B           2419 	mov	dptr,#_TMR_current_value_this_timer_1_1
   0A5A F0                 2420 	movx	@dptr,a
   0A5B A3                 2421 	inc	dptr
   0A5C EB                 2422 	mov	a,r3
   0A5D F0                 2423 	movx	@dptr,a
   0A5E A3                 2424 	inc	dptr
   0A5F EA                 2425 	mov	a,r2
   0A60 F0                 2426 	movx	@dptr,a
                    0A61   2427 	C$core_timer.c$136$2$2 ==.
                           2428 ;	../drivers/CoreTimer/core_timer.c:136: HAL_ASSERT( this_timer != NULL_timer_instance )
                           2429 ;	genAssign
   0A61 90s01r0B           2430 	mov	dptr,#_TMR_current_value_this_timer_1_1
   0A64 E0                 2431 	movx	a,@dptr
   0A65 FA                 2432 	mov	r2,a
   0A66 A3                 2433 	inc	dptr
   0A67 E0                 2434 	movx	a,@dptr
   0A68 FB                 2435 	mov	r3,a
   0A69 A3                 2436 	inc	dptr
   0A6A E0                 2437 	movx	a,@dptr
   0A6B FC                 2438 	mov	r4,a
                           2439 ;	genAssign
   0A6C 90s00r00           2440 	mov	dptr,#_NULL_timer_instance
   0A6F E0                 2441 	movx	a,@dptr
   0A70 FD                 2442 	mov	r5,a
   0A71 A3                 2443 	inc	dptr
   0A72 E0                 2444 	movx	a,@dptr
   0A73 FE                 2445 	mov	r6,a
   0A74 A3                 2446 	inc	dptr
   0A75 E0                 2447 	movx	a,@dptr
   0A76 FF                 2448 	mov	r7,a
                           2449 ;	genCmpEq
                           2450 ;	gencjneshort
   0A77 EA                 2451 	mov	a,r2
   0A78 B5 05 0A           2452 	cjne	a,ar5,00109$
   0A7B EB                 2453 	mov	a,r3
   0A7C B5 06 06           2454 	cjne	a,ar6,00109$
   0A7F EC                 2455 	mov	a,r4
   0A80 B5 07 02           2456 	cjne	a,ar7,00109$
   0A83 80 03              2457 	sjmp	00110$
   0A85                    2458 00109$:
   0A85 02s0Br6D           2459 	ljmp	00104$
   0A88                    2460 00110$:
                           2461 ;	genPointerSet
                           2462 ;     genFarPointerSet
   0A88 90s01r0E           2463 	mov	dptr,#_TMR_current_value_file_name_3_3
   0A8B 74 2E              2464 	mov	a,#0x2E
   0A8D F0                 2465 	movx	@dptr,a
                           2466 ;	genPointerSet
                           2467 ;     genFarPointerSet
   0A8E 90s01r0F           2468 	mov	dptr,#(_TMR_current_value_file_name_3_3 + 0x0001)
   0A91 74 2E              2469 	mov	a,#0x2E
   0A93 F0                 2470 	movx	@dptr,a
                           2471 ;	genPointerSet
                           2472 ;     genFarPointerSet
   0A94 90s01r10           2473 	mov	dptr,#(_TMR_current_value_file_name_3_3 + 0x0002)
   0A97 74 2F              2474 	mov	a,#0x2F
   0A99 F0                 2475 	movx	@dptr,a
                           2476 ;	genPointerSet
                           2477 ;     genFarPointerSet
   0A9A 90s01r11           2478 	mov	dptr,#(_TMR_current_value_file_name_3_3 + 0x0003)
   0A9D 74 64              2479 	mov	a,#0x64
   0A9F F0                 2480 	movx	@dptr,a
                           2481 ;	genPointerSet
                           2482 ;     genFarPointerSet
   0AA0 90s01r12           2483 	mov	dptr,#(_TMR_current_value_file_name_3_3 + 0x0004)
   0AA3 74 72              2484 	mov	a,#0x72
   0AA5 F0                 2485 	movx	@dptr,a
                           2486 ;	genPointerSet
                           2487 ;     genFarPointerSet
   0AA6 90s01r13           2488 	mov	dptr,#(_TMR_current_value_file_name_3_3 + 0x0005)
   0AA9 74 69              2489 	mov	a,#0x69
   0AAB F0                 2490 	movx	@dptr,a
                           2491 ;	genPointerSet
                           2492 ;     genFarPointerSet
   0AAC 90s01r14           2493 	mov	dptr,#(_TMR_current_value_file_name_3_3 + 0x0006)
   0AAF 74 76              2494 	mov	a,#0x76
   0AB1 F0                 2495 	movx	@dptr,a
                           2496 ;	genPointerSet
                           2497 ;     genFarPointerSet
   0AB2 90s01r15           2498 	mov	dptr,#(_TMR_current_value_file_name_3_3 + 0x0007)
   0AB5 74 65              2499 	mov	a,#0x65
   0AB7 F0                 2500 	movx	@dptr,a
                           2501 ;	genPointerSet
                           2502 ;     genFarPointerSet
   0AB8 90s01r16           2503 	mov	dptr,#(_TMR_current_value_file_name_3_3 + 0x0008)
   0ABB 74 72              2504 	mov	a,#0x72
   0ABD F0                 2505 	movx	@dptr,a
                           2506 ;	genPointerSet
                           2507 ;     genFarPointerSet
   0ABE 90s01r17           2508 	mov	dptr,#(_TMR_current_value_file_name_3_3 + 0x0009)
   0AC1 74 73              2509 	mov	a,#0x73
   0AC3 F0                 2510 	movx	@dptr,a
                           2511 ;	genPointerSet
                           2512 ;     genFarPointerSet
   0AC4 90s01r18           2513 	mov	dptr,#(_TMR_current_value_file_name_3_3 + 0x000a)
   0AC7 74 2F              2514 	mov	a,#0x2F
   0AC9 F0                 2515 	movx	@dptr,a
                           2516 ;	genPointerSet
                           2517 ;     genFarPointerSet
   0ACA 90s01r19           2518 	mov	dptr,#(_TMR_current_value_file_name_3_3 + 0x000b)
   0ACD 74 43              2519 	mov	a,#0x43
   0ACF F0                 2520 	movx	@dptr,a
                           2521 ;	genPointerSet
                           2522 ;     genFarPointerSet
   0AD0 90s01r1A           2523 	mov	dptr,#(_TMR_current_value_file_name_3_3 + 0x000c)
   0AD3 74 6F              2524 	mov	a,#0x6F
   0AD5 F0                 2525 	movx	@dptr,a
                           2526 ;	genPointerSet
                           2527 ;     genFarPointerSet
   0AD6 90s01r1B           2528 	mov	dptr,#(_TMR_current_value_file_name_3_3 + 0x000d)
   0AD9 74 72              2529 	mov	a,#0x72
   0ADB F0                 2530 	movx	@dptr,a
                           2531 ;	genPointerSet
                           2532 ;     genFarPointerSet
   0ADC 90s01r1C           2533 	mov	dptr,#(_TMR_current_value_file_name_3_3 + 0x000e)
   0ADF 74 65              2534 	mov	a,#0x65
   0AE1 F0                 2535 	movx	@dptr,a
                           2536 ;	genPointerSet
                           2537 ;     genFarPointerSet
   0AE2 90s01r1D           2538 	mov	dptr,#(_TMR_current_value_file_name_3_3 + 0x000f)
   0AE5 74 54              2539 	mov	a,#0x54
   0AE7 F0                 2540 	movx	@dptr,a
                           2541 ;	genPointerSet
                           2542 ;     genFarPointerSet
   0AE8 90s01r1E           2543 	mov	dptr,#(_TMR_current_value_file_name_3_3 + 0x0010)
   0AEB 74 69              2544 	mov	a,#0x69
   0AED F0                 2545 	movx	@dptr,a
                           2546 ;	genPointerSet
                           2547 ;     genFarPointerSet
   0AEE 90s01r1F           2548 	mov	dptr,#(_TMR_current_value_file_name_3_3 + 0x0011)
   0AF1 74 6D              2549 	mov	a,#0x6D
   0AF3 F0                 2550 	movx	@dptr,a
                           2551 ;	genPointerSet
                           2552 ;     genFarPointerSet
   0AF4 90s01r20           2553 	mov	dptr,#(_TMR_current_value_file_name_3_3 + 0x0012)
   0AF7 74 65              2554 	mov	a,#0x65
   0AF9 F0                 2555 	movx	@dptr,a
                           2556 ;	genPointerSet
                           2557 ;     genFarPointerSet
   0AFA 90s01r21           2558 	mov	dptr,#(_TMR_current_value_file_name_3_3 + 0x0013)
   0AFD 74 72              2559 	mov	a,#0x72
   0AFF F0                 2560 	movx	@dptr,a
                           2561 ;	genPointerSet
                           2562 ;     genFarPointerSet
   0B00 90s01r22           2563 	mov	dptr,#(_TMR_current_value_file_name_3_3 + 0x0014)
   0B03 74 2F              2564 	mov	a,#0x2F
   0B05 F0                 2565 	movx	@dptr,a
                           2566 ;	genPointerSet
                           2567 ;     genFarPointerSet
   0B06 90s01r23           2568 	mov	dptr,#(_TMR_current_value_file_name_3_3 + 0x0015)
   0B09 74 63              2569 	mov	a,#0x63
   0B0B F0                 2570 	movx	@dptr,a
                           2571 ;	genPointerSet
                           2572 ;     genFarPointerSet
   0B0C 90s01r24           2573 	mov	dptr,#(_TMR_current_value_file_name_3_3 + 0x0016)
   0B0F 74 6F              2574 	mov	a,#0x6F
   0B11 F0                 2575 	movx	@dptr,a
                           2576 ;	genPointerSet
                           2577 ;     genFarPointerSet
   0B12 90s01r25           2578 	mov	dptr,#(_TMR_current_value_file_name_3_3 + 0x0017)
   0B15 74 72              2579 	mov	a,#0x72
   0B17 F0                 2580 	movx	@dptr,a
                           2581 ;	genPointerSet
                           2582 ;     genFarPointerSet
   0B18 90s01r26           2583 	mov	dptr,#(_TMR_current_value_file_name_3_3 + 0x0018)
   0B1B 74 65              2584 	mov	a,#0x65
   0B1D F0                 2585 	movx	@dptr,a
                           2586 ;	genPointerSet
                           2587 ;     genFarPointerSet
   0B1E 90s01r27           2588 	mov	dptr,#(_TMR_current_value_file_name_3_3 + 0x0019)
   0B21 74 5F              2589 	mov	a,#0x5F
   0B23 F0                 2590 	movx	@dptr,a
                           2591 ;	genPointerSet
                           2592 ;     genFarPointerSet
   0B24 90s01r28           2593 	mov	dptr,#(_TMR_current_value_file_name_3_3 + 0x001a)
   0B27 74 74              2594 	mov	a,#0x74
   0B29 F0                 2595 	movx	@dptr,a
                           2596 ;	genPointerSet
                           2597 ;     genFarPointerSet
   0B2A 90s01r29           2598 	mov	dptr,#(_TMR_current_value_file_name_3_3 + 0x001b)
   0B2D 74 69              2599 	mov	a,#0x69
   0B2F F0                 2600 	movx	@dptr,a
                           2601 ;	genPointerSet
                           2602 ;     genFarPointerSet
   0B30 90s01r2A           2603 	mov	dptr,#(_TMR_current_value_file_name_3_3 + 0x001c)
   0B33 74 6D              2604 	mov	a,#0x6D
   0B35 F0                 2605 	movx	@dptr,a
                           2606 ;	genPointerSet
                           2607 ;     genFarPointerSet
   0B36 90s01r2B           2608 	mov	dptr,#(_TMR_current_value_file_name_3_3 + 0x001d)
   0B39 74 65              2609 	mov	a,#0x65
   0B3B F0                 2610 	movx	@dptr,a
                           2611 ;	genPointerSet
                           2612 ;     genFarPointerSet
   0B3C 90s01r2C           2613 	mov	dptr,#(_TMR_current_value_file_name_3_3 + 0x001e)
   0B3F 74 72              2614 	mov	a,#0x72
   0B41 F0                 2615 	movx	@dptr,a
                           2616 ;	genPointerSet
                           2617 ;     genFarPointerSet
   0B42 90s01r2D           2618 	mov	dptr,#(_TMR_current_value_file_name_3_3 + 0x001f)
   0B45 74 2E              2619 	mov	a,#0x2E
   0B47 F0                 2620 	movx	@dptr,a
                           2621 ;	genPointerSet
                           2622 ;     genFarPointerSet
   0B48 90s01r2E           2623 	mov	dptr,#(_TMR_current_value_file_name_3_3 + 0x0020)
   0B4B 74 63              2624 	mov	a,#0x63
   0B4D F0                 2625 	movx	@dptr,a
                           2626 ;	genPointerSet
                           2627 ;     genFarPointerSet
   0B4E 90s01r2F           2628 	mov	dptr,#(_TMR_current_value_file_name_3_3 + 0x0021)
   0B51 74 00              2629 	mov	a,#0x00
   0B53 F0                 2630 	movx	@dptr,a
                           2631 ;	genAssign
   0B54 90s00r00           2632 	mov	dptr,#_HAL_assert_fail_PARM_2
   0B57 74 88              2633 	mov	a,#0x88
   0B59 F0                 2634 	movx	@dptr,a
   0B5A E4                 2635 	clr	a
   0B5B A3                 2636 	inc	dptr
   0B5C F0                 2637 	movx	@dptr,a
   0B5D A3                 2638 	inc	dptr
   0B5E F0                 2639 	movx	@dptr,a
   0B5F A3                 2640 	inc	dptr
   0B60 F0                 2641 	movx	@dptr,a
                           2642 ;	genCall
   0B61 75 82r0E           2643 	mov	dpl,#_TMR_current_value_file_name_3_3
   0B64 75 83s01           2644 	mov	dph,#(_TMR_current_value_file_name_3_3 >> 8)
   0B67 75 F0 00           2645 	mov	b,#0x00
   0B6A 12s00r00           2646 	lcall	_HAL_assert_fail
   0B6D                    2647 00104$:
                    0B6D   2648 	C$core_timer.c$138$1$1 ==.
                           2649 ;	../drivers/CoreTimer/core_timer.c:138: value = HAL_get_32bit_reg( this_timer->base_address, TimerValue );
                           2650 ;	genAssign
   0B6D 90s01r0B           2651 	mov	dptr,#_TMR_current_value_this_timer_1_1
   0B70 E0                 2652 	movx	a,@dptr
   0B71 FA                 2653 	mov	r2,a
   0B72 A3                 2654 	inc	dptr
   0B73 E0                 2655 	movx	a,@dptr
   0B74 FB                 2656 	mov	r3,a
   0B75 A3                 2657 	inc	dptr
   0B76 E0                 2658 	movx	a,@dptr
   0B77 FC                 2659 	mov	r4,a
                           2660 ;	genPointerGet
                           2661 ;	genGenPointerGet
   0B78 8A 82              2662 	mov	dpl,r2
   0B7A 8B 83              2663 	mov	dph,r3
   0B7C 8C F0              2664 	mov	b,r4
   0B7E 12s00r00           2665 	lcall	__gptrget
   0B81 FA                 2666 	mov	r2,a
   0B82 A3                 2667 	inc	dptr
   0B83 12s00r00           2668 	lcall	__gptrget
   0B86 FB                 2669 	mov	r3,a
                           2670 ;	genPlus
                           2671 ;	genPlusIncr
   0B87 74 04              2672 	mov	a,#0x04
   0B89 25 02              2673 	add	a,ar2
   0B8B FA                 2674 	mov	r2,a
   0B8C 74 00              2675 	mov	a,#0x00
   0B8E 35 03              2676 	addc	a,ar3
   0B90 FB                 2677 	mov	r3,a
                           2678 ;	genCall
   0B91 8A 82              2679 	mov	dpl,r2
   0B93 8B 83              2680 	mov	dph,r3
   0B95 12s00r00           2681 	lcall	_HW_get_32bit_reg
   0B98 AA 82              2682 	mov	r2,dpl
   0B9A AB 83              2683 	mov	r3,dph
   0B9C AC F0              2684 	mov	r4,b
   0B9E FD                 2685 	mov	r5,a
                    0B9F   2686 	C$core_timer.c$140$1$1 ==.
                           2687 ;	../drivers/CoreTimer/core_timer.c:140: return value;
                           2688 ;	genRet
   0B9F 8A 82              2689 	mov	dpl,r2
   0BA1 8B 83              2690 	mov	dph,r3
   0BA3 8C F0              2691 	mov	b,r4
   0BA5 ED                 2692 	mov	a,r5
   0BA6                    2693 00106$:
                    0BA6   2694 	C$core_timer.c$141$1$1 ==.
                    0BA6   2695 	XG$TMR_current_value$0$0 ==.
   0BA6 22                 2696 	ret
                           2697 ;------------------------------------------------------------
                           2698 ;Allocation info for local variables in function 'TMR_reload'
                           2699 ;------------------------------------------------------------
                           2700 ;load_value                Allocated with name '_TMR_reload_PARM_2'
                           2701 ;this_timer                Allocated with name '_TMR_reload_this_timer_1_1'
                           2702 ;file_name                 Allocated with name '_TMR_reload_file_name_3_3'
                           2703 ;file_name                 Allocated with name '_TMR_reload_file_name_3_5'
                           2704 ;------------------------------------------------------------
                    0BA7   2705 	G$TMR_reload$0$0 ==.
                    0BA7   2706 	C$core_timer.c$147$1$1 ==.
                           2707 ;	../drivers/CoreTimer/core_timer.c:147: void TMR_reload
                           2708 ;	-----------------------------------------
                           2709 ;	 function TMR_reload
                           2710 ;	-----------------------------------------
   0BA7                    2711 _TMR_reload:
                           2712 ;	genReceive
   0BA7 AA F0              2713 	mov	r2,b
   0BA9 AB 83              2714 	mov	r3,dph
   0BAB E5 82              2715 	mov	a,dpl
   0BAD 90s01r34           2716 	mov	dptr,#_TMR_reload_this_timer_1_1
   0BB0 F0                 2717 	movx	@dptr,a
   0BB1 A3                 2718 	inc	dptr
   0BB2 EB                 2719 	mov	a,r3
   0BB3 F0                 2720 	movx	@dptr,a
   0BB4 A3                 2721 	inc	dptr
   0BB5 EA                 2722 	mov	a,r2
   0BB6 F0                 2723 	movx	@dptr,a
                    0BB7   2724 	C$core_timer.c$153$2$2 ==.
                           2725 ;	../drivers/CoreTimer/core_timer.c:153: HAL_ASSERT( this_timer != NULL_timer_instance )
                           2726 ;	genAssign
   0BB7 90s01r34           2727 	mov	dptr,#_TMR_reload_this_timer_1_1
   0BBA E0                 2728 	movx	a,@dptr
   0BBB FA                 2729 	mov	r2,a
   0BBC A3                 2730 	inc	dptr
   0BBD E0                 2731 	movx	a,@dptr
   0BBE FB                 2732 	mov	r3,a
   0BBF A3                 2733 	inc	dptr
   0BC0 E0                 2734 	movx	a,@dptr
   0BC1 FC                 2735 	mov	r4,a
                           2736 ;	genAssign
   0BC2 90s00r00           2737 	mov	dptr,#_NULL_timer_instance
   0BC5 E0                 2738 	movx	a,@dptr
   0BC6 FD                 2739 	mov	r5,a
   0BC7 A3                 2740 	inc	dptr
   0BC8 E0                 2741 	movx	a,@dptr
   0BC9 FE                 2742 	mov	r6,a
   0BCA A3                 2743 	inc	dptr
   0BCB E0                 2744 	movx	a,@dptr
   0BCC FF                 2745 	mov	r7,a
                           2746 ;	genCmpEq
                           2747 ;	gencjneshort
   0BCD EA                 2748 	mov	a,r2
   0BCE B5 05 0A           2749 	cjne	a,ar5,00115$
   0BD1 EB                 2750 	mov	a,r3
   0BD2 B5 06 06           2751 	cjne	a,ar6,00115$
   0BD5 EC                 2752 	mov	a,r4
   0BD6 B5 07 02           2753 	cjne	a,ar7,00115$
   0BD9 80 03              2754 	sjmp	00116$
   0BDB                    2755 00115$:
   0BDB 02s0CrC3           2756 	ljmp	00104$
   0BDE                    2757 00116$:
                           2758 ;	genPointerSet
                           2759 ;     genFarPointerSet
   0BDE 90s01r37           2760 	mov	dptr,#_TMR_reload_file_name_3_3
   0BE1 74 2E              2761 	mov	a,#0x2E
   0BE3 F0                 2762 	movx	@dptr,a
                           2763 ;	genPointerSet
                           2764 ;     genFarPointerSet
   0BE4 90s01r38           2765 	mov	dptr,#(_TMR_reload_file_name_3_3 + 0x0001)
   0BE7 74 2E              2766 	mov	a,#0x2E
   0BE9 F0                 2767 	movx	@dptr,a
                           2768 ;	genPointerSet
                           2769 ;     genFarPointerSet
   0BEA 90s01r39           2770 	mov	dptr,#(_TMR_reload_file_name_3_3 + 0x0002)
   0BED 74 2F              2771 	mov	a,#0x2F
   0BEF F0                 2772 	movx	@dptr,a
                           2773 ;	genPointerSet
                           2774 ;     genFarPointerSet
   0BF0 90s01r3A           2775 	mov	dptr,#(_TMR_reload_file_name_3_3 + 0x0003)
   0BF3 74 64              2776 	mov	a,#0x64
   0BF5 F0                 2777 	movx	@dptr,a
                           2778 ;	genPointerSet
                           2779 ;     genFarPointerSet
   0BF6 90s01r3B           2780 	mov	dptr,#(_TMR_reload_file_name_3_3 + 0x0004)
   0BF9 74 72              2781 	mov	a,#0x72
   0BFB F0                 2782 	movx	@dptr,a
                           2783 ;	genPointerSet
                           2784 ;     genFarPointerSet
   0BFC 90s01r3C           2785 	mov	dptr,#(_TMR_reload_file_name_3_3 + 0x0005)
   0BFF 74 69              2786 	mov	a,#0x69
   0C01 F0                 2787 	movx	@dptr,a
                           2788 ;	genPointerSet
                           2789 ;     genFarPointerSet
   0C02 90s01r3D           2790 	mov	dptr,#(_TMR_reload_file_name_3_3 + 0x0006)
   0C05 74 76              2791 	mov	a,#0x76
   0C07 F0                 2792 	movx	@dptr,a
                           2793 ;	genPointerSet
                           2794 ;     genFarPointerSet
   0C08 90s01r3E           2795 	mov	dptr,#(_TMR_reload_file_name_3_3 + 0x0007)
   0C0B 74 65              2796 	mov	a,#0x65
   0C0D F0                 2797 	movx	@dptr,a
                           2798 ;	genPointerSet
                           2799 ;     genFarPointerSet
   0C0E 90s01r3F           2800 	mov	dptr,#(_TMR_reload_file_name_3_3 + 0x0008)
   0C11 74 72              2801 	mov	a,#0x72
   0C13 F0                 2802 	movx	@dptr,a
                           2803 ;	genPointerSet
                           2804 ;     genFarPointerSet
   0C14 90s01r40           2805 	mov	dptr,#(_TMR_reload_file_name_3_3 + 0x0009)
   0C17 74 73              2806 	mov	a,#0x73
   0C19 F0                 2807 	movx	@dptr,a
                           2808 ;	genPointerSet
                           2809 ;     genFarPointerSet
   0C1A 90s01r41           2810 	mov	dptr,#(_TMR_reload_file_name_3_3 + 0x000a)
   0C1D 74 2F              2811 	mov	a,#0x2F
   0C1F F0                 2812 	movx	@dptr,a
                           2813 ;	genPointerSet
                           2814 ;     genFarPointerSet
   0C20 90s01r42           2815 	mov	dptr,#(_TMR_reload_file_name_3_3 + 0x000b)
   0C23 74 43              2816 	mov	a,#0x43
   0C25 F0                 2817 	movx	@dptr,a
                           2818 ;	genPointerSet
                           2819 ;     genFarPointerSet
   0C26 90s01r43           2820 	mov	dptr,#(_TMR_reload_file_name_3_3 + 0x000c)
   0C29 74 6F              2821 	mov	a,#0x6F
   0C2B F0                 2822 	movx	@dptr,a
                           2823 ;	genPointerSet
                           2824 ;     genFarPointerSet
   0C2C 90s01r44           2825 	mov	dptr,#(_TMR_reload_file_name_3_3 + 0x000d)
   0C2F 74 72              2826 	mov	a,#0x72
   0C31 F0                 2827 	movx	@dptr,a
                           2828 ;	genPointerSet
                           2829 ;     genFarPointerSet
   0C32 90s01r45           2830 	mov	dptr,#(_TMR_reload_file_name_3_3 + 0x000e)
   0C35 74 65              2831 	mov	a,#0x65
   0C37 F0                 2832 	movx	@dptr,a
                           2833 ;	genPointerSet
                           2834 ;     genFarPointerSet
   0C38 90s01r46           2835 	mov	dptr,#(_TMR_reload_file_name_3_3 + 0x000f)
   0C3B 74 54              2836 	mov	a,#0x54
   0C3D F0                 2837 	movx	@dptr,a
                           2838 ;	genPointerSet
                           2839 ;     genFarPointerSet
   0C3E 90s01r47           2840 	mov	dptr,#(_TMR_reload_file_name_3_3 + 0x0010)
   0C41 74 69              2841 	mov	a,#0x69
   0C43 F0                 2842 	movx	@dptr,a
                           2843 ;	genPointerSet
                           2844 ;     genFarPointerSet
   0C44 90s01r48           2845 	mov	dptr,#(_TMR_reload_file_name_3_3 + 0x0011)
   0C47 74 6D              2846 	mov	a,#0x6D
   0C49 F0                 2847 	movx	@dptr,a
                           2848 ;	genPointerSet
                           2849 ;     genFarPointerSet
   0C4A 90s01r49           2850 	mov	dptr,#(_TMR_reload_file_name_3_3 + 0x0012)
   0C4D 74 65              2851 	mov	a,#0x65
   0C4F F0                 2852 	movx	@dptr,a
                           2853 ;	genPointerSet
                           2854 ;     genFarPointerSet
   0C50 90s01r4A           2855 	mov	dptr,#(_TMR_reload_file_name_3_3 + 0x0013)
   0C53 74 72              2856 	mov	a,#0x72
   0C55 F0                 2857 	movx	@dptr,a
                           2858 ;	genPointerSet
                           2859 ;     genFarPointerSet
   0C56 90s01r4B           2860 	mov	dptr,#(_TMR_reload_file_name_3_3 + 0x0014)
   0C59 74 2F              2861 	mov	a,#0x2F
   0C5B F0                 2862 	movx	@dptr,a
                           2863 ;	genPointerSet
                           2864 ;     genFarPointerSet
   0C5C 90s01r4C           2865 	mov	dptr,#(_TMR_reload_file_name_3_3 + 0x0015)
   0C5F 74 63              2866 	mov	a,#0x63
   0C61 F0                 2867 	movx	@dptr,a
                           2868 ;	genPointerSet
                           2869 ;     genFarPointerSet
   0C62 90s01r4D           2870 	mov	dptr,#(_TMR_reload_file_name_3_3 + 0x0016)
   0C65 74 6F              2871 	mov	a,#0x6F
   0C67 F0                 2872 	movx	@dptr,a
                           2873 ;	genPointerSet
                           2874 ;     genFarPointerSet
   0C68 90s01r4E           2875 	mov	dptr,#(_TMR_reload_file_name_3_3 + 0x0017)
   0C6B 74 72              2876 	mov	a,#0x72
   0C6D F0                 2877 	movx	@dptr,a
                           2878 ;	genPointerSet
                           2879 ;     genFarPointerSet
   0C6E 90s01r4F           2880 	mov	dptr,#(_TMR_reload_file_name_3_3 + 0x0018)
   0C71 74 65              2881 	mov	a,#0x65
   0C73 F0                 2882 	movx	@dptr,a
                           2883 ;	genPointerSet
                           2884 ;     genFarPointerSet
   0C74 90s01r50           2885 	mov	dptr,#(_TMR_reload_file_name_3_3 + 0x0019)
   0C77 74 5F              2886 	mov	a,#0x5F
   0C79 F0                 2887 	movx	@dptr,a
                           2888 ;	genPointerSet
                           2889 ;     genFarPointerSet
   0C7A 90s01r51           2890 	mov	dptr,#(_TMR_reload_file_name_3_3 + 0x001a)
   0C7D 74 74              2891 	mov	a,#0x74
   0C7F F0                 2892 	movx	@dptr,a
                           2893 ;	genPointerSet
                           2894 ;     genFarPointerSet
   0C80 90s01r52           2895 	mov	dptr,#(_TMR_reload_file_name_3_3 + 0x001b)
   0C83 74 69              2896 	mov	a,#0x69
   0C85 F0                 2897 	movx	@dptr,a
                           2898 ;	genPointerSet
                           2899 ;     genFarPointerSet
   0C86 90s01r53           2900 	mov	dptr,#(_TMR_reload_file_name_3_3 + 0x001c)
   0C89 74 6D              2901 	mov	a,#0x6D
   0C8B F0                 2902 	movx	@dptr,a
                           2903 ;	genPointerSet
                           2904 ;     genFarPointerSet
   0C8C 90s01r54           2905 	mov	dptr,#(_TMR_reload_file_name_3_3 + 0x001d)
   0C8F 74 65              2906 	mov	a,#0x65
   0C91 F0                 2907 	movx	@dptr,a
                           2908 ;	genPointerSet
                           2909 ;     genFarPointerSet
   0C92 90s01r55           2910 	mov	dptr,#(_TMR_reload_file_name_3_3 + 0x001e)
   0C95 74 72              2911 	mov	a,#0x72
   0C97 F0                 2912 	movx	@dptr,a
                           2913 ;	genPointerSet
                           2914 ;     genFarPointerSet
   0C98 90s01r56           2915 	mov	dptr,#(_TMR_reload_file_name_3_3 + 0x001f)
   0C9B 74 2E              2916 	mov	a,#0x2E
   0C9D F0                 2917 	movx	@dptr,a
                           2918 ;	genPointerSet
                           2919 ;     genFarPointerSet
   0C9E 90s01r57           2920 	mov	dptr,#(_TMR_reload_file_name_3_3 + 0x0020)
   0CA1 74 63              2921 	mov	a,#0x63
   0CA3 F0                 2922 	movx	@dptr,a
                           2923 ;	genPointerSet
                           2924 ;     genFarPointerSet
   0CA4 90s01r58           2925 	mov	dptr,#(_TMR_reload_file_name_3_3 + 0x0021)
   0CA7 74 00              2926 	mov	a,#0x00
   0CA9 F0                 2927 	movx	@dptr,a
                           2928 ;	genAssign
   0CAA 90s00r00           2929 	mov	dptr,#_HAL_assert_fail_PARM_2
   0CAD 74 99              2930 	mov	a,#0x99
   0CAF F0                 2931 	movx	@dptr,a
   0CB0 E4                 2932 	clr	a
   0CB1 A3                 2933 	inc	dptr
   0CB2 F0                 2934 	movx	@dptr,a
   0CB3 A3                 2935 	inc	dptr
   0CB4 F0                 2936 	movx	@dptr,a
   0CB5 A3                 2937 	inc	dptr
   0CB6 F0                 2938 	movx	@dptr,a
                           2939 ;	genCall
   0CB7 75 82r37           2940 	mov	dpl,#_TMR_reload_file_name_3_3
   0CBA 75 83s01           2941 	mov	dph,#(_TMR_reload_file_name_3_3 >> 8)
   0CBD 75 F0 00           2942 	mov	b,#0x00
   0CC0 12s00r00           2943 	lcall	_HAL_assert_fail
   0CC3                    2944 00104$:
                    0CC3   2945 	C$core_timer.c$154$2$4 ==.
                           2946 ;	../drivers/CoreTimer/core_timer.c:154: HAL_ASSERT( load_value != 0 )
                           2947 ;	genAssign
   0CC3 90s01r30           2948 	mov	dptr,#_TMR_reload_PARM_2
   0CC6 E0                 2949 	movx	a,@dptr
   0CC7 FA                 2950 	mov	r2,a
   0CC8 A3                 2951 	inc	dptr
   0CC9 E0                 2952 	movx	a,@dptr
   0CCA FB                 2953 	mov	r3,a
   0CCB A3                 2954 	inc	dptr
   0CCC E0                 2955 	movx	a,@dptr
   0CCD FC                 2956 	mov	r4,a
   0CCE A3                 2957 	inc	dptr
   0CCF E0                 2958 	movx	a,@dptr
   0CD0 FD                 2959 	mov	r5,a
                           2960 ;	genCmpEq
                           2961 ;	gencjneshort
   0CD1 BA 00 0B           2962 	cjne	r2,#0x00,00117$
   0CD4 BB 00 08           2963 	cjne	r3,#0x00,00117$
   0CD7 BC 00 05           2964 	cjne	r4,#0x00,00117$
   0CDA BD 00 02           2965 	cjne	r5,#0x00,00117$
   0CDD 80 03              2966 	sjmp	00118$
   0CDF                    2967 00117$:
   0CDF 02s0DrD7           2968 	ljmp	00109$
   0CE2                    2969 00118$:
                           2970 ;	genPointerSet
                           2971 ;     genFarPointerSet
   0CE2 90s01r59           2972 	mov	dptr,#_TMR_reload_file_name_3_5
   0CE5 74 2E              2973 	mov	a,#0x2E
   0CE7 F0                 2974 	movx	@dptr,a
                           2975 ;	genPointerSet
                           2976 ;     genFarPointerSet
   0CE8 90s01r5A           2977 	mov	dptr,#(_TMR_reload_file_name_3_5 + 0x0001)
   0CEB 74 2E              2978 	mov	a,#0x2E
   0CED F0                 2979 	movx	@dptr,a
                           2980 ;	genPointerSet
                           2981 ;     genFarPointerSet
   0CEE 90s01r5B           2982 	mov	dptr,#(_TMR_reload_file_name_3_5 + 0x0002)
   0CF1 74 2F              2983 	mov	a,#0x2F
   0CF3 F0                 2984 	movx	@dptr,a
                           2985 ;	genPointerSet
                           2986 ;     genFarPointerSet
   0CF4 90s01r5C           2987 	mov	dptr,#(_TMR_reload_file_name_3_5 + 0x0003)
   0CF7 74 64              2988 	mov	a,#0x64
   0CF9 F0                 2989 	movx	@dptr,a
                           2990 ;	genPointerSet
                           2991 ;     genFarPointerSet
   0CFA 90s01r5D           2992 	mov	dptr,#(_TMR_reload_file_name_3_5 + 0x0004)
   0CFD 74 72              2993 	mov	a,#0x72
   0CFF F0                 2994 	movx	@dptr,a
                           2995 ;	genPointerSet
                           2996 ;     genFarPointerSet
   0D00 90s01r5E           2997 	mov	dptr,#(_TMR_reload_file_name_3_5 + 0x0005)
   0D03 74 69              2998 	mov	a,#0x69
   0D05 F0                 2999 	movx	@dptr,a
                           3000 ;	genPointerSet
                           3001 ;     genFarPointerSet
   0D06 90s01r5F           3002 	mov	dptr,#(_TMR_reload_file_name_3_5 + 0x0006)
   0D09 74 76              3003 	mov	a,#0x76
   0D0B F0                 3004 	movx	@dptr,a
                           3005 ;	genPointerSet
                           3006 ;     genFarPointerSet
   0D0C 90s01r60           3007 	mov	dptr,#(_TMR_reload_file_name_3_5 + 0x0007)
   0D0F 74 65              3008 	mov	a,#0x65
   0D11 F0                 3009 	movx	@dptr,a
                           3010 ;	genPointerSet
                           3011 ;     genFarPointerSet
   0D12 90s01r61           3012 	mov	dptr,#(_TMR_reload_file_name_3_5 + 0x0008)
   0D15 74 72              3013 	mov	a,#0x72
   0D17 F0                 3014 	movx	@dptr,a
                           3015 ;	genPointerSet
                           3016 ;     genFarPointerSet
   0D18 90s01r62           3017 	mov	dptr,#(_TMR_reload_file_name_3_5 + 0x0009)
   0D1B 74 73              3018 	mov	a,#0x73
   0D1D F0                 3019 	movx	@dptr,a
                           3020 ;	genPointerSet
                           3021 ;     genFarPointerSet
   0D1E 90s01r63           3022 	mov	dptr,#(_TMR_reload_file_name_3_5 + 0x000a)
   0D21 74 2F              3023 	mov	a,#0x2F
   0D23 F0                 3024 	movx	@dptr,a
                           3025 ;	genPointerSet
                           3026 ;     genFarPointerSet
   0D24 90s01r64           3027 	mov	dptr,#(_TMR_reload_file_name_3_5 + 0x000b)
   0D27 74 43              3028 	mov	a,#0x43
   0D29 F0                 3029 	movx	@dptr,a
                           3030 ;	genPointerSet
                           3031 ;     genFarPointerSet
   0D2A 90s01r65           3032 	mov	dptr,#(_TMR_reload_file_name_3_5 + 0x000c)
   0D2D 74 6F              3033 	mov	a,#0x6F
   0D2F F0                 3034 	movx	@dptr,a
                           3035 ;	genPointerSet
                           3036 ;     genFarPointerSet
   0D30 90s01r66           3037 	mov	dptr,#(_TMR_reload_file_name_3_5 + 0x000d)
   0D33 74 72              3038 	mov	a,#0x72
   0D35 F0                 3039 	movx	@dptr,a
                           3040 ;	genPointerSet
                           3041 ;     genFarPointerSet
   0D36 90s01r67           3042 	mov	dptr,#(_TMR_reload_file_name_3_5 + 0x000e)
   0D39 74 65              3043 	mov	a,#0x65
   0D3B F0                 3044 	movx	@dptr,a
                           3045 ;	genPointerSet
                           3046 ;     genFarPointerSet
   0D3C 90s01r68           3047 	mov	dptr,#(_TMR_reload_file_name_3_5 + 0x000f)
   0D3F 74 54              3048 	mov	a,#0x54
   0D41 F0                 3049 	movx	@dptr,a
                           3050 ;	genPointerSet
                           3051 ;     genFarPointerSet
   0D42 90s01r69           3052 	mov	dptr,#(_TMR_reload_file_name_3_5 + 0x0010)
   0D45 74 69              3053 	mov	a,#0x69
   0D47 F0                 3054 	movx	@dptr,a
                           3055 ;	genPointerSet
                           3056 ;     genFarPointerSet
   0D48 90s01r6A           3057 	mov	dptr,#(_TMR_reload_file_name_3_5 + 0x0011)
   0D4B 74 6D              3058 	mov	a,#0x6D
   0D4D F0                 3059 	movx	@dptr,a
                           3060 ;	genPointerSet
                           3061 ;     genFarPointerSet
   0D4E 90s01r6B           3062 	mov	dptr,#(_TMR_reload_file_name_3_5 + 0x0012)
   0D51 74 65              3063 	mov	a,#0x65
   0D53 F0                 3064 	movx	@dptr,a
                           3065 ;	genPointerSet
                           3066 ;     genFarPointerSet
   0D54 90s01r6C           3067 	mov	dptr,#(_TMR_reload_file_name_3_5 + 0x0013)
   0D57 74 72              3068 	mov	a,#0x72
   0D59 F0                 3069 	movx	@dptr,a
                           3070 ;	genPointerSet
                           3071 ;     genFarPointerSet
   0D5A 90s01r6D           3072 	mov	dptr,#(_TMR_reload_file_name_3_5 + 0x0014)
   0D5D 74 2F              3073 	mov	a,#0x2F
   0D5F F0                 3074 	movx	@dptr,a
                           3075 ;	genPointerSet
                           3076 ;     genFarPointerSet
   0D60 90s01r6E           3077 	mov	dptr,#(_TMR_reload_file_name_3_5 + 0x0015)
   0D63 74 63              3078 	mov	a,#0x63
   0D65 F0                 3079 	movx	@dptr,a
                           3080 ;	genPointerSet
                           3081 ;     genFarPointerSet
   0D66 90s01r6F           3082 	mov	dptr,#(_TMR_reload_file_name_3_5 + 0x0016)
   0D69 74 6F              3083 	mov	a,#0x6F
   0D6B F0                 3084 	movx	@dptr,a
                           3085 ;	genPointerSet
                           3086 ;     genFarPointerSet
   0D6C 90s01r70           3087 	mov	dptr,#(_TMR_reload_file_name_3_5 + 0x0017)
   0D6F 74 72              3088 	mov	a,#0x72
   0D71 F0                 3089 	movx	@dptr,a
                           3090 ;	genPointerSet
                           3091 ;     genFarPointerSet
   0D72 90s01r71           3092 	mov	dptr,#(_TMR_reload_file_name_3_5 + 0x0018)
   0D75 74 65              3093 	mov	a,#0x65
   0D77 F0                 3094 	movx	@dptr,a
                           3095 ;	genPointerSet
                           3096 ;     genFarPointerSet
   0D78 90s01r72           3097 	mov	dptr,#(_TMR_reload_file_name_3_5 + 0x0019)
   0D7B 74 5F              3098 	mov	a,#0x5F
   0D7D F0                 3099 	movx	@dptr,a
                           3100 ;	genPointerSet
                           3101 ;     genFarPointerSet
   0D7E 90s01r73           3102 	mov	dptr,#(_TMR_reload_file_name_3_5 + 0x001a)
   0D81 74 74              3103 	mov	a,#0x74
   0D83 F0                 3104 	movx	@dptr,a
                           3105 ;	genPointerSet
                           3106 ;     genFarPointerSet
   0D84 90s01r74           3107 	mov	dptr,#(_TMR_reload_file_name_3_5 + 0x001b)
   0D87 74 69              3108 	mov	a,#0x69
   0D89 F0                 3109 	movx	@dptr,a
                           3110 ;	genPointerSet
                           3111 ;     genFarPointerSet
   0D8A 90s01r75           3112 	mov	dptr,#(_TMR_reload_file_name_3_5 + 0x001c)
   0D8D 74 6D              3113 	mov	a,#0x6D
   0D8F F0                 3114 	movx	@dptr,a
                           3115 ;	genPointerSet
                           3116 ;     genFarPointerSet
   0D90 90s01r76           3117 	mov	dptr,#(_TMR_reload_file_name_3_5 + 0x001d)
   0D93 74 65              3118 	mov	a,#0x65
   0D95 F0                 3119 	movx	@dptr,a
                           3120 ;	genPointerSet
                           3121 ;     genFarPointerSet
   0D96 90s01r77           3122 	mov	dptr,#(_TMR_reload_file_name_3_5 + 0x001e)
   0D99 74 72              3123 	mov	a,#0x72
   0D9B F0                 3124 	movx	@dptr,a
                           3125 ;	genPointerSet
                           3126 ;     genFarPointerSet
   0D9C 90s01r78           3127 	mov	dptr,#(_TMR_reload_file_name_3_5 + 0x001f)
   0D9F 74 2E              3128 	mov	a,#0x2E
   0DA1 F0                 3129 	movx	@dptr,a
                           3130 ;	genPointerSet
                           3131 ;     genFarPointerSet
   0DA2 90s01r79           3132 	mov	dptr,#(_TMR_reload_file_name_3_5 + 0x0020)
   0DA5 74 63              3133 	mov	a,#0x63
   0DA7 F0                 3134 	movx	@dptr,a
                           3135 ;	genPointerSet
                           3136 ;     genFarPointerSet
   0DA8 90s01r7A           3137 	mov	dptr,#(_TMR_reload_file_name_3_5 + 0x0021)
   0DAB 74 00              3138 	mov	a,#0x00
   0DAD F0                 3139 	movx	@dptr,a
                           3140 ;	genAssign
   0DAE 90s00r00           3141 	mov	dptr,#_HAL_assert_fail_PARM_2
   0DB1 74 9A              3142 	mov	a,#0x9A
   0DB3 F0                 3143 	movx	@dptr,a
   0DB4 E4                 3144 	clr	a
   0DB5 A3                 3145 	inc	dptr
   0DB6 F0                 3146 	movx	@dptr,a
   0DB7 A3                 3147 	inc	dptr
   0DB8 F0                 3148 	movx	@dptr,a
   0DB9 A3                 3149 	inc	dptr
   0DBA F0                 3150 	movx	@dptr,a
                           3151 ;	genCall
   0DBB 75 82r59           3152 	mov	dpl,#_TMR_reload_file_name_3_5
   0DBE 75 83s01           3153 	mov	dph,#(_TMR_reload_file_name_3_5 >> 8)
   0DC1 75 F0 00           3154 	mov	b,#0x00
   0DC4 C0 02              3155 	push	ar2
   0DC6 C0 03              3156 	push	ar3
   0DC8 C0 04              3157 	push	ar4
   0DCA C0 05              3158 	push	ar5
   0DCC 12s00r00           3159 	lcall	_HAL_assert_fail
   0DCF D0 05              3160 	pop	ar5
   0DD1 D0 04              3161 	pop	ar4
   0DD3 D0 03              3162 	pop	ar3
   0DD5 D0 02              3163 	pop	ar2
   0DD7                    3164 00109$:
                    0DD7   3165 	C$core_timer.c$156$1$1 ==.
                           3166 ;	../drivers/CoreTimer/core_timer.c:156: HAL_set_32bit_reg(this_timer->base_address, TimerLoad, load_value );
                           3167 ;	genAssign
   0DD7 90s01r34           3168 	mov	dptr,#_TMR_reload_this_timer_1_1
   0DDA E0                 3169 	movx	a,@dptr
   0DDB FE                 3170 	mov	r6,a
   0DDC A3                 3171 	inc	dptr
   0DDD E0                 3172 	movx	a,@dptr
   0DDE FF                 3173 	mov	r7,a
   0DDF A3                 3174 	inc	dptr
   0DE0 E0                 3175 	movx	a,@dptr
   0DE1 F8                 3176 	mov	r0,a
                           3177 ;	genPointerGet
                           3178 ;	genGenPointerGet
   0DE2 8E 82              3179 	mov	dpl,r6
   0DE4 8F 83              3180 	mov	dph,r7
   0DE6 88 F0              3181 	mov	b,r0
   0DE8 12s00r00           3182 	lcall	__gptrget
   0DEB FE                 3183 	mov	r6,a
   0DEC A3                 3184 	inc	dptr
   0DED 12s00r00           3185 	lcall	__gptrget
   0DF0 FF                 3186 	mov	r7,a
                           3187 ;	genAssign
   0DF1 90s00r00           3188 	mov	dptr,#_HW_set_32bit_reg_PARM_2
   0DF4 EA                 3189 	mov	a,r2
   0DF5 F0                 3190 	movx	@dptr,a
   0DF6 A3                 3191 	inc	dptr
   0DF7 EB                 3192 	mov	a,r3
   0DF8 F0                 3193 	movx	@dptr,a
   0DF9 A3                 3194 	inc	dptr
   0DFA EC                 3195 	mov	a,r4
   0DFB F0                 3196 	movx	@dptr,a
   0DFC A3                 3197 	inc	dptr
   0DFD ED                 3198 	mov	a,r5
   0DFE F0                 3199 	movx	@dptr,a
                           3200 ;	genCall
   0DFF 8E 82              3201 	mov	dpl,r6
   0E01 8F 83              3202 	mov	dph,r7
   0E03 12s00r00           3203 	lcall	_HW_set_32bit_reg
   0E06                    3204 00111$:
                    0E06   3205 	C$core_timer.c$157$1$1 ==.
                    0E06   3206 	XG$TMR_reload$0$0 ==.
   0E06 22                 3207 	ret
                           3208 	.area CSEG    (CODE)
                           3209 	.area CONST   (CODE)
                           3210 	.area XINIT   (CODE)
                           3211 	.area CABS    (ABS,CODE)
