                              1 ;--------------------------------------------------------
                              2 ; File Created by SDCC : FreeWare ANSI-C Compiler
                              3 ; Version 2.6.3 #4543 (Dec 31 2006)
                              4 ; This file generated Mon May 02 12:51:54 2016
                              5 ;--------------------------------------------------------
                              6 	.module ___drivers_CoreUARTapb_core_uart_apb
                              7 	.optsdcc -mmcs51 --model-large
                              8 	
                              9 ;--------------------------------------------------------
                             10 ; Public variables in this module
                             11 ;--------------------------------------------------------
                             12 	.globl _UART_polled_tx_string_PARM_2
                             13 	.globl _UART_get_rx_PARM_3
                             14 	.globl _UART_get_rx_PARM_2
                             15 	.globl _UART_fill_tx_fifo_PARM_3
                             16 	.globl _UART_fill_tx_fifo_PARM_2
                             17 	.globl _UART_send_PARM_3
                             18 	.globl _UART_send_PARM_2
                             19 	.globl _UART_init_PARM_4
                             20 	.globl _UART_init_PARM_3
                             21 	.globl _UART_init_PARM_2
                             22 	.globl _UART_init
                             23 	.globl _UART_send
                             24 	.globl _UART_fill_tx_fifo
                             25 	.globl _UART_get_rx
                             26 	.globl _UART_polled_tx_string
                             27 	.globl _UART_get_rx_status
                             28 ;--------------------------------------------------------
                             29 ; special function registers
                             30 ;--------------------------------------------------------
                             31 	.area RSEG    (DATA)
                             32 ;--------------------------------------------------------
                             33 ; special function bits
                             34 ;--------------------------------------------------------
                             35 	.area RSEG    (DATA)
                             36 ;--------------------------------------------------------
                             37 ; overlayable register banks
                             38 ;--------------------------------------------------------
                             39 	.area REG_BANK_0	(REL,OVR,DATA)
   0000                      40 	.ds 8
                             41 ;--------------------------------------------------------
                             42 ; internal ram data
                             43 ;--------------------------------------------------------
                             44 	.area DSEG    (DATA)
                    0000     45 LUART_init$sloc0$1$0==.
   0000                      46 _UART_init_sloc0_1_0:
   0000                      47 	.ds 1
                    0001     48 LUART_init$sloc1$1$0==.
   0001                      49 _UART_init_sloc1_1_0:
   0001                      50 	.ds 2
                    0003     51 LUART_init$sloc2$1$0==.
   0003                      52 _UART_init_sloc2_1_0:
   0003                      53 	.ds 2
                    0005     54 LUART_init$sloc3$1$0==.
   0005                      55 _UART_init_sloc3_1_0:
   0005                      56 	.ds 2
                    0007     57 LUART_send$sloc0$1$0==.
   0007                      58 _UART_send_sloc0_1_0:
   0007                      59 	.ds 3
                    000A     60 LUART_send$sloc1$1$0==.
   000A                      61 _UART_send_sloc1_1_0:
   000A                      62 	.ds 3
                    000D     63 LUART_fill_tx_fifo$sloc0$1$0==.
   000D                      64 _UART_fill_tx_fifo_sloc0_1_0:
   000D                      65 	.ds 3
                    0010     66 LUART_fill_tx_fifo$sloc1$1$0==.
   0010                      67 _UART_fill_tx_fifo_sloc1_1_0:
   0010                      68 	.ds 3
                    0013     69 LUART_get_rx$sloc0$1$0==.
   0013                      70 _UART_get_rx_sloc0_1_0:
   0013                      71 	.ds 3
                    0016     72 LUART_get_rx$sloc1$1$0==.
   0016                      73 _UART_get_rx_sloc1_1_0:
   0016                      74 	.ds 3
                    0019     75 LUART_polled_tx_string$sloc0$1$0==.
   0019                      76 _UART_polled_tx_string_sloc0_1_0:
   0019                      77 	.ds 2
                    001B     78 LUART_polled_tx_string$sloc1$1$0==.
   001B                      79 _UART_polled_tx_string_sloc1_1_0:
   001B                      80 	.ds 4
                             81 ;--------------------------------------------------------
                             82 ; overlayable items in internal ram 
                             83 ;--------------------------------------------------------
                             84 	.area OSEG    (OVR,DATA)
                             85 ;--------------------------------------------------------
                             86 ; indirectly addressable internal ram data
                             87 ;--------------------------------------------------------
                             88 	.area ISEG    (DATA)
                             89 ;--------------------------------------------------------
                             90 ; absolute internal ram data
                             91 ;--------------------------------------------------------
                             92 	.area IABS    (ABS,DATA)
                             93 	.area IABS    (ABS,DATA)
                             94 ;--------------------------------------------------------
                             95 ; bit data
                             96 ;--------------------------------------------------------
                             97 	.area BSEG    (BIT)
                             98 ;--------------------------------------------------------
                             99 ; paged external ram data
                            100 ;--------------------------------------------------------
                            101 	.area PSEG    (PAG,XDATA)
                            102 ;--------------------------------------------------------
                            103 ; external ram data
                            104 ;--------------------------------------------------------
                            105 	.area XSEG    (XDATA)
                    0000    106 LUART_init$base_addr$1$1==.
   0000                     107 _UART_init_PARM_2:
   0000                     108 	.ds 2
                    0002    109 LUART_init$baud_value$1$1==.
   0002                     110 _UART_init_PARM_3:
   0002                     111 	.ds 2
                    0004    112 LUART_init$line_config$1$1==.
   0004                     113 _UART_init_PARM_4:
   0004                     114 	.ds 1
                    0005    115 LUART_init$this_uart$1$1==.
   0005                     116 _UART_init_this_uart_1_1:
   0005                     117 	.ds 3
                    0008    118 LUART_init$rx_full$1$1==.
   0008                     119 _UART_init_rx_full_1_1:
   0008                     120 	.ds 1
                    0009    121 LUART_init$file_name$3$3==.
   0009                     122 _UART_init_file_name_3_3:
   0009                     123 	.ds 39
                    0030    124 LUART_init$file_name$3$5==.
   0030                     125 _UART_init_file_name_3_5:
   0030                     126 	.ds 39
                    0057    127 LUART_init$file_name$3$7==.
   0057                     128 _UART_init_file_name_3_7:
   0057                     129 	.ds 39
                    007E    130 LUART_init$file_name$5$11==.
   007E                     131 _UART_init_file_name_5_11:
   007E                     132 	.ds 39
                    00A5    133 LUART_init$file_name$5$13==.
   00A5                     134 _UART_init_file_name_5_13:
   00A5                     135 	.ds 39
                    00CC    136 LUART_init$rx_byte$3$14==.
   00CC                     137 _UART_init_rx_byte_3_14:
   00CC                     138 	.ds 1
                    00CD    139 LUART_send$tx_buffer$1$1==.
   00CD                     140 _UART_send_PARM_2:
   00CD                     141 	.ds 3
                    00D0    142 LUART_send$tx_size$1$1==.
   00D0                     143 _UART_send_PARM_3:
   00D0                     144 	.ds 2
                    00D2    145 LUART_send$this_uart$1$1==.
   00D2                     146 _UART_send_this_uart_1_1:
   00D2                     147 	.ds 3
                    00D5    148 LUART_send$char_idx$1$1==.
   00D5                     149 _UART_send_char_idx_1_1:
   00D5                     150 	.ds 2
                    00D7    151 LUART_send$file_name$3$3==.
   00D7                     152 _UART_send_file_name_3_3:
   00D7                     153 	.ds 39
                    00FE    154 LUART_send$file_name$3$5==.
   00FE                     155 _UART_send_file_name_3_5:
   00FE                     156 	.ds 39
                    0125    157 LUART_send$file_name$3$7==.
   0125                     158 _UART_send_file_name_3_7:
   0125                     159 	.ds 39
                    014C    160 LUART_fill_tx_fifo$tx_buffer$1$1==.
   014C                     161 _UART_fill_tx_fifo_PARM_2:
   014C                     162 	.ds 3
                    014F    163 LUART_fill_tx_fifo$tx_size$1$1==.
   014F                     164 _UART_fill_tx_fifo_PARM_3:
   014F                     165 	.ds 2
                    0151    166 LUART_fill_tx_fifo$this_uart$1$1==.
   0151                     167 _UART_fill_tx_fifo_this_uart_1_1:
   0151                     168 	.ds 3
                    0154    169 LUART_fill_tx_fifo$size_sent$1$1==.
   0154                     170 _UART_fill_tx_fifo_size_sent_1_1:
   0154                     171 	.ds 2
                    0156    172 LUART_fill_tx_fifo$file_name$3$3==.
   0156                     173 _UART_fill_tx_fifo_file_name_3_3:
   0156                     174 	.ds 39
                    017D    175 LUART_fill_tx_fifo$file_name$3$5==.
   017D                     176 _UART_fill_tx_fifo_file_name_3_5:
   017D                     177 	.ds 39
                    01A4    178 LUART_fill_tx_fifo$file_name$3$7==.
   01A4                     179 _UART_fill_tx_fifo_file_name_3_7:
   01A4                     180 	.ds 39
                    01CB    181 LUART_get_rx$rx_buffer$1$1==.
   01CB                     182 _UART_get_rx_PARM_2:
   01CB                     183 	.ds 3
                    01CE    184 LUART_get_rx$buff_size$1$1==.
   01CE                     185 _UART_get_rx_PARM_3:
   01CE                     186 	.ds 2
                    01D0    187 LUART_get_rx$this_uart$1$1==.
   01D0                     188 _UART_get_rx_this_uart_1_1:
   01D0                     189 	.ds 3
                    01D3    190 LUART_get_rx$rx_full$1$1==.
   01D3                     191 _UART_get_rx_rx_full_1_1:
   01D3                     192 	.ds 1
                    01D4    193 LUART_get_rx$rx_idx$1$1==.
   01D4                     194 _UART_get_rx_rx_idx_1_1:
   01D4                     195 	.ds 2
                    01D6    196 LUART_get_rx$file_name$3$3==.
   01D6                     197 _UART_get_rx_file_name_3_3:
   01D6                     198 	.ds 39
                    01FD    199 LUART_get_rx$file_name$3$5==.
   01FD                     200 _UART_get_rx_file_name_3_5:
   01FD                     201 	.ds 39
                    0224    202 LUART_get_rx$file_name$3$7==.
   0224                     203 _UART_get_rx_file_name_3_7:
   0224                     204 	.ds 39
                    024B    205 LUART_polled_tx_string$p_sz_string$1$1==.
   024B                     206 _UART_polled_tx_string_PARM_2:
   024B                     207 	.ds 3
                    024E    208 LUART_polled_tx_string$this_uart$1$1==.
   024E                     209 _UART_polled_tx_string_this_uart_1_1:
   024E                     210 	.ds 3
                    0251    211 LUART_polled_tx_string$char_idx$1$1==.
   0251                     212 _UART_polled_tx_string_char_idx_1_1:
   0251                     213 	.ds 4
                    0255    214 LUART_polled_tx_string$file_name$3$3==.
   0255                     215 _UART_polled_tx_string_file_name_3_3:
   0255                     216 	.ds 39
                    027C    217 LUART_polled_tx_string$file_name$3$5==.
   027C                     218 _UART_polled_tx_string_file_name_3_5:
   027C                     219 	.ds 39
                    02A3    220 LUART_get_rx_status$this_uart$1$1==.
   02A3                     221 _UART_get_rx_status_this_uart_1_1:
   02A3                     222 	.ds 3
                    02A6    223 LUART_get_rx_status$status$1$1==.
   02A6                     224 _UART_get_rx_status_status_1_1:
   02A6                     225 	.ds 1
                    02A7    226 LUART_get_rx_status$file_name$3$3==.
   02A7                     227 _UART_get_rx_status_file_name_3_3:
   02A7                     228 	.ds 39
                            229 ;--------------------------------------------------------
                            230 ; external initialized ram data
                            231 ;--------------------------------------------------------
                            232 	.area XISEG   (XDATA)
                            233 	.area HOME    (CODE)
                            234 	.area GSINIT0 (CODE)
                            235 	.area GSINIT1 (CODE)
                            236 	.area GSINIT2 (CODE)
                            237 	.area GSINIT3 (CODE)
                            238 	.area GSINIT4 (CODE)
                            239 	.area GSINIT5 (CODE)
                            240 	.area GSINIT  (CODE)
                            241 	.area GSFINAL (CODE)
                            242 	.area CSEG    (CODE)
                            243 ;--------------------------------------------------------
                            244 ; global & static initialisations
                            245 ;--------------------------------------------------------
                            246 	.area HOME    (CODE)
                            247 	.area GSINIT  (CODE)
                            248 	.area GSFINAL (CODE)
                            249 	.area GSINIT  (CODE)
                            250 ;--------------------------------------------------------
                            251 ; Home
                            252 ;--------------------------------------------------------
                            253 	.area HOME    (CODE)
                            254 	.area HOME    (CODE)
                            255 ;--------------------------------------------------------
                            256 ; code
                            257 ;--------------------------------------------------------
                            258 	.area CSEG    (CODE)
                            259 ;------------------------------------------------------------
                            260 ;Allocation info for local variables in function 'UART_init'
                            261 ;------------------------------------------------------------
                            262 ;sloc0                     Allocated with name '_UART_init_sloc0_1_0'
                            263 ;sloc1                     Allocated with name '_UART_init_sloc1_1_0'
                            264 ;sloc2                     Allocated with name '_UART_init_sloc2_1_0'
                            265 ;sloc3                     Allocated with name '_UART_init_sloc3_1_0'
                            266 ;base_addr                 Allocated with name '_UART_init_PARM_2'
                            267 ;baud_value                Allocated with name '_UART_init_PARM_3'
                            268 ;line_config               Allocated with name '_UART_init_PARM_4'
                            269 ;this_uart                 Allocated with name '_UART_init_this_uart_1_1'
                            270 ;rx_full                   Allocated with name '_UART_init_rx_full_1_1'
                            271 ;file_name                 Allocated with name '_UART_init_file_name_3_3'
                            272 ;file_name                 Allocated with name '_UART_init_file_name_3_5'
                            273 ;file_name                 Allocated with name '_UART_init_file_name_3_7'
                            274 ;config                    Allocated with name '_UART_init_config_3_9'
                            275 ;temp                      Allocated with name '_UART_init_temp_3_9'
                            276 ;baud_val                  Allocated with name '_UART_init_baud_val_3_9'
                            277 ;file_name                 Allocated with name '_UART_init_file_name_5_11'
                            278 ;file_name                 Allocated with name '_UART_init_file_name_5_13'
                            279 ;rx_byte                   Allocated with name '_UART_init_rx_byte_3_14'
                            280 ;------------------------------------------------------------
                    0000    281 	G$UART_init$0$0 ==.
                    0000    282 	C$core_uart_apb.c$38$0$0 ==.
                            283 ;	../drivers/CoreUARTapb/core_uart_apb.c:38: UART_init
                            284 ;	-----------------------------------------
                            285 ;	 function UART_init
                            286 ;	-----------------------------------------
   0000                     287 _UART_init:
                    0002    288 	ar2 = 0x02
                    0003    289 	ar3 = 0x03
                    0004    290 	ar4 = 0x04
                    0005    291 	ar5 = 0x05
                    0006    292 	ar6 = 0x06
                    0007    293 	ar7 = 0x07
                    0000    294 	ar0 = 0x00
                    0001    295 	ar1 = 0x01
                            296 ;	genReceive
   0000 AA F0               297 	mov	r2,b
   0002 AB 83               298 	mov	r3,dph
   0004 E5 82               299 	mov	a,dpl
   0006 90s00r05            300 	mov	dptr,#_UART_init_this_uart_1_1
   0009 F0                  301 	movx	@dptr,a
   000A A3                  302 	inc	dptr
   000B EB                  303 	mov	a,r3
   000C F0                  304 	movx	@dptr,a
   000D A3                  305 	inc	dptr
   000E EA                  306 	mov	a,r2
   000F F0                  307 	movx	@dptr,a
                    0010    308 	C$core_uart_apb.c$48$2$2 ==.
                            309 ;	../drivers/CoreUARTapb/core_uart_apb.c:48: HAL_ASSERT( this_uart != NULL_INSTANCE )
                            310 ;	genAssign
   0010 90s00r05            311 	mov	dptr,#_UART_init_this_uart_1_1
   0013 E0                  312 	movx	a,@dptr
   0014 FA                  313 	mov	r2,a
   0015 A3                  314 	inc	dptr
   0016 E0                  315 	movx	a,@dptr
   0017 FB                  316 	mov	r3,a
   0018 A3                  317 	inc	dptr
   0019 E0                  318 	movx	a,@dptr
   001A FC                  319 	mov	r4,a
                            320 ;	genCmpEq
                            321 ;	gencjneshort
   001B BA 00 08            322 	cjne	r2,#0x00,00145$
   001E BB 00 05            323 	cjne	r3,#0x00,00145$
   0021 BC 00 02            324 	cjne	r4,#0x00,00145$
   0024 80 03               325 	sjmp	00146$
   0026                     326 00145$:
   0026 02s01r2C            327 	ljmp	00104$
   0029                     328 00146$:
                            329 ;	genPointerSet
                            330 ;     genFarPointerSet
   0029 90s00r09            331 	mov	dptr,#_UART_init_file_name_3_3
   002C 74 2E               332 	mov	a,#0x2E
   002E F0                  333 	movx	@dptr,a
                            334 ;	genPointerSet
                            335 ;     genFarPointerSet
   002F 90s00r0A            336 	mov	dptr,#(_UART_init_file_name_3_3 + 0x0001)
   0032 74 2E               337 	mov	a,#0x2E
   0034 F0                  338 	movx	@dptr,a
                            339 ;	genPointerSet
                            340 ;     genFarPointerSet
   0035 90s00r0B            341 	mov	dptr,#(_UART_init_file_name_3_3 + 0x0002)
   0038 74 2F               342 	mov	a,#0x2F
   003A F0                  343 	movx	@dptr,a
                            344 ;	genPointerSet
                            345 ;     genFarPointerSet
   003B 90s00r0C            346 	mov	dptr,#(_UART_init_file_name_3_3 + 0x0003)
   003E 74 64               347 	mov	a,#0x64
   0040 F0                  348 	movx	@dptr,a
                            349 ;	genPointerSet
                            350 ;     genFarPointerSet
   0041 90s00r0D            351 	mov	dptr,#(_UART_init_file_name_3_3 + 0x0004)
   0044 74 72               352 	mov	a,#0x72
   0046 F0                  353 	movx	@dptr,a
                            354 ;	genPointerSet
                            355 ;     genFarPointerSet
   0047 90s00r0E            356 	mov	dptr,#(_UART_init_file_name_3_3 + 0x0005)
   004A 74 69               357 	mov	a,#0x69
   004C F0                  358 	movx	@dptr,a
                            359 ;	genPointerSet
                            360 ;     genFarPointerSet
   004D 90s00r0F            361 	mov	dptr,#(_UART_init_file_name_3_3 + 0x0006)
   0050 74 76               362 	mov	a,#0x76
   0052 F0                  363 	movx	@dptr,a
                            364 ;	genPointerSet
                            365 ;     genFarPointerSet
   0053 90s00r10            366 	mov	dptr,#(_UART_init_file_name_3_3 + 0x0007)
   0056 74 65               367 	mov	a,#0x65
   0058 F0                  368 	movx	@dptr,a
                            369 ;	genPointerSet
                            370 ;     genFarPointerSet
   0059 90s00r11            371 	mov	dptr,#(_UART_init_file_name_3_3 + 0x0008)
   005C 74 72               372 	mov	a,#0x72
   005E F0                  373 	movx	@dptr,a
                            374 ;	genPointerSet
                            375 ;     genFarPointerSet
   005F 90s00r12            376 	mov	dptr,#(_UART_init_file_name_3_3 + 0x0009)
   0062 74 73               377 	mov	a,#0x73
   0064 F0                  378 	movx	@dptr,a
                            379 ;	genPointerSet
                            380 ;     genFarPointerSet
   0065 90s00r13            381 	mov	dptr,#(_UART_init_file_name_3_3 + 0x000a)
   0068 74 2F               382 	mov	a,#0x2F
   006A F0                  383 	movx	@dptr,a
                            384 ;	genPointerSet
                            385 ;     genFarPointerSet
   006B 90s00r14            386 	mov	dptr,#(_UART_init_file_name_3_3 + 0x000b)
   006E 74 43               387 	mov	a,#0x43
   0070 F0                  388 	movx	@dptr,a
                            389 ;	genPointerSet
                            390 ;     genFarPointerSet
   0071 90s00r15            391 	mov	dptr,#(_UART_init_file_name_3_3 + 0x000c)
   0074 74 6F               392 	mov	a,#0x6F
   0076 F0                  393 	movx	@dptr,a
                            394 ;	genPointerSet
                            395 ;     genFarPointerSet
   0077 90s00r16            396 	mov	dptr,#(_UART_init_file_name_3_3 + 0x000d)
   007A 74 72               397 	mov	a,#0x72
   007C F0                  398 	movx	@dptr,a
                            399 ;	genPointerSet
                            400 ;     genFarPointerSet
   007D 90s00r17            401 	mov	dptr,#(_UART_init_file_name_3_3 + 0x000e)
   0080 74 65               402 	mov	a,#0x65
   0082 F0                  403 	movx	@dptr,a
                            404 ;	genPointerSet
                            405 ;     genFarPointerSet
   0083 90s00r18            406 	mov	dptr,#(_UART_init_file_name_3_3 + 0x000f)
   0086 74 55               407 	mov	a,#0x55
   0088 F0                  408 	movx	@dptr,a
                            409 ;	genPointerSet
                            410 ;     genFarPointerSet
   0089 90s00r19            411 	mov	dptr,#(_UART_init_file_name_3_3 + 0x0010)
   008C 74 41               412 	mov	a,#0x41
   008E F0                  413 	movx	@dptr,a
                            414 ;	genPointerSet
                            415 ;     genFarPointerSet
   008F 90s00r1A            416 	mov	dptr,#(_UART_init_file_name_3_3 + 0x0011)
   0092 74 52               417 	mov	a,#0x52
   0094 F0                  418 	movx	@dptr,a
                            419 ;	genPointerSet
                            420 ;     genFarPointerSet
   0095 90s00r1B            421 	mov	dptr,#(_UART_init_file_name_3_3 + 0x0012)
   0098 74 54               422 	mov	a,#0x54
   009A F0                  423 	movx	@dptr,a
                            424 ;	genPointerSet
                            425 ;     genFarPointerSet
   009B 90s00r1C            426 	mov	dptr,#(_UART_init_file_name_3_3 + 0x0013)
   009E 74 61               427 	mov	a,#0x61
   00A0 F0                  428 	movx	@dptr,a
                            429 ;	genPointerSet
                            430 ;     genFarPointerSet
   00A1 90s00r1D            431 	mov	dptr,#(_UART_init_file_name_3_3 + 0x0014)
   00A4 74 70               432 	mov	a,#0x70
   00A6 F0                  433 	movx	@dptr,a
                            434 ;	genPointerSet
                            435 ;     genFarPointerSet
   00A7 90s00r1E            436 	mov	dptr,#(_UART_init_file_name_3_3 + 0x0015)
   00AA 74 62               437 	mov	a,#0x62
   00AC F0                  438 	movx	@dptr,a
                            439 ;	genPointerSet
                            440 ;     genFarPointerSet
   00AD 90s00r1F            441 	mov	dptr,#(_UART_init_file_name_3_3 + 0x0016)
   00B0 74 2F               442 	mov	a,#0x2F
   00B2 F0                  443 	movx	@dptr,a
                            444 ;	genPointerSet
                            445 ;     genFarPointerSet
   00B3 90s00r20            446 	mov	dptr,#(_UART_init_file_name_3_3 + 0x0017)
   00B6 74 63               447 	mov	a,#0x63
   00B8 F0                  448 	movx	@dptr,a
                            449 ;	genPointerSet
                            450 ;     genFarPointerSet
   00B9 90s00r21            451 	mov	dptr,#(_UART_init_file_name_3_3 + 0x0018)
   00BC 74 6F               452 	mov	a,#0x6F
   00BE F0                  453 	movx	@dptr,a
                            454 ;	genPointerSet
                            455 ;     genFarPointerSet
   00BF 90s00r22            456 	mov	dptr,#(_UART_init_file_name_3_3 + 0x0019)
   00C2 74 72               457 	mov	a,#0x72
   00C4 F0                  458 	movx	@dptr,a
                            459 ;	genPointerSet
                            460 ;     genFarPointerSet
   00C5 90s00r23            461 	mov	dptr,#(_UART_init_file_name_3_3 + 0x001a)
   00C8 74 65               462 	mov	a,#0x65
   00CA F0                  463 	movx	@dptr,a
                            464 ;	genPointerSet
                            465 ;     genFarPointerSet
   00CB 90s00r24            466 	mov	dptr,#(_UART_init_file_name_3_3 + 0x001b)
   00CE 74 5F               467 	mov	a,#0x5F
   00D0 F0                  468 	movx	@dptr,a
                            469 ;	genPointerSet
                            470 ;     genFarPointerSet
   00D1 90s00r25            471 	mov	dptr,#(_UART_init_file_name_3_3 + 0x001c)
   00D4 74 75               472 	mov	a,#0x75
   00D6 F0                  473 	movx	@dptr,a
                            474 ;	genPointerSet
                            475 ;     genFarPointerSet
   00D7 90s00r26            476 	mov	dptr,#(_UART_init_file_name_3_3 + 0x001d)
   00DA 74 61               477 	mov	a,#0x61
   00DC F0                  478 	movx	@dptr,a
                            479 ;	genPointerSet
                            480 ;     genFarPointerSet
   00DD 90s00r27            481 	mov	dptr,#(_UART_init_file_name_3_3 + 0x001e)
   00E0 74 72               482 	mov	a,#0x72
   00E2 F0                  483 	movx	@dptr,a
                            484 ;	genPointerSet
                            485 ;     genFarPointerSet
   00E3 90s00r28            486 	mov	dptr,#(_UART_init_file_name_3_3 + 0x001f)
   00E6 74 74               487 	mov	a,#0x74
   00E8 F0                  488 	movx	@dptr,a
                            489 ;	genPointerSet
                            490 ;     genFarPointerSet
   00E9 90s00r29            491 	mov	dptr,#(_UART_init_file_name_3_3 + 0x0020)
   00EC 74 5F               492 	mov	a,#0x5F
   00EE F0                  493 	movx	@dptr,a
                            494 ;	genPointerSet
                            495 ;     genFarPointerSet
   00EF 90s00r2A            496 	mov	dptr,#(_UART_init_file_name_3_3 + 0x0021)
   00F2 74 61               497 	mov	a,#0x61
   00F4 F0                  498 	movx	@dptr,a
                            499 ;	genPointerSet
                            500 ;     genFarPointerSet
   00F5 90s00r2B            501 	mov	dptr,#(_UART_init_file_name_3_3 + 0x0022)
   00F8 74 70               502 	mov	a,#0x70
   00FA F0                  503 	movx	@dptr,a
                            504 ;	genPointerSet
                            505 ;     genFarPointerSet
   00FB 90s00r2C            506 	mov	dptr,#(_UART_init_file_name_3_3 + 0x0023)
   00FE 74 62               507 	mov	a,#0x62
   0100 F0                  508 	movx	@dptr,a
                            509 ;	genPointerSet
                            510 ;     genFarPointerSet
   0101 90s00r2D            511 	mov	dptr,#(_UART_init_file_name_3_3 + 0x0024)
   0104 74 2E               512 	mov	a,#0x2E
   0106 F0                  513 	movx	@dptr,a
                            514 ;	genPointerSet
                            515 ;     genFarPointerSet
   0107 90s00r2E            516 	mov	dptr,#(_UART_init_file_name_3_3 + 0x0025)
   010A 74 63               517 	mov	a,#0x63
   010C F0                  518 	movx	@dptr,a
                            519 ;	genPointerSet
                            520 ;     genFarPointerSet
   010D 90s00r2F            521 	mov	dptr,#(_UART_init_file_name_3_3 + 0x0026)
   0110 74 00               522 	mov	a,#0x00
   0112 F0                  523 	movx	@dptr,a
                            524 ;	genAssign
   0113 90s00r00            525 	mov	dptr,#_HAL_assert_fail_PARM_2
   0116 74 30               526 	mov	a,#0x30
   0118 F0                  527 	movx	@dptr,a
   0119 E4                  528 	clr	a
   011A A3                  529 	inc	dptr
   011B F0                  530 	movx	@dptr,a
   011C A3                  531 	inc	dptr
   011D F0                  532 	movx	@dptr,a
   011E A3                  533 	inc	dptr
   011F F0                  534 	movx	@dptr,a
                            535 ;	genCall
   0120 75 82r09            536 	mov	dpl,#_UART_init_file_name_3_3
   0123 75 83s00            537 	mov	dph,#(_UART_init_file_name_3_3 >> 8)
   0126 75 F0 00            538 	mov	b,#0x00
   0129 12s00r00            539 	lcall	_HAL_assert_fail
   012C                     540 00104$:
                    012C    541 	C$core_uart_apb.c$49$2$4 ==.
                            542 ;	../drivers/CoreUARTapb/core_uart_apb.c:49: HAL_ASSERT( line_config <= MAX_LINE_CONFIG )
                            543 ;	genAssign
   012C 90s00r04            544 	mov	dptr,#_UART_init_PARM_4
   012F E0                  545 	movx	a,@dptr
   0130 F5*00               546 	mov	_UART_init_sloc0_1_0,a
                            547 ;	genCmpGt
                            548 ;	genCmp
   0132 C3                  549 	clr	c
   0133 74 07               550 	mov	a,#0x07
   0135 95*00               551 	subb	a,_UART_init_sloc0_1_0
   0137 E4                  552 	clr	a
   0138 33                  553 	rlc	a
   0139 FB                  554 	mov	r3,a
                            555 ;	genIfx
   013A EB                  556 	mov	a,r3
                            557 ;	genIfxJump
   013B 70 03               558 	jnz	00147$
   013D 02s02r47            559 	ljmp	00109$
   0140                     560 00147$:
                            561 ;	genPointerSet
                            562 ;     genFarPointerSet
   0140 90s00r30            563 	mov	dptr,#_UART_init_file_name_3_5
   0143 74 2E               564 	mov	a,#0x2E
   0145 F0                  565 	movx	@dptr,a
                            566 ;	genPointerSet
                            567 ;     genFarPointerSet
   0146 90s00r31            568 	mov	dptr,#(_UART_init_file_name_3_5 + 0x0001)
   0149 74 2E               569 	mov	a,#0x2E
   014B F0                  570 	movx	@dptr,a
                            571 ;	genPointerSet
                            572 ;     genFarPointerSet
   014C 90s00r32            573 	mov	dptr,#(_UART_init_file_name_3_5 + 0x0002)
   014F 74 2F               574 	mov	a,#0x2F
   0151 F0                  575 	movx	@dptr,a
                            576 ;	genPointerSet
                            577 ;     genFarPointerSet
   0152 90s00r33            578 	mov	dptr,#(_UART_init_file_name_3_5 + 0x0003)
   0155 74 64               579 	mov	a,#0x64
   0157 F0                  580 	movx	@dptr,a
                            581 ;	genPointerSet
                            582 ;     genFarPointerSet
   0158 90s00r34            583 	mov	dptr,#(_UART_init_file_name_3_5 + 0x0004)
   015B 74 72               584 	mov	a,#0x72
   015D F0                  585 	movx	@dptr,a
                            586 ;	genPointerSet
                            587 ;     genFarPointerSet
   015E 90s00r35            588 	mov	dptr,#(_UART_init_file_name_3_5 + 0x0005)
   0161 74 69               589 	mov	a,#0x69
   0163 F0                  590 	movx	@dptr,a
                            591 ;	genPointerSet
                            592 ;     genFarPointerSet
   0164 90s00r36            593 	mov	dptr,#(_UART_init_file_name_3_5 + 0x0006)
   0167 74 76               594 	mov	a,#0x76
   0169 F0                  595 	movx	@dptr,a
                            596 ;	genPointerSet
                            597 ;     genFarPointerSet
   016A 90s00r37            598 	mov	dptr,#(_UART_init_file_name_3_5 + 0x0007)
   016D 74 65               599 	mov	a,#0x65
   016F F0                  600 	movx	@dptr,a
                            601 ;	genPointerSet
                            602 ;     genFarPointerSet
   0170 90s00r38            603 	mov	dptr,#(_UART_init_file_name_3_5 + 0x0008)
   0173 74 72               604 	mov	a,#0x72
   0175 F0                  605 	movx	@dptr,a
                            606 ;	genPointerSet
                            607 ;     genFarPointerSet
   0176 90s00r39            608 	mov	dptr,#(_UART_init_file_name_3_5 + 0x0009)
   0179 74 73               609 	mov	a,#0x73
   017B F0                  610 	movx	@dptr,a
                            611 ;	genPointerSet
                            612 ;     genFarPointerSet
   017C 90s00r3A            613 	mov	dptr,#(_UART_init_file_name_3_5 + 0x000a)
   017F 74 2F               614 	mov	a,#0x2F
   0181 F0                  615 	movx	@dptr,a
                            616 ;	genPointerSet
                            617 ;     genFarPointerSet
   0182 90s00r3B            618 	mov	dptr,#(_UART_init_file_name_3_5 + 0x000b)
   0185 74 43               619 	mov	a,#0x43
   0187 F0                  620 	movx	@dptr,a
                            621 ;	genPointerSet
                            622 ;     genFarPointerSet
   0188 90s00r3C            623 	mov	dptr,#(_UART_init_file_name_3_5 + 0x000c)
   018B 74 6F               624 	mov	a,#0x6F
   018D F0                  625 	movx	@dptr,a
                            626 ;	genPointerSet
                            627 ;     genFarPointerSet
   018E 90s00r3D            628 	mov	dptr,#(_UART_init_file_name_3_5 + 0x000d)
   0191 74 72               629 	mov	a,#0x72
   0193 F0                  630 	movx	@dptr,a
                            631 ;	genPointerSet
                            632 ;     genFarPointerSet
   0194 90s00r3E            633 	mov	dptr,#(_UART_init_file_name_3_5 + 0x000e)
   0197 74 65               634 	mov	a,#0x65
   0199 F0                  635 	movx	@dptr,a
                            636 ;	genPointerSet
                            637 ;     genFarPointerSet
   019A 90s00r3F            638 	mov	dptr,#(_UART_init_file_name_3_5 + 0x000f)
   019D 74 55               639 	mov	a,#0x55
   019F F0                  640 	movx	@dptr,a
                            641 ;	genPointerSet
                            642 ;     genFarPointerSet
   01A0 90s00r40            643 	mov	dptr,#(_UART_init_file_name_3_5 + 0x0010)
   01A3 74 41               644 	mov	a,#0x41
   01A5 F0                  645 	movx	@dptr,a
                            646 ;	genPointerSet
                            647 ;     genFarPointerSet
   01A6 90s00r41            648 	mov	dptr,#(_UART_init_file_name_3_5 + 0x0011)
   01A9 74 52               649 	mov	a,#0x52
   01AB F0                  650 	movx	@dptr,a
                            651 ;	genPointerSet
                            652 ;     genFarPointerSet
   01AC 90s00r42            653 	mov	dptr,#(_UART_init_file_name_3_5 + 0x0012)
   01AF 74 54               654 	mov	a,#0x54
   01B1 F0                  655 	movx	@dptr,a
                            656 ;	genPointerSet
                            657 ;     genFarPointerSet
   01B2 90s00r43            658 	mov	dptr,#(_UART_init_file_name_3_5 + 0x0013)
   01B5 74 61               659 	mov	a,#0x61
   01B7 F0                  660 	movx	@dptr,a
                            661 ;	genPointerSet
                            662 ;     genFarPointerSet
   01B8 90s00r44            663 	mov	dptr,#(_UART_init_file_name_3_5 + 0x0014)
   01BB 74 70               664 	mov	a,#0x70
   01BD F0                  665 	movx	@dptr,a
                            666 ;	genPointerSet
                            667 ;     genFarPointerSet
   01BE 90s00r45            668 	mov	dptr,#(_UART_init_file_name_3_5 + 0x0015)
   01C1 74 62               669 	mov	a,#0x62
   01C3 F0                  670 	movx	@dptr,a
                            671 ;	genPointerSet
                            672 ;     genFarPointerSet
   01C4 90s00r46            673 	mov	dptr,#(_UART_init_file_name_3_5 + 0x0016)
   01C7 74 2F               674 	mov	a,#0x2F
   01C9 F0                  675 	movx	@dptr,a
                            676 ;	genPointerSet
                            677 ;     genFarPointerSet
   01CA 90s00r47            678 	mov	dptr,#(_UART_init_file_name_3_5 + 0x0017)
   01CD 74 63               679 	mov	a,#0x63
   01CF F0                  680 	movx	@dptr,a
                            681 ;	genPointerSet
                            682 ;     genFarPointerSet
   01D0 90s00r48            683 	mov	dptr,#(_UART_init_file_name_3_5 + 0x0018)
   01D3 74 6F               684 	mov	a,#0x6F
   01D5 F0                  685 	movx	@dptr,a
                            686 ;	genPointerSet
                            687 ;     genFarPointerSet
   01D6 90s00r49            688 	mov	dptr,#(_UART_init_file_name_3_5 + 0x0019)
   01D9 74 72               689 	mov	a,#0x72
   01DB F0                  690 	movx	@dptr,a
                            691 ;	genPointerSet
                            692 ;     genFarPointerSet
   01DC 90s00r4A            693 	mov	dptr,#(_UART_init_file_name_3_5 + 0x001a)
   01DF 74 65               694 	mov	a,#0x65
   01E1 F0                  695 	movx	@dptr,a
                            696 ;	genPointerSet
                            697 ;     genFarPointerSet
   01E2 90s00r4B            698 	mov	dptr,#(_UART_init_file_name_3_5 + 0x001b)
   01E5 74 5F               699 	mov	a,#0x5F
   01E7 F0                  700 	movx	@dptr,a
                            701 ;	genPointerSet
                            702 ;     genFarPointerSet
   01E8 90s00r4C            703 	mov	dptr,#(_UART_init_file_name_3_5 + 0x001c)
   01EB 74 75               704 	mov	a,#0x75
   01ED F0                  705 	movx	@dptr,a
                            706 ;	genPointerSet
                            707 ;     genFarPointerSet
   01EE 90s00r4D            708 	mov	dptr,#(_UART_init_file_name_3_5 + 0x001d)
   01F1 74 61               709 	mov	a,#0x61
   01F3 F0                  710 	movx	@dptr,a
                            711 ;	genPointerSet
                            712 ;     genFarPointerSet
   01F4 90s00r4E            713 	mov	dptr,#(_UART_init_file_name_3_5 + 0x001e)
   01F7 74 72               714 	mov	a,#0x72
   01F9 F0                  715 	movx	@dptr,a
                            716 ;	genPointerSet
                            717 ;     genFarPointerSet
   01FA 90s00r4F            718 	mov	dptr,#(_UART_init_file_name_3_5 + 0x001f)
   01FD 74 74               719 	mov	a,#0x74
   01FF F0                  720 	movx	@dptr,a
                            721 ;	genPointerSet
                            722 ;     genFarPointerSet
   0200 90s00r50            723 	mov	dptr,#(_UART_init_file_name_3_5 + 0x0020)
   0203 74 5F               724 	mov	a,#0x5F
   0205 F0                  725 	movx	@dptr,a
                            726 ;	genPointerSet
                            727 ;     genFarPointerSet
   0206 90s00r51            728 	mov	dptr,#(_UART_init_file_name_3_5 + 0x0021)
   0209 74 61               729 	mov	a,#0x61
   020B F0                  730 	movx	@dptr,a
                            731 ;	genPointerSet
                            732 ;     genFarPointerSet
   020C 90s00r52            733 	mov	dptr,#(_UART_init_file_name_3_5 + 0x0022)
   020F 74 70               734 	mov	a,#0x70
   0211 F0                  735 	movx	@dptr,a
                            736 ;	genPointerSet
                            737 ;     genFarPointerSet
   0212 90s00r53            738 	mov	dptr,#(_UART_init_file_name_3_5 + 0x0023)
   0215 74 62               739 	mov	a,#0x62
   0217 F0                  740 	movx	@dptr,a
                            741 ;	genPointerSet
                            742 ;     genFarPointerSet
   0218 90s00r54            743 	mov	dptr,#(_UART_init_file_name_3_5 + 0x0024)
   021B 74 2E               744 	mov	a,#0x2E
   021D F0                  745 	movx	@dptr,a
                            746 ;	genPointerSet
                            747 ;     genFarPointerSet
   021E 90s00r55            748 	mov	dptr,#(_UART_init_file_name_3_5 + 0x0025)
   0221 74 63               749 	mov	a,#0x63
   0223 F0                  750 	movx	@dptr,a
                            751 ;	genPointerSet
                            752 ;     genFarPointerSet
   0224 90s00r56            753 	mov	dptr,#(_UART_init_file_name_3_5 + 0x0026)
   0227 74 00               754 	mov	a,#0x00
   0229 F0                  755 	movx	@dptr,a
                            756 ;	genAssign
   022A 90s00r00            757 	mov	dptr,#_HAL_assert_fail_PARM_2
   022D 74 31               758 	mov	a,#0x31
   022F F0                  759 	movx	@dptr,a
   0230 E4                  760 	clr	a
   0231 A3                  761 	inc	dptr
   0232 F0                  762 	movx	@dptr,a
   0233 A3                  763 	inc	dptr
   0234 F0                  764 	movx	@dptr,a
   0235 A3                  765 	inc	dptr
   0236 F0                  766 	movx	@dptr,a
                            767 ;	genCall
   0237 75 82r30            768 	mov	dpl,#_UART_init_file_name_3_5
   023A 75 83s00            769 	mov	dph,#(_UART_init_file_name_3_5 >> 8)
   023D 75 F0 00            770 	mov	b,#0x00
   0240 C0 03               771 	push	ar3
   0242 12s00r00            772 	lcall	_HAL_assert_fail
   0245 D0 03               773 	pop	ar3
   0247                     774 00109$:
                    0247    775 	C$core_uart_apb.c$50$2$6 ==.
                            776 ;	../drivers/CoreUARTapb/core_uart_apb.c:50: HAL_ASSERT( baud_value <= MAX_BAUD_VALUE )
                            777 ;	genAssign
   0247 90s00r02            778 	mov	dptr,#_UART_init_PARM_3
   024A E0                  779 	movx	a,@dptr
   024B FC                  780 	mov	r4,a
   024C A3                  781 	inc	dptr
   024D E0                  782 	movx	a,@dptr
   024E FD                  783 	mov	r5,a
                            784 ;	genCmpGt
                            785 ;	genCmp
   024F C3                  786 	clr	c
   0250 74 FF               787 	mov	a,#0xFF
   0252 9C                  788 	subb	a,r4
   0253 74 1F               789 	mov	a,#0x1F
   0255 9D                  790 	subb	a,r5
   0256 E4                  791 	clr	a
   0257 33                  792 	rlc	a
   0258 FE                  793 	mov	r6,a
                            794 ;	genIfx
   0259 EE                  795 	mov	a,r6
                            796 ;	genIfxJump
   025A 70 03               797 	jnz	00148$
   025C 02s03r72            798 	ljmp	00114$
   025F                     799 00148$:
                            800 ;	genPointerSet
                            801 ;     genFarPointerSet
   025F 90s00r57            802 	mov	dptr,#_UART_init_file_name_3_7
   0262 74 2E               803 	mov	a,#0x2E
   0264 F0                  804 	movx	@dptr,a
                            805 ;	genPointerSet
                            806 ;     genFarPointerSet
   0265 90s00r58            807 	mov	dptr,#(_UART_init_file_name_3_7 + 0x0001)
   0268 74 2E               808 	mov	a,#0x2E
   026A F0                  809 	movx	@dptr,a
                            810 ;	genPointerSet
                            811 ;     genFarPointerSet
   026B 90s00r59            812 	mov	dptr,#(_UART_init_file_name_3_7 + 0x0002)
   026E 74 2F               813 	mov	a,#0x2F
   0270 F0                  814 	movx	@dptr,a
                            815 ;	genPointerSet
                            816 ;     genFarPointerSet
   0271 90s00r5A            817 	mov	dptr,#(_UART_init_file_name_3_7 + 0x0003)
   0274 74 64               818 	mov	a,#0x64
   0276 F0                  819 	movx	@dptr,a
                            820 ;	genPointerSet
                            821 ;     genFarPointerSet
   0277 90s00r5B            822 	mov	dptr,#(_UART_init_file_name_3_7 + 0x0004)
   027A 74 72               823 	mov	a,#0x72
   027C F0                  824 	movx	@dptr,a
                            825 ;	genPointerSet
                            826 ;     genFarPointerSet
   027D 90s00r5C            827 	mov	dptr,#(_UART_init_file_name_3_7 + 0x0005)
   0280 74 69               828 	mov	a,#0x69
   0282 F0                  829 	movx	@dptr,a
                            830 ;	genPointerSet
                            831 ;     genFarPointerSet
   0283 90s00r5D            832 	mov	dptr,#(_UART_init_file_name_3_7 + 0x0006)
   0286 74 76               833 	mov	a,#0x76
   0288 F0                  834 	movx	@dptr,a
                            835 ;	genPointerSet
                            836 ;     genFarPointerSet
   0289 90s00r5E            837 	mov	dptr,#(_UART_init_file_name_3_7 + 0x0007)
   028C 74 65               838 	mov	a,#0x65
   028E F0                  839 	movx	@dptr,a
                            840 ;	genPointerSet
                            841 ;     genFarPointerSet
   028F 90s00r5F            842 	mov	dptr,#(_UART_init_file_name_3_7 + 0x0008)
   0292 74 72               843 	mov	a,#0x72
   0294 F0                  844 	movx	@dptr,a
                            845 ;	genPointerSet
                            846 ;     genFarPointerSet
   0295 90s00r60            847 	mov	dptr,#(_UART_init_file_name_3_7 + 0x0009)
   0298 74 73               848 	mov	a,#0x73
   029A F0                  849 	movx	@dptr,a
                            850 ;	genPointerSet
                            851 ;     genFarPointerSet
   029B 90s00r61            852 	mov	dptr,#(_UART_init_file_name_3_7 + 0x000a)
   029E 74 2F               853 	mov	a,#0x2F
   02A0 F0                  854 	movx	@dptr,a
                            855 ;	genPointerSet
                            856 ;     genFarPointerSet
   02A1 90s00r62            857 	mov	dptr,#(_UART_init_file_name_3_7 + 0x000b)
   02A4 74 43               858 	mov	a,#0x43
   02A6 F0                  859 	movx	@dptr,a
                            860 ;	genPointerSet
                            861 ;     genFarPointerSet
   02A7 90s00r63            862 	mov	dptr,#(_UART_init_file_name_3_7 + 0x000c)
   02AA 74 6F               863 	mov	a,#0x6F
   02AC F0                  864 	movx	@dptr,a
                            865 ;	genPointerSet
                            866 ;     genFarPointerSet
   02AD 90s00r64            867 	mov	dptr,#(_UART_init_file_name_3_7 + 0x000d)
   02B0 74 72               868 	mov	a,#0x72
   02B2 F0                  869 	movx	@dptr,a
                            870 ;	genPointerSet
                            871 ;     genFarPointerSet
   02B3 90s00r65            872 	mov	dptr,#(_UART_init_file_name_3_7 + 0x000e)
   02B6 74 65               873 	mov	a,#0x65
   02B8 F0                  874 	movx	@dptr,a
                            875 ;	genPointerSet
                            876 ;     genFarPointerSet
   02B9 90s00r66            877 	mov	dptr,#(_UART_init_file_name_3_7 + 0x000f)
   02BC 74 55               878 	mov	a,#0x55
   02BE F0                  879 	movx	@dptr,a
                            880 ;	genPointerSet
                            881 ;     genFarPointerSet
   02BF 90s00r67            882 	mov	dptr,#(_UART_init_file_name_3_7 + 0x0010)
   02C2 74 41               883 	mov	a,#0x41
   02C4 F0                  884 	movx	@dptr,a
                            885 ;	genPointerSet
                            886 ;     genFarPointerSet
   02C5 90s00r68            887 	mov	dptr,#(_UART_init_file_name_3_7 + 0x0011)
   02C8 74 52               888 	mov	a,#0x52
   02CA F0                  889 	movx	@dptr,a
                            890 ;	genPointerSet
                            891 ;     genFarPointerSet
   02CB 90s00r69            892 	mov	dptr,#(_UART_init_file_name_3_7 + 0x0012)
   02CE 74 54               893 	mov	a,#0x54
   02D0 F0                  894 	movx	@dptr,a
                            895 ;	genPointerSet
                            896 ;     genFarPointerSet
   02D1 90s00r6A            897 	mov	dptr,#(_UART_init_file_name_3_7 + 0x0013)
   02D4 74 61               898 	mov	a,#0x61
   02D6 F0                  899 	movx	@dptr,a
                            900 ;	genPointerSet
                            901 ;     genFarPointerSet
   02D7 90s00r6B            902 	mov	dptr,#(_UART_init_file_name_3_7 + 0x0014)
   02DA 74 70               903 	mov	a,#0x70
   02DC F0                  904 	movx	@dptr,a
                            905 ;	genPointerSet
                            906 ;     genFarPointerSet
   02DD 90s00r6C            907 	mov	dptr,#(_UART_init_file_name_3_7 + 0x0015)
   02E0 74 62               908 	mov	a,#0x62
   02E2 F0                  909 	movx	@dptr,a
                            910 ;	genPointerSet
                            911 ;     genFarPointerSet
   02E3 90s00r6D            912 	mov	dptr,#(_UART_init_file_name_3_7 + 0x0016)
   02E6 74 2F               913 	mov	a,#0x2F
   02E8 F0                  914 	movx	@dptr,a
                            915 ;	genPointerSet
                            916 ;     genFarPointerSet
   02E9 90s00r6E            917 	mov	dptr,#(_UART_init_file_name_3_7 + 0x0017)
   02EC 74 63               918 	mov	a,#0x63
   02EE F0                  919 	movx	@dptr,a
                            920 ;	genPointerSet
                            921 ;     genFarPointerSet
   02EF 90s00r6F            922 	mov	dptr,#(_UART_init_file_name_3_7 + 0x0018)
   02F2 74 6F               923 	mov	a,#0x6F
   02F4 F0                  924 	movx	@dptr,a
                            925 ;	genPointerSet
                            926 ;     genFarPointerSet
   02F5 90s00r70            927 	mov	dptr,#(_UART_init_file_name_3_7 + 0x0019)
   02F8 74 72               928 	mov	a,#0x72
   02FA F0                  929 	movx	@dptr,a
                            930 ;	genPointerSet
                            931 ;     genFarPointerSet
   02FB 90s00r71            932 	mov	dptr,#(_UART_init_file_name_3_7 + 0x001a)
   02FE 74 65               933 	mov	a,#0x65
   0300 F0                  934 	movx	@dptr,a
                            935 ;	genPointerSet
                            936 ;     genFarPointerSet
   0301 90s00r72            937 	mov	dptr,#(_UART_init_file_name_3_7 + 0x001b)
   0304 74 5F               938 	mov	a,#0x5F
   0306 F0                  939 	movx	@dptr,a
                            940 ;	genPointerSet
                            941 ;     genFarPointerSet
   0307 90s00r73            942 	mov	dptr,#(_UART_init_file_name_3_7 + 0x001c)
   030A 74 75               943 	mov	a,#0x75
   030C F0                  944 	movx	@dptr,a
                            945 ;	genPointerSet
                            946 ;     genFarPointerSet
   030D 90s00r74            947 	mov	dptr,#(_UART_init_file_name_3_7 + 0x001d)
   0310 74 61               948 	mov	a,#0x61
   0312 F0                  949 	movx	@dptr,a
                            950 ;	genPointerSet
                            951 ;     genFarPointerSet
   0313 90s00r75            952 	mov	dptr,#(_UART_init_file_name_3_7 + 0x001e)
   0316 74 72               953 	mov	a,#0x72
   0318 F0                  954 	movx	@dptr,a
                            955 ;	genPointerSet
                            956 ;     genFarPointerSet
   0319 90s00r76            957 	mov	dptr,#(_UART_init_file_name_3_7 + 0x001f)
   031C 74 74               958 	mov	a,#0x74
   031E F0                  959 	movx	@dptr,a
                            960 ;	genPointerSet
                            961 ;     genFarPointerSet
   031F 90s00r77            962 	mov	dptr,#(_UART_init_file_name_3_7 + 0x0020)
   0322 74 5F               963 	mov	a,#0x5F
   0324 F0                  964 	movx	@dptr,a
                            965 ;	genPointerSet
                            966 ;     genFarPointerSet
   0325 90s00r78            967 	mov	dptr,#(_UART_init_file_name_3_7 + 0x0021)
   0328 74 61               968 	mov	a,#0x61
   032A F0                  969 	movx	@dptr,a
                            970 ;	genPointerSet
                            971 ;     genFarPointerSet
   032B 90s00r79            972 	mov	dptr,#(_UART_init_file_name_3_7 + 0x0022)
   032E 74 70               973 	mov	a,#0x70
   0330 F0                  974 	movx	@dptr,a
                            975 ;	genPointerSet
                            976 ;     genFarPointerSet
   0331 90s00r7A            977 	mov	dptr,#(_UART_init_file_name_3_7 + 0x0023)
   0334 74 62               978 	mov	a,#0x62
   0336 F0                  979 	movx	@dptr,a
                            980 ;	genPointerSet
                            981 ;     genFarPointerSet
   0337 90s00r7B            982 	mov	dptr,#(_UART_init_file_name_3_7 + 0x0024)
   033A 74 2E               983 	mov	a,#0x2E
   033C F0                  984 	movx	@dptr,a
                            985 ;	genPointerSet
                            986 ;     genFarPointerSet
   033D 90s00r7C            987 	mov	dptr,#(_UART_init_file_name_3_7 + 0x0025)
   0340 74 63               988 	mov	a,#0x63
   0342 F0                  989 	movx	@dptr,a
                            990 ;	genPointerSet
                            991 ;     genFarPointerSet
   0343 90s00r7D            992 	mov	dptr,#(_UART_init_file_name_3_7 + 0x0026)
   0346 74 00               993 	mov	a,#0x00
   0348 F0                  994 	movx	@dptr,a
                            995 ;	genAssign
   0349 90s00r00            996 	mov	dptr,#_HAL_assert_fail_PARM_2
   034C 74 32               997 	mov	a,#0x32
   034E F0                  998 	movx	@dptr,a
   034F E4                  999 	clr	a
   0350 A3                 1000 	inc	dptr
   0351 F0                 1001 	movx	@dptr,a
   0352 A3                 1002 	inc	dptr
   0353 F0                 1003 	movx	@dptr,a
   0354 A3                 1004 	inc	dptr
   0355 F0                 1005 	movx	@dptr,a
                           1006 ;	genCall
   0356 75 82r57           1007 	mov	dpl,#_UART_init_file_name_3_7
   0359 75 83s00           1008 	mov	dph,#(_UART_init_file_name_3_7 >> 8)
   035C 75 F0 00           1009 	mov	b,#0x00
   035F C0 03              1010 	push	ar3
   0361 C0 04              1011 	push	ar4
   0363 C0 05              1012 	push	ar5
   0365 C0 06              1013 	push	ar6
   0367 12s00r00           1014 	lcall	_HAL_assert_fail
   036A D0 06              1015 	pop	ar6
   036C D0 05              1016 	pop	ar5
   036E D0 04              1017 	pop	ar4
   0370 D0 03              1018 	pop	ar3
   0372                    1019 00114$:
                    0372   1020 	C$core_uart_apb.c$52$1$1 ==.
                           1021 ;	../drivers/CoreUARTapb/core_uart_apb.c:52: if( ( this_uart != NULL_INSTANCE ) &&
                           1022 ;	genAssign
   0372 90s00r05           1023 	mov	dptr,#_UART_init_this_uart_1_1
   0375 E0                 1024 	movx	a,@dptr
   0376 FF                 1025 	mov	r7,a
   0377 A3                 1026 	inc	dptr
   0378 E0                 1027 	movx	a,@dptr
   0379 F8                 1028 	mov	r0,a
   037A A3                 1029 	inc	dptr
   037B E0                 1030 	movx	a,@dptr
   037C F9                 1031 	mov	r1,a
                           1032 ;	genCmpEq
                           1033 ;	gencjneshort
   037D BF 00 09           1034 	cjne	r7,#0x00,00149$
   0380 B8 00 06           1035 	cjne	r0,#0x00,00149$
   0383 B9 00 03           1036 	cjne	r1,#0x00,00149$
   0386 02s07r93           1037 	ljmp	00133$
   0389                    1038 00149$:
                    0389   1039 	C$core_uart_apb.c$53$1$1 ==.
                           1040 ;	../drivers/CoreUARTapb/core_uart_apb.c:53: ( line_config <= MAX_LINE_CONFIG ) &&
                           1041 ;	genIfx
   0389 EB                 1042 	mov	a,r3
                           1043 ;	genIfxJump
   038A 60 03              1044 	jz	00150$
   038C 02s07r93           1045 	ljmp	00133$
   038F                    1046 00150$:
                    038F   1047 	C$core_uart_apb.c$54$1$1 ==.
                           1048 ;	../drivers/CoreUARTapb/core_uart_apb.c:54: ( baud_value <= MAX_BAUD_VALUE ) )
                           1049 ;	genIfx
   038F EE                 1050 	mov	a,r6
                           1051 ;	genIfxJump
   0390 60 03              1052 	jz	00151$
   0392 02s07r93           1053 	ljmp	00133$
   0395                    1054 00151$:
                    0395   1055 	C$core_uart_apb.c$59$2$8 ==.
                           1056 ;	../drivers/CoreUARTapb/core_uart_apb.c:59: HAL_set_8bit_reg( base_addr, CTRL1, (uint_fast8_t)(baud_value &
                           1057 ;	genAssign
   0395 90s00r00           1058 	mov	dptr,#_UART_init_PARM_2
   0398 E0                 1059 	movx	a,@dptr
   0399 F5*01              1060 	mov	_UART_init_sloc1_1_0,a
   039B A3                 1061 	inc	dptr
   039C E0                 1062 	movx	a,@dptr
   039D F5*02              1063 	mov	(_UART_init_sloc1_1_0 + 1),a
                           1064 ;	genPlus
                           1065 ;	genPlusIncr
   039F 74 08              1066 	mov	a,#0x08
   03A1 25*01              1067 	add	a,_UART_init_sloc1_1_0
   03A3 F5*03              1068 	mov	_UART_init_sloc2_1_0,a
   03A5 74 00              1069 	mov	a,#0x00
   03A7 35*02              1070 	addc	a,(_UART_init_sloc1_1_0 + 1)
   03A9 F5*04              1071 	mov	(_UART_init_sloc2_1_0 + 1),a
                           1072 ;	genAnd
   03AB 8C 06              1073 	mov	ar6,r4
   03AD 7A 00              1074 	mov	r2,#0x00
                           1075 ;	genCast
   03AF 90s00r00           1076 	mov	dptr,#_HW_set_8bit_reg_PARM_2
   03B2 EE                 1077 	mov	a,r6
   03B3 F0                 1078 	movx	@dptr,a
                           1079 ;	genCall
   03B4 85*03 82           1080 	mov	dpl,_UART_init_sloc2_1_0
   03B7 85*04 83           1081 	mov	dph,(_UART_init_sloc2_1_0 + 1)
   03BA C0 04              1082 	push	ar4
   03BC C0 05              1083 	push	ar5
   03BE C0 07              1084 	push	ar7
   03C0 C0 00              1085 	push	ar0
   03C2 C0 01              1086 	push	ar1
   03C4 12s00r00           1087 	lcall	_HW_set_8bit_reg
   03C7 D0 01              1088 	pop	ar1
   03C9 D0 00              1089 	pop	ar0
   03CB D0 07              1090 	pop	ar7
   03CD D0 05              1091 	pop	ar5
   03CF D0 04              1092 	pop	ar4
                    03D1   1093 	C$core_uart_apb.c$66$2$8 ==.
                           1094 ;	../drivers/CoreUARTapb/core_uart_apb.c:66: HAL_set_8bit_reg( base_addr, CTRL2, (uint_fast8_t)line_config | 
                           1095 ;	genPlus
                           1096 ;	genPlusIncr
   03D1 74 0C              1097 	mov	a,#0x0C
   03D3 25*01              1098 	add	a,_UART_init_sloc1_1_0
   03D5 F5*05              1099 	mov	_UART_init_sloc3_1_0,a
   03D7 74 00              1100 	mov	a,#0x00
   03D9 35*02              1101 	addc	a,(_UART_init_sloc1_1_0 + 1)
   03DB F5*06              1102 	mov	(_UART_init_sloc3_1_0 + 1),a
                           1103 ;	genAnd
   03DD 7E 00              1104 	mov	r6,#0x00
   03DF 8D 02              1105 	mov	ar2,r5
                           1106 ;	genRightShift
                           1107 ;	genRightShiftLiteral
                           1108 ;	genrshTwo
   03E1 EA                 1109 	mov	a,r2
   03E2 C4                 1110 	swap	a
   03E3 03                 1111 	rr	a
   03E4 CE                 1112 	xch	a,r6
   03E5 C4                 1113 	swap	a
   03E6 03                 1114 	rr	a
   03E7 54 07              1115 	anl	a,#0x07
   03E9 6E                 1116 	xrl	a,r6
   03EA CE                 1117 	xch	a,r6
   03EB 54 07              1118 	anl	a,#0x07
   03ED CE                 1119 	xch	a,r6
   03EE 6E                 1120 	xrl	a,r6
   03EF CE                 1121 	xch	a,r6
   03F0 FA                 1122 	mov	r2,a
                           1123 ;	genCast
                           1124 ;	genOr
   03F1 90s00r00           1125 	mov	dptr,#_HW_set_8bit_reg_PARM_2
   03F4 EE                 1126 	mov	a,r6
   03F5 45*00              1127 	orl	a,_UART_init_sloc0_1_0
   03F7 F0                 1128 	movx	@dptr,a
                           1129 ;	genCall
   03F8 85*05 82           1130 	mov	dpl,_UART_init_sloc3_1_0
   03FB 85*06 83           1131 	mov	dph,(_UART_init_sloc3_1_0 + 1)
   03FE C0 04              1132 	push	ar4
   0400 C0 05              1133 	push	ar5
   0402 C0 07              1134 	push	ar7
   0404 C0 00              1135 	push	ar0
   0406 C0 01              1136 	push	ar1
   0408 12s00r00           1137 	lcall	_HW_set_8bit_reg
   040B D0 01              1138 	pop	ar1
   040D D0 00              1139 	pop	ar0
   040F D0 07              1140 	pop	ar7
   0411 D0 05              1141 	pop	ar5
   0413 D0 04              1142 	pop	ar4
                    0415   1143 	C$core_uart_apb.c$70$2$8 ==.
                           1144 ;	../drivers/CoreUARTapb/core_uart_apb.c:70: this_uart->base_address = base_addr;
                           1145 ;	genPointerSet
                           1146 ;	genGenPointerSet
   0415 8F 82              1147 	mov	dpl,r7
   0417 88 83              1148 	mov	dph,r0
   0419 89 F0              1149 	mov	b,r1
   041B E5*01              1150 	mov	a,_UART_init_sloc1_1_0
   041D 12s00r00           1151 	lcall	__gptrput
   0420 A3                 1152 	inc	dptr
   0421 E5*02              1153 	mov	a,(_UART_init_sloc1_1_0 + 1)
   0423 12s00r00           1154 	lcall	__gptrput
                    0426   1155 	C$core_uart_apb.c$76$3$9 ==.
                           1156 ;	../drivers/CoreUARTapb/core_uart_apb.c:76: baud_val = HAL_get_8bit_reg( this_uart->base_address, CTRL1 );
                           1157 ;	genCall
   0426 85*03 82           1158 	mov	dpl,_UART_init_sloc2_1_0
   0429 85*04 83           1159 	mov	dph,(_UART_init_sloc2_1_0 + 1)
   042C C0 04              1160 	push	ar4
   042E C0 05              1161 	push	ar5
   0430 C0 07              1162 	push	ar7
   0432 C0 00              1163 	push	ar0
   0434 C0 01              1164 	push	ar1
   0436 12s00r00           1165 	lcall	_HW_get_8bit_reg
   0439 AA 82              1166 	mov	r2,dpl
   043B D0 01              1167 	pop	ar1
   043D D0 00              1168 	pop	ar0
   043F D0 07              1169 	pop	ar7
   0441 D0 05              1170 	pop	ar5
   0443 D0 04              1171 	pop	ar4
                           1172 ;	genCast
   0445 7B 00              1173 	mov	r3,#0x00
                    0447   1174 	C$core_uart_apb.c$77$3$9 ==.
                           1175 ;	../drivers/CoreUARTapb/core_uart_apb.c:77: config =  HAL_get_8bit_reg( this_uart->base_address, CTRL2 );
                           1176 ;	genPointerGet
                           1177 ;	genGenPointerGet
   0447 8F 82              1178 	mov	dpl,r7
   0449 88 83              1179 	mov	dph,r0
   044B 89 F0              1180 	mov	b,r1
   044D 12s00r00           1181 	lcall	__gptrget
   0450 FF                 1182 	mov	r7,a
   0451 A3                 1183 	inc	dptr
   0452 12s00r00           1184 	lcall	__gptrget
   0455 F8                 1185 	mov	r0,a
                           1186 ;	genPlus
                           1187 ;	genPlusIncr
   0456 74 0C              1188 	mov	a,#0x0C
   0458 25 07              1189 	add	a,ar7
   045A FF                 1190 	mov	r7,a
   045B 74 00              1191 	mov	a,#0x00
   045D 35 00              1192 	addc	a,ar0
   045F F8                 1193 	mov	r0,a
                           1194 ;	genCall
   0460 8F 82              1195 	mov	dpl,r7
   0462 88 83              1196 	mov	dph,r0
   0464 C0 02              1197 	push	ar2
   0466 C0 03              1198 	push	ar3
   0468 C0 04              1199 	push	ar4
   046A C0 05              1200 	push	ar5
   046C 12s00r00           1201 	lcall	_HW_get_8bit_reg
   046F AE 82              1202 	mov	r6,dpl
   0471 D0 05              1203 	pop	ar5
   0473 D0 04              1204 	pop	ar4
   0475 D0 03              1205 	pop	ar3
   0477 D0 02              1206 	pop	ar2
                    0479   1207 	C$core_uart_apb.c$81$3$9 ==.
                           1208 ;	../drivers/CoreUARTapb/core_uart_apb.c:81: temp =  ( config  &  (uint8_t)(CTRL2_BAUDVALUE_MASK ) );
                           1209 ;	genAnd
   0479 74 F8              1210 	mov	a,#0xF8
   047B 5E                 1211 	anl	a,r6
   047C FF                 1212 	mov	r7,a
                    047D   1213 	C$core_uart_apb.c$82$3$9 ==.
                           1214 ;	../drivers/CoreUARTapb/core_uart_apb.c:82: baud_val |= (uint16_t)( (uint16_t)(temp) << BAUDVALUE_SHIFT );
                           1215 ;	genCast
   047D 78 00              1216 	mov	r0,#0x00
                           1217 ;	genLeftShift
                           1218 ;	genLeftShiftLiteral
                           1219 ;	genlshTwo
   047F E8                 1220 	mov	a,r0
   0480 C4                 1221 	swap	a
   0481 23                 1222 	rl	a
   0482 54 E0              1223 	anl	a,#0xe0
   0484 CF                 1224 	xch	a,r7
   0485 C4                 1225 	swap	a
   0486 23                 1226 	rl	a
   0487 CF                 1227 	xch	a,r7
   0488 6F                 1228 	xrl	a,r7
   0489 CF                 1229 	xch	a,r7
   048A 54 E0              1230 	anl	a,#0xe0
   048C CF                 1231 	xch	a,r7
   048D 6F                 1232 	xrl	a,r7
   048E F8                 1233 	mov	r0,a
                           1234 ;	genOr
   048F EF                 1235 	mov	a,r7
   0490 42 02              1236 	orl	ar2,a
   0492 E8                 1237 	mov	a,r0
   0493 42 03              1238 	orl	ar3,a
                    0495   1239 	C$core_uart_apb.c$83$3$9 ==.
                           1240 ;	../drivers/CoreUARTapb/core_uart_apb.c:83: config &= (uint8_t)(~CTRL2_BAUDVALUE_MASK);
                           1241 ;	genAnd
   0495 53 06 07           1242 	anl	ar6,#0x07
                    0498   1243 	C$core_uart_apb.c$84$4$10 ==.
                           1244 ;	../drivers/CoreUARTapb/core_uart_apb.c:84: HAL_ASSERT( baud_val == baud_value );
                           1245 ;	genCmpEq
                           1246 ;	gencjneshort
   0498 EA                 1247 	mov	a,r2
   0499 B5 04 07           1248 	cjne	a,ar4,00152$
   049C EB                 1249 	mov	a,r3
   049D B5 05 03           1250 	cjne	a,ar5,00152$
   04A0 02s05rAA           1251 	ljmp	00119$
   04A3                    1252 00152$:
                           1253 ;	genPointerSet
                           1254 ;     genFarPointerSet
   04A3 90s00r7E           1255 	mov	dptr,#_UART_init_file_name_5_11
   04A6 74 2E              1256 	mov	a,#0x2E
   04A8 F0                 1257 	movx	@dptr,a
                           1258 ;	genPointerSet
                           1259 ;     genFarPointerSet
   04A9 90s00r7F           1260 	mov	dptr,#(_UART_init_file_name_5_11 + 0x0001)
   04AC 74 2E              1261 	mov	a,#0x2E
   04AE F0                 1262 	movx	@dptr,a
                           1263 ;	genPointerSet
                           1264 ;     genFarPointerSet
   04AF 90s00r80           1265 	mov	dptr,#(_UART_init_file_name_5_11 + 0x0002)
   04B2 74 2F              1266 	mov	a,#0x2F
   04B4 F0                 1267 	movx	@dptr,a
                           1268 ;	genPointerSet
                           1269 ;     genFarPointerSet
   04B5 90s00r81           1270 	mov	dptr,#(_UART_init_file_name_5_11 + 0x0003)
   04B8 74 64              1271 	mov	a,#0x64
   04BA F0                 1272 	movx	@dptr,a
                           1273 ;	genPointerSet
                           1274 ;     genFarPointerSet
   04BB 90s00r82           1275 	mov	dptr,#(_UART_init_file_name_5_11 + 0x0004)
   04BE 74 72              1276 	mov	a,#0x72
   04C0 F0                 1277 	movx	@dptr,a
                           1278 ;	genPointerSet
                           1279 ;     genFarPointerSet
   04C1 90s00r83           1280 	mov	dptr,#(_UART_init_file_name_5_11 + 0x0005)
   04C4 74 69              1281 	mov	a,#0x69
   04C6 F0                 1282 	movx	@dptr,a
                           1283 ;	genPointerSet
                           1284 ;     genFarPointerSet
   04C7 90s00r84           1285 	mov	dptr,#(_UART_init_file_name_5_11 + 0x0006)
   04CA 74 76              1286 	mov	a,#0x76
   04CC F0                 1287 	movx	@dptr,a
                           1288 ;	genPointerSet
                           1289 ;     genFarPointerSet
   04CD 90s00r85           1290 	mov	dptr,#(_UART_init_file_name_5_11 + 0x0007)
   04D0 74 65              1291 	mov	a,#0x65
   04D2 F0                 1292 	movx	@dptr,a
                           1293 ;	genPointerSet
                           1294 ;     genFarPointerSet
   04D3 90s00r86           1295 	mov	dptr,#(_UART_init_file_name_5_11 + 0x0008)
   04D6 74 72              1296 	mov	a,#0x72
   04D8 F0                 1297 	movx	@dptr,a
                           1298 ;	genPointerSet
                           1299 ;     genFarPointerSet
   04D9 90s00r87           1300 	mov	dptr,#(_UART_init_file_name_5_11 + 0x0009)
   04DC 74 73              1301 	mov	a,#0x73
   04DE F0                 1302 	movx	@dptr,a
                           1303 ;	genPointerSet
                           1304 ;     genFarPointerSet
   04DF 90s00r88           1305 	mov	dptr,#(_UART_init_file_name_5_11 + 0x000a)
   04E2 74 2F              1306 	mov	a,#0x2F
   04E4 F0                 1307 	movx	@dptr,a
                           1308 ;	genPointerSet
                           1309 ;     genFarPointerSet
   04E5 90s00r89           1310 	mov	dptr,#(_UART_init_file_name_5_11 + 0x000b)
   04E8 74 43              1311 	mov	a,#0x43
   04EA F0                 1312 	movx	@dptr,a
                           1313 ;	genPointerSet
                           1314 ;     genFarPointerSet
   04EB 90s00r8A           1315 	mov	dptr,#(_UART_init_file_name_5_11 + 0x000c)
   04EE 74 6F              1316 	mov	a,#0x6F
   04F0 F0                 1317 	movx	@dptr,a
                           1318 ;	genPointerSet
                           1319 ;     genFarPointerSet
   04F1 90s00r8B           1320 	mov	dptr,#(_UART_init_file_name_5_11 + 0x000d)
   04F4 74 72              1321 	mov	a,#0x72
   04F6 F0                 1322 	movx	@dptr,a
                           1323 ;	genPointerSet
                           1324 ;     genFarPointerSet
   04F7 90s00r8C           1325 	mov	dptr,#(_UART_init_file_name_5_11 + 0x000e)
   04FA 74 65              1326 	mov	a,#0x65
   04FC F0                 1327 	movx	@dptr,a
                           1328 ;	genPointerSet
                           1329 ;     genFarPointerSet
   04FD 90s00r8D           1330 	mov	dptr,#(_UART_init_file_name_5_11 + 0x000f)
   0500 74 55              1331 	mov	a,#0x55
   0502 F0                 1332 	movx	@dptr,a
                           1333 ;	genPointerSet
                           1334 ;     genFarPointerSet
   0503 90s00r8E           1335 	mov	dptr,#(_UART_init_file_name_5_11 + 0x0010)
   0506 74 41              1336 	mov	a,#0x41
   0508 F0                 1337 	movx	@dptr,a
                           1338 ;	genPointerSet
                           1339 ;     genFarPointerSet
   0509 90s00r8F           1340 	mov	dptr,#(_UART_init_file_name_5_11 + 0x0011)
   050C 74 52              1341 	mov	a,#0x52
   050E F0                 1342 	movx	@dptr,a
                           1343 ;	genPointerSet
                           1344 ;     genFarPointerSet
   050F 90s00r90           1345 	mov	dptr,#(_UART_init_file_name_5_11 + 0x0012)
   0512 74 54              1346 	mov	a,#0x54
   0514 F0                 1347 	movx	@dptr,a
                           1348 ;	genPointerSet
                           1349 ;     genFarPointerSet
   0515 90s00r91           1350 	mov	dptr,#(_UART_init_file_name_5_11 + 0x0013)
   0518 74 61              1351 	mov	a,#0x61
   051A F0                 1352 	movx	@dptr,a
                           1353 ;	genPointerSet
                           1354 ;     genFarPointerSet
   051B 90s00r92           1355 	mov	dptr,#(_UART_init_file_name_5_11 + 0x0014)
   051E 74 70              1356 	mov	a,#0x70
   0520 F0                 1357 	movx	@dptr,a
                           1358 ;	genPointerSet
                           1359 ;     genFarPointerSet
   0521 90s00r93           1360 	mov	dptr,#(_UART_init_file_name_5_11 + 0x0015)
   0524 74 62              1361 	mov	a,#0x62
   0526 F0                 1362 	movx	@dptr,a
                           1363 ;	genPointerSet
                           1364 ;     genFarPointerSet
   0527 90s00r94           1365 	mov	dptr,#(_UART_init_file_name_5_11 + 0x0016)
   052A 74 2F              1366 	mov	a,#0x2F
   052C F0                 1367 	movx	@dptr,a
                           1368 ;	genPointerSet
                           1369 ;     genFarPointerSet
   052D 90s00r95           1370 	mov	dptr,#(_UART_init_file_name_5_11 + 0x0017)
   0530 74 63              1371 	mov	a,#0x63
   0532 F0                 1372 	movx	@dptr,a
                           1373 ;	genPointerSet
                           1374 ;     genFarPointerSet
   0533 90s00r96           1375 	mov	dptr,#(_UART_init_file_name_5_11 + 0x0018)
   0536 74 6F              1376 	mov	a,#0x6F
   0538 F0                 1377 	movx	@dptr,a
                           1378 ;	genPointerSet
                           1379 ;     genFarPointerSet
   0539 90s00r97           1380 	mov	dptr,#(_UART_init_file_name_5_11 + 0x0019)
   053C 74 72              1381 	mov	a,#0x72
   053E F0                 1382 	movx	@dptr,a
                           1383 ;	genPointerSet
                           1384 ;     genFarPointerSet
   053F 90s00r98           1385 	mov	dptr,#(_UART_init_file_name_5_11 + 0x001a)
   0542 74 65              1386 	mov	a,#0x65
   0544 F0                 1387 	movx	@dptr,a
                           1388 ;	genPointerSet
                           1389 ;     genFarPointerSet
   0545 90s00r99           1390 	mov	dptr,#(_UART_init_file_name_5_11 + 0x001b)
   0548 74 5F              1391 	mov	a,#0x5F
   054A F0                 1392 	movx	@dptr,a
                           1393 ;	genPointerSet
                           1394 ;     genFarPointerSet
   054B 90s00r9A           1395 	mov	dptr,#(_UART_init_file_name_5_11 + 0x001c)
   054E 74 75              1396 	mov	a,#0x75
   0550 F0                 1397 	movx	@dptr,a
                           1398 ;	genPointerSet
                           1399 ;     genFarPointerSet
   0551 90s00r9B           1400 	mov	dptr,#(_UART_init_file_name_5_11 + 0x001d)
   0554 74 61              1401 	mov	a,#0x61
   0556 F0                 1402 	movx	@dptr,a
                           1403 ;	genPointerSet
                           1404 ;     genFarPointerSet
   0557 90s00r9C           1405 	mov	dptr,#(_UART_init_file_name_5_11 + 0x001e)
   055A 74 72              1406 	mov	a,#0x72
   055C F0                 1407 	movx	@dptr,a
                           1408 ;	genPointerSet
                           1409 ;     genFarPointerSet
   055D 90s00r9D           1410 	mov	dptr,#(_UART_init_file_name_5_11 + 0x001f)
   0560 74 74              1411 	mov	a,#0x74
   0562 F0                 1412 	movx	@dptr,a
                           1413 ;	genPointerSet
                           1414 ;     genFarPointerSet
   0563 90s00r9E           1415 	mov	dptr,#(_UART_init_file_name_5_11 + 0x0020)
   0566 74 5F              1416 	mov	a,#0x5F
   0568 F0                 1417 	movx	@dptr,a
                           1418 ;	genPointerSet
                           1419 ;     genFarPointerSet
   0569 90s00r9F           1420 	mov	dptr,#(_UART_init_file_name_5_11 + 0x0021)
   056C 74 61              1421 	mov	a,#0x61
   056E F0                 1422 	movx	@dptr,a
                           1423 ;	genPointerSet
                           1424 ;     genFarPointerSet
   056F 90s00rA0           1425 	mov	dptr,#(_UART_init_file_name_5_11 + 0x0022)
   0572 74 70              1426 	mov	a,#0x70
   0574 F0                 1427 	movx	@dptr,a
                           1428 ;	genPointerSet
                           1429 ;     genFarPointerSet
   0575 90s00rA1           1430 	mov	dptr,#(_UART_init_file_name_5_11 + 0x0023)
   0578 74 62              1431 	mov	a,#0x62
   057A F0                 1432 	movx	@dptr,a
                           1433 ;	genPointerSet
                           1434 ;     genFarPointerSet
   057B 90s00rA2           1435 	mov	dptr,#(_UART_init_file_name_5_11 + 0x0024)
   057E 74 2E              1436 	mov	a,#0x2E
   0580 F0                 1437 	movx	@dptr,a
                           1438 ;	genPointerSet
                           1439 ;     genFarPointerSet
   0581 90s00rA3           1440 	mov	dptr,#(_UART_init_file_name_5_11 + 0x0025)
   0584 74 63              1441 	mov	a,#0x63
   0586 F0                 1442 	movx	@dptr,a
                           1443 ;	genPointerSet
                           1444 ;     genFarPointerSet
   0587 90s00rA4           1445 	mov	dptr,#(_UART_init_file_name_5_11 + 0x0026)
   058A 74 00              1446 	mov	a,#0x00
   058C F0                 1447 	movx	@dptr,a
                           1448 ;	genAssign
   058D 90s00r00           1449 	mov	dptr,#_HAL_assert_fail_PARM_2
   0590 74 54              1450 	mov	a,#0x54
   0592 F0                 1451 	movx	@dptr,a
   0593 E4                 1452 	clr	a
   0594 A3                 1453 	inc	dptr
   0595 F0                 1454 	movx	@dptr,a
   0596 A3                 1455 	inc	dptr
   0597 F0                 1456 	movx	@dptr,a
   0598 A3                 1457 	inc	dptr
   0599 F0                 1458 	movx	@dptr,a
                           1459 ;	genCall
   059A 75 82r7E           1460 	mov	dpl,#_UART_init_file_name_5_11
   059D 75 83s00           1461 	mov	dph,#(_UART_init_file_name_5_11 >> 8)
   05A0 75 F0 00           1462 	mov	b,#0x00
   05A3 C0 06              1463 	push	ar6
   05A5 12s00r00           1464 	lcall	_HAL_assert_fail
   05A8 D0 06              1465 	pop	ar6
   05AA                    1466 00119$:
                    05AA   1467 	C$core_uart_apb.c$85$4$12 ==.
                           1468 ;	../drivers/CoreUARTapb/core_uart_apb.c:85: HAL_ASSERT( config == line_config );
                           1469 ;	genCmpEq
                           1470 ;	gencjneshort
   05AA EE                 1471 	mov	a,r6
   05AB B5*00 03           1472 	cjne	a,_UART_init_sloc0_1_0,00153$
   05AE 02s06rB4           1473 	ljmp	00124$
   05B1                    1474 00153$:
                           1475 ;	genPointerSet
                           1476 ;     genFarPointerSet
   05B1 90s00rA5           1477 	mov	dptr,#_UART_init_file_name_5_13
   05B4 74 2E              1478 	mov	a,#0x2E
   05B6 F0                 1479 	movx	@dptr,a
                           1480 ;	genPointerSet
                           1481 ;     genFarPointerSet
   05B7 90s00rA6           1482 	mov	dptr,#(_UART_init_file_name_5_13 + 0x0001)
   05BA 74 2E              1483 	mov	a,#0x2E
   05BC F0                 1484 	movx	@dptr,a
                           1485 ;	genPointerSet
                           1486 ;     genFarPointerSet
   05BD 90s00rA7           1487 	mov	dptr,#(_UART_init_file_name_5_13 + 0x0002)
   05C0 74 2F              1488 	mov	a,#0x2F
   05C2 F0                 1489 	movx	@dptr,a
                           1490 ;	genPointerSet
                           1491 ;     genFarPointerSet
   05C3 90s00rA8           1492 	mov	dptr,#(_UART_init_file_name_5_13 + 0x0003)
   05C6 74 64              1493 	mov	a,#0x64
   05C8 F0                 1494 	movx	@dptr,a
                           1495 ;	genPointerSet
                           1496 ;     genFarPointerSet
   05C9 90s00rA9           1497 	mov	dptr,#(_UART_init_file_name_5_13 + 0x0004)
   05CC 74 72              1498 	mov	a,#0x72
   05CE F0                 1499 	movx	@dptr,a
                           1500 ;	genPointerSet
                           1501 ;     genFarPointerSet
   05CF 90s00rAA           1502 	mov	dptr,#(_UART_init_file_name_5_13 + 0x0005)
   05D2 74 69              1503 	mov	a,#0x69
   05D4 F0                 1504 	movx	@dptr,a
                           1505 ;	genPointerSet
                           1506 ;     genFarPointerSet
   05D5 90s00rAB           1507 	mov	dptr,#(_UART_init_file_name_5_13 + 0x0006)
   05D8 74 76              1508 	mov	a,#0x76
   05DA F0                 1509 	movx	@dptr,a
                           1510 ;	genPointerSet
                           1511 ;     genFarPointerSet
   05DB 90s00rAC           1512 	mov	dptr,#(_UART_init_file_name_5_13 + 0x0007)
   05DE 74 65              1513 	mov	a,#0x65
   05E0 F0                 1514 	movx	@dptr,a
                           1515 ;	genPointerSet
                           1516 ;     genFarPointerSet
   05E1 90s00rAD           1517 	mov	dptr,#(_UART_init_file_name_5_13 + 0x0008)
   05E4 74 72              1518 	mov	a,#0x72
   05E6 F0                 1519 	movx	@dptr,a
                           1520 ;	genPointerSet
                           1521 ;     genFarPointerSet
   05E7 90s00rAE           1522 	mov	dptr,#(_UART_init_file_name_5_13 + 0x0009)
   05EA 74 73              1523 	mov	a,#0x73
   05EC F0                 1524 	movx	@dptr,a
                           1525 ;	genPointerSet
                           1526 ;     genFarPointerSet
   05ED 90s00rAF           1527 	mov	dptr,#(_UART_init_file_name_5_13 + 0x000a)
   05F0 74 2F              1528 	mov	a,#0x2F
   05F2 F0                 1529 	movx	@dptr,a
                           1530 ;	genPointerSet
                           1531 ;     genFarPointerSet
   05F3 90s00rB0           1532 	mov	dptr,#(_UART_init_file_name_5_13 + 0x000b)
   05F6 74 43              1533 	mov	a,#0x43
   05F8 F0                 1534 	movx	@dptr,a
                           1535 ;	genPointerSet
                           1536 ;     genFarPointerSet
   05F9 90s00rB1           1537 	mov	dptr,#(_UART_init_file_name_5_13 + 0x000c)
   05FC 74 6F              1538 	mov	a,#0x6F
   05FE F0                 1539 	movx	@dptr,a
                           1540 ;	genPointerSet
                           1541 ;     genFarPointerSet
   05FF 90s00rB2           1542 	mov	dptr,#(_UART_init_file_name_5_13 + 0x000d)
   0602 74 72              1543 	mov	a,#0x72
   0604 F0                 1544 	movx	@dptr,a
                           1545 ;	genPointerSet
                           1546 ;     genFarPointerSet
   0605 90s00rB3           1547 	mov	dptr,#(_UART_init_file_name_5_13 + 0x000e)
   0608 74 65              1548 	mov	a,#0x65
   060A F0                 1549 	movx	@dptr,a
                           1550 ;	genPointerSet
                           1551 ;     genFarPointerSet
   060B 90s00rB4           1552 	mov	dptr,#(_UART_init_file_name_5_13 + 0x000f)
   060E 74 55              1553 	mov	a,#0x55
   0610 F0                 1554 	movx	@dptr,a
                           1555 ;	genPointerSet
                           1556 ;     genFarPointerSet
   0611 90s00rB5           1557 	mov	dptr,#(_UART_init_file_name_5_13 + 0x0010)
   0614 74 41              1558 	mov	a,#0x41
   0616 F0                 1559 	movx	@dptr,a
                           1560 ;	genPointerSet
                           1561 ;     genFarPointerSet
   0617 90s00rB6           1562 	mov	dptr,#(_UART_init_file_name_5_13 + 0x0011)
   061A 74 52              1563 	mov	a,#0x52
   061C F0                 1564 	movx	@dptr,a
                           1565 ;	genPointerSet
                           1566 ;     genFarPointerSet
   061D 90s00rB7           1567 	mov	dptr,#(_UART_init_file_name_5_13 + 0x0012)
   0620 74 54              1568 	mov	a,#0x54
   0622 F0                 1569 	movx	@dptr,a
                           1570 ;	genPointerSet
                           1571 ;     genFarPointerSet
   0623 90s00rB8           1572 	mov	dptr,#(_UART_init_file_name_5_13 + 0x0013)
   0626 74 61              1573 	mov	a,#0x61
   0628 F0                 1574 	movx	@dptr,a
                           1575 ;	genPointerSet
                           1576 ;     genFarPointerSet
   0629 90s00rB9           1577 	mov	dptr,#(_UART_init_file_name_5_13 + 0x0014)
   062C 74 70              1578 	mov	a,#0x70
   062E F0                 1579 	movx	@dptr,a
                           1580 ;	genPointerSet
                           1581 ;     genFarPointerSet
   062F 90s00rBA           1582 	mov	dptr,#(_UART_init_file_name_5_13 + 0x0015)
   0632 74 62              1583 	mov	a,#0x62
   0634 F0                 1584 	movx	@dptr,a
                           1585 ;	genPointerSet
                           1586 ;     genFarPointerSet
   0635 90s00rBB           1587 	mov	dptr,#(_UART_init_file_name_5_13 + 0x0016)
   0638 74 2F              1588 	mov	a,#0x2F
   063A F0                 1589 	movx	@dptr,a
                           1590 ;	genPointerSet
                           1591 ;     genFarPointerSet
   063B 90s00rBC           1592 	mov	dptr,#(_UART_init_file_name_5_13 + 0x0017)
   063E 74 63              1593 	mov	a,#0x63
   0640 F0                 1594 	movx	@dptr,a
                           1595 ;	genPointerSet
                           1596 ;     genFarPointerSet
   0641 90s00rBD           1597 	mov	dptr,#(_UART_init_file_name_5_13 + 0x0018)
   0644 74 6F              1598 	mov	a,#0x6F
   0646 F0                 1599 	movx	@dptr,a
                           1600 ;	genPointerSet
                           1601 ;     genFarPointerSet
   0647 90s00rBE           1602 	mov	dptr,#(_UART_init_file_name_5_13 + 0x0019)
   064A 74 72              1603 	mov	a,#0x72
   064C F0                 1604 	movx	@dptr,a
                           1605 ;	genPointerSet
                           1606 ;     genFarPointerSet
   064D 90s00rBF           1607 	mov	dptr,#(_UART_init_file_name_5_13 + 0x001a)
   0650 74 65              1608 	mov	a,#0x65
   0652 F0                 1609 	movx	@dptr,a
                           1610 ;	genPointerSet
                           1611 ;     genFarPointerSet
   0653 90s00rC0           1612 	mov	dptr,#(_UART_init_file_name_5_13 + 0x001b)
   0656 74 5F              1613 	mov	a,#0x5F
   0658 F0                 1614 	movx	@dptr,a
                           1615 ;	genPointerSet
                           1616 ;     genFarPointerSet
   0659 90s00rC1           1617 	mov	dptr,#(_UART_init_file_name_5_13 + 0x001c)
   065C 74 75              1618 	mov	a,#0x75
   065E F0                 1619 	movx	@dptr,a
                           1620 ;	genPointerSet
                           1621 ;     genFarPointerSet
   065F 90s00rC2           1622 	mov	dptr,#(_UART_init_file_name_5_13 + 0x001d)
   0662 74 61              1623 	mov	a,#0x61
   0664 F0                 1624 	movx	@dptr,a
                           1625 ;	genPointerSet
                           1626 ;     genFarPointerSet
   0665 90s00rC3           1627 	mov	dptr,#(_UART_init_file_name_5_13 + 0x001e)
   0668 74 72              1628 	mov	a,#0x72
   066A F0                 1629 	movx	@dptr,a
                           1630 ;	genPointerSet
                           1631 ;     genFarPointerSet
   066B 90s00rC4           1632 	mov	dptr,#(_UART_init_file_name_5_13 + 0x001f)
   066E 74 74              1633 	mov	a,#0x74
   0670 F0                 1634 	movx	@dptr,a
                           1635 ;	genPointerSet
                           1636 ;     genFarPointerSet
   0671 90s00rC5           1637 	mov	dptr,#(_UART_init_file_name_5_13 + 0x0020)
   0674 74 5F              1638 	mov	a,#0x5F
   0676 F0                 1639 	movx	@dptr,a
                           1640 ;	genPointerSet
                           1641 ;     genFarPointerSet
   0677 90s00rC6           1642 	mov	dptr,#(_UART_init_file_name_5_13 + 0x0021)
   067A 74 61              1643 	mov	a,#0x61
   067C F0                 1644 	movx	@dptr,a
                           1645 ;	genPointerSet
                           1646 ;     genFarPointerSet
   067D 90s00rC7           1647 	mov	dptr,#(_UART_init_file_name_5_13 + 0x0022)
   0680 74 70              1648 	mov	a,#0x70
   0682 F0                 1649 	movx	@dptr,a
                           1650 ;	genPointerSet
                           1651 ;     genFarPointerSet
   0683 90s00rC8           1652 	mov	dptr,#(_UART_init_file_name_5_13 + 0x0023)
   0686 74 62              1653 	mov	a,#0x62
   0688 F0                 1654 	movx	@dptr,a
                           1655 ;	genPointerSet
                           1656 ;     genFarPointerSet
   0689 90s00rC9           1657 	mov	dptr,#(_UART_init_file_name_5_13 + 0x0024)
   068C 74 2E              1658 	mov	a,#0x2E
   068E F0                 1659 	movx	@dptr,a
                           1660 ;	genPointerSet
                           1661 ;     genFarPointerSet
   068F 90s00rCA           1662 	mov	dptr,#(_UART_init_file_name_5_13 + 0x0025)
   0692 74 63              1663 	mov	a,#0x63
   0694 F0                 1664 	movx	@dptr,a
                           1665 ;	genPointerSet
                           1666 ;     genFarPointerSet
   0695 90s00rCB           1667 	mov	dptr,#(_UART_init_file_name_5_13 + 0x0026)
   0698 74 00              1668 	mov	a,#0x00
   069A F0                 1669 	movx	@dptr,a
                           1670 ;	genAssign
   069B 90s00r00           1671 	mov	dptr,#_HAL_assert_fail_PARM_2
   069E 74 55              1672 	mov	a,#0x55
   06A0 F0                 1673 	movx	@dptr,a
   06A1 E4                 1674 	clr	a
   06A2 A3                 1675 	inc	dptr
   06A3 F0                 1676 	movx	@dptr,a
   06A4 A3                 1677 	inc	dptr
   06A5 F0                 1678 	movx	@dptr,a
   06A6 A3                 1679 	inc	dptr
   06A7 F0                 1680 	movx	@dptr,a
                           1681 ;	genCall
   06A8 75 82rA5           1682 	mov	dpl,#_UART_init_file_name_5_13
   06AB 75 83s00           1683 	mov	dph,#(_UART_init_file_name_5_13 >> 8)
   06AE 75 F0 00           1684 	mov	b,#0x00
   06B1 12s00r00           1685 	lcall	_HAL_assert_fail
   06B4                    1686 00124$:
                    06B4   1687 	C$core_uart_apb.c$93$2$8 ==.
                           1688 ;	../drivers/CoreUARTapb/core_uart_apb.c:93: rx_full = HAL_get_8bit_reg( this_uart->base_address, STATUS ) &
                           1689 ;	genAssign
   06B4 90s00r05           1690 	mov	dptr,#_UART_init_this_uart_1_1
   06B7 E0                 1691 	movx	a,@dptr
   06B8 FA                 1692 	mov	r2,a
   06B9 A3                 1693 	inc	dptr
   06BA E0                 1694 	movx	a,@dptr
   06BB FB                 1695 	mov	r3,a
   06BC A3                 1696 	inc	dptr
   06BD E0                 1697 	movx	a,@dptr
   06BE FC                 1698 	mov	r4,a
                           1699 ;	genPointerGet
                           1700 ;	genGenPointerGet
   06BF 8A 82              1701 	mov	dpl,r2
   06C1 8B 83              1702 	mov	dph,r3
   06C3 8C F0              1703 	mov	b,r4
   06C5 12s00r00           1704 	lcall	__gptrget
   06C8 FD                 1705 	mov	r5,a
   06C9 A3                 1706 	inc	dptr
   06CA 12s00r00           1707 	lcall	__gptrget
   06CD FE                 1708 	mov	r6,a
                           1709 ;	genPlus
                           1710 ;	genPlusIncr
   06CE 74 10              1711 	mov	a,#0x10
   06D0 25 05              1712 	add	a,ar5
   06D2 FD                 1713 	mov	r5,a
   06D3 74 00              1714 	mov	a,#0x00
   06D5 35 06              1715 	addc	a,ar6
   06D7 FE                 1716 	mov	r6,a
                           1717 ;	genCall
   06D8 8D 82              1718 	mov	dpl,r5
   06DA 8E 83              1719 	mov	dph,r6
   06DC C0 02              1720 	push	ar2
   06DE C0 03              1721 	push	ar3
   06E0 C0 04              1722 	push	ar4
   06E2 12s00r00           1723 	lcall	_HW_get_8bit_reg
   06E5 AD 82              1724 	mov	r5,dpl
   06E7 D0 04              1725 	pop	ar4
   06E9 D0 03              1726 	pop	ar3
   06EB D0 02              1727 	pop	ar2
                           1728 ;	genCast
   06ED 7E 00              1729 	mov	r6,#0x00
                           1730 ;	genAnd
   06EF 53 05 02           1731 	anl	ar5,#0x02
   06F2 7E 00              1732 	mov	r6,#0x00
                           1733 ;	genCast
   06F4 90s00r08           1734 	mov	dptr,#_UART_init_rx_full_1_1
   06F7 ED                 1735 	mov	a,r5
   06F8 F0                 1736 	movx	@dptr,a
                    06F9   1737 	C$core_uart_apb.c$95$3$14 ==.
                           1738 ;	../drivers/CoreUARTapb/core_uart_apb.c:95: while ( rx_full )
                           1739 ;	genAssign
   06F9                    1740 00126$:
                           1741 ;	genAssign
   06F9 90s00r08           1742 	mov	dptr,#_UART_init_rx_full_1_1
   06FC E0                 1743 	movx	a,@dptr
   06FD FD                 1744 	mov	r5,a
                           1745 ;	genIfx
   06FE ED                 1746 	mov	a,r5
                           1747 ;	genIfxJump
   06FF 70 03              1748 	jnz	00154$
   0701 02s07r73           1749 	ljmp	00128$
   0704                    1750 00154$:
                    0704   1751 	C$core_uart_apb.c$98$3$14 ==.
                           1752 ;	../drivers/CoreUARTapb/core_uart_apb.c:98: rx_byte = HAL_get_8bit_reg( this_uart->base_address, RXDATA );
                           1753 ;	genPointerGet
                           1754 ;	genGenPointerGet
   0704 8A 82              1755 	mov	dpl,r2
   0706 8B 83              1756 	mov	dph,r3
   0708 8C F0              1757 	mov	b,r4
   070A 12s00r00           1758 	lcall	__gptrget
   070D FD                 1759 	mov	r5,a
   070E A3                 1760 	inc	dptr
   070F 12s00r00           1761 	lcall	__gptrget
   0712 FE                 1762 	mov	r6,a
                           1763 ;	genPlus
                           1764 ;	genPlusIncr
   0713 74 04              1765 	mov	a,#0x04
   0715 25 05              1766 	add	a,ar5
   0717 FD                 1767 	mov	r5,a
   0718 74 00              1768 	mov	a,#0x00
   071A 35 06              1769 	addc	a,ar6
   071C FE                 1770 	mov	r6,a
                           1771 ;	genCall
   071D 8D 82              1772 	mov	dpl,r5
   071F 8E 83              1773 	mov	dph,r6
   0721 C0 02              1774 	push	ar2
   0723 C0 03              1775 	push	ar3
   0725 C0 04              1776 	push	ar4
   0727 12s00r00           1777 	lcall	_HW_get_8bit_reg
   072A E5 82              1778 	mov	a,dpl
   072C D0 04              1779 	pop	ar4
   072E D0 03              1780 	pop	ar3
   0730 D0 02              1781 	pop	ar2
                           1782 ;	genAssign
   0732 90s00rCC           1783 	mov	dptr,#_UART_init_rx_byte_3_14
   0735 F0                 1784 	movx	@dptr,a
                    0736   1785 	C$core_uart_apb.c$99$3$14 ==.
                           1786 ;	../drivers/CoreUARTapb/core_uart_apb.c:99: rx_full = HAL_get_8bit_reg( this_uart->base_address, STATUS ) &
                           1787 ;	genPointerGet
                           1788 ;	genGenPointerGet
   0736 8A 82              1789 	mov	dpl,r2
   0738 8B 83              1790 	mov	dph,r3
   073A 8C F0              1791 	mov	b,r4
   073C 12s00r00           1792 	lcall	__gptrget
   073F FD                 1793 	mov	r5,a
   0740 A3                 1794 	inc	dptr
   0741 12s00r00           1795 	lcall	__gptrget
   0744 FE                 1796 	mov	r6,a
                           1797 ;	genPlus
                           1798 ;	genPlusIncr
   0745 74 10              1799 	mov	a,#0x10
   0747 25 05              1800 	add	a,ar5
   0749 FD                 1801 	mov	r5,a
   074A 74 00              1802 	mov	a,#0x00
   074C 35 06              1803 	addc	a,ar6
   074E FE                 1804 	mov	r6,a
                           1805 ;	genCall
   074F 8D 82              1806 	mov	dpl,r5
   0751 8E 83              1807 	mov	dph,r6
   0753 C0 02              1808 	push	ar2
   0755 C0 03              1809 	push	ar3
   0757 C0 04              1810 	push	ar4
   0759 12s00r00           1811 	lcall	_HW_get_8bit_reg
   075C AD 82              1812 	mov	r5,dpl
   075E D0 04              1813 	pop	ar4
   0760 D0 03              1814 	pop	ar3
   0762 D0 02              1815 	pop	ar2
                           1816 ;	genCast
   0764 7E 00              1817 	mov	r6,#0x00
                           1818 ;	genAnd
   0766 53 05 02           1819 	anl	ar5,#0x02
   0769 7E 00              1820 	mov	r6,#0x00
                           1821 ;	genCast
   076B 90s00r08           1822 	mov	dptr,#_UART_init_rx_full_1_1
   076E ED                 1823 	mov	a,r5
   076F F0                 1824 	movx	@dptr,a
   0770 02s06rF9           1825 	ljmp	00126$
   0773                    1826 00128$:
                    0773   1827 	C$core_uart_apb.c$106$2$8 ==.
                           1828 ;	../drivers/CoreUARTapb/core_uart_apb.c:106: this_uart->status = (uint8_t)0;
                           1829 ;	genAssign
   0773 90s00r05           1830 	mov	dptr,#_UART_init_this_uart_1_1
   0776 E0                 1831 	movx	a,@dptr
   0777 FA                 1832 	mov	r2,a
   0778 A3                 1833 	inc	dptr
   0779 E0                 1834 	movx	a,@dptr
   077A FB                 1835 	mov	r3,a
   077B A3                 1836 	inc	dptr
   077C E0                 1837 	movx	a,@dptr
   077D FC                 1838 	mov	r4,a
                           1839 ;	genPlus
                           1840 ;	genPlusIncr
   077E 74 02              1841 	mov	a,#0x02
   0780 25 02              1842 	add	a,ar2
   0782 FA                 1843 	mov	r2,a
   0783 74 00              1844 	mov	a,#0x00
   0785 35 03              1845 	addc	a,ar3
   0787 FB                 1846 	mov	r3,a
                           1847 ;	genPointerSet
                           1848 ;	genGenPointerSet
   0788 8A 82              1849 	mov	dpl,r2
   078A 8B 83              1850 	mov	dph,r3
   078C 8C F0              1851 	mov	b,r4
   078E 74 00              1852 	mov	a,#0x00
   0790 12s00r00           1853 	lcall	__gptrput
   0793                    1854 00133$:
                    0793   1855 	C$core_uart_apb.c$108$2$1 ==.
                    0793   1856 	XG$UART_init$0$0 ==.
   0793 22                 1857 	ret
                           1858 ;------------------------------------------------------------
                           1859 ;Allocation info for local variables in function 'UART_send'
                           1860 ;------------------------------------------------------------
                           1861 ;sloc0                     Allocated with name '_UART_send_sloc0_1_0'
                           1862 ;sloc1                     Allocated with name '_UART_send_sloc1_1_0'
                           1863 ;tx_buffer                 Allocated with name '_UART_send_PARM_2'
                           1864 ;tx_size                   Allocated with name '_UART_send_PARM_3'
                           1865 ;this_uart                 Allocated with name '_UART_send_this_uart_1_1'
                           1866 ;char_idx                  Allocated with name '_UART_send_char_idx_1_1'
                           1867 ;tx_ready                  Allocated with name '_UART_send_tx_ready_1_1'
                           1868 ;file_name                 Allocated with name '_UART_send_file_name_3_3'
                           1869 ;file_name                 Allocated with name '_UART_send_file_name_3_5'
                           1870 ;file_name                 Allocated with name '_UART_send_file_name_3_7'
                           1871 ;------------------------------------------------------------
                    0794   1872 	G$UART_send$0$0 ==.
                    0794   1873 	C$core_uart_apb.c$115$2$1 ==.
                           1874 ;	../drivers/CoreUARTapb/core_uart_apb.c:115: UART_send
                           1875 ;	-----------------------------------------
                           1876 ;	 function UART_send
                           1877 ;	-----------------------------------------
   0794                    1878 _UART_send:
                           1879 ;	genReceive
   0794 AA F0              1880 	mov	r2,b
   0796 AB 83              1881 	mov	r3,dph
   0798 E5 82              1882 	mov	a,dpl
   079A 90s00rD2           1883 	mov	dptr,#_UART_send_this_uart_1_1
   079D F0                 1884 	movx	@dptr,a
   079E A3                 1885 	inc	dptr
   079F EB                 1886 	mov	a,r3
   07A0 F0                 1887 	movx	@dptr,a
   07A1 A3                 1888 	inc	dptr
   07A2 EA                 1889 	mov	a,r2
   07A3 F0                 1890 	movx	@dptr,a
                    07A4   1891 	C$core_uart_apb.c$125$2$2 ==.
                           1892 ;	../drivers/CoreUARTapb/core_uart_apb.c:125: HAL_ASSERT( this_uart != NULL_INSTANCE )
                           1893 ;	genAssign
   07A4 90s00rD2           1894 	mov	dptr,#_UART_send_this_uart_1_1
   07A7 E0                 1895 	movx	a,@dptr
   07A8 FA                 1896 	mov	r2,a
   07A9 A3                 1897 	inc	dptr
   07AA E0                 1898 	movx	a,@dptr
   07AB FB                 1899 	mov	r3,a
   07AC A3                 1900 	inc	dptr
   07AD E0                 1901 	movx	a,@dptr
   07AE FC                 1902 	mov	r4,a
                           1903 ;	genCmpEq
                           1904 ;	gencjneshort
   07AF BA 00 08           1905 	cjne	r2,#0x00,00138$
   07B2 BB 00 05           1906 	cjne	r3,#0x00,00138$
   07B5 BC 00 02           1907 	cjne	r4,#0x00,00138$
   07B8 80 03              1908 	sjmp	00139$
   07BA                    1909 00138$:
   07BA 02s08rC0           1910 	ljmp	00104$
   07BD                    1911 00139$:
                           1912 ;	genPointerSet
                           1913 ;     genFarPointerSet
   07BD 90s00rD7           1914 	mov	dptr,#_UART_send_file_name_3_3
   07C0 74 2E              1915 	mov	a,#0x2E
   07C2 F0                 1916 	movx	@dptr,a
                           1917 ;	genPointerSet
                           1918 ;     genFarPointerSet
   07C3 90s00rD8           1919 	mov	dptr,#(_UART_send_file_name_3_3 + 0x0001)
   07C6 74 2E              1920 	mov	a,#0x2E
   07C8 F0                 1921 	movx	@dptr,a
                           1922 ;	genPointerSet
                           1923 ;     genFarPointerSet
   07C9 90s00rD9           1924 	mov	dptr,#(_UART_send_file_name_3_3 + 0x0002)
   07CC 74 2F              1925 	mov	a,#0x2F
   07CE F0                 1926 	movx	@dptr,a
                           1927 ;	genPointerSet
                           1928 ;     genFarPointerSet
   07CF 90s00rDA           1929 	mov	dptr,#(_UART_send_file_name_3_3 + 0x0003)
   07D2 74 64              1930 	mov	a,#0x64
   07D4 F0                 1931 	movx	@dptr,a
                           1932 ;	genPointerSet
                           1933 ;     genFarPointerSet
   07D5 90s00rDB           1934 	mov	dptr,#(_UART_send_file_name_3_3 + 0x0004)
   07D8 74 72              1935 	mov	a,#0x72
   07DA F0                 1936 	movx	@dptr,a
                           1937 ;	genPointerSet
                           1938 ;     genFarPointerSet
   07DB 90s00rDC           1939 	mov	dptr,#(_UART_send_file_name_3_3 + 0x0005)
   07DE 74 69              1940 	mov	a,#0x69
   07E0 F0                 1941 	movx	@dptr,a
                           1942 ;	genPointerSet
                           1943 ;     genFarPointerSet
   07E1 90s00rDD           1944 	mov	dptr,#(_UART_send_file_name_3_3 + 0x0006)
   07E4 74 76              1945 	mov	a,#0x76
   07E6 F0                 1946 	movx	@dptr,a
                           1947 ;	genPointerSet
                           1948 ;     genFarPointerSet
   07E7 90s00rDE           1949 	mov	dptr,#(_UART_send_file_name_3_3 + 0x0007)
   07EA 74 65              1950 	mov	a,#0x65
   07EC F0                 1951 	movx	@dptr,a
                           1952 ;	genPointerSet
                           1953 ;     genFarPointerSet
   07ED 90s00rDF           1954 	mov	dptr,#(_UART_send_file_name_3_3 + 0x0008)
   07F0 74 72              1955 	mov	a,#0x72
   07F2 F0                 1956 	movx	@dptr,a
                           1957 ;	genPointerSet
                           1958 ;     genFarPointerSet
   07F3 90s00rE0           1959 	mov	dptr,#(_UART_send_file_name_3_3 + 0x0009)
   07F6 74 73              1960 	mov	a,#0x73
   07F8 F0                 1961 	movx	@dptr,a
                           1962 ;	genPointerSet
                           1963 ;     genFarPointerSet
   07F9 90s00rE1           1964 	mov	dptr,#(_UART_send_file_name_3_3 + 0x000a)
   07FC 74 2F              1965 	mov	a,#0x2F
   07FE F0                 1966 	movx	@dptr,a
                           1967 ;	genPointerSet
                           1968 ;     genFarPointerSet
   07FF 90s00rE2           1969 	mov	dptr,#(_UART_send_file_name_3_3 + 0x000b)
   0802 74 43              1970 	mov	a,#0x43
   0804 F0                 1971 	movx	@dptr,a
                           1972 ;	genPointerSet
                           1973 ;     genFarPointerSet
   0805 90s00rE3           1974 	mov	dptr,#(_UART_send_file_name_3_3 + 0x000c)
   0808 74 6F              1975 	mov	a,#0x6F
   080A F0                 1976 	movx	@dptr,a
                           1977 ;	genPointerSet
                           1978 ;     genFarPointerSet
   080B 90s00rE4           1979 	mov	dptr,#(_UART_send_file_name_3_3 + 0x000d)
   080E 74 72              1980 	mov	a,#0x72
   0810 F0                 1981 	movx	@dptr,a
                           1982 ;	genPointerSet
                           1983 ;     genFarPointerSet
   0811 90s00rE5           1984 	mov	dptr,#(_UART_send_file_name_3_3 + 0x000e)
   0814 74 65              1985 	mov	a,#0x65
   0816 F0                 1986 	movx	@dptr,a
                           1987 ;	genPointerSet
                           1988 ;     genFarPointerSet
   0817 90s00rE6           1989 	mov	dptr,#(_UART_send_file_name_3_3 + 0x000f)
   081A 74 55              1990 	mov	a,#0x55
   081C F0                 1991 	movx	@dptr,a
                           1992 ;	genPointerSet
                           1993 ;     genFarPointerSet
   081D 90s00rE7           1994 	mov	dptr,#(_UART_send_file_name_3_3 + 0x0010)
   0820 74 41              1995 	mov	a,#0x41
   0822 F0                 1996 	movx	@dptr,a
                           1997 ;	genPointerSet
                           1998 ;     genFarPointerSet
   0823 90s00rE8           1999 	mov	dptr,#(_UART_send_file_name_3_3 + 0x0011)
   0826 74 52              2000 	mov	a,#0x52
   0828 F0                 2001 	movx	@dptr,a
                           2002 ;	genPointerSet
                           2003 ;     genFarPointerSet
   0829 90s00rE9           2004 	mov	dptr,#(_UART_send_file_name_3_3 + 0x0012)
   082C 74 54              2005 	mov	a,#0x54
   082E F0                 2006 	movx	@dptr,a
                           2007 ;	genPointerSet
                           2008 ;     genFarPointerSet
   082F 90s00rEA           2009 	mov	dptr,#(_UART_send_file_name_3_3 + 0x0013)
   0832 74 61              2010 	mov	a,#0x61
   0834 F0                 2011 	movx	@dptr,a
                           2012 ;	genPointerSet
                           2013 ;     genFarPointerSet
   0835 90s00rEB           2014 	mov	dptr,#(_UART_send_file_name_3_3 + 0x0014)
   0838 74 70              2015 	mov	a,#0x70
   083A F0                 2016 	movx	@dptr,a
                           2017 ;	genPointerSet
                           2018 ;     genFarPointerSet
   083B 90s00rEC           2019 	mov	dptr,#(_UART_send_file_name_3_3 + 0x0015)
   083E 74 62              2020 	mov	a,#0x62
   0840 F0                 2021 	movx	@dptr,a
                           2022 ;	genPointerSet
                           2023 ;     genFarPointerSet
   0841 90s00rED           2024 	mov	dptr,#(_UART_send_file_name_3_3 + 0x0016)
   0844 74 2F              2025 	mov	a,#0x2F
   0846 F0                 2026 	movx	@dptr,a
                           2027 ;	genPointerSet
                           2028 ;     genFarPointerSet
   0847 90s00rEE           2029 	mov	dptr,#(_UART_send_file_name_3_3 + 0x0017)
   084A 74 63              2030 	mov	a,#0x63
   084C F0                 2031 	movx	@dptr,a
                           2032 ;	genPointerSet
                           2033 ;     genFarPointerSet
   084D 90s00rEF           2034 	mov	dptr,#(_UART_send_file_name_3_3 + 0x0018)
   0850 74 6F              2035 	mov	a,#0x6F
   0852 F0                 2036 	movx	@dptr,a
                           2037 ;	genPointerSet
                           2038 ;     genFarPointerSet
   0853 90s00rF0           2039 	mov	dptr,#(_UART_send_file_name_3_3 + 0x0019)
   0856 74 72              2040 	mov	a,#0x72
   0858 F0                 2041 	movx	@dptr,a
                           2042 ;	genPointerSet
                           2043 ;     genFarPointerSet
   0859 90s00rF1           2044 	mov	dptr,#(_UART_send_file_name_3_3 + 0x001a)
   085C 74 65              2045 	mov	a,#0x65
   085E F0                 2046 	movx	@dptr,a
                           2047 ;	genPointerSet
                           2048 ;     genFarPointerSet
   085F 90s00rF2           2049 	mov	dptr,#(_UART_send_file_name_3_3 + 0x001b)
   0862 74 5F              2050 	mov	a,#0x5F
   0864 F0                 2051 	movx	@dptr,a
                           2052 ;	genPointerSet
                           2053 ;     genFarPointerSet
   0865 90s00rF3           2054 	mov	dptr,#(_UART_send_file_name_3_3 + 0x001c)
   0868 74 75              2055 	mov	a,#0x75
   086A F0                 2056 	movx	@dptr,a
                           2057 ;	genPointerSet
                           2058 ;     genFarPointerSet
   086B 90s00rF4           2059 	mov	dptr,#(_UART_send_file_name_3_3 + 0x001d)
   086E 74 61              2060 	mov	a,#0x61
   0870 F0                 2061 	movx	@dptr,a
                           2062 ;	genPointerSet
                           2063 ;     genFarPointerSet
   0871 90s00rF5           2064 	mov	dptr,#(_UART_send_file_name_3_3 + 0x001e)
   0874 74 72              2065 	mov	a,#0x72
   0876 F0                 2066 	movx	@dptr,a
                           2067 ;	genPointerSet
                           2068 ;     genFarPointerSet
   0877 90s00rF6           2069 	mov	dptr,#(_UART_send_file_name_3_3 + 0x001f)
   087A 74 74              2070 	mov	a,#0x74
   087C F0                 2071 	movx	@dptr,a
                           2072 ;	genPointerSet
                           2073 ;     genFarPointerSet
   087D 90s00rF7           2074 	mov	dptr,#(_UART_send_file_name_3_3 + 0x0020)
   0880 74 5F              2075 	mov	a,#0x5F
   0882 F0                 2076 	movx	@dptr,a
                           2077 ;	genPointerSet
                           2078 ;     genFarPointerSet
   0883 90s00rF8           2079 	mov	dptr,#(_UART_send_file_name_3_3 + 0x0021)
   0886 74 61              2080 	mov	a,#0x61
   0888 F0                 2081 	movx	@dptr,a
                           2082 ;	genPointerSet
                           2083 ;     genFarPointerSet
   0889 90s00rF9           2084 	mov	dptr,#(_UART_send_file_name_3_3 + 0x0022)
   088C 74 70              2085 	mov	a,#0x70
   088E F0                 2086 	movx	@dptr,a
                           2087 ;	genPointerSet
                           2088 ;     genFarPointerSet
   088F 90s00rFA           2089 	mov	dptr,#(_UART_send_file_name_3_3 + 0x0023)
   0892 74 62              2090 	mov	a,#0x62
   0894 F0                 2091 	movx	@dptr,a
                           2092 ;	genPointerSet
                           2093 ;     genFarPointerSet
   0895 90s00rFB           2094 	mov	dptr,#(_UART_send_file_name_3_3 + 0x0024)
   0898 74 2E              2095 	mov	a,#0x2E
   089A F0                 2096 	movx	@dptr,a
                           2097 ;	genPointerSet
                           2098 ;     genFarPointerSet
   089B 90s00rFC           2099 	mov	dptr,#(_UART_send_file_name_3_3 + 0x0025)
   089E 74 63              2100 	mov	a,#0x63
   08A0 F0                 2101 	movx	@dptr,a
                           2102 ;	genPointerSet
                           2103 ;     genFarPointerSet
   08A1 90s00rFD           2104 	mov	dptr,#(_UART_send_file_name_3_3 + 0x0026)
   08A4 74 00              2105 	mov	a,#0x00
   08A6 F0                 2106 	movx	@dptr,a
                           2107 ;	genAssign
   08A7 90s00r00           2108 	mov	dptr,#_HAL_assert_fail_PARM_2
   08AA 74 7D              2109 	mov	a,#0x7D
   08AC F0                 2110 	movx	@dptr,a
   08AD E4                 2111 	clr	a
   08AE A3                 2112 	inc	dptr
   08AF F0                 2113 	movx	@dptr,a
   08B0 A3                 2114 	inc	dptr
   08B1 F0                 2115 	movx	@dptr,a
   08B2 A3                 2116 	inc	dptr
   08B3 F0                 2117 	movx	@dptr,a
                           2118 ;	genCall
   08B4 75 82rD7           2119 	mov	dpl,#_UART_send_file_name_3_3
   08B7 75 83s00           2120 	mov	dph,#(_UART_send_file_name_3_3 >> 8)
   08BA 75 F0 00           2121 	mov	b,#0x00
   08BD 12s00r00           2122 	lcall	_HAL_assert_fail
   08C0                    2123 00104$:
                    08C0   2124 	C$core_uart_apb.c$126$2$4 ==.
                           2125 ;	../drivers/CoreUARTapb/core_uart_apb.c:126: HAL_ASSERT( tx_buffer != NULL_BUFFER )
                           2126 ;	genAssign
   08C0 90s00rCD           2127 	mov	dptr,#_UART_send_PARM_2
   08C3 E0                 2128 	movx	a,@dptr
   08C4 F5*0A              2129 	mov	_UART_send_sloc1_1_0,a
   08C6 A3                 2130 	inc	dptr
   08C7 E0                 2131 	movx	a,@dptr
   08C8 F5*0B              2132 	mov	(_UART_send_sloc1_1_0 + 1),a
   08CA A3                 2133 	inc	dptr
   08CB E0                 2134 	movx	a,@dptr
   08CC F5*0C              2135 	mov	(_UART_send_sloc1_1_0 + 2),a
                           2136 ;	genCmpEq
                           2137 ;	gencjne
                           2138 ;	gencjneshort
   08CE E5*0A              2139 	mov	a,_UART_send_sloc1_1_0
   08D0 70 0C              2140 	jnz	00140$
   08D2 E5*0B              2141 	mov	a,(_UART_send_sloc1_1_0 + 1)
   08D4 70 08              2142 	jnz	00140$
   08D6 E5*0C              2143 	mov	a,(_UART_send_sloc1_1_0 + 2)
   08D8 70 04              2144 	jnz	00140$
   08DA 74 01              2145 	mov	a,#0x01
   08DC 80 01              2146 	sjmp	00141$
   08DE                    2147 00140$:
   08DE E4                 2148 	clr	a
   08DF                    2149 00141$:
   08DF FD                 2150 	mov	r5,a
                           2151 ;	genIfx
   08E0 ED                 2152 	mov	a,r5
                           2153 ;	genIfxJump
   08E1 70 03              2154 	jnz	00142$
   08E3 02s09rED           2155 	ljmp	00109$
   08E6                    2156 00142$:
                           2157 ;	genPointerSet
                           2158 ;     genFarPointerSet
   08E6 90s00rFE           2159 	mov	dptr,#_UART_send_file_name_3_5
   08E9 74 2E              2160 	mov	a,#0x2E
   08EB F0                 2161 	movx	@dptr,a
                           2162 ;	genPointerSet
                           2163 ;     genFarPointerSet
   08EC 90s00rFF           2164 	mov	dptr,#(_UART_send_file_name_3_5 + 0x0001)
   08EF 74 2E              2165 	mov	a,#0x2E
   08F1 F0                 2166 	movx	@dptr,a
                           2167 ;	genPointerSet
                           2168 ;     genFarPointerSet
   08F2 90s01r00           2169 	mov	dptr,#(_UART_send_file_name_3_5 + 0x0002)
   08F5 74 2F              2170 	mov	a,#0x2F
   08F7 F0                 2171 	movx	@dptr,a
                           2172 ;	genPointerSet
                           2173 ;     genFarPointerSet
   08F8 90s01r01           2174 	mov	dptr,#(_UART_send_file_name_3_5 + 0x0003)
   08FB 74 64              2175 	mov	a,#0x64
   08FD F0                 2176 	movx	@dptr,a
                           2177 ;	genPointerSet
                           2178 ;     genFarPointerSet
   08FE 90s01r02           2179 	mov	dptr,#(_UART_send_file_name_3_5 + 0x0004)
   0901 74 72              2180 	mov	a,#0x72
   0903 F0                 2181 	movx	@dptr,a
                           2182 ;	genPointerSet
                           2183 ;     genFarPointerSet
   0904 90s01r03           2184 	mov	dptr,#(_UART_send_file_name_3_5 + 0x0005)
   0907 74 69              2185 	mov	a,#0x69
   0909 F0                 2186 	movx	@dptr,a
                           2187 ;	genPointerSet
                           2188 ;     genFarPointerSet
   090A 90s01r04           2189 	mov	dptr,#(_UART_send_file_name_3_5 + 0x0006)
   090D 74 76              2190 	mov	a,#0x76
   090F F0                 2191 	movx	@dptr,a
                           2192 ;	genPointerSet
                           2193 ;     genFarPointerSet
   0910 90s01r05           2194 	mov	dptr,#(_UART_send_file_name_3_5 + 0x0007)
   0913 74 65              2195 	mov	a,#0x65
   0915 F0                 2196 	movx	@dptr,a
                           2197 ;	genPointerSet
                           2198 ;     genFarPointerSet
   0916 90s01r06           2199 	mov	dptr,#(_UART_send_file_name_3_5 + 0x0008)
   0919 74 72              2200 	mov	a,#0x72
   091B F0                 2201 	movx	@dptr,a
                           2202 ;	genPointerSet
                           2203 ;     genFarPointerSet
   091C 90s01r07           2204 	mov	dptr,#(_UART_send_file_name_3_5 + 0x0009)
   091F 74 73              2205 	mov	a,#0x73
   0921 F0                 2206 	movx	@dptr,a
                           2207 ;	genPointerSet
                           2208 ;     genFarPointerSet
   0922 90s01r08           2209 	mov	dptr,#(_UART_send_file_name_3_5 + 0x000a)
   0925 74 2F              2210 	mov	a,#0x2F
   0927 F0                 2211 	movx	@dptr,a
                           2212 ;	genPointerSet
                           2213 ;     genFarPointerSet
   0928 90s01r09           2214 	mov	dptr,#(_UART_send_file_name_3_5 + 0x000b)
   092B 74 43              2215 	mov	a,#0x43
   092D F0                 2216 	movx	@dptr,a
                           2217 ;	genPointerSet
                           2218 ;     genFarPointerSet
   092E 90s01r0A           2219 	mov	dptr,#(_UART_send_file_name_3_5 + 0x000c)
   0931 74 6F              2220 	mov	a,#0x6F
   0933 F0                 2221 	movx	@dptr,a
                           2222 ;	genPointerSet
                           2223 ;     genFarPointerSet
   0934 90s01r0B           2224 	mov	dptr,#(_UART_send_file_name_3_5 + 0x000d)
   0937 74 72              2225 	mov	a,#0x72
   0939 F0                 2226 	movx	@dptr,a
                           2227 ;	genPointerSet
                           2228 ;     genFarPointerSet
   093A 90s01r0C           2229 	mov	dptr,#(_UART_send_file_name_3_5 + 0x000e)
   093D 74 65              2230 	mov	a,#0x65
   093F F0                 2231 	movx	@dptr,a
                           2232 ;	genPointerSet
                           2233 ;     genFarPointerSet
   0940 90s01r0D           2234 	mov	dptr,#(_UART_send_file_name_3_5 + 0x000f)
   0943 74 55              2235 	mov	a,#0x55
   0945 F0                 2236 	movx	@dptr,a
                           2237 ;	genPointerSet
                           2238 ;     genFarPointerSet
   0946 90s01r0E           2239 	mov	dptr,#(_UART_send_file_name_3_5 + 0x0010)
   0949 74 41              2240 	mov	a,#0x41
   094B F0                 2241 	movx	@dptr,a
                           2242 ;	genPointerSet
                           2243 ;     genFarPointerSet
   094C 90s01r0F           2244 	mov	dptr,#(_UART_send_file_name_3_5 + 0x0011)
   094F 74 52              2245 	mov	a,#0x52
   0951 F0                 2246 	movx	@dptr,a
                           2247 ;	genPointerSet
                           2248 ;     genFarPointerSet
   0952 90s01r10           2249 	mov	dptr,#(_UART_send_file_name_3_5 + 0x0012)
   0955 74 54              2250 	mov	a,#0x54
   0957 F0                 2251 	movx	@dptr,a
                           2252 ;	genPointerSet
                           2253 ;     genFarPointerSet
   0958 90s01r11           2254 	mov	dptr,#(_UART_send_file_name_3_5 + 0x0013)
   095B 74 61              2255 	mov	a,#0x61
   095D F0                 2256 	movx	@dptr,a
                           2257 ;	genPointerSet
                           2258 ;     genFarPointerSet
   095E 90s01r12           2259 	mov	dptr,#(_UART_send_file_name_3_5 + 0x0014)
   0961 74 70              2260 	mov	a,#0x70
   0963 F0                 2261 	movx	@dptr,a
                           2262 ;	genPointerSet
                           2263 ;     genFarPointerSet
   0964 90s01r13           2264 	mov	dptr,#(_UART_send_file_name_3_5 + 0x0015)
   0967 74 62              2265 	mov	a,#0x62
   0969 F0                 2266 	movx	@dptr,a
                           2267 ;	genPointerSet
                           2268 ;     genFarPointerSet
   096A 90s01r14           2269 	mov	dptr,#(_UART_send_file_name_3_5 + 0x0016)
   096D 74 2F              2270 	mov	a,#0x2F
   096F F0                 2271 	movx	@dptr,a
                           2272 ;	genPointerSet
                           2273 ;     genFarPointerSet
   0970 90s01r15           2274 	mov	dptr,#(_UART_send_file_name_3_5 + 0x0017)
   0973 74 63              2275 	mov	a,#0x63
   0975 F0                 2276 	movx	@dptr,a
                           2277 ;	genPointerSet
                           2278 ;     genFarPointerSet
   0976 90s01r16           2279 	mov	dptr,#(_UART_send_file_name_3_5 + 0x0018)
   0979 74 6F              2280 	mov	a,#0x6F
   097B F0                 2281 	movx	@dptr,a
                           2282 ;	genPointerSet
                           2283 ;     genFarPointerSet
   097C 90s01r17           2284 	mov	dptr,#(_UART_send_file_name_3_5 + 0x0019)
   097F 74 72              2285 	mov	a,#0x72
   0981 F0                 2286 	movx	@dptr,a
                           2287 ;	genPointerSet
                           2288 ;     genFarPointerSet
   0982 90s01r18           2289 	mov	dptr,#(_UART_send_file_name_3_5 + 0x001a)
   0985 74 65              2290 	mov	a,#0x65
   0987 F0                 2291 	movx	@dptr,a
                           2292 ;	genPointerSet
                           2293 ;     genFarPointerSet
   0988 90s01r19           2294 	mov	dptr,#(_UART_send_file_name_3_5 + 0x001b)
   098B 74 5F              2295 	mov	a,#0x5F
   098D F0                 2296 	movx	@dptr,a
                           2297 ;	genPointerSet
                           2298 ;     genFarPointerSet
   098E 90s01r1A           2299 	mov	dptr,#(_UART_send_file_name_3_5 + 0x001c)
   0991 74 75              2300 	mov	a,#0x75
   0993 F0                 2301 	movx	@dptr,a
                           2302 ;	genPointerSet
                           2303 ;     genFarPointerSet
   0994 90s01r1B           2304 	mov	dptr,#(_UART_send_file_name_3_5 + 0x001d)
   0997 74 61              2305 	mov	a,#0x61
   0999 F0                 2306 	movx	@dptr,a
                           2307 ;	genPointerSet
                           2308 ;     genFarPointerSet
   099A 90s01r1C           2309 	mov	dptr,#(_UART_send_file_name_3_5 + 0x001e)
   099D 74 72              2310 	mov	a,#0x72
   099F F0                 2311 	movx	@dptr,a
                           2312 ;	genPointerSet
                           2313 ;     genFarPointerSet
   09A0 90s01r1D           2314 	mov	dptr,#(_UART_send_file_name_3_5 + 0x001f)
   09A3 74 74              2315 	mov	a,#0x74
   09A5 F0                 2316 	movx	@dptr,a
                           2317 ;	genPointerSet
                           2318 ;     genFarPointerSet
   09A6 90s01r1E           2319 	mov	dptr,#(_UART_send_file_name_3_5 + 0x0020)
   09A9 74 5F              2320 	mov	a,#0x5F
   09AB F0                 2321 	movx	@dptr,a
                           2322 ;	genPointerSet
                           2323 ;     genFarPointerSet
   09AC 90s01r1F           2324 	mov	dptr,#(_UART_send_file_name_3_5 + 0x0021)
   09AF 74 61              2325 	mov	a,#0x61
   09B1 F0                 2326 	movx	@dptr,a
                           2327 ;	genPointerSet
                           2328 ;     genFarPointerSet
   09B2 90s01r20           2329 	mov	dptr,#(_UART_send_file_name_3_5 + 0x0022)
   09B5 74 70              2330 	mov	a,#0x70
   09B7 F0                 2331 	movx	@dptr,a
                           2332 ;	genPointerSet
                           2333 ;     genFarPointerSet
   09B8 90s01r21           2334 	mov	dptr,#(_UART_send_file_name_3_5 + 0x0023)
   09BB 74 62              2335 	mov	a,#0x62
   09BD F0                 2336 	movx	@dptr,a
                           2337 ;	genPointerSet
                           2338 ;     genFarPointerSet
   09BE 90s01r22           2339 	mov	dptr,#(_UART_send_file_name_3_5 + 0x0024)
   09C1 74 2E              2340 	mov	a,#0x2E
   09C3 F0                 2341 	movx	@dptr,a
                           2342 ;	genPointerSet
                           2343 ;     genFarPointerSet
   09C4 90s01r23           2344 	mov	dptr,#(_UART_send_file_name_3_5 + 0x0025)
   09C7 74 63              2345 	mov	a,#0x63
   09C9 F0                 2346 	movx	@dptr,a
                           2347 ;	genPointerSet
                           2348 ;     genFarPointerSet
   09CA 90s01r24           2349 	mov	dptr,#(_UART_send_file_name_3_5 + 0x0026)
   09CD 74 00              2350 	mov	a,#0x00
   09CF F0                 2351 	movx	@dptr,a
                           2352 ;	genAssign
   09D0 90s00r00           2353 	mov	dptr,#_HAL_assert_fail_PARM_2
   09D3 74 7E              2354 	mov	a,#0x7E
   09D5 F0                 2355 	movx	@dptr,a
   09D6 E4                 2356 	clr	a
   09D7 A3                 2357 	inc	dptr
   09D8 F0                 2358 	movx	@dptr,a
   09D9 A3                 2359 	inc	dptr
   09DA F0                 2360 	movx	@dptr,a
   09DB A3                 2361 	inc	dptr
   09DC F0                 2362 	movx	@dptr,a
                           2363 ;	genCall
   09DD 75 82rFE           2364 	mov	dpl,#_UART_send_file_name_3_5
   09E0 75 83s00           2365 	mov	dph,#(_UART_send_file_name_3_5 >> 8)
   09E3 75 F0 00           2366 	mov	b,#0x00
   09E6 C0 05              2367 	push	ar5
   09E8 12s00r00           2368 	lcall	_HAL_assert_fail
   09EB D0 05              2369 	pop	ar5
   09ED                    2370 00109$:
                    09ED   2371 	C$core_uart_apb.c$127$2$6 ==.
                           2372 ;	../drivers/CoreUARTapb/core_uart_apb.c:127: HAL_ASSERT( tx_size > 0 )
                           2373 ;	genAssign
   09ED 90s00rD0           2374 	mov	dptr,#_UART_send_PARM_3
   09F0 E0                 2375 	movx	a,@dptr
   09F1 FE                 2376 	mov	r6,a
   09F2 A3                 2377 	inc	dptr
   09F3 E0                 2378 	movx	a,@dptr
   09F4 FF                 2379 	mov	r7,a
                           2380 ;	genIfx
   09F5 EE                 2381 	mov	a,r6
   09F6 4F                 2382 	orl	a,r7
                           2383 ;	genIfxJump
   09F7 60 03              2384 	jz	00143$
   09F9 02s0Br0B           2385 	ljmp	00114$
   09FC                    2386 00143$:
                           2387 ;	genPointerSet
                           2388 ;     genFarPointerSet
   09FC 90s01r25           2389 	mov	dptr,#_UART_send_file_name_3_7
   09FF 74 2E              2390 	mov	a,#0x2E
   0A01 F0                 2391 	movx	@dptr,a
                           2392 ;	genPointerSet
                           2393 ;     genFarPointerSet
   0A02 90s01r26           2394 	mov	dptr,#(_UART_send_file_name_3_7 + 0x0001)
   0A05 74 2E              2395 	mov	a,#0x2E
   0A07 F0                 2396 	movx	@dptr,a
                           2397 ;	genPointerSet
                           2398 ;     genFarPointerSet
   0A08 90s01r27           2399 	mov	dptr,#(_UART_send_file_name_3_7 + 0x0002)
   0A0B 74 2F              2400 	mov	a,#0x2F
   0A0D F0                 2401 	movx	@dptr,a
                           2402 ;	genPointerSet
                           2403 ;     genFarPointerSet
   0A0E 90s01r28           2404 	mov	dptr,#(_UART_send_file_name_3_7 + 0x0003)
   0A11 74 64              2405 	mov	a,#0x64
   0A13 F0                 2406 	movx	@dptr,a
                           2407 ;	genPointerSet
                           2408 ;     genFarPointerSet
   0A14 90s01r29           2409 	mov	dptr,#(_UART_send_file_name_3_7 + 0x0004)
   0A17 74 72              2410 	mov	a,#0x72
   0A19 F0                 2411 	movx	@dptr,a
                           2412 ;	genPointerSet
                           2413 ;     genFarPointerSet
   0A1A 90s01r2A           2414 	mov	dptr,#(_UART_send_file_name_3_7 + 0x0005)
   0A1D 74 69              2415 	mov	a,#0x69
   0A1F F0                 2416 	movx	@dptr,a
                           2417 ;	genPointerSet
                           2418 ;     genFarPointerSet
   0A20 90s01r2B           2419 	mov	dptr,#(_UART_send_file_name_3_7 + 0x0006)
   0A23 74 76              2420 	mov	a,#0x76
   0A25 F0                 2421 	movx	@dptr,a
                           2422 ;	genPointerSet
                           2423 ;     genFarPointerSet
   0A26 90s01r2C           2424 	mov	dptr,#(_UART_send_file_name_3_7 + 0x0007)
   0A29 74 65              2425 	mov	a,#0x65
   0A2B F0                 2426 	movx	@dptr,a
                           2427 ;	genPointerSet
                           2428 ;     genFarPointerSet
   0A2C 90s01r2D           2429 	mov	dptr,#(_UART_send_file_name_3_7 + 0x0008)
   0A2F 74 72              2430 	mov	a,#0x72
   0A31 F0                 2431 	movx	@dptr,a
                           2432 ;	genPointerSet
                           2433 ;     genFarPointerSet
   0A32 90s01r2E           2434 	mov	dptr,#(_UART_send_file_name_3_7 + 0x0009)
   0A35 74 73              2435 	mov	a,#0x73
   0A37 F0                 2436 	movx	@dptr,a
                           2437 ;	genPointerSet
                           2438 ;     genFarPointerSet
   0A38 90s01r2F           2439 	mov	dptr,#(_UART_send_file_name_3_7 + 0x000a)
   0A3B 74 2F              2440 	mov	a,#0x2F
   0A3D F0                 2441 	movx	@dptr,a
                           2442 ;	genPointerSet
                           2443 ;     genFarPointerSet
   0A3E 90s01r30           2444 	mov	dptr,#(_UART_send_file_name_3_7 + 0x000b)
   0A41 74 43              2445 	mov	a,#0x43
   0A43 F0                 2446 	movx	@dptr,a
                           2447 ;	genPointerSet
                           2448 ;     genFarPointerSet
   0A44 90s01r31           2449 	mov	dptr,#(_UART_send_file_name_3_7 + 0x000c)
   0A47 74 6F              2450 	mov	a,#0x6F
   0A49 F0                 2451 	movx	@dptr,a
                           2452 ;	genPointerSet
                           2453 ;     genFarPointerSet
   0A4A 90s01r32           2454 	mov	dptr,#(_UART_send_file_name_3_7 + 0x000d)
   0A4D 74 72              2455 	mov	a,#0x72
   0A4F F0                 2456 	movx	@dptr,a
                           2457 ;	genPointerSet
                           2458 ;     genFarPointerSet
   0A50 90s01r33           2459 	mov	dptr,#(_UART_send_file_name_3_7 + 0x000e)
   0A53 74 65              2460 	mov	a,#0x65
   0A55 F0                 2461 	movx	@dptr,a
                           2462 ;	genPointerSet
                           2463 ;     genFarPointerSet
   0A56 90s01r34           2464 	mov	dptr,#(_UART_send_file_name_3_7 + 0x000f)
   0A59 74 55              2465 	mov	a,#0x55
   0A5B F0                 2466 	movx	@dptr,a
                           2467 ;	genPointerSet
                           2468 ;     genFarPointerSet
   0A5C 90s01r35           2469 	mov	dptr,#(_UART_send_file_name_3_7 + 0x0010)
   0A5F 74 41              2470 	mov	a,#0x41
   0A61 F0                 2471 	movx	@dptr,a
                           2472 ;	genPointerSet
                           2473 ;     genFarPointerSet
   0A62 90s01r36           2474 	mov	dptr,#(_UART_send_file_name_3_7 + 0x0011)
   0A65 74 52              2475 	mov	a,#0x52
   0A67 F0                 2476 	movx	@dptr,a
                           2477 ;	genPointerSet
                           2478 ;     genFarPointerSet
   0A68 90s01r37           2479 	mov	dptr,#(_UART_send_file_name_3_7 + 0x0012)
   0A6B 74 54              2480 	mov	a,#0x54
   0A6D F0                 2481 	movx	@dptr,a
                           2482 ;	genPointerSet
                           2483 ;     genFarPointerSet
   0A6E 90s01r38           2484 	mov	dptr,#(_UART_send_file_name_3_7 + 0x0013)
   0A71 74 61              2485 	mov	a,#0x61
   0A73 F0                 2486 	movx	@dptr,a
                           2487 ;	genPointerSet
                           2488 ;     genFarPointerSet
   0A74 90s01r39           2489 	mov	dptr,#(_UART_send_file_name_3_7 + 0x0014)
   0A77 74 70              2490 	mov	a,#0x70
   0A79 F0                 2491 	movx	@dptr,a
                           2492 ;	genPointerSet
                           2493 ;     genFarPointerSet
   0A7A 90s01r3A           2494 	mov	dptr,#(_UART_send_file_name_3_7 + 0x0015)
   0A7D 74 62              2495 	mov	a,#0x62
   0A7F F0                 2496 	movx	@dptr,a
                           2497 ;	genPointerSet
                           2498 ;     genFarPointerSet
   0A80 90s01r3B           2499 	mov	dptr,#(_UART_send_file_name_3_7 + 0x0016)
   0A83 74 2F              2500 	mov	a,#0x2F
   0A85 F0                 2501 	movx	@dptr,a
                           2502 ;	genPointerSet
                           2503 ;     genFarPointerSet
   0A86 90s01r3C           2504 	mov	dptr,#(_UART_send_file_name_3_7 + 0x0017)
   0A89 74 63              2505 	mov	a,#0x63
   0A8B F0                 2506 	movx	@dptr,a
                           2507 ;	genPointerSet
                           2508 ;     genFarPointerSet
   0A8C 90s01r3D           2509 	mov	dptr,#(_UART_send_file_name_3_7 + 0x0018)
   0A8F 74 6F              2510 	mov	a,#0x6F
   0A91 F0                 2511 	movx	@dptr,a
                           2512 ;	genPointerSet
                           2513 ;     genFarPointerSet
   0A92 90s01r3E           2514 	mov	dptr,#(_UART_send_file_name_3_7 + 0x0019)
   0A95 74 72              2515 	mov	a,#0x72
   0A97 F0                 2516 	movx	@dptr,a
                           2517 ;	genPointerSet
                           2518 ;     genFarPointerSet
   0A98 90s01r3F           2519 	mov	dptr,#(_UART_send_file_name_3_7 + 0x001a)
   0A9B 74 65              2520 	mov	a,#0x65
   0A9D F0                 2521 	movx	@dptr,a
                           2522 ;	genPointerSet
                           2523 ;     genFarPointerSet
   0A9E 90s01r40           2524 	mov	dptr,#(_UART_send_file_name_3_7 + 0x001b)
   0AA1 74 5F              2525 	mov	a,#0x5F
   0AA3 F0                 2526 	movx	@dptr,a
                           2527 ;	genPointerSet
                           2528 ;     genFarPointerSet
   0AA4 90s01r41           2529 	mov	dptr,#(_UART_send_file_name_3_7 + 0x001c)
   0AA7 74 75              2530 	mov	a,#0x75
   0AA9 F0                 2531 	movx	@dptr,a
                           2532 ;	genPointerSet
                           2533 ;     genFarPointerSet
   0AAA 90s01r42           2534 	mov	dptr,#(_UART_send_file_name_3_7 + 0x001d)
   0AAD 74 61              2535 	mov	a,#0x61
   0AAF F0                 2536 	movx	@dptr,a
                           2537 ;	genPointerSet
                           2538 ;     genFarPointerSet
   0AB0 90s01r43           2539 	mov	dptr,#(_UART_send_file_name_3_7 + 0x001e)
   0AB3 74 72              2540 	mov	a,#0x72
   0AB5 F0                 2541 	movx	@dptr,a
                           2542 ;	genPointerSet
                           2543 ;     genFarPointerSet
   0AB6 90s01r44           2544 	mov	dptr,#(_UART_send_file_name_3_7 + 0x001f)
   0AB9 74 74              2545 	mov	a,#0x74
   0ABB F0                 2546 	movx	@dptr,a
                           2547 ;	genPointerSet
                           2548 ;     genFarPointerSet
   0ABC 90s01r45           2549 	mov	dptr,#(_UART_send_file_name_3_7 + 0x0020)
   0ABF 74 5F              2550 	mov	a,#0x5F
   0AC1 F0                 2551 	movx	@dptr,a
                           2552 ;	genPointerSet
                           2553 ;     genFarPointerSet
   0AC2 90s01r46           2554 	mov	dptr,#(_UART_send_file_name_3_7 + 0x0021)
   0AC5 74 61              2555 	mov	a,#0x61
   0AC7 F0                 2556 	movx	@dptr,a
                           2557 ;	genPointerSet
                           2558 ;     genFarPointerSet
   0AC8 90s01r47           2559 	mov	dptr,#(_UART_send_file_name_3_7 + 0x0022)
   0ACB 74 70              2560 	mov	a,#0x70
   0ACD F0                 2561 	movx	@dptr,a
                           2562 ;	genPointerSet
                           2563 ;     genFarPointerSet
   0ACE 90s01r48           2564 	mov	dptr,#(_UART_send_file_name_3_7 + 0x0023)
   0AD1 74 62              2565 	mov	a,#0x62
   0AD3 F0                 2566 	movx	@dptr,a
                           2567 ;	genPointerSet
                           2568 ;     genFarPointerSet
   0AD4 90s01r49           2569 	mov	dptr,#(_UART_send_file_name_3_7 + 0x0024)
   0AD7 74 2E              2570 	mov	a,#0x2E
   0AD9 F0                 2571 	movx	@dptr,a
                           2572 ;	genPointerSet
                           2573 ;     genFarPointerSet
   0ADA 90s01r4A           2574 	mov	dptr,#(_UART_send_file_name_3_7 + 0x0025)
   0ADD 74 63              2575 	mov	a,#0x63
   0ADF F0                 2576 	movx	@dptr,a
                           2577 ;	genPointerSet
                           2578 ;     genFarPointerSet
   0AE0 90s01r4B           2579 	mov	dptr,#(_UART_send_file_name_3_7 + 0x0026)
   0AE3 74 00              2580 	mov	a,#0x00
   0AE5 F0                 2581 	movx	@dptr,a
                           2582 ;	genAssign
   0AE6 90s00r00           2583 	mov	dptr,#_HAL_assert_fail_PARM_2
   0AE9 74 7F              2584 	mov	a,#0x7F
   0AEB F0                 2585 	movx	@dptr,a
   0AEC E4                 2586 	clr	a
   0AED A3                 2587 	inc	dptr
   0AEE F0                 2588 	movx	@dptr,a
   0AEF A3                 2589 	inc	dptr
   0AF0 F0                 2590 	movx	@dptr,a
   0AF1 A3                 2591 	inc	dptr
   0AF2 F0                 2592 	movx	@dptr,a
                           2593 ;	genCall
   0AF3 75 82r25           2594 	mov	dpl,#_UART_send_file_name_3_7
   0AF6 75 83s01           2595 	mov	dph,#(_UART_send_file_name_3_7 >> 8)
   0AF9 75 F0 00           2596 	mov	b,#0x00
   0AFC C0 05              2597 	push	ar5
   0AFE C0 06              2598 	push	ar6
   0B00 C0 07              2599 	push	ar7
   0B02 12s00r00           2600 	lcall	_HAL_assert_fail
   0B05 D0 07              2601 	pop	ar7
   0B07 D0 06              2602 	pop	ar6
   0B09 D0 05              2603 	pop	ar5
   0B0B                    2604 00114$:
                    0B0B   2605 	C$core_uart_apb.c$129$1$1 ==.
                           2606 ;	../drivers/CoreUARTapb/core_uart_apb.c:129: if( (this_uart != NULL_INSTANCE) &&
                           2607 ;	genAssign
   0B0B 90s00rD2           2608 	mov	dptr,#_UART_send_this_uart_1_1
   0B0E E0                 2609 	movx	a,@dptr
   0B0F FA                 2610 	mov	r2,a
   0B10 A3                 2611 	inc	dptr
   0B11 E0                 2612 	movx	a,@dptr
   0B12 FB                 2613 	mov	r3,a
   0B13 A3                 2614 	inc	dptr
   0B14 E0                 2615 	movx	a,@dptr
   0B15 FC                 2616 	mov	r4,a
                           2617 ;	genCmpEq
                           2618 ;	gencjneshort
   0B16 BA 00 09           2619 	cjne	r2,#0x00,00144$
   0B19 BB 00 06           2620 	cjne	r3,#0x00,00144$
   0B1C BC 00 03           2621 	cjne	r4,#0x00,00144$
   0B1F 02s0BrFD           2622 	ljmp	00127$
   0B22                    2623 00144$:
                    0B22   2624 	C$core_uart_apb.c$130$1$1 ==.
                           2625 ;	../drivers/CoreUARTapb/core_uart_apb.c:130: (tx_buffer != NULL_BUFFER)   &&
                           2626 ;	genIfx
   0B22 ED                 2627 	mov	a,r5
                           2628 ;	genIfxJump
   0B23 60 03              2629 	jz	00145$
   0B25 02s0BrFD           2630 	ljmp	00127$
   0B28                    2631 00145$:
                    0B28   2632 	C$core_uart_apb.c$131$1$1 ==.
                           2633 ;	../drivers/CoreUARTapb/core_uart_apb.c:131: (tx_size > (size_t)0) )
                           2634 ;	genIfx
   0B28 EE                 2635 	mov	a,r6
   0B29 4F                 2636 	orl	a,r7
                           2637 ;	genIfxJump
   0B2A 70 03              2638 	jnz	00146$
   0B2C 02s0BrFD           2639 	ljmp	00127$
   0B2F                    2640 00146$:
                    0B2F   2641 	C$core_uart_apb.c$133$2$8 ==.
                           2642 ;	../drivers/CoreUARTapb/core_uart_apb.c:133: for ( char_idx = (size_t)0; char_idx < tx_size; char_idx++ )
                           2643 ;	genAssign
   0B2F 90s00rD5           2644 	mov	dptr,#_UART_send_char_idx_1_1
   0B32 E4                 2645 	clr	a
   0B33 F0                 2646 	movx	@dptr,a
   0B34 A3                 2647 	inc	dptr
   0B35 F0                 2648 	movx	@dptr,a
                           2649 ;	genAssign
   0B36 8A 05              2650 	mov	ar5,r2
   0B38 8B 00              2651 	mov	ar0,r3
   0B3A 8C 01              2652 	mov	ar1,r4
   0B3C                    2653 00123$:
                           2654 ;	genIpush
                           2655 ;	genAssign
   0B3C 90s00rD5           2656 	mov	dptr,#_UART_send_char_idx_1_1
   0B3F E0                 2657 	movx	a,@dptr
   0B40 FA                 2658 	mov	r2,a
   0B41 A3                 2659 	inc	dptr
   0B42 E0                 2660 	movx	a,@dptr
   0B43 FB                 2661 	mov	r3,a
                           2662 ;	genCmpLt
                           2663 ;	genCmp
   0B44 C3                 2664 	clr	c
   0B45 EA                 2665 	mov	a,r2
   0B46 9E                 2666 	subb	a,r6
   0B47 EB                 2667 	mov	a,r3
   0B48 9F                 2668 	subb	a,r7
   0B49 E4                 2669 	clr	a
   0B4A 33                 2670 	rlc	a
                           2671 ;	genIpop
                           2672 ;	genIfx
                           2673 ;	genIfxJump
   0B4B 70 03              2674 	jnz	00147$
   0B4D 02s0BrFD           2675 	ljmp	00127$
   0B50                    2676 00147$:
                    0B50   2677 	C$core_uart_apb.c$136$3$9 ==.
                           2678 ;	../drivers/CoreUARTapb/core_uart_apb.c:136: do {
   0B50                    2679 00116$:
                    0B50   2680 	C$core_uart_apb.c$137$2$1 ==.
                           2681 ;	../drivers/CoreUARTapb/core_uart_apb.c:137: tx_ready = HAL_get_8bit_reg( this_uart->base_address, STATUS ) &
                           2682 ;	genIpush
                           2683 ;	genPointerGet
                           2684 ;	genGenPointerGet
   0B50 8D 82              2685 	mov	dpl,r5
   0B52 88 83              2686 	mov	dph,r0
   0B54 89 F0              2687 	mov	b,r1
   0B56 12s00r00           2688 	lcall	__gptrget
   0B59 FA                 2689 	mov	r2,a
   0B5A A3                 2690 	inc	dptr
   0B5B 12s00r00           2691 	lcall	__gptrget
   0B5E FB                 2692 	mov	r3,a
                           2693 ;	genPlus
                           2694 ;	genPlusIncr
   0B5F 74 10              2695 	mov	a,#0x10
   0B61 25 02              2696 	add	a,ar2
   0B63 FA                 2697 	mov	r2,a
   0B64 74 00              2698 	mov	a,#0x00
   0B66 35 03              2699 	addc	a,ar3
   0B68 FB                 2700 	mov	r3,a
                           2701 ;	genCall
   0B69 8A 82              2702 	mov	dpl,r2
   0B6B 8B 83              2703 	mov	dph,r3
   0B6D C0 05              2704 	push	ar5
   0B6F C0 06              2705 	push	ar6
   0B71 C0 07              2706 	push	ar7
   0B73 C0 00              2707 	push	ar0
   0B75 C0 01              2708 	push	ar1
   0B77 12s00r00           2709 	lcall	_HW_get_8bit_reg
   0B7A AA 82              2710 	mov	r2,dpl
   0B7C D0 01              2711 	pop	ar1
   0B7E D0 00              2712 	pop	ar0
   0B80 D0 07              2713 	pop	ar7
   0B82 D0 06              2714 	pop	ar6
   0B84 D0 05              2715 	pop	ar5
                           2716 ;	genCast
   0B86 7B 00              2717 	mov	r3,#0x00
                           2718 ;	genAnd
   0B88 53 02 01           2719 	anl	ar2,#0x01
   0B8B 7B 00              2720 	mov	r3,#0x00
                           2721 ;	genCast
                    0B8D   2722 	C$core_uart_apb.c$139$2$1 ==.
                           2723 ;	../drivers/CoreUARTapb/core_uart_apb.c:139: } while ( !tx_ready );
                           2724 ;	genIfx
   0B8D EA                 2725 	mov	a,r2
                           2726 ;	genIpop
                           2727 ;	genIfxJump
   0B8E 70 03              2728 	jnz	00148$
   0B90 02s0Br50           2729 	ljmp	00116$
   0B93                    2730 00148$:
                    0B93   2731 	C$core_uart_apb.c$141$2$1 ==.
                           2732 ;	../drivers/CoreUARTapb/core_uart_apb.c:141: HAL_set_8bit_reg( this_uart->base_address, TXDATA,
                           2733 ;	genIpush
   0B93 C0 06              2734 	push	ar6
   0B95 C0 07              2735 	push	ar7
                           2736 ;	genPointerGet
                           2737 ;	genGenPointerGet
   0B97 8D 82              2738 	mov	dpl,r5
   0B99 88 83              2739 	mov	dph,r0
   0B9B 89 F0              2740 	mov	b,r1
   0B9D 12s00r00           2741 	lcall	__gptrget
   0BA0 F5*07              2742 	mov	_UART_send_sloc0_1_0,a
   0BA2 A3                 2743 	inc	dptr
   0BA3 12s00r00           2744 	lcall	__gptrget
   0BA6 F5*08              2745 	mov	(_UART_send_sloc0_1_0 + 1),a
                           2746 ;	genAssign
   0BA8 90s00rD5           2747 	mov	dptr,#_UART_send_char_idx_1_1
   0BAB E0                 2748 	movx	a,@dptr
   0BAC FE                 2749 	mov	r6,a
   0BAD A3                 2750 	inc	dptr
   0BAE E0                 2751 	movx	a,@dptr
   0BAF FF                 2752 	mov	r7,a
                           2753 ;	genPlus
   0BB0 E5 06              2754 	mov	a,ar6
   0BB2 25*0A              2755 	add	a,_UART_send_sloc1_1_0
   0BB4 FA                 2756 	mov	r2,a
   0BB5 E5 07              2757 	mov	a,ar7
   0BB7 35*0B              2758 	addc	a,(_UART_send_sloc1_1_0 + 1)
   0BB9 FB                 2759 	mov	r3,a
   0BBA AC*0C              2760 	mov	r4,(_UART_send_sloc1_1_0 + 2)
                           2761 ;	genPointerGet
                           2762 ;	genGenPointerGet
   0BBC 8A 82              2763 	mov	dpl,r2
   0BBE 8B 83              2764 	mov	dph,r3
   0BC0 8C F0              2765 	mov	b,r4
   0BC2 12s00r00           2766 	lcall	__gptrget
   0BC5 FA                 2767 	mov	r2,a
                           2768 ;	genAssign
   0BC6 90s00r00           2769 	mov	dptr,#_HW_set_8bit_reg_PARM_2
   0BC9 EA                 2770 	mov	a,r2
   0BCA F0                 2771 	movx	@dptr,a
                           2772 ;	genCall
   0BCB 85*07 82           2773 	mov	dpl,_UART_send_sloc0_1_0
   0BCE 85*08 83           2774 	mov	dph,(_UART_send_sloc0_1_0 + 1)
   0BD1 C0 05              2775 	push	ar5
   0BD3 C0 06              2776 	push	ar6
   0BD5 C0 07              2777 	push	ar7
   0BD7 C0 00              2778 	push	ar0
   0BD9 C0 01              2779 	push	ar1
   0BDB 12s00r00           2780 	lcall	_HW_set_8bit_reg
   0BDE D0 01              2781 	pop	ar1
   0BE0 D0 00              2782 	pop	ar0
   0BE2 D0 07              2783 	pop	ar7
   0BE4 D0 06              2784 	pop	ar6
   0BE6 D0 05              2785 	pop	ar5
                    0BE8   2786 	C$core_uart_apb.c$133$2$8 ==.
                           2787 ;	../drivers/CoreUARTapb/core_uart_apb.c:133: for ( char_idx = (size_t)0; char_idx < tx_size; char_idx++ )
                           2788 ;	genPlus
   0BE8 90s00rD5           2789 	mov	dptr,#_UART_send_char_idx_1_1
                           2790 ;	genPlusIncr
   0BEB 74 01              2791 	mov	a,#0x01
   0BED 25 06              2792 	add	a,ar6
   0BEF F0                 2793 	movx	@dptr,a
   0BF0 74 00              2794 	mov	a,#0x00
   0BF2 35 07              2795 	addc	a,ar7
   0BF4 A3                 2796 	inc	dptr
   0BF5 F0                 2797 	movx	@dptr,a
                           2798 ;	genIpop
   0BF6 D0 07              2799 	pop	ar7
   0BF8 D0 06              2800 	pop	ar6
   0BFA 02s0Br3C           2801 	ljmp	00123$
   0BFD                    2802 00127$:
                    0BFD   2803 	C$core_uart_apb.c$145$2$1 ==.
                    0BFD   2804 	XG$UART_send$0$0 ==.
   0BFD 22                 2805 	ret
                           2806 ;------------------------------------------------------------
                           2807 ;Allocation info for local variables in function 'UART_fill_tx_fifo'
                           2808 ;------------------------------------------------------------
                           2809 ;sloc0                     Allocated with name '_UART_fill_tx_fifo_sloc0_1_0'
                           2810 ;sloc1                     Allocated with name '_UART_fill_tx_fifo_sloc1_1_0'
                           2811 ;tx_buffer                 Allocated with name '_UART_fill_tx_fifo_PARM_2'
                           2812 ;tx_size                   Allocated with name '_UART_fill_tx_fifo_PARM_3'
                           2813 ;this_uart                 Allocated with name '_UART_fill_tx_fifo_this_uart_1_1'
                           2814 ;tx_ready                  Allocated with name '_UART_fill_tx_fifo_tx_ready_1_1'
                           2815 ;size_sent                 Allocated with name '_UART_fill_tx_fifo_size_sent_1_1'
                           2816 ;file_name                 Allocated with name '_UART_fill_tx_fifo_file_name_3_3'
                           2817 ;file_name                 Allocated with name '_UART_fill_tx_fifo_file_name_3_5'
                           2818 ;file_name                 Allocated with name '_UART_fill_tx_fifo_file_name_3_7'
                           2819 ;------------------------------------------------------------
                    0BFE   2820 	G$UART_fill_tx_fifo$0$0 ==.
                    0BFE   2821 	C$core_uart_apb.c$152$2$1 ==.
                           2822 ;	../drivers/CoreUARTapb/core_uart_apb.c:152: UART_fill_tx_fifo
                           2823 ;	-----------------------------------------
                           2824 ;	 function UART_fill_tx_fifo
                           2825 ;	-----------------------------------------
   0BFE                    2826 _UART_fill_tx_fifo:
                           2827 ;	genReceive
   0BFE AA F0              2828 	mov	r2,b
   0C00 AB 83              2829 	mov	r3,dph
   0C02 E5 82              2830 	mov	a,dpl
   0C04 90s01r51           2831 	mov	dptr,#_UART_fill_tx_fifo_this_uart_1_1
   0C07 F0                 2832 	movx	@dptr,a
   0C08 A3                 2833 	inc	dptr
   0C09 EB                 2834 	mov	a,r3
   0C0A F0                 2835 	movx	@dptr,a
   0C0B A3                 2836 	inc	dptr
   0C0C EA                 2837 	mov	a,r2
   0C0D F0                 2838 	movx	@dptr,a
                    0C0E   2839 	C$core_uart_apb.c$160$1$1 ==.
                           2840 ;	../drivers/CoreUARTapb/core_uart_apb.c:160: size_t size_sent = 0u;
                           2841 ;	genAssign
   0C0E 90s01r54           2842 	mov	dptr,#_UART_fill_tx_fifo_size_sent_1_1
   0C11 E4                 2843 	clr	a
   0C12 F0                 2844 	movx	@dptr,a
   0C13 A3                 2845 	inc	dptr
   0C14 F0                 2846 	movx	@dptr,a
                    0C15   2847 	C$core_uart_apb.c$162$2$2 ==.
                           2848 ;	../drivers/CoreUARTapb/core_uart_apb.c:162: HAL_ASSERT( this_uart != NULL_INSTANCE )
                           2849 ;	genAssign
   0C15 90s01r51           2850 	mov	dptr,#_UART_fill_tx_fifo_this_uart_1_1
   0C18 E0                 2851 	movx	a,@dptr
   0C19 FA                 2852 	mov	r2,a
   0C1A A3                 2853 	inc	dptr
   0C1B E0                 2854 	movx	a,@dptr
   0C1C FB                 2855 	mov	r3,a
   0C1D A3                 2856 	inc	dptr
   0C1E E0                 2857 	movx	a,@dptr
   0C1F FC                 2858 	mov	r4,a
                           2859 ;	genCmpEq
                           2860 ;	gencjneshort
   0C20 BA 00 08           2861 	cjne	r2,#0x00,00136$
   0C23 BB 00 05           2862 	cjne	r3,#0x00,00136$
   0C26 BC 00 02           2863 	cjne	r4,#0x00,00136$
   0C29 80 03              2864 	sjmp	00137$
   0C2B                    2865 00136$:
   0C2B 02s0Dr31           2866 	ljmp	00104$
   0C2E                    2867 00137$:
                           2868 ;	genPointerSet
                           2869 ;     genFarPointerSet
   0C2E 90s01r56           2870 	mov	dptr,#_UART_fill_tx_fifo_file_name_3_3
   0C31 74 2E              2871 	mov	a,#0x2E
   0C33 F0                 2872 	movx	@dptr,a
                           2873 ;	genPointerSet
                           2874 ;     genFarPointerSet
   0C34 90s01r57           2875 	mov	dptr,#(_UART_fill_tx_fifo_file_name_3_3 + 0x0001)
   0C37 74 2E              2876 	mov	a,#0x2E
   0C39 F0                 2877 	movx	@dptr,a
                           2878 ;	genPointerSet
                           2879 ;     genFarPointerSet
   0C3A 90s01r58           2880 	mov	dptr,#(_UART_fill_tx_fifo_file_name_3_3 + 0x0002)
   0C3D 74 2F              2881 	mov	a,#0x2F
   0C3F F0                 2882 	movx	@dptr,a
                           2883 ;	genPointerSet
                           2884 ;     genFarPointerSet
   0C40 90s01r59           2885 	mov	dptr,#(_UART_fill_tx_fifo_file_name_3_3 + 0x0003)
   0C43 74 64              2886 	mov	a,#0x64
   0C45 F0                 2887 	movx	@dptr,a
                           2888 ;	genPointerSet
                           2889 ;     genFarPointerSet
   0C46 90s01r5A           2890 	mov	dptr,#(_UART_fill_tx_fifo_file_name_3_3 + 0x0004)
   0C49 74 72              2891 	mov	a,#0x72
   0C4B F0                 2892 	movx	@dptr,a
                           2893 ;	genPointerSet
                           2894 ;     genFarPointerSet
   0C4C 90s01r5B           2895 	mov	dptr,#(_UART_fill_tx_fifo_file_name_3_3 + 0x0005)
   0C4F 74 69              2896 	mov	a,#0x69
   0C51 F0                 2897 	movx	@dptr,a
                           2898 ;	genPointerSet
                           2899 ;     genFarPointerSet
   0C52 90s01r5C           2900 	mov	dptr,#(_UART_fill_tx_fifo_file_name_3_3 + 0x0006)
   0C55 74 76              2901 	mov	a,#0x76
   0C57 F0                 2902 	movx	@dptr,a
                           2903 ;	genPointerSet
                           2904 ;     genFarPointerSet
   0C58 90s01r5D           2905 	mov	dptr,#(_UART_fill_tx_fifo_file_name_3_3 + 0x0007)
   0C5B 74 65              2906 	mov	a,#0x65
   0C5D F0                 2907 	movx	@dptr,a
                           2908 ;	genPointerSet
                           2909 ;     genFarPointerSet
   0C5E 90s01r5E           2910 	mov	dptr,#(_UART_fill_tx_fifo_file_name_3_3 + 0x0008)
   0C61 74 72              2911 	mov	a,#0x72
   0C63 F0                 2912 	movx	@dptr,a
                           2913 ;	genPointerSet
                           2914 ;     genFarPointerSet
   0C64 90s01r5F           2915 	mov	dptr,#(_UART_fill_tx_fifo_file_name_3_3 + 0x0009)
   0C67 74 73              2916 	mov	a,#0x73
   0C69 F0                 2917 	movx	@dptr,a
                           2918 ;	genPointerSet
                           2919 ;     genFarPointerSet
   0C6A 90s01r60           2920 	mov	dptr,#(_UART_fill_tx_fifo_file_name_3_3 + 0x000a)
   0C6D 74 2F              2921 	mov	a,#0x2F
   0C6F F0                 2922 	movx	@dptr,a
                           2923 ;	genPointerSet
                           2924 ;     genFarPointerSet
   0C70 90s01r61           2925 	mov	dptr,#(_UART_fill_tx_fifo_file_name_3_3 + 0x000b)
   0C73 74 43              2926 	mov	a,#0x43
   0C75 F0                 2927 	movx	@dptr,a
                           2928 ;	genPointerSet
                           2929 ;     genFarPointerSet
   0C76 90s01r62           2930 	mov	dptr,#(_UART_fill_tx_fifo_file_name_3_3 + 0x000c)
   0C79 74 6F              2931 	mov	a,#0x6F
   0C7B F0                 2932 	movx	@dptr,a
                           2933 ;	genPointerSet
                           2934 ;     genFarPointerSet
   0C7C 90s01r63           2935 	mov	dptr,#(_UART_fill_tx_fifo_file_name_3_3 + 0x000d)
   0C7F 74 72              2936 	mov	a,#0x72
   0C81 F0                 2937 	movx	@dptr,a
                           2938 ;	genPointerSet
                           2939 ;     genFarPointerSet
   0C82 90s01r64           2940 	mov	dptr,#(_UART_fill_tx_fifo_file_name_3_3 + 0x000e)
   0C85 74 65              2941 	mov	a,#0x65
   0C87 F0                 2942 	movx	@dptr,a
                           2943 ;	genPointerSet
                           2944 ;     genFarPointerSet
   0C88 90s01r65           2945 	mov	dptr,#(_UART_fill_tx_fifo_file_name_3_3 + 0x000f)
   0C8B 74 55              2946 	mov	a,#0x55
   0C8D F0                 2947 	movx	@dptr,a
                           2948 ;	genPointerSet
                           2949 ;     genFarPointerSet
   0C8E 90s01r66           2950 	mov	dptr,#(_UART_fill_tx_fifo_file_name_3_3 + 0x0010)
   0C91 74 41              2951 	mov	a,#0x41
   0C93 F0                 2952 	movx	@dptr,a
                           2953 ;	genPointerSet
                           2954 ;     genFarPointerSet
   0C94 90s01r67           2955 	mov	dptr,#(_UART_fill_tx_fifo_file_name_3_3 + 0x0011)
   0C97 74 52              2956 	mov	a,#0x52
   0C99 F0                 2957 	movx	@dptr,a
                           2958 ;	genPointerSet
                           2959 ;     genFarPointerSet
   0C9A 90s01r68           2960 	mov	dptr,#(_UART_fill_tx_fifo_file_name_3_3 + 0x0012)
   0C9D 74 54              2961 	mov	a,#0x54
   0C9F F0                 2962 	movx	@dptr,a
                           2963 ;	genPointerSet
                           2964 ;     genFarPointerSet
   0CA0 90s01r69           2965 	mov	dptr,#(_UART_fill_tx_fifo_file_name_3_3 + 0x0013)
   0CA3 74 61              2966 	mov	a,#0x61
   0CA5 F0                 2967 	movx	@dptr,a
                           2968 ;	genPointerSet
                           2969 ;     genFarPointerSet
   0CA6 90s01r6A           2970 	mov	dptr,#(_UART_fill_tx_fifo_file_name_3_3 + 0x0014)
   0CA9 74 70              2971 	mov	a,#0x70
   0CAB F0                 2972 	movx	@dptr,a
                           2973 ;	genPointerSet
                           2974 ;     genFarPointerSet
   0CAC 90s01r6B           2975 	mov	dptr,#(_UART_fill_tx_fifo_file_name_3_3 + 0x0015)
   0CAF 74 62              2976 	mov	a,#0x62
   0CB1 F0                 2977 	movx	@dptr,a
                           2978 ;	genPointerSet
                           2979 ;     genFarPointerSet
   0CB2 90s01r6C           2980 	mov	dptr,#(_UART_fill_tx_fifo_file_name_3_3 + 0x0016)
   0CB5 74 2F              2981 	mov	a,#0x2F
   0CB7 F0                 2982 	movx	@dptr,a
                           2983 ;	genPointerSet
                           2984 ;     genFarPointerSet
   0CB8 90s01r6D           2985 	mov	dptr,#(_UART_fill_tx_fifo_file_name_3_3 + 0x0017)
   0CBB 74 63              2986 	mov	a,#0x63
   0CBD F0                 2987 	movx	@dptr,a
                           2988 ;	genPointerSet
                           2989 ;     genFarPointerSet
   0CBE 90s01r6E           2990 	mov	dptr,#(_UART_fill_tx_fifo_file_name_3_3 + 0x0018)
   0CC1 74 6F              2991 	mov	a,#0x6F
   0CC3 F0                 2992 	movx	@dptr,a
                           2993 ;	genPointerSet
                           2994 ;     genFarPointerSet
   0CC4 90s01r6F           2995 	mov	dptr,#(_UART_fill_tx_fifo_file_name_3_3 + 0x0019)
   0CC7 74 72              2996 	mov	a,#0x72
   0CC9 F0                 2997 	movx	@dptr,a
                           2998 ;	genPointerSet
                           2999 ;     genFarPointerSet
   0CCA 90s01r70           3000 	mov	dptr,#(_UART_fill_tx_fifo_file_name_3_3 + 0x001a)
   0CCD 74 65              3001 	mov	a,#0x65
   0CCF F0                 3002 	movx	@dptr,a
                           3003 ;	genPointerSet
                           3004 ;     genFarPointerSet
   0CD0 90s01r71           3005 	mov	dptr,#(_UART_fill_tx_fifo_file_name_3_3 + 0x001b)
   0CD3 74 5F              3006 	mov	a,#0x5F
   0CD5 F0                 3007 	movx	@dptr,a
                           3008 ;	genPointerSet
                           3009 ;     genFarPointerSet
   0CD6 90s01r72           3010 	mov	dptr,#(_UART_fill_tx_fifo_file_name_3_3 + 0x001c)
   0CD9 74 75              3011 	mov	a,#0x75
   0CDB F0                 3012 	movx	@dptr,a
                           3013 ;	genPointerSet
                           3014 ;     genFarPointerSet
   0CDC 90s01r73           3015 	mov	dptr,#(_UART_fill_tx_fifo_file_name_3_3 + 0x001d)
   0CDF 74 61              3016 	mov	a,#0x61
   0CE1 F0                 3017 	movx	@dptr,a
                           3018 ;	genPointerSet
                           3019 ;     genFarPointerSet
   0CE2 90s01r74           3020 	mov	dptr,#(_UART_fill_tx_fifo_file_name_3_3 + 0x001e)
   0CE5 74 72              3021 	mov	a,#0x72
   0CE7 F0                 3022 	movx	@dptr,a
                           3023 ;	genPointerSet
                           3024 ;     genFarPointerSet
   0CE8 90s01r75           3025 	mov	dptr,#(_UART_fill_tx_fifo_file_name_3_3 + 0x001f)
   0CEB 74 74              3026 	mov	a,#0x74
   0CED F0                 3027 	movx	@dptr,a
                           3028 ;	genPointerSet
                           3029 ;     genFarPointerSet
   0CEE 90s01r76           3030 	mov	dptr,#(_UART_fill_tx_fifo_file_name_3_3 + 0x0020)
   0CF1 74 5F              3031 	mov	a,#0x5F
   0CF3 F0                 3032 	movx	@dptr,a
                           3033 ;	genPointerSet
                           3034 ;     genFarPointerSet
   0CF4 90s01r77           3035 	mov	dptr,#(_UART_fill_tx_fifo_file_name_3_3 + 0x0021)
   0CF7 74 61              3036 	mov	a,#0x61
   0CF9 F0                 3037 	movx	@dptr,a
                           3038 ;	genPointerSet
                           3039 ;     genFarPointerSet
   0CFA 90s01r78           3040 	mov	dptr,#(_UART_fill_tx_fifo_file_name_3_3 + 0x0022)
   0CFD 74 70              3041 	mov	a,#0x70
   0CFF F0                 3042 	movx	@dptr,a
                           3043 ;	genPointerSet
                           3044 ;     genFarPointerSet
   0D00 90s01r79           3045 	mov	dptr,#(_UART_fill_tx_fifo_file_name_3_3 + 0x0023)
   0D03 74 62              3046 	mov	a,#0x62
   0D05 F0                 3047 	movx	@dptr,a
                           3048 ;	genPointerSet
                           3049 ;     genFarPointerSet
   0D06 90s01r7A           3050 	mov	dptr,#(_UART_fill_tx_fifo_file_name_3_3 + 0x0024)
   0D09 74 2E              3051 	mov	a,#0x2E
   0D0B F0                 3052 	movx	@dptr,a
                           3053 ;	genPointerSet
                           3054 ;     genFarPointerSet
   0D0C 90s01r7B           3055 	mov	dptr,#(_UART_fill_tx_fifo_file_name_3_3 + 0x0025)
   0D0F 74 63              3056 	mov	a,#0x63
   0D11 F0                 3057 	movx	@dptr,a
                           3058 ;	genPointerSet
                           3059 ;     genFarPointerSet
   0D12 90s01r7C           3060 	mov	dptr,#(_UART_fill_tx_fifo_file_name_3_3 + 0x0026)
   0D15 74 00              3061 	mov	a,#0x00
   0D17 F0                 3062 	movx	@dptr,a
                           3063 ;	genAssign
   0D18 90s00r00           3064 	mov	dptr,#_HAL_assert_fail_PARM_2
   0D1B 74 A2              3065 	mov	a,#0xA2
   0D1D F0                 3066 	movx	@dptr,a
   0D1E E4                 3067 	clr	a
   0D1F A3                 3068 	inc	dptr
   0D20 F0                 3069 	movx	@dptr,a
   0D21 A3                 3070 	inc	dptr
   0D22 F0                 3071 	movx	@dptr,a
   0D23 A3                 3072 	inc	dptr
   0D24 F0                 3073 	movx	@dptr,a
                           3074 ;	genCall
   0D25 75 82r56           3075 	mov	dpl,#_UART_fill_tx_fifo_file_name_3_3
   0D28 75 83s01           3076 	mov	dph,#(_UART_fill_tx_fifo_file_name_3_3 >> 8)
   0D2B 75 F0 00           3077 	mov	b,#0x00
   0D2E 12s00r00           3078 	lcall	_HAL_assert_fail
   0D31                    3079 00104$:
                    0D31   3080 	C$core_uart_apb.c$163$2$4 ==.
                           3081 ;	../drivers/CoreUARTapb/core_uart_apb.c:163: HAL_ASSERT( tx_buffer != NULL_BUFFER )
                           3082 ;	genAssign
   0D31 90s01r4C           3083 	mov	dptr,#_UART_fill_tx_fifo_PARM_2
   0D34 E0                 3084 	movx	a,@dptr
   0D35 F5*10              3085 	mov	_UART_fill_tx_fifo_sloc1_1_0,a
   0D37 A3                 3086 	inc	dptr
   0D38 E0                 3087 	movx	a,@dptr
   0D39 F5*11              3088 	mov	(_UART_fill_tx_fifo_sloc1_1_0 + 1),a
   0D3B A3                 3089 	inc	dptr
   0D3C E0                 3090 	movx	a,@dptr
   0D3D F5*12              3091 	mov	(_UART_fill_tx_fifo_sloc1_1_0 + 2),a
                           3092 ;	genCmpEq
                           3093 ;	gencjne
                           3094 ;	gencjneshort
   0D3F E5*10              3095 	mov	a,_UART_fill_tx_fifo_sloc1_1_0
   0D41 70 0C              3096 	jnz	00138$
   0D43 E5*11              3097 	mov	a,(_UART_fill_tx_fifo_sloc1_1_0 + 1)
   0D45 70 08              3098 	jnz	00138$
   0D47 E5*12              3099 	mov	a,(_UART_fill_tx_fifo_sloc1_1_0 + 2)
   0D49 70 04              3100 	jnz	00138$
   0D4B 74 01              3101 	mov	a,#0x01
   0D4D 80 01              3102 	sjmp	00139$
   0D4F                    3103 00138$:
   0D4F E4                 3104 	clr	a
   0D50                    3105 00139$:
   0D50 FD                 3106 	mov	r5,a
                           3107 ;	genIfx
   0D51 ED                 3108 	mov	a,r5
                           3109 ;	genIfxJump
   0D52 70 03              3110 	jnz	00140$
   0D54 02s0Er5E           3111 	ljmp	00109$
   0D57                    3112 00140$:
                           3113 ;	genPointerSet
                           3114 ;     genFarPointerSet
   0D57 90s01r7D           3115 	mov	dptr,#_UART_fill_tx_fifo_file_name_3_5
   0D5A 74 2E              3116 	mov	a,#0x2E
   0D5C F0                 3117 	movx	@dptr,a
                           3118 ;	genPointerSet
                           3119 ;     genFarPointerSet
   0D5D 90s01r7E           3120 	mov	dptr,#(_UART_fill_tx_fifo_file_name_3_5 + 0x0001)
   0D60 74 2E              3121 	mov	a,#0x2E
   0D62 F0                 3122 	movx	@dptr,a
                           3123 ;	genPointerSet
                           3124 ;     genFarPointerSet
   0D63 90s01r7F           3125 	mov	dptr,#(_UART_fill_tx_fifo_file_name_3_5 + 0x0002)
   0D66 74 2F              3126 	mov	a,#0x2F
   0D68 F0                 3127 	movx	@dptr,a
                           3128 ;	genPointerSet
                           3129 ;     genFarPointerSet
   0D69 90s01r80           3130 	mov	dptr,#(_UART_fill_tx_fifo_file_name_3_5 + 0x0003)
   0D6C 74 64              3131 	mov	a,#0x64
   0D6E F0                 3132 	movx	@dptr,a
                           3133 ;	genPointerSet
                           3134 ;     genFarPointerSet
   0D6F 90s01r81           3135 	mov	dptr,#(_UART_fill_tx_fifo_file_name_3_5 + 0x0004)
   0D72 74 72              3136 	mov	a,#0x72
   0D74 F0                 3137 	movx	@dptr,a
                           3138 ;	genPointerSet
                           3139 ;     genFarPointerSet
   0D75 90s01r82           3140 	mov	dptr,#(_UART_fill_tx_fifo_file_name_3_5 + 0x0005)
   0D78 74 69              3141 	mov	a,#0x69
   0D7A F0                 3142 	movx	@dptr,a
                           3143 ;	genPointerSet
                           3144 ;     genFarPointerSet
   0D7B 90s01r83           3145 	mov	dptr,#(_UART_fill_tx_fifo_file_name_3_5 + 0x0006)
   0D7E 74 76              3146 	mov	a,#0x76
   0D80 F0                 3147 	movx	@dptr,a
                           3148 ;	genPointerSet
                           3149 ;     genFarPointerSet
   0D81 90s01r84           3150 	mov	dptr,#(_UART_fill_tx_fifo_file_name_3_5 + 0x0007)
   0D84 74 65              3151 	mov	a,#0x65
   0D86 F0                 3152 	movx	@dptr,a
                           3153 ;	genPointerSet
                           3154 ;     genFarPointerSet
   0D87 90s01r85           3155 	mov	dptr,#(_UART_fill_tx_fifo_file_name_3_5 + 0x0008)
   0D8A 74 72              3156 	mov	a,#0x72
   0D8C F0                 3157 	movx	@dptr,a
                           3158 ;	genPointerSet
                           3159 ;     genFarPointerSet
   0D8D 90s01r86           3160 	mov	dptr,#(_UART_fill_tx_fifo_file_name_3_5 + 0x0009)
   0D90 74 73              3161 	mov	a,#0x73
   0D92 F0                 3162 	movx	@dptr,a
                           3163 ;	genPointerSet
                           3164 ;     genFarPointerSet
   0D93 90s01r87           3165 	mov	dptr,#(_UART_fill_tx_fifo_file_name_3_5 + 0x000a)
   0D96 74 2F              3166 	mov	a,#0x2F
   0D98 F0                 3167 	movx	@dptr,a
                           3168 ;	genPointerSet
                           3169 ;     genFarPointerSet
   0D99 90s01r88           3170 	mov	dptr,#(_UART_fill_tx_fifo_file_name_3_5 + 0x000b)
   0D9C 74 43              3171 	mov	a,#0x43
   0D9E F0                 3172 	movx	@dptr,a
                           3173 ;	genPointerSet
                           3174 ;     genFarPointerSet
   0D9F 90s01r89           3175 	mov	dptr,#(_UART_fill_tx_fifo_file_name_3_5 + 0x000c)
   0DA2 74 6F              3176 	mov	a,#0x6F
   0DA4 F0                 3177 	movx	@dptr,a
                           3178 ;	genPointerSet
                           3179 ;     genFarPointerSet
   0DA5 90s01r8A           3180 	mov	dptr,#(_UART_fill_tx_fifo_file_name_3_5 + 0x000d)
   0DA8 74 72              3181 	mov	a,#0x72
   0DAA F0                 3182 	movx	@dptr,a
                           3183 ;	genPointerSet
                           3184 ;     genFarPointerSet
   0DAB 90s01r8B           3185 	mov	dptr,#(_UART_fill_tx_fifo_file_name_3_5 + 0x000e)
   0DAE 74 65              3186 	mov	a,#0x65
   0DB0 F0                 3187 	movx	@dptr,a
                           3188 ;	genPointerSet
                           3189 ;     genFarPointerSet
   0DB1 90s01r8C           3190 	mov	dptr,#(_UART_fill_tx_fifo_file_name_3_5 + 0x000f)
   0DB4 74 55              3191 	mov	a,#0x55
   0DB6 F0                 3192 	movx	@dptr,a
                           3193 ;	genPointerSet
                           3194 ;     genFarPointerSet
   0DB7 90s01r8D           3195 	mov	dptr,#(_UART_fill_tx_fifo_file_name_3_5 + 0x0010)
   0DBA 74 41              3196 	mov	a,#0x41
   0DBC F0                 3197 	movx	@dptr,a
                           3198 ;	genPointerSet
                           3199 ;     genFarPointerSet
   0DBD 90s01r8E           3200 	mov	dptr,#(_UART_fill_tx_fifo_file_name_3_5 + 0x0011)
   0DC0 74 52              3201 	mov	a,#0x52
   0DC2 F0                 3202 	movx	@dptr,a
                           3203 ;	genPointerSet
                           3204 ;     genFarPointerSet
   0DC3 90s01r8F           3205 	mov	dptr,#(_UART_fill_tx_fifo_file_name_3_5 + 0x0012)
   0DC6 74 54              3206 	mov	a,#0x54
   0DC8 F0                 3207 	movx	@dptr,a
                           3208 ;	genPointerSet
                           3209 ;     genFarPointerSet
   0DC9 90s01r90           3210 	mov	dptr,#(_UART_fill_tx_fifo_file_name_3_5 + 0x0013)
   0DCC 74 61              3211 	mov	a,#0x61
   0DCE F0                 3212 	movx	@dptr,a
                           3213 ;	genPointerSet
                           3214 ;     genFarPointerSet
   0DCF 90s01r91           3215 	mov	dptr,#(_UART_fill_tx_fifo_file_name_3_5 + 0x0014)
   0DD2 74 70              3216 	mov	a,#0x70
   0DD4 F0                 3217 	movx	@dptr,a
                           3218 ;	genPointerSet
                           3219 ;     genFarPointerSet
   0DD5 90s01r92           3220 	mov	dptr,#(_UART_fill_tx_fifo_file_name_3_5 + 0x0015)
   0DD8 74 62              3221 	mov	a,#0x62
   0DDA F0                 3222 	movx	@dptr,a
                           3223 ;	genPointerSet
                           3224 ;     genFarPointerSet
   0DDB 90s01r93           3225 	mov	dptr,#(_UART_fill_tx_fifo_file_name_3_5 + 0x0016)
   0DDE 74 2F              3226 	mov	a,#0x2F
   0DE0 F0                 3227 	movx	@dptr,a
                           3228 ;	genPointerSet
                           3229 ;     genFarPointerSet
   0DE1 90s01r94           3230 	mov	dptr,#(_UART_fill_tx_fifo_file_name_3_5 + 0x0017)
   0DE4 74 63              3231 	mov	a,#0x63
   0DE6 F0                 3232 	movx	@dptr,a
                           3233 ;	genPointerSet
                           3234 ;     genFarPointerSet
   0DE7 90s01r95           3235 	mov	dptr,#(_UART_fill_tx_fifo_file_name_3_5 + 0x0018)
   0DEA 74 6F              3236 	mov	a,#0x6F
   0DEC F0                 3237 	movx	@dptr,a
                           3238 ;	genPointerSet
                           3239 ;     genFarPointerSet
   0DED 90s01r96           3240 	mov	dptr,#(_UART_fill_tx_fifo_file_name_3_5 + 0x0019)
   0DF0 74 72              3241 	mov	a,#0x72
   0DF2 F0                 3242 	movx	@dptr,a
                           3243 ;	genPointerSet
                           3244 ;     genFarPointerSet
   0DF3 90s01r97           3245 	mov	dptr,#(_UART_fill_tx_fifo_file_name_3_5 + 0x001a)
   0DF6 74 65              3246 	mov	a,#0x65
   0DF8 F0                 3247 	movx	@dptr,a
                           3248 ;	genPointerSet
                           3249 ;     genFarPointerSet
   0DF9 90s01r98           3250 	mov	dptr,#(_UART_fill_tx_fifo_file_name_3_5 + 0x001b)
   0DFC 74 5F              3251 	mov	a,#0x5F
   0DFE F0                 3252 	movx	@dptr,a
                           3253 ;	genPointerSet
                           3254 ;     genFarPointerSet
   0DFF 90s01r99           3255 	mov	dptr,#(_UART_fill_tx_fifo_file_name_3_5 + 0x001c)
   0E02 74 75              3256 	mov	a,#0x75
   0E04 F0                 3257 	movx	@dptr,a
                           3258 ;	genPointerSet
                           3259 ;     genFarPointerSet
   0E05 90s01r9A           3260 	mov	dptr,#(_UART_fill_tx_fifo_file_name_3_5 + 0x001d)
   0E08 74 61              3261 	mov	a,#0x61
   0E0A F0                 3262 	movx	@dptr,a
                           3263 ;	genPointerSet
                           3264 ;     genFarPointerSet
   0E0B 90s01r9B           3265 	mov	dptr,#(_UART_fill_tx_fifo_file_name_3_5 + 0x001e)
   0E0E 74 72              3266 	mov	a,#0x72
   0E10 F0                 3267 	movx	@dptr,a
                           3268 ;	genPointerSet
                           3269 ;     genFarPointerSet
   0E11 90s01r9C           3270 	mov	dptr,#(_UART_fill_tx_fifo_file_name_3_5 + 0x001f)
   0E14 74 74              3271 	mov	a,#0x74
   0E16 F0                 3272 	movx	@dptr,a
                           3273 ;	genPointerSet
                           3274 ;     genFarPointerSet
   0E17 90s01r9D           3275 	mov	dptr,#(_UART_fill_tx_fifo_file_name_3_5 + 0x0020)
   0E1A 74 5F              3276 	mov	a,#0x5F
   0E1C F0                 3277 	movx	@dptr,a
                           3278 ;	genPointerSet
                           3279 ;     genFarPointerSet
   0E1D 90s01r9E           3280 	mov	dptr,#(_UART_fill_tx_fifo_file_name_3_5 + 0x0021)
   0E20 74 61              3281 	mov	a,#0x61
   0E22 F0                 3282 	movx	@dptr,a
                           3283 ;	genPointerSet
                           3284 ;     genFarPointerSet
   0E23 90s01r9F           3285 	mov	dptr,#(_UART_fill_tx_fifo_file_name_3_5 + 0x0022)
   0E26 74 70              3286 	mov	a,#0x70
   0E28 F0                 3287 	movx	@dptr,a
                           3288 ;	genPointerSet
                           3289 ;     genFarPointerSet
   0E29 90s01rA0           3290 	mov	dptr,#(_UART_fill_tx_fifo_file_name_3_5 + 0x0023)
   0E2C 74 62              3291 	mov	a,#0x62
   0E2E F0                 3292 	movx	@dptr,a
                           3293 ;	genPointerSet
                           3294 ;     genFarPointerSet
   0E2F 90s01rA1           3295 	mov	dptr,#(_UART_fill_tx_fifo_file_name_3_5 + 0x0024)
   0E32 74 2E              3296 	mov	a,#0x2E
   0E34 F0                 3297 	movx	@dptr,a
                           3298 ;	genPointerSet
                           3299 ;     genFarPointerSet
   0E35 90s01rA2           3300 	mov	dptr,#(_UART_fill_tx_fifo_file_name_3_5 + 0x0025)
   0E38 74 63              3301 	mov	a,#0x63
   0E3A F0                 3302 	movx	@dptr,a
                           3303 ;	genPointerSet
                           3304 ;     genFarPointerSet
   0E3B 90s01rA3           3305 	mov	dptr,#(_UART_fill_tx_fifo_file_name_3_5 + 0x0026)
   0E3E 74 00              3306 	mov	a,#0x00
   0E40 F0                 3307 	movx	@dptr,a
                           3308 ;	genAssign
   0E41 90s00r00           3309 	mov	dptr,#_HAL_assert_fail_PARM_2
   0E44 74 A3              3310 	mov	a,#0xA3
   0E46 F0                 3311 	movx	@dptr,a
   0E47 E4                 3312 	clr	a
   0E48 A3                 3313 	inc	dptr
   0E49 F0                 3314 	movx	@dptr,a
   0E4A A3                 3315 	inc	dptr
   0E4B F0                 3316 	movx	@dptr,a
   0E4C A3                 3317 	inc	dptr
   0E4D F0                 3318 	movx	@dptr,a
                           3319 ;	genCall
   0E4E 75 82r7D           3320 	mov	dpl,#_UART_fill_tx_fifo_file_name_3_5
   0E51 75 83s01           3321 	mov	dph,#(_UART_fill_tx_fifo_file_name_3_5 >> 8)
   0E54 75 F0 00           3322 	mov	b,#0x00
   0E57 C0 05              3323 	push	ar5
   0E59 12s00r00           3324 	lcall	_HAL_assert_fail
   0E5C D0 05              3325 	pop	ar5
   0E5E                    3326 00109$:
                    0E5E   3327 	C$core_uart_apb.c$164$2$6 ==.
                           3328 ;	../drivers/CoreUARTapb/core_uart_apb.c:164: HAL_ASSERT( tx_size > 0 )
                           3329 ;	genAssign
   0E5E 90s01r4F           3330 	mov	dptr,#_UART_fill_tx_fifo_PARM_3
   0E61 E0                 3331 	movx	a,@dptr
   0E62 FE                 3332 	mov	r6,a
   0E63 A3                 3333 	inc	dptr
   0E64 E0                 3334 	movx	a,@dptr
   0E65 FF                 3335 	mov	r7,a
                           3336 ;	genIfx
   0E66 EE                 3337 	mov	a,r6
   0E67 4F                 3338 	orl	a,r7
                           3339 ;	genIfxJump
   0E68 60 03              3340 	jz	00141$
   0E6A 02s0Fr7C           3341 	ljmp	00114$
   0E6D                    3342 00141$:
                           3343 ;	genPointerSet
                           3344 ;     genFarPointerSet
   0E6D 90s01rA4           3345 	mov	dptr,#_UART_fill_tx_fifo_file_name_3_7
   0E70 74 2E              3346 	mov	a,#0x2E
   0E72 F0                 3347 	movx	@dptr,a
                           3348 ;	genPointerSet
                           3349 ;     genFarPointerSet
   0E73 90s01rA5           3350 	mov	dptr,#(_UART_fill_tx_fifo_file_name_3_7 + 0x0001)
   0E76 74 2E              3351 	mov	a,#0x2E
   0E78 F0                 3352 	movx	@dptr,a
                           3353 ;	genPointerSet
                           3354 ;     genFarPointerSet
   0E79 90s01rA6           3355 	mov	dptr,#(_UART_fill_tx_fifo_file_name_3_7 + 0x0002)
   0E7C 74 2F              3356 	mov	a,#0x2F
   0E7E F0                 3357 	movx	@dptr,a
                           3358 ;	genPointerSet
                           3359 ;     genFarPointerSet
   0E7F 90s01rA7           3360 	mov	dptr,#(_UART_fill_tx_fifo_file_name_3_7 + 0x0003)
   0E82 74 64              3361 	mov	a,#0x64
   0E84 F0                 3362 	movx	@dptr,a
                           3363 ;	genPointerSet
                           3364 ;     genFarPointerSet
   0E85 90s01rA8           3365 	mov	dptr,#(_UART_fill_tx_fifo_file_name_3_7 + 0x0004)
   0E88 74 72              3366 	mov	a,#0x72
   0E8A F0                 3367 	movx	@dptr,a
                           3368 ;	genPointerSet
                           3369 ;     genFarPointerSet
   0E8B 90s01rA9           3370 	mov	dptr,#(_UART_fill_tx_fifo_file_name_3_7 + 0x0005)
   0E8E 74 69              3371 	mov	a,#0x69
   0E90 F0                 3372 	movx	@dptr,a
                           3373 ;	genPointerSet
                           3374 ;     genFarPointerSet
   0E91 90s01rAA           3375 	mov	dptr,#(_UART_fill_tx_fifo_file_name_3_7 + 0x0006)
   0E94 74 76              3376 	mov	a,#0x76
   0E96 F0                 3377 	movx	@dptr,a
                           3378 ;	genPointerSet
                           3379 ;     genFarPointerSet
   0E97 90s01rAB           3380 	mov	dptr,#(_UART_fill_tx_fifo_file_name_3_7 + 0x0007)
   0E9A 74 65              3381 	mov	a,#0x65
   0E9C F0                 3382 	movx	@dptr,a
                           3383 ;	genPointerSet
                           3384 ;     genFarPointerSet
   0E9D 90s01rAC           3385 	mov	dptr,#(_UART_fill_tx_fifo_file_name_3_7 + 0x0008)
   0EA0 74 72              3386 	mov	a,#0x72
   0EA2 F0                 3387 	movx	@dptr,a
                           3388 ;	genPointerSet
                           3389 ;     genFarPointerSet
   0EA3 90s01rAD           3390 	mov	dptr,#(_UART_fill_tx_fifo_file_name_3_7 + 0x0009)
   0EA6 74 73              3391 	mov	a,#0x73
   0EA8 F0                 3392 	movx	@dptr,a
                           3393 ;	genPointerSet
                           3394 ;     genFarPointerSet
   0EA9 90s01rAE           3395 	mov	dptr,#(_UART_fill_tx_fifo_file_name_3_7 + 0x000a)
   0EAC 74 2F              3396 	mov	a,#0x2F
   0EAE F0                 3397 	movx	@dptr,a
                           3398 ;	genPointerSet
                           3399 ;     genFarPointerSet
   0EAF 90s01rAF           3400 	mov	dptr,#(_UART_fill_tx_fifo_file_name_3_7 + 0x000b)
   0EB2 74 43              3401 	mov	a,#0x43
   0EB4 F0                 3402 	movx	@dptr,a
                           3403 ;	genPointerSet
                           3404 ;     genFarPointerSet
   0EB5 90s01rB0           3405 	mov	dptr,#(_UART_fill_tx_fifo_file_name_3_7 + 0x000c)
   0EB8 74 6F              3406 	mov	a,#0x6F
   0EBA F0                 3407 	movx	@dptr,a
                           3408 ;	genPointerSet
                           3409 ;     genFarPointerSet
   0EBB 90s01rB1           3410 	mov	dptr,#(_UART_fill_tx_fifo_file_name_3_7 + 0x000d)
   0EBE 74 72              3411 	mov	a,#0x72
   0EC0 F0                 3412 	movx	@dptr,a
                           3413 ;	genPointerSet
                           3414 ;     genFarPointerSet
   0EC1 90s01rB2           3415 	mov	dptr,#(_UART_fill_tx_fifo_file_name_3_7 + 0x000e)
   0EC4 74 65              3416 	mov	a,#0x65
   0EC6 F0                 3417 	movx	@dptr,a
                           3418 ;	genPointerSet
                           3419 ;     genFarPointerSet
   0EC7 90s01rB3           3420 	mov	dptr,#(_UART_fill_tx_fifo_file_name_3_7 + 0x000f)
   0ECA 74 55              3421 	mov	a,#0x55
   0ECC F0                 3422 	movx	@dptr,a
                           3423 ;	genPointerSet
                           3424 ;     genFarPointerSet
   0ECD 90s01rB4           3425 	mov	dptr,#(_UART_fill_tx_fifo_file_name_3_7 + 0x0010)
   0ED0 74 41              3426 	mov	a,#0x41
   0ED2 F0                 3427 	movx	@dptr,a
                           3428 ;	genPointerSet
                           3429 ;     genFarPointerSet
   0ED3 90s01rB5           3430 	mov	dptr,#(_UART_fill_tx_fifo_file_name_3_7 + 0x0011)
   0ED6 74 52              3431 	mov	a,#0x52
   0ED8 F0                 3432 	movx	@dptr,a
                           3433 ;	genPointerSet
                           3434 ;     genFarPointerSet
   0ED9 90s01rB6           3435 	mov	dptr,#(_UART_fill_tx_fifo_file_name_3_7 + 0x0012)
   0EDC 74 54              3436 	mov	a,#0x54
   0EDE F0                 3437 	movx	@dptr,a
                           3438 ;	genPointerSet
                           3439 ;     genFarPointerSet
   0EDF 90s01rB7           3440 	mov	dptr,#(_UART_fill_tx_fifo_file_name_3_7 + 0x0013)
   0EE2 74 61              3441 	mov	a,#0x61
   0EE4 F0                 3442 	movx	@dptr,a
                           3443 ;	genPointerSet
                           3444 ;     genFarPointerSet
   0EE5 90s01rB8           3445 	mov	dptr,#(_UART_fill_tx_fifo_file_name_3_7 + 0x0014)
   0EE8 74 70              3446 	mov	a,#0x70
   0EEA F0                 3447 	movx	@dptr,a
                           3448 ;	genPointerSet
                           3449 ;     genFarPointerSet
   0EEB 90s01rB9           3450 	mov	dptr,#(_UART_fill_tx_fifo_file_name_3_7 + 0x0015)
   0EEE 74 62              3451 	mov	a,#0x62
   0EF0 F0                 3452 	movx	@dptr,a
                           3453 ;	genPointerSet
                           3454 ;     genFarPointerSet
   0EF1 90s01rBA           3455 	mov	dptr,#(_UART_fill_tx_fifo_file_name_3_7 + 0x0016)
   0EF4 74 2F              3456 	mov	a,#0x2F
   0EF6 F0                 3457 	movx	@dptr,a
                           3458 ;	genPointerSet
                           3459 ;     genFarPointerSet
   0EF7 90s01rBB           3460 	mov	dptr,#(_UART_fill_tx_fifo_file_name_3_7 + 0x0017)
   0EFA 74 63              3461 	mov	a,#0x63
   0EFC F0                 3462 	movx	@dptr,a
                           3463 ;	genPointerSet
                           3464 ;     genFarPointerSet
   0EFD 90s01rBC           3465 	mov	dptr,#(_UART_fill_tx_fifo_file_name_3_7 + 0x0018)
   0F00 74 6F              3466 	mov	a,#0x6F
   0F02 F0                 3467 	movx	@dptr,a
                           3468 ;	genPointerSet
                           3469 ;     genFarPointerSet
   0F03 90s01rBD           3470 	mov	dptr,#(_UART_fill_tx_fifo_file_name_3_7 + 0x0019)
   0F06 74 72              3471 	mov	a,#0x72
   0F08 F0                 3472 	movx	@dptr,a
                           3473 ;	genPointerSet
                           3474 ;     genFarPointerSet
   0F09 90s01rBE           3475 	mov	dptr,#(_UART_fill_tx_fifo_file_name_3_7 + 0x001a)
   0F0C 74 65              3476 	mov	a,#0x65
   0F0E F0                 3477 	movx	@dptr,a
                           3478 ;	genPointerSet
                           3479 ;     genFarPointerSet
   0F0F 90s01rBF           3480 	mov	dptr,#(_UART_fill_tx_fifo_file_name_3_7 + 0x001b)
   0F12 74 5F              3481 	mov	a,#0x5F
   0F14 F0                 3482 	movx	@dptr,a
                           3483 ;	genPointerSet
                           3484 ;     genFarPointerSet
   0F15 90s01rC0           3485 	mov	dptr,#(_UART_fill_tx_fifo_file_name_3_7 + 0x001c)
   0F18 74 75              3486 	mov	a,#0x75
   0F1A F0                 3487 	movx	@dptr,a
                           3488 ;	genPointerSet
                           3489 ;     genFarPointerSet
   0F1B 90s01rC1           3490 	mov	dptr,#(_UART_fill_tx_fifo_file_name_3_7 + 0x001d)
   0F1E 74 61              3491 	mov	a,#0x61
   0F20 F0                 3492 	movx	@dptr,a
                           3493 ;	genPointerSet
                           3494 ;     genFarPointerSet
   0F21 90s01rC2           3495 	mov	dptr,#(_UART_fill_tx_fifo_file_name_3_7 + 0x001e)
   0F24 74 72              3496 	mov	a,#0x72
   0F26 F0                 3497 	movx	@dptr,a
                           3498 ;	genPointerSet
                           3499 ;     genFarPointerSet
   0F27 90s01rC3           3500 	mov	dptr,#(_UART_fill_tx_fifo_file_name_3_7 + 0x001f)
   0F2A 74 74              3501 	mov	a,#0x74
   0F2C F0                 3502 	movx	@dptr,a
                           3503 ;	genPointerSet
                           3504 ;     genFarPointerSet
   0F2D 90s01rC4           3505 	mov	dptr,#(_UART_fill_tx_fifo_file_name_3_7 + 0x0020)
   0F30 74 5F              3506 	mov	a,#0x5F
   0F32 F0                 3507 	movx	@dptr,a
                           3508 ;	genPointerSet
                           3509 ;     genFarPointerSet
   0F33 90s01rC5           3510 	mov	dptr,#(_UART_fill_tx_fifo_file_name_3_7 + 0x0021)
   0F36 74 61              3511 	mov	a,#0x61
   0F38 F0                 3512 	movx	@dptr,a
                           3513 ;	genPointerSet
                           3514 ;     genFarPointerSet
   0F39 90s01rC6           3515 	mov	dptr,#(_UART_fill_tx_fifo_file_name_3_7 + 0x0022)
   0F3C 74 70              3516 	mov	a,#0x70
   0F3E F0                 3517 	movx	@dptr,a
                           3518 ;	genPointerSet
                           3519 ;     genFarPointerSet
   0F3F 90s01rC7           3520 	mov	dptr,#(_UART_fill_tx_fifo_file_name_3_7 + 0x0023)
   0F42 74 62              3521 	mov	a,#0x62
   0F44 F0                 3522 	movx	@dptr,a
                           3523 ;	genPointerSet
                           3524 ;     genFarPointerSet
   0F45 90s01rC8           3525 	mov	dptr,#(_UART_fill_tx_fifo_file_name_3_7 + 0x0024)
   0F48 74 2E              3526 	mov	a,#0x2E
   0F4A F0                 3527 	movx	@dptr,a
                           3528 ;	genPointerSet
                           3529 ;     genFarPointerSet
   0F4B 90s01rC9           3530 	mov	dptr,#(_UART_fill_tx_fifo_file_name_3_7 + 0x0025)
   0F4E 74 63              3531 	mov	a,#0x63
   0F50 F0                 3532 	movx	@dptr,a
                           3533 ;	genPointerSet
                           3534 ;     genFarPointerSet
   0F51 90s01rCA           3535 	mov	dptr,#(_UART_fill_tx_fifo_file_name_3_7 + 0x0026)
   0F54 74 00              3536 	mov	a,#0x00
   0F56 F0                 3537 	movx	@dptr,a
                           3538 ;	genAssign
   0F57 90s00r00           3539 	mov	dptr,#_HAL_assert_fail_PARM_2
   0F5A 74 A4              3540 	mov	a,#0xA4
   0F5C F0                 3541 	movx	@dptr,a
   0F5D E4                 3542 	clr	a
   0F5E A3                 3543 	inc	dptr
   0F5F F0                 3544 	movx	@dptr,a
   0F60 A3                 3545 	inc	dptr
   0F61 F0                 3546 	movx	@dptr,a
   0F62 A3                 3547 	inc	dptr
   0F63 F0                 3548 	movx	@dptr,a
                           3549 ;	genCall
   0F64 75 82rA4           3550 	mov	dpl,#_UART_fill_tx_fifo_file_name_3_7
   0F67 75 83s01           3551 	mov	dph,#(_UART_fill_tx_fifo_file_name_3_7 >> 8)
   0F6A 75 F0 00           3552 	mov	b,#0x00
   0F6D C0 05              3553 	push	ar5
   0F6F C0 06              3554 	push	ar6
   0F71 C0 07              3555 	push	ar7
   0F73 12s00r00           3556 	lcall	_HAL_assert_fail
   0F76 D0 07              3557 	pop	ar7
   0F78 D0 06              3558 	pop	ar6
   0F7A D0 05              3559 	pop	ar5
   0F7C                    3560 00114$:
                    0F7C   3561 	C$core_uart_apb.c$168$1$1 ==.
                           3562 ;	../drivers/CoreUARTapb/core_uart_apb.c:168: if( (this_uart != NULL_INSTANCE) &&
                           3563 ;	genAssign
   0F7C 90s01r51           3564 	mov	dptr,#_UART_fill_tx_fifo_this_uart_1_1
   0F7F E0                 3565 	movx	a,@dptr
   0F80 FA                 3566 	mov	r2,a
   0F81 A3                 3567 	inc	dptr
   0F82 E0                 3568 	movx	a,@dptr
   0F83 FB                 3569 	mov	r3,a
   0F84 A3                 3570 	inc	dptr
   0F85 E0                 3571 	movx	a,@dptr
   0F86 FC                 3572 	mov	r4,a
                           3573 ;	genCmpEq
                           3574 ;	gencjneshort
   0F87 BA 00 09           3575 	cjne	r2,#0x00,00142$
   0F8A BB 00 06           3576 	cjne	r3,#0x00,00142$
   0F8D BC 00 03           3577 	cjne	r4,#0x00,00142$
   0F90 02s10rA5           3578 	ljmp	00123$
   0F93                    3579 00142$:
                    0F93   3580 	C$core_uart_apb.c$169$1$1 ==.
                           3581 ;	../drivers/CoreUARTapb/core_uart_apb.c:169: (tx_buffer != NULL_BUFFER)   &&
                           3582 ;	genIfx
   0F93 ED                 3583 	mov	a,r5
                           3584 ;	genIfxJump
   0F94 60 03              3585 	jz	00143$
   0F96 02s10rA5           3586 	ljmp	00123$
   0F99                    3587 00143$:
                    0F99   3588 	C$core_uart_apb.c$170$1$1 ==.
                           3589 ;	../drivers/CoreUARTapb/core_uart_apb.c:170: (tx_size > 0u) )
                           3590 ;	genIfx
   0F99 EE                 3591 	mov	a,r6
   0F9A 4F                 3592 	orl	a,r7
                           3593 ;	genIfxJump
   0F9B 70 03              3594 	jnz	00144$
   0F9D 02s10rA5           3595 	ljmp	00123$
   0FA0                    3596 00144$:
                    0FA0   3597 	C$core_uart_apb.c$172$2$8 ==.
                           3598 ;	../drivers/CoreUARTapb/core_uart_apb.c:172: tx_ready = HAL_get_8bit_reg( this_uart->base_address, STATUS ) &
                           3599 ;	genPointerGet
                           3600 ;	genGenPointerGet
   0FA0 8A 82              3601 	mov	dpl,r2
   0FA2 8B 83              3602 	mov	dph,r3
   0FA4 8C F0              3603 	mov	b,r4
   0FA6 12s00r00           3604 	lcall	__gptrget
   0FA9 FD                 3605 	mov	r5,a
   0FAA A3                 3606 	inc	dptr
   0FAB 12s00r00           3607 	lcall	__gptrget
   0FAE F8                 3608 	mov	r0,a
                           3609 ;	genPlus
                           3610 ;	genPlusIncr
   0FAF 74 10              3611 	mov	a,#0x10
   0FB1 25 05              3612 	add	a,ar5
   0FB3 FD                 3613 	mov	r5,a
   0FB4 74 00              3614 	mov	a,#0x00
   0FB6 35 00              3615 	addc	a,ar0
   0FB8 F8                 3616 	mov	r0,a
                           3617 ;	genCall
   0FB9 8D 82              3618 	mov	dpl,r5
   0FBB 88 83              3619 	mov	dph,r0
   0FBD C0 02              3620 	push	ar2
   0FBF C0 03              3621 	push	ar3
   0FC1 C0 04              3622 	push	ar4
   0FC3 C0 06              3623 	push	ar6
   0FC5 C0 07              3624 	push	ar7
   0FC7 12s00r00           3625 	lcall	_HW_get_8bit_reg
   0FCA AD 82              3626 	mov	r5,dpl
   0FCC D0 07              3627 	pop	ar7
   0FCE D0 06              3628 	pop	ar6
   0FD0 D0 04              3629 	pop	ar4
   0FD2 D0 03              3630 	pop	ar3
   0FD4 D0 02              3631 	pop	ar2
                           3632 ;	genCast
   0FD6 78 00              3633 	mov	r0,#0x00
                           3634 ;	genAnd
   0FD8 53 05 01           3635 	anl	ar5,#0x01
   0FDB 78 00              3636 	mov	r0,#0x00
                           3637 ;	genCast
                    0FDD   3638 	C$core_uart_apb.c$174$2$8 ==.
                           3639 ;	../drivers/CoreUARTapb/core_uart_apb.c:174: if ( tx_ready )
                           3640 ;	genIfx
   0FDD ED                 3641 	mov	a,r5
                           3642 ;	genIfxJump
   0FDE 70 03              3643 	jnz	00145$
   0FE0 02s10rA5           3644 	ljmp	00123$
   0FE3                    3645 00145$:
                    0FE3   3646 	C$core_uart_apb.c$176$4$10 ==.
                           3647 ;	../drivers/CoreUARTapb/core_uart_apb.c:176: do {
                           3648 ;	genAssign
   0FE3 8A 05              3649 	mov	ar5,r2
   0FE5 8B 00              3650 	mov	ar0,r3
   0FE7 8C 01              3651 	mov	ar1,r4
   0FE9                    3652 00117$:
                    0FE9   3653 	C$core_uart_apb.c$177$1$1 ==.
                           3654 ;	../drivers/CoreUARTapb/core_uart_apb.c:177: HAL_set_8bit_reg( this_uart->base_address, TXDATA,
                           3655 ;	genIpush
   0FE9 C0 06              3656 	push	ar6
   0FEB C0 07              3657 	push	ar7
                           3658 ;	genPointerGet
                           3659 ;	genGenPointerGet
   0FED 8D 82              3660 	mov	dpl,r5
   0FEF 88 83              3661 	mov	dph,r0
   0FF1 89 F0              3662 	mov	b,r1
   0FF3 12s00r00           3663 	lcall	__gptrget
   0FF6 F5*0D              3664 	mov	_UART_fill_tx_fifo_sloc0_1_0,a
   0FF8 A3                 3665 	inc	dptr
   0FF9 12s00r00           3666 	lcall	__gptrget
   0FFC F5*0E              3667 	mov	(_UART_fill_tx_fifo_sloc0_1_0 + 1),a
                           3668 ;	genAssign
   0FFE 90s01r54           3669 	mov	dptr,#_UART_fill_tx_fifo_size_sent_1_1
   1001 E0                 3670 	movx	a,@dptr
   1002 FE                 3671 	mov	r6,a
   1003 A3                 3672 	inc	dptr
   1004 E0                 3673 	movx	a,@dptr
   1005 FF                 3674 	mov	r7,a
                           3675 ;	genPlus
   1006 E5 06              3676 	mov	a,ar6
   1008 25*10              3677 	add	a,_UART_fill_tx_fifo_sloc1_1_0
   100A FA                 3678 	mov	r2,a
   100B E5 07              3679 	mov	a,ar7
   100D 35*11              3680 	addc	a,(_UART_fill_tx_fifo_sloc1_1_0 + 1)
   100F FB                 3681 	mov	r3,a
   1010 AC*12              3682 	mov	r4,(_UART_fill_tx_fifo_sloc1_1_0 + 2)
                           3683 ;	genPointerGet
                           3684 ;	genGenPointerGet
   1012 8A 82              3685 	mov	dpl,r2
   1014 8B 83              3686 	mov	dph,r3
   1016 8C F0              3687 	mov	b,r4
   1018 12s00r00           3688 	lcall	__gptrget
   101B FA                 3689 	mov	r2,a
                           3690 ;	genAssign
   101C 90s00r00           3691 	mov	dptr,#_HW_set_8bit_reg_PARM_2
   101F EA                 3692 	mov	a,r2
   1020 F0                 3693 	movx	@dptr,a
                           3694 ;	genCall
   1021 85*0D 82           3695 	mov	dpl,_UART_fill_tx_fifo_sloc0_1_0
   1024 85*0E 83           3696 	mov	dph,(_UART_fill_tx_fifo_sloc0_1_0 + 1)
   1027 C0 05              3697 	push	ar5
   1029 C0 06              3698 	push	ar6
   102B C0 07              3699 	push	ar7
   102D C0 00              3700 	push	ar0
   102F C0 01              3701 	push	ar1
   1031 12s00r00           3702 	lcall	_HW_set_8bit_reg
   1034 D0 01              3703 	pop	ar1
   1036 D0 00              3704 	pop	ar0
   1038 D0 07              3705 	pop	ar7
   103A D0 06              3706 	pop	ar6
   103C D0 05              3707 	pop	ar5
                    103E   3708 	C$core_uart_apb.c$179$4$10 ==.
                           3709 ;	../drivers/CoreUARTapb/core_uart_apb.c:179: size_sent++;
                           3710 ;	genPlus
   103E 90s01r54           3711 	mov	dptr,#_UART_fill_tx_fifo_size_sent_1_1
                           3712 ;	genPlusIncr
   1041 74 01              3713 	mov	a,#0x01
   1043 25 06              3714 	add	a,ar6
   1045 F0                 3715 	movx	@dptr,a
   1046 74 00              3716 	mov	a,#0x00
   1048 35 07              3717 	addc	a,ar7
   104A A3                 3718 	inc	dptr
   104B F0                 3719 	movx	@dptr,a
                    104C   3720 	C$core_uart_apb.c$180$4$10 ==.
                           3721 ;	../drivers/CoreUARTapb/core_uart_apb.c:180: tx_ready = HAL_get_8bit_reg( this_uart->base_address, STATUS ) &
                           3722 ;	genPointerGet
                           3723 ;	genGenPointerGet
   104C 8D 82              3724 	mov	dpl,r5
   104E 88 83              3725 	mov	dph,r0
   1050 89 F0              3726 	mov	b,r1
   1052 12s00r00           3727 	lcall	__gptrget
   1055 FA                 3728 	mov	r2,a
   1056 A3                 3729 	inc	dptr
   1057 12s00r00           3730 	lcall	__gptrget
   105A FB                 3731 	mov	r3,a
                           3732 ;	genPlus
                           3733 ;	genPlusIncr
   105B 74 10              3734 	mov	a,#0x10
   105D 25 02              3735 	add	a,ar2
   105F FA                 3736 	mov	r2,a
   1060 74 00              3737 	mov	a,#0x00
   1062 35 03              3738 	addc	a,ar3
   1064 FB                 3739 	mov	r3,a
                           3740 ;	genCall
   1065 8A 82              3741 	mov	dpl,r2
   1067 8B 83              3742 	mov	dph,r3
   1069 C0 05              3743 	push	ar5
   106B C0 06              3744 	push	ar6
   106D C0 07              3745 	push	ar7
   106F C0 00              3746 	push	ar0
   1071 C0 01              3747 	push	ar1
   1073 12s00r00           3748 	lcall	_HW_get_8bit_reg
   1076 AA 82              3749 	mov	r2,dpl
   1078 D0 01              3750 	pop	ar1
   107A D0 00              3751 	pop	ar0
   107C D0 07              3752 	pop	ar7
   107E D0 06              3753 	pop	ar6
   1080 D0 05              3754 	pop	ar5
                           3755 ;	genCast
   1082 7B 00              3756 	mov	r3,#0x00
                           3757 ;	genAnd
   1084 53 02 01           3758 	anl	ar2,#0x01
   1087 7B 00              3759 	mov	r3,#0x00
                           3760 ;	genCast
                    1089   3761 	C$core_uart_apb.c$182$1$1 ==.
                           3762 ;	../drivers/CoreUARTapb/core_uart_apb.c:182: } while ( (tx_ready) && ( size_sent < tx_size ) );
                           3763 ;	genIpop
   1089 D0 07              3764 	pop	ar7
   108B D0 06              3765 	pop	ar6
                           3766 ;	genIfx
   108D EA                 3767 	mov	a,r2
                           3768 ;	genIfxJump
   108E 70 03              3769 	jnz	00146$
   1090 02s10rA5           3770 	ljmp	00123$
   1093                    3771 00146$:
                           3772 ;	genAssign
   1093 90s01r54           3773 	mov	dptr,#_UART_fill_tx_fifo_size_sent_1_1
   1096 E0                 3774 	movx	a,@dptr
   1097 FA                 3775 	mov	r2,a
   1098 A3                 3776 	inc	dptr
   1099 E0                 3777 	movx	a,@dptr
   109A FB                 3778 	mov	r3,a
                           3779 ;	genCmpLt
                           3780 ;	genCmp
   109B C3                 3781 	clr	c
   109C EA                 3782 	mov	a,r2
   109D 9E                 3783 	subb	a,r6
   109E EB                 3784 	mov	a,r3
   109F 9F                 3785 	subb	a,r7
                           3786 ;	genIfxJump
   10A0 50 03              3787 	jnc	00147$
   10A2 02s0FrE9           3788 	ljmp	00117$
   10A5                    3789 00147$:
   10A5                    3790 00123$:
                    10A5   3791 	C$core_uart_apb.c$185$1$1 ==.
                           3792 ;	../drivers/CoreUARTapb/core_uart_apb.c:185: return size_sent;
                           3793 ;	genAssign
   10A5 90s01r54           3794 	mov	dptr,#_UART_fill_tx_fifo_size_sent_1_1
   10A8 E0                 3795 	movx	a,@dptr
   10A9 FA                 3796 	mov	r2,a
   10AA A3                 3797 	inc	dptr
   10AB E0                 3798 	movx	a,@dptr
   10AC FB                 3799 	mov	r3,a
                           3800 ;	genRet
   10AD 8A 82              3801 	mov	dpl,r2
   10AF 8B 83              3802 	mov	dph,r3
   10B1                    3803 00126$:
                    10B1   3804 	C$core_uart_apb.c$186$1$1 ==.
                    10B1   3805 	XG$UART_fill_tx_fifo$0$0 ==.
   10B1 22                 3806 	ret
                           3807 ;------------------------------------------------------------
                           3808 ;Allocation info for local variables in function 'UART_get_rx'
                           3809 ;------------------------------------------------------------
                           3810 ;sloc0                     Allocated with name '_UART_get_rx_sloc0_1_0'
                           3811 ;sloc1                     Allocated with name '_UART_get_rx_sloc1_1_0'
                           3812 ;rx_buffer                 Allocated with name '_UART_get_rx_PARM_2'
                           3813 ;buff_size                 Allocated with name '_UART_get_rx_PARM_3'
                           3814 ;this_uart                 Allocated with name '_UART_get_rx_this_uart_1_1'
                           3815 ;new_status                Allocated with name '_UART_get_rx_new_status_1_1'
                           3816 ;rx_full                   Allocated with name '_UART_get_rx_rx_full_1_1'
                           3817 ;rx_idx                    Allocated with name '_UART_get_rx_rx_idx_1_1'
                           3818 ;file_name                 Allocated with name '_UART_get_rx_file_name_3_3'
                           3819 ;file_name                 Allocated with name '_UART_get_rx_file_name_3_5'
                           3820 ;file_name                 Allocated with name '_UART_get_rx_file_name_3_7'
                           3821 ;------------------------------------------------------------
                    10B2   3822 	G$UART_get_rx$0$0 ==.
                    10B2   3823 	C$core_uart_apb.c$193$1$1 ==.
                           3824 ;	../drivers/CoreUARTapb/core_uart_apb.c:193: UART_get_rx
                           3825 ;	-----------------------------------------
                           3826 ;	 function UART_get_rx
                           3827 ;	-----------------------------------------
   10B2                    3828 _UART_get_rx:
                           3829 ;	genReceive
   10B2 AA F0              3830 	mov	r2,b
   10B4 AB 83              3831 	mov	r3,dph
   10B6 E5 82              3832 	mov	a,dpl
   10B8 90s01rD0           3833 	mov	dptr,#_UART_get_rx_this_uart_1_1
   10BB F0                 3834 	movx	@dptr,a
   10BC A3                 3835 	inc	dptr
   10BD EB                 3836 	mov	a,r3
   10BE F0                 3837 	movx	@dptr,a
   10BF A3                 3838 	inc	dptr
   10C0 EA                 3839 	mov	a,r2
   10C1 F0                 3840 	movx	@dptr,a
                    10C2   3841 	C$core_uart_apb.c$202$1$1 ==.
                           3842 ;	../drivers/CoreUARTapb/core_uart_apb.c:202: size_t rx_idx = 0u;
                           3843 ;	genAssign
   10C2 90s01rD4           3844 	mov	dptr,#_UART_get_rx_rx_idx_1_1
   10C5 E4                 3845 	clr	a
   10C6 F0                 3846 	movx	@dptr,a
   10C7 A3                 3847 	inc	dptr
   10C8 F0                 3848 	movx	@dptr,a
                    10C9   3849 	C$core_uart_apb.c$204$2$2 ==.
                           3850 ;	../drivers/CoreUARTapb/core_uart_apb.c:204: HAL_ASSERT( this_uart != NULL_INSTANCE )
                           3851 ;	genAssign
   10C9 90s01rD0           3852 	mov	dptr,#_UART_get_rx_this_uart_1_1
   10CC E0                 3853 	movx	a,@dptr
   10CD FA                 3854 	mov	r2,a
   10CE A3                 3855 	inc	dptr
   10CF E0                 3856 	movx	a,@dptr
   10D0 FB                 3857 	mov	r3,a
   10D1 A3                 3858 	inc	dptr
   10D2 E0                 3859 	movx	a,@dptr
   10D3 FC                 3860 	mov	r4,a
                           3861 ;	genCmpEq
                           3862 ;	gencjneshort
   10D4 BA 00 08           3863 	cjne	r2,#0x00,00135$
   10D7 BB 00 05           3864 	cjne	r3,#0x00,00135$
   10DA BC 00 02           3865 	cjne	r4,#0x00,00135$
   10DD 80 03              3866 	sjmp	00136$
   10DF                    3867 00135$:
   10DF 02s11rE5           3868 	ljmp	00104$
   10E2                    3869 00136$:
                           3870 ;	genPointerSet
                           3871 ;     genFarPointerSet
   10E2 90s01rD6           3872 	mov	dptr,#_UART_get_rx_file_name_3_3
   10E5 74 2E              3873 	mov	a,#0x2E
   10E7 F0                 3874 	movx	@dptr,a
                           3875 ;	genPointerSet
                           3876 ;     genFarPointerSet
   10E8 90s01rD7           3877 	mov	dptr,#(_UART_get_rx_file_name_3_3 + 0x0001)
   10EB 74 2E              3878 	mov	a,#0x2E
   10ED F0                 3879 	movx	@dptr,a
                           3880 ;	genPointerSet
                           3881 ;     genFarPointerSet
   10EE 90s01rD8           3882 	mov	dptr,#(_UART_get_rx_file_name_3_3 + 0x0002)
   10F1 74 2F              3883 	mov	a,#0x2F
   10F3 F0                 3884 	movx	@dptr,a
                           3885 ;	genPointerSet
                           3886 ;     genFarPointerSet
   10F4 90s01rD9           3887 	mov	dptr,#(_UART_get_rx_file_name_3_3 + 0x0003)
   10F7 74 64              3888 	mov	a,#0x64
   10F9 F0                 3889 	movx	@dptr,a
                           3890 ;	genPointerSet
                           3891 ;     genFarPointerSet
   10FA 90s01rDA           3892 	mov	dptr,#(_UART_get_rx_file_name_3_3 + 0x0004)
   10FD 74 72              3893 	mov	a,#0x72
   10FF F0                 3894 	movx	@dptr,a
                           3895 ;	genPointerSet
                           3896 ;     genFarPointerSet
   1100 90s01rDB           3897 	mov	dptr,#(_UART_get_rx_file_name_3_3 + 0x0005)
   1103 74 69              3898 	mov	a,#0x69
   1105 F0                 3899 	movx	@dptr,a
                           3900 ;	genPointerSet
                           3901 ;     genFarPointerSet
   1106 90s01rDC           3902 	mov	dptr,#(_UART_get_rx_file_name_3_3 + 0x0006)
   1109 74 76              3903 	mov	a,#0x76
   110B F0                 3904 	movx	@dptr,a
                           3905 ;	genPointerSet
                           3906 ;     genFarPointerSet
   110C 90s01rDD           3907 	mov	dptr,#(_UART_get_rx_file_name_3_3 + 0x0007)
   110F 74 65              3908 	mov	a,#0x65
   1111 F0                 3909 	movx	@dptr,a
                           3910 ;	genPointerSet
                           3911 ;     genFarPointerSet
   1112 90s01rDE           3912 	mov	dptr,#(_UART_get_rx_file_name_3_3 + 0x0008)
   1115 74 72              3913 	mov	a,#0x72
   1117 F0                 3914 	movx	@dptr,a
                           3915 ;	genPointerSet
                           3916 ;     genFarPointerSet
   1118 90s01rDF           3917 	mov	dptr,#(_UART_get_rx_file_name_3_3 + 0x0009)
   111B 74 73              3918 	mov	a,#0x73
   111D F0                 3919 	movx	@dptr,a
                           3920 ;	genPointerSet
                           3921 ;     genFarPointerSet
   111E 90s01rE0           3922 	mov	dptr,#(_UART_get_rx_file_name_3_3 + 0x000a)
   1121 74 2F              3923 	mov	a,#0x2F
   1123 F0                 3924 	movx	@dptr,a
                           3925 ;	genPointerSet
                           3926 ;     genFarPointerSet
   1124 90s01rE1           3927 	mov	dptr,#(_UART_get_rx_file_name_3_3 + 0x000b)
   1127 74 43              3928 	mov	a,#0x43
   1129 F0                 3929 	movx	@dptr,a
                           3930 ;	genPointerSet
                           3931 ;     genFarPointerSet
   112A 90s01rE2           3932 	mov	dptr,#(_UART_get_rx_file_name_3_3 + 0x000c)
   112D 74 6F              3933 	mov	a,#0x6F
   112F F0                 3934 	movx	@dptr,a
                           3935 ;	genPointerSet
                           3936 ;     genFarPointerSet
   1130 90s01rE3           3937 	mov	dptr,#(_UART_get_rx_file_name_3_3 + 0x000d)
   1133 74 72              3938 	mov	a,#0x72
   1135 F0                 3939 	movx	@dptr,a
                           3940 ;	genPointerSet
                           3941 ;     genFarPointerSet
   1136 90s01rE4           3942 	mov	dptr,#(_UART_get_rx_file_name_3_3 + 0x000e)
   1139 74 65              3943 	mov	a,#0x65
   113B F0                 3944 	movx	@dptr,a
                           3945 ;	genPointerSet
                           3946 ;     genFarPointerSet
   113C 90s01rE5           3947 	mov	dptr,#(_UART_get_rx_file_name_3_3 + 0x000f)
   113F 74 55              3948 	mov	a,#0x55
   1141 F0                 3949 	movx	@dptr,a
                           3950 ;	genPointerSet
                           3951 ;     genFarPointerSet
   1142 90s01rE6           3952 	mov	dptr,#(_UART_get_rx_file_name_3_3 + 0x0010)
   1145 74 41              3953 	mov	a,#0x41
   1147 F0                 3954 	movx	@dptr,a
                           3955 ;	genPointerSet
                           3956 ;     genFarPointerSet
   1148 90s01rE7           3957 	mov	dptr,#(_UART_get_rx_file_name_3_3 + 0x0011)
   114B 74 52              3958 	mov	a,#0x52
   114D F0                 3959 	movx	@dptr,a
                           3960 ;	genPointerSet
                           3961 ;     genFarPointerSet
   114E 90s01rE8           3962 	mov	dptr,#(_UART_get_rx_file_name_3_3 + 0x0012)
   1151 74 54              3963 	mov	a,#0x54
   1153 F0                 3964 	movx	@dptr,a
                           3965 ;	genPointerSet
                           3966 ;     genFarPointerSet
   1154 90s01rE9           3967 	mov	dptr,#(_UART_get_rx_file_name_3_3 + 0x0013)
   1157 74 61              3968 	mov	a,#0x61
   1159 F0                 3969 	movx	@dptr,a
                           3970 ;	genPointerSet
                           3971 ;     genFarPointerSet
   115A 90s01rEA           3972 	mov	dptr,#(_UART_get_rx_file_name_3_3 + 0x0014)
   115D 74 70              3973 	mov	a,#0x70
   115F F0                 3974 	movx	@dptr,a
                           3975 ;	genPointerSet
                           3976 ;     genFarPointerSet
   1160 90s01rEB           3977 	mov	dptr,#(_UART_get_rx_file_name_3_3 + 0x0015)
   1163 74 62              3978 	mov	a,#0x62
   1165 F0                 3979 	movx	@dptr,a
                           3980 ;	genPointerSet
                           3981 ;     genFarPointerSet
   1166 90s01rEC           3982 	mov	dptr,#(_UART_get_rx_file_name_3_3 + 0x0016)
   1169 74 2F              3983 	mov	a,#0x2F
   116B F0                 3984 	movx	@dptr,a
                           3985 ;	genPointerSet
                           3986 ;     genFarPointerSet
   116C 90s01rED           3987 	mov	dptr,#(_UART_get_rx_file_name_3_3 + 0x0017)
   116F 74 63              3988 	mov	a,#0x63
   1171 F0                 3989 	movx	@dptr,a
                           3990 ;	genPointerSet
                           3991 ;     genFarPointerSet
   1172 90s01rEE           3992 	mov	dptr,#(_UART_get_rx_file_name_3_3 + 0x0018)
   1175 74 6F              3993 	mov	a,#0x6F
   1177 F0                 3994 	movx	@dptr,a
                           3995 ;	genPointerSet
                           3996 ;     genFarPointerSet
   1178 90s01rEF           3997 	mov	dptr,#(_UART_get_rx_file_name_3_3 + 0x0019)
   117B 74 72              3998 	mov	a,#0x72
   117D F0                 3999 	movx	@dptr,a
                           4000 ;	genPointerSet
                           4001 ;     genFarPointerSet
   117E 90s01rF0           4002 	mov	dptr,#(_UART_get_rx_file_name_3_3 + 0x001a)
   1181 74 65              4003 	mov	a,#0x65
   1183 F0                 4004 	movx	@dptr,a
                           4005 ;	genPointerSet
                           4006 ;     genFarPointerSet
   1184 90s01rF1           4007 	mov	dptr,#(_UART_get_rx_file_name_3_3 + 0x001b)
   1187 74 5F              4008 	mov	a,#0x5F
   1189 F0                 4009 	movx	@dptr,a
                           4010 ;	genPointerSet
                           4011 ;     genFarPointerSet
   118A 90s01rF2           4012 	mov	dptr,#(_UART_get_rx_file_name_3_3 + 0x001c)
   118D 74 75              4013 	mov	a,#0x75
   118F F0                 4014 	movx	@dptr,a
                           4015 ;	genPointerSet
                           4016 ;     genFarPointerSet
   1190 90s01rF3           4017 	mov	dptr,#(_UART_get_rx_file_name_3_3 + 0x001d)
   1193 74 61              4018 	mov	a,#0x61
   1195 F0                 4019 	movx	@dptr,a
                           4020 ;	genPointerSet
                           4021 ;     genFarPointerSet
   1196 90s01rF4           4022 	mov	dptr,#(_UART_get_rx_file_name_3_3 + 0x001e)
   1199 74 72              4023 	mov	a,#0x72
   119B F0                 4024 	movx	@dptr,a
                           4025 ;	genPointerSet
                           4026 ;     genFarPointerSet
   119C 90s01rF5           4027 	mov	dptr,#(_UART_get_rx_file_name_3_3 + 0x001f)
   119F 74 74              4028 	mov	a,#0x74
   11A1 F0                 4029 	movx	@dptr,a
                           4030 ;	genPointerSet
                           4031 ;     genFarPointerSet
   11A2 90s01rF6           4032 	mov	dptr,#(_UART_get_rx_file_name_3_3 + 0x0020)
   11A5 74 5F              4033 	mov	a,#0x5F
   11A7 F0                 4034 	movx	@dptr,a
                           4035 ;	genPointerSet
                           4036 ;     genFarPointerSet
   11A8 90s01rF7           4037 	mov	dptr,#(_UART_get_rx_file_name_3_3 + 0x0021)
   11AB 74 61              4038 	mov	a,#0x61
   11AD F0                 4039 	movx	@dptr,a
                           4040 ;	genPointerSet
                           4041 ;     genFarPointerSet
   11AE 90s01rF8           4042 	mov	dptr,#(_UART_get_rx_file_name_3_3 + 0x0022)
   11B1 74 70              4043 	mov	a,#0x70
   11B3 F0                 4044 	movx	@dptr,a
                           4045 ;	genPointerSet
                           4046 ;     genFarPointerSet
   11B4 90s01rF9           4047 	mov	dptr,#(_UART_get_rx_file_name_3_3 + 0x0023)
   11B7 74 62              4048 	mov	a,#0x62
   11B9 F0                 4049 	movx	@dptr,a
                           4050 ;	genPointerSet
                           4051 ;     genFarPointerSet
   11BA 90s01rFA           4052 	mov	dptr,#(_UART_get_rx_file_name_3_3 + 0x0024)
   11BD 74 2E              4053 	mov	a,#0x2E
   11BF F0                 4054 	movx	@dptr,a
                           4055 ;	genPointerSet
                           4056 ;     genFarPointerSet
   11C0 90s01rFB           4057 	mov	dptr,#(_UART_get_rx_file_name_3_3 + 0x0025)
   11C3 74 63              4058 	mov	a,#0x63
   11C5 F0                 4059 	movx	@dptr,a
                           4060 ;	genPointerSet
                           4061 ;     genFarPointerSet
   11C6 90s01rFC           4062 	mov	dptr,#(_UART_get_rx_file_name_3_3 + 0x0026)
   11C9 74 00              4063 	mov	a,#0x00
   11CB F0                 4064 	movx	@dptr,a
                           4065 ;	genAssign
   11CC 90s00r00           4066 	mov	dptr,#_HAL_assert_fail_PARM_2
   11CF 74 CC              4067 	mov	a,#0xCC
   11D1 F0                 4068 	movx	@dptr,a
   11D2 E4                 4069 	clr	a
   11D3 A3                 4070 	inc	dptr
   11D4 F0                 4071 	movx	@dptr,a
   11D5 A3                 4072 	inc	dptr
   11D6 F0                 4073 	movx	@dptr,a
   11D7 A3                 4074 	inc	dptr
   11D8 F0                 4075 	movx	@dptr,a
                           4076 ;	genCall
   11D9 75 82rD6           4077 	mov	dpl,#_UART_get_rx_file_name_3_3
   11DC 75 83s01           4078 	mov	dph,#(_UART_get_rx_file_name_3_3 >> 8)
   11DF 75 F0 00           4079 	mov	b,#0x00
   11E2 12s00r00           4080 	lcall	_HAL_assert_fail
   11E5                    4081 00104$:
                    11E5   4082 	C$core_uart_apb.c$205$2$4 ==.
                           4083 ;	../drivers/CoreUARTapb/core_uart_apb.c:205: HAL_ASSERT( rx_buffer != NULL_BUFFER )
                           4084 ;	genAssign
   11E5 90s01rCB           4085 	mov	dptr,#_UART_get_rx_PARM_2
   11E8 E0                 4086 	movx	a,@dptr
   11E9 F5*16              4087 	mov	_UART_get_rx_sloc1_1_0,a
   11EB A3                 4088 	inc	dptr
   11EC E0                 4089 	movx	a,@dptr
   11ED F5*17              4090 	mov	(_UART_get_rx_sloc1_1_0 + 1),a
   11EF A3                 4091 	inc	dptr
   11F0 E0                 4092 	movx	a,@dptr
   11F1 F5*18              4093 	mov	(_UART_get_rx_sloc1_1_0 + 2),a
                           4094 ;	genCmpEq
                           4095 ;	gencjne
                           4096 ;	gencjneshort
   11F3 E5*16              4097 	mov	a,_UART_get_rx_sloc1_1_0
   11F5 70 0C              4098 	jnz	00137$
   11F7 E5*17              4099 	mov	a,(_UART_get_rx_sloc1_1_0 + 1)
   11F9 70 08              4100 	jnz	00137$
   11FB E5*18              4101 	mov	a,(_UART_get_rx_sloc1_1_0 + 2)
   11FD 70 04              4102 	jnz	00137$
   11FF 74 01              4103 	mov	a,#0x01
   1201 80 01              4104 	sjmp	00138$
   1203                    4105 00137$:
   1203 E4                 4106 	clr	a
   1204                    4107 00138$:
   1204 FD                 4108 	mov	r5,a
                           4109 ;	genIfx
   1205 ED                 4110 	mov	a,r5
                           4111 ;	genIfxJump
   1206 70 03              4112 	jnz	00139$
   1208 02s13r12           4113 	ljmp	00109$
   120B                    4114 00139$:
                           4115 ;	genPointerSet
                           4116 ;     genFarPointerSet
   120B 90s01rFD           4117 	mov	dptr,#_UART_get_rx_file_name_3_5
   120E 74 2E              4118 	mov	a,#0x2E
   1210 F0                 4119 	movx	@dptr,a
                           4120 ;	genPointerSet
                           4121 ;     genFarPointerSet
   1211 90s01rFE           4122 	mov	dptr,#(_UART_get_rx_file_name_3_5 + 0x0001)
   1214 74 2E              4123 	mov	a,#0x2E
   1216 F0                 4124 	movx	@dptr,a
                           4125 ;	genPointerSet
                           4126 ;     genFarPointerSet
   1217 90s01rFF           4127 	mov	dptr,#(_UART_get_rx_file_name_3_5 + 0x0002)
   121A 74 2F              4128 	mov	a,#0x2F
   121C F0                 4129 	movx	@dptr,a
                           4130 ;	genPointerSet
                           4131 ;     genFarPointerSet
   121D 90s02r00           4132 	mov	dptr,#(_UART_get_rx_file_name_3_5 + 0x0003)
   1220 74 64              4133 	mov	a,#0x64
   1222 F0                 4134 	movx	@dptr,a
                           4135 ;	genPointerSet
                           4136 ;     genFarPointerSet
   1223 90s02r01           4137 	mov	dptr,#(_UART_get_rx_file_name_3_5 + 0x0004)
   1226 74 72              4138 	mov	a,#0x72
   1228 F0                 4139 	movx	@dptr,a
                           4140 ;	genPointerSet
                           4141 ;     genFarPointerSet
   1229 90s02r02           4142 	mov	dptr,#(_UART_get_rx_file_name_3_5 + 0x0005)
   122C 74 69              4143 	mov	a,#0x69
   122E F0                 4144 	movx	@dptr,a
                           4145 ;	genPointerSet
                           4146 ;     genFarPointerSet
   122F 90s02r03           4147 	mov	dptr,#(_UART_get_rx_file_name_3_5 + 0x0006)
   1232 74 76              4148 	mov	a,#0x76
   1234 F0                 4149 	movx	@dptr,a
                           4150 ;	genPointerSet
                           4151 ;     genFarPointerSet
   1235 90s02r04           4152 	mov	dptr,#(_UART_get_rx_file_name_3_5 + 0x0007)
   1238 74 65              4153 	mov	a,#0x65
   123A F0                 4154 	movx	@dptr,a
                           4155 ;	genPointerSet
                           4156 ;     genFarPointerSet
   123B 90s02r05           4157 	mov	dptr,#(_UART_get_rx_file_name_3_5 + 0x0008)
   123E 74 72              4158 	mov	a,#0x72
   1240 F0                 4159 	movx	@dptr,a
                           4160 ;	genPointerSet
                           4161 ;     genFarPointerSet
   1241 90s02r06           4162 	mov	dptr,#(_UART_get_rx_file_name_3_5 + 0x0009)
   1244 74 73              4163 	mov	a,#0x73
   1246 F0                 4164 	movx	@dptr,a
                           4165 ;	genPointerSet
                           4166 ;     genFarPointerSet
   1247 90s02r07           4167 	mov	dptr,#(_UART_get_rx_file_name_3_5 + 0x000a)
   124A 74 2F              4168 	mov	a,#0x2F
   124C F0                 4169 	movx	@dptr,a
                           4170 ;	genPointerSet
                           4171 ;     genFarPointerSet
   124D 90s02r08           4172 	mov	dptr,#(_UART_get_rx_file_name_3_5 + 0x000b)
   1250 74 43              4173 	mov	a,#0x43
   1252 F0                 4174 	movx	@dptr,a
                           4175 ;	genPointerSet
                           4176 ;     genFarPointerSet
   1253 90s02r09           4177 	mov	dptr,#(_UART_get_rx_file_name_3_5 + 0x000c)
   1256 74 6F              4178 	mov	a,#0x6F
   1258 F0                 4179 	movx	@dptr,a
                           4180 ;	genPointerSet
                           4181 ;     genFarPointerSet
   1259 90s02r0A           4182 	mov	dptr,#(_UART_get_rx_file_name_3_5 + 0x000d)
   125C 74 72              4183 	mov	a,#0x72
   125E F0                 4184 	movx	@dptr,a
                           4185 ;	genPointerSet
                           4186 ;     genFarPointerSet
   125F 90s02r0B           4187 	mov	dptr,#(_UART_get_rx_file_name_3_5 + 0x000e)
   1262 74 65              4188 	mov	a,#0x65
   1264 F0                 4189 	movx	@dptr,a
                           4190 ;	genPointerSet
                           4191 ;     genFarPointerSet
   1265 90s02r0C           4192 	mov	dptr,#(_UART_get_rx_file_name_3_5 + 0x000f)
   1268 74 55              4193 	mov	a,#0x55
   126A F0                 4194 	movx	@dptr,a
                           4195 ;	genPointerSet
                           4196 ;     genFarPointerSet
   126B 90s02r0D           4197 	mov	dptr,#(_UART_get_rx_file_name_3_5 + 0x0010)
   126E 74 41              4198 	mov	a,#0x41
   1270 F0                 4199 	movx	@dptr,a
                           4200 ;	genPointerSet
                           4201 ;     genFarPointerSet
   1271 90s02r0E           4202 	mov	dptr,#(_UART_get_rx_file_name_3_5 + 0x0011)
   1274 74 52              4203 	mov	a,#0x52
   1276 F0                 4204 	movx	@dptr,a
                           4205 ;	genPointerSet
                           4206 ;     genFarPointerSet
   1277 90s02r0F           4207 	mov	dptr,#(_UART_get_rx_file_name_3_5 + 0x0012)
   127A 74 54              4208 	mov	a,#0x54
   127C F0                 4209 	movx	@dptr,a
                           4210 ;	genPointerSet
                           4211 ;     genFarPointerSet
   127D 90s02r10           4212 	mov	dptr,#(_UART_get_rx_file_name_3_5 + 0x0013)
   1280 74 61              4213 	mov	a,#0x61
   1282 F0                 4214 	movx	@dptr,a
                           4215 ;	genPointerSet
                           4216 ;     genFarPointerSet
   1283 90s02r11           4217 	mov	dptr,#(_UART_get_rx_file_name_3_5 + 0x0014)
   1286 74 70              4218 	mov	a,#0x70
   1288 F0                 4219 	movx	@dptr,a
                           4220 ;	genPointerSet
                           4221 ;     genFarPointerSet
   1289 90s02r12           4222 	mov	dptr,#(_UART_get_rx_file_name_3_5 + 0x0015)
   128C 74 62              4223 	mov	a,#0x62
   128E F0                 4224 	movx	@dptr,a
                           4225 ;	genPointerSet
                           4226 ;     genFarPointerSet
   128F 90s02r13           4227 	mov	dptr,#(_UART_get_rx_file_name_3_5 + 0x0016)
   1292 74 2F              4228 	mov	a,#0x2F
   1294 F0                 4229 	movx	@dptr,a
                           4230 ;	genPointerSet
                           4231 ;     genFarPointerSet
   1295 90s02r14           4232 	mov	dptr,#(_UART_get_rx_file_name_3_5 + 0x0017)
   1298 74 63              4233 	mov	a,#0x63
   129A F0                 4234 	movx	@dptr,a
                           4235 ;	genPointerSet
                           4236 ;     genFarPointerSet
   129B 90s02r15           4237 	mov	dptr,#(_UART_get_rx_file_name_3_5 + 0x0018)
   129E 74 6F              4238 	mov	a,#0x6F
   12A0 F0                 4239 	movx	@dptr,a
                           4240 ;	genPointerSet
                           4241 ;     genFarPointerSet
   12A1 90s02r16           4242 	mov	dptr,#(_UART_get_rx_file_name_3_5 + 0x0019)
   12A4 74 72              4243 	mov	a,#0x72
   12A6 F0                 4244 	movx	@dptr,a
                           4245 ;	genPointerSet
                           4246 ;     genFarPointerSet
   12A7 90s02r17           4247 	mov	dptr,#(_UART_get_rx_file_name_3_5 + 0x001a)
   12AA 74 65              4248 	mov	a,#0x65
   12AC F0                 4249 	movx	@dptr,a
                           4250 ;	genPointerSet
                           4251 ;     genFarPointerSet
   12AD 90s02r18           4252 	mov	dptr,#(_UART_get_rx_file_name_3_5 + 0x001b)
   12B0 74 5F              4253 	mov	a,#0x5F
   12B2 F0                 4254 	movx	@dptr,a
                           4255 ;	genPointerSet
                           4256 ;     genFarPointerSet
   12B3 90s02r19           4257 	mov	dptr,#(_UART_get_rx_file_name_3_5 + 0x001c)
   12B6 74 75              4258 	mov	a,#0x75
   12B8 F0                 4259 	movx	@dptr,a
                           4260 ;	genPointerSet
                           4261 ;     genFarPointerSet
   12B9 90s02r1A           4262 	mov	dptr,#(_UART_get_rx_file_name_3_5 + 0x001d)
   12BC 74 61              4263 	mov	a,#0x61
   12BE F0                 4264 	movx	@dptr,a
                           4265 ;	genPointerSet
                           4266 ;     genFarPointerSet
   12BF 90s02r1B           4267 	mov	dptr,#(_UART_get_rx_file_name_3_5 + 0x001e)
   12C2 74 72              4268 	mov	a,#0x72
   12C4 F0                 4269 	movx	@dptr,a
                           4270 ;	genPointerSet
                           4271 ;     genFarPointerSet
   12C5 90s02r1C           4272 	mov	dptr,#(_UART_get_rx_file_name_3_5 + 0x001f)
   12C8 74 74              4273 	mov	a,#0x74
   12CA F0                 4274 	movx	@dptr,a
                           4275 ;	genPointerSet
                           4276 ;     genFarPointerSet
   12CB 90s02r1D           4277 	mov	dptr,#(_UART_get_rx_file_name_3_5 + 0x0020)
   12CE 74 5F              4278 	mov	a,#0x5F
   12D0 F0                 4279 	movx	@dptr,a
                           4280 ;	genPointerSet
                           4281 ;     genFarPointerSet
   12D1 90s02r1E           4282 	mov	dptr,#(_UART_get_rx_file_name_3_5 + 0x0021)
   12D4 74 61              4283 	mov	a,#0x61
   12D6 F0                 4284 	movx	@dptr,a
                           4285 ;	genPointerSet
                           4286 ;     genFarPointerSet
   12D7 90s02r1F           4287 	mov	dptr,#(_UART_get_rx_file_name_3_5 + 0x0022)
   12DA 74 70              4288 	mov	a,#0x70
   12DC F0                 4289 	movx	@dptr,a
                           4290 ;	genPointerSet
                           4291 ;     genFarPointerSet
   12DD 90s02r20           4292 	mov	dptr,#(_UART_get_rx_file_name_3_5 + 0x0023)
   12E0 74 62              4293 	mov	a,#0x62
   12E2 F0                 4294 	movx	@dptr,a
                           4295 ;	genPointerSet
                           4296 ;     genFarPointerSet
   12E3 90s02r21           4297 	mov	dptr,#(_UART_get_rx_file_name_3_5 + 0x0024)
   12E6 74 2E              4298 	mov	a,#0x2E
   12E8 F0                 4299 	movx	@dptr,a
                           4300 ;	genPointerSet
                           4301 ;     genFarPointerSet
   12E9 90s02r22           4302 	mov	dptr,#(_UART_get_rx_file_name_3_5 + 0x0025)
   12EC 74 63              4303 	mov	a,#0x63
   12EE F0                 4304 	movx	@dptr,a
                           4305 ;	genPointerSet
                           4306 ;     genFarPointerSet
   12EF 90s02r23           4307 	mov	dptr,#(_UART_get_rx_file_name_3_5 + 0x0026)
   12F2 74 00              4308 	mov	a,#0x00
   12F4 F0                 4309 	movx	@dptr,a
                           4310 ;	genAssign
   12F5 90s00r00           4311 	mov	dptr,#_HAL_assert_fail_PARM_2
   12F8 74 CD              4312 	mov	a,#0xCD
   12FA F0                 4313 	movx	@dptr,a
   12FB E4                 4314 	clr	a
   12FC A3                 4315 	inc	dptr
   12FD F0                 4316 	movx	@dptr,a
   12FE A3                 4317 	inc	dptr
   12FF F0                 4318 	movx	@dptr,a
   1300 A3                 4319 	inc	dptr
   1301 F0                 4320 	movx	@dptr,a
                           4321 ;	genCall
   1302 75 82rFD           4322 	mov	dpl,#_UART_get_rx_file_name_3_5
   1305 75 83s01           4323 	mov	dph,#(_UART_get_rx_file_name_3_5 >> 8)
   1308 75 F0 00           4324 	mov	b,#0x00
   130B C0 05              4325 	push	ar5
   130D 12s00r00           4326 	lcall	_HAL_assert_fail
   1310 D0 05              4327 	pop	ar5
   1312                    4328 00109$:
                    1312   4329 	C$core_uart_apb.c$206$2$6 ==.
                           4330 ;	../drivers/CoreUARTapb/core_uart_apb.c:206: HAL_ASSERT( buff_size > 0 )
                           4331 ;	genAssign
   1312 90s01rCE           4332 	mov	dptr,#_UART_get_rx_PARM_3
   1315 E0                 4333 	movx	a,@dptr
   1316 FE                 4334 	mov	r6,a
   1317 A3                 4335 	inc	dptr
   1318 E0                 4336 	movx	a,@dptr
   1319 FF                 4337 	mov	r7,a
                           4338 ;	genIfx
   131A EE                 4339 	mov	a,r6
   131B 4F                 4340 	orl	a,r7
                           4341 ;	genIfxJump
   131C 60 03              4342 	jz	00140$
   131E 02s14r30           4343 	ljmp	00114$
   1321                    4344 00140$:
                           4345 ;	genPointerSet
                           4346 ;     genFarPointerSet
   1321 90s02r24           4347 	mov	dptr,#_UART_get_rx_file_name_3_7
   1324 74 2E              4348 	mov	a,#0x2E
   1326 F0                 4349 	movx	@dptr,a
                           4350 ;	genPointerSet
                           4351 ;     genFarPointerSet
   1327 90s02r25           4352 	mov	dptr,#(_UART_get_rx_file_name_3_7 + 0x0001)
   132A 74 2E              4353 	mov	a,#0x2E
   132C F0                 4354 	movx	@dptr,a
                           4355 ;	genPointerSet
                           4356 ;     genFarPointerSet
   132D 90s02r26           4357 	mov	dptr,#(_UART_get_rx_file_name_3_7 + 0x0002)
   1330 74 2F              4358 	mov	a,#0x2F
   1332 F0                 4359 	movx	@dptr,a
                           4360 ;	genPointerSet
                           4361 ;     genFarPointerSet
   1333 90s02r27           4362 	mov	dptr,#(_UART_get_rx_file_name_3_7 + 0x0003)
   1336 74 64              4363 	mov	a,#0x64
   1338 F0                 4364 	movx	@dptr,a
                           4365 ;	genPointerSet
                           4366 ;     genFarPointerSet
   1339 90s02r28           4367 	mov	dptr,#(_UART_get_rx_file_name_3_7 + 0x0004)
   133C 74 72              4368 	mov	a,#0x72
   133E F0                 4369 	movx	@dptr,a
                           4370 ;	genPointerSet
                           4371 ;     genFarPointerSet
   133F 90s02r29           4372 	mov	dptr,#(_UART_get_rx_file_name_3_7 + 0x0005)
   1342 74 69              4373 	mov	a,#0x69
   1344 F0                 4374 	movx	@dptr,a
                           4375 ;	genPointerSet
                           4376 ;     genFarPointerSet
   1345 90s02r2A           4377 	mov	dptr,#(_UART_get_rx_file_name_3_7 + 0x0006)
   1348 74 76              4378 	mov	a,#0x76
   134A F0                 4379 	movx	@dptr,a
                           4380 ;	genPointerSet
                           4381 ;     genFarPointerSet
   134B 90s02r2B           4382 	mov	dptr,#(_UART_get_rx_file_name_3_7 + 0x0007)
   134E 74 65              4383 	mov	a,#0x65
   1350 F0                 4384 	movx	@dptr,a
                           4385 ;	genPointerSet
                           4386 ;     genFarPointerSet
   1351 90s02r2C           4387 	mov	dptr,#(_UART_get_rx_file_name_3_7 + 0x0008)
   1354 74 72              4388 	mov	a,#0x72
   1356 F0                 4389 	movx	@dptr,a
                           4390 ;	genPointerSet
                           4391 ;     genFarPointerSet
   1357 90s02r2D           4392 	mov	dptr,#(_UART_get_rx_file_name_3_7 + 0x0009)
   135A 74 73              4393 	mov	a,#0x73
   135C F0                 4394 	movx	@dptr,a
                           4395 ;	genPointerSet
                           4396 ;     genFarPointerSet
   135D 90s02r2E           4397 	mov	dptr,#(_UART_get_rx_file_name_3_7 + 0x000a)
   1360 74 2F              4398 	mov	a,#0x2F
   1362 F0                 4399 	movx	@dptr,a
                           4400 ;	genPointerSet
                           4401 ;     genFarPointerSet
   1363 90s02r2F           4402 	mov	dptr,#(_UART_get_rx_file_name_3_7 + 0x000b)
   1366 74 43              4403 	mov	a,#0x43
   1368 F0                 4404 	movx	@dptr,a
                           4405 ;	genPointerSet
                           4406 ;     genFarPointerSet
   1369 90s02r30           4407 	mov	dptr,#(_UART_get_rx_file_name_3_7 + 0x000c)
   136C 74 6F              4408 	mov	a,#0x6F
   136E F0                 4409 	movx	@dptr,a
                           4410 ;	genPointerSet
                           4411 ;     genFarPointerSet
   136F 90s02r31           4412 	mov	dptr,#(_UART_get_rx_file_name_3_7 + 0x000d)
   1372 74 72              4413 	mov	a,#0x72
   1374 F0                 4414 	movx	@dptr,a
                           4415 ;	genPointerSet
                           4416 ;     genFarPointerSet
   1375 90s02r32           4417 	mov	dptr,#(_UART_get_rx_file_name_3_7 + 0x000e)
   1378 74 65              4418 	mov	a,#0x65
   137A F0                 4419 	movx	@dptr,a
                           4420 ;	genPointerSet
                           4421 ;     genFarPointerSet
   137B 90s02r33           4422 	mov	dptr,#(_UART_get_rx_file_name_3_7 + 0x000f)
   137E 74 55              4423 	mov	a,#0x55
   1380 F0                 4424 	movx	@dptr,a
                           4425 ;	genPointerSet
                           4426 ;     genFarPointerSet
   1381 90s02r34           4427 	mov	dptr,#(_UART_get_rx_file_name_3_7 + 0x0010)
   1384 74 41              4428 	mov	a,#0x41
   1386 F0                 4429 	movx	@dptr,a
                           4430 ;	genPointerSet
                           4431 ;     genFarPointerSet
   1387 90s02r35           4432 	mov	dptr,#(_UART_get_rx_file_name_3_7 + 0x0011)
   138A 74 52              4433 	mov	a,#0x52
   138C F0                 4434 	movx	@dptr,a
                           4435 ;	genPointerSet
                           4436 ;     genFarPointerSet
   138D 90s02r36           4437 	mov	dptr,#(_UART_get_rx_file_name_3_7 + 0x0012)
   1390 74 54              4438 	mov	a,#0x54
   1392 F0                 4439 	movx	@dptr,a
                           4440 ;	genPointerSet
                           4441 ;     genFarPointerSet
   1393 90s02r37           4442 	mov	dptr,#(_UART_get_rx_file_name_3_7 + 0x0013)
   1396 74 61              4443 	mov	a,#0x61
   1398 F0                 4444 	movx	@dptr,a
                           4445 ;	genPointerSet
                           4446 ;     genFarPointerSet
   1399 90s02r38           4447 	mov	dptr,#(_UART_get_rx_file_name_3_7 + 0x0014)
   139C 74 70              4448 	mov	a,#0x70
   139E F0                 4449 	movx	@dptr,a
                           4450 ;	genPointerSet
                           4451 ;     genFarPointerSet
   139F 90s02r39           4452 	mov	dptr,#(_UART_get_rx_file_name_3_7 + 0x0015)
   13A2 74 62              4453 	mov	a,#0x62
   13A4 F0                 4454 	movx	@dptr,a
                           4455 ;	genPointerSet
                           4456 ;     genFarPointerSet
   13A5 90s02r3A           4457 	mov	dptr,#(_UART_get_rx_file_name_3_7 + 0x0016)
   13A8 74 2F              4458 	mov	a,#0x2F
   13AA F0                 4459 	movx	@dptr,a
                           4460 ;	genPointerSet
                           4461 ;     genFarPointerSet
   13AB 90s02r3B           4462 	mov	dptr,#(_UART_get_rx_file_name_3_7 + 0x0017)
   13AE 74 63              4463 	mov	a,#0x63
   13B0 F0                 4464 	movx	@dptr,a
                           4465 ;	genPointerSet
                           4466 ;     genFarPointerSet
   13B1 90s02r3C           4467 	mov	dptr,#(_UART_get_rx_file_name_3_7 + 0x0018)
   13B4 74 6F              4468 	mov	a,#0x6F
   13B6 F0                 4469 	movx	@dptr,a
                           4470 ;	genPointerSet
                           4471 ;     genFarPointerSet
   13B7 90s02r3D           4472 	mov	dptr,#(_UART_get_rx_file_name_3_7 + 0x0019)
   13BA 74 72              4473 	mov	a,#0x72
   13BC F0                 4474 	movx	@dptr,a
                           4475 ;	genPointerSet
                           4476 ;     genFarPointerSet
   13BD 90s02r3E           4477 	mov	dptr,#(_UART_get_rx_file_name_3_7 + 0x001a)
   13C0 74 65              4478 	mov	a,#0x65
   13C2 F0                 4479 	movx	@dptr,a
                           4480 ;	genPointerSet
                           4481 ;     genFarPointerSet
   13C3 90s02r3F           4482 	mov	dptr,#(_UART_get_rx_file_name_3_7 + 0x001b)
   13C6 74 5F              4483 	mov	a,#0x5F
   13C8 F0                 4484 	movx	@dptr,a
                           4485 ;	genPointerSet
                           4486 ;     genFarPointerSet
   13C9 90s02r40           4487 	mov	dptr,#(_UART_get_rx_file_name_3_7 + 0x001c)
   13CC 74 75              4488 	mov	a,#0x75
   13CE F0                 4489 	movx	@dptr,a
                           4490 ;	genPointerSet
                           4491 ;     genFarPointerSet
   13CF 90s02r41           4492 	mov	dptr,#(_UART_get_rx_file_name_3_7 + 0x001d)
   13D2 74 61              4493 	mov	a,#0x61
   13D4 F0                 4494 	movx	@dptr,a
                           4495 ;	genPointerSet
                           4496 ;     genFarPointerSet
   13D5 90s02r42           4497 	mov	dptr,#(_UART_get_rx_file_name_3_7 + 0x001e)
   13D8 74 72              4498 	mov	a,#0x72
   13DA F0                 4499 	movx	@dptr,a
                           4500 ;	genPointerSet
                           4501 ;     genFarPointerSet
   13DB 90s02r43           4502 	mov	dptr,#(_UART_get_rx_file_name_3_7 + 0x001f)
   13DE 74 74              4503 	mov	a,#0x74
   13E0 F0                 4504 	movx	@dptr,a
                           4505 ;	genPointerSet
                           4506 ;     genFarPointerSet
   13E1 90s02r44           4507 	mov	dptr,#(_UART_get_rx_file_name_3_7 + 0x0020)
   13E4 74 5F              4508 	mov	a,#0x5F
   13E6 F0                 4509 	movx	@dptr,a
                           4510 ;	genPointerSet
                           4511 ;     genFarPointerSet
   13E7 90s02r45           4512 	mov	dptr,#(_UART_get_rx_file_name_3_7 + 0x0021)
   13EA 74 61              4513 	mov	a,#0x61
   13EC F0                 4514 	movx	@dptr,a
                           4515 ;	genPointerSet
                           4516 ;     genFarPointerSet
   13ED 90s02r46           4517 	mov	dptr,#(_UART_get_rx_file_name_3_7 + 0x0022)
   13F0 74 70              4518 	mov	a,#0x70
   13F2 F0                 4519 	movx	@dptr,a
                           4520 ;	genPointerSet
                           4521 ;     genFarPointerSet
   13F3 90s02r47           4522 	mov	dptr,#(_UART_get_rx_file_name_3_7 + 0x0023)
   13F6 74 62              4523 	mov	a,#0x62
   13F8 F0                 4524 	movx	@dptr,a
                           4525 ;	genPointerSet
                           4526 ;     genFarPointerSet
   13F9 90s02r48           4527 	mov	dptr,#(_UART_get_rx_file_name_3_7 + 0x0024)
   13FC 74 2E              4528 	mov	a,#0x2E
   13FE F0                 4529 	movx	@dptr,a
                           4530 ;	genPointerSet
                           4531 ;     genFarPointerSet
   13FF 90s02r49           4532 	mov	dptr,#(_UART_get_rx_file_name_3_7 + 0x0025)
   1402 74 63              4533 	mov	a,#0x63
   1404 F0                 4534 	movx	@dptr,a
                           4535 ;	genPointerSet
                           4536 ;     genFarPointerSet
   1405 90s02r4A           4537 	mov	dptr,#(_UART_get_rx_file_name_3_7 + 0x0026)
   1408 74 00              4538 	mov	a,#0x00
   140A F0                 4539 	movx	@dptr,a
                           4540 ;	genAssign
   140B 90s00r00           4541 	mov	dptr,#_HAL_assert_fail_PARM_2
   140E 74 CE              4542 	mov	a,#0xCE
   1410 F0                 4543 	movx	@dptr,a
   1411 E4                 4544 	clr	a
   1412 A3                 4545 	inc	dptr
   1413 F0                 4546 	movx	@dptr,a
   1414 A3                 4547 	inc	dptr
   1415 F0                 4548 	movx	@dptr,a
   1416 A3                 4549 	inc	dptr
   1417 F0                 4550 	movx	@dptr,a
                           4551 ;	genCall
   1418 75 82r24           4552 	mov	dpl,#_UART_get_rx_file_name_3_7
   141B 75 83s02           4553 	mov	dph,#(_UART_get_rx_file_name_3_7 >> 8)
   141E 75 F0 00           4554 	mov	b,#0x00
   1421 C0 05              4555 	push	ar5
   1423 C0 06              4556 	push	ar6
   1425 C0 07              4557 	push	ar7
   1427 12s00r00           4558 	lcall	_HAL_assert_fail
   142A D0 07              4559 	pop	ar7
   142C D0 06              4560 	pop	ar6
   142E D0 05              4561 	pop	ar5
   1430                    4562 00114$:
                    1430   4563 	C$core_uart_apb.c$208$1$1 ==.
                           4564 ;	../drivers/CoreUARTapb/core_uart_apb.c:208: if( (this_uart != NULL_INSTANCE) &&
                           4565 ;	genAssign
   1430 90s01rD0           4566 	mov	dptr,#_UART_get_rx_this_uart_1_1
   1433 E0                 4567 	movx	a,@dptr
   1434 F5*13              4568 	mov	_UART_get_rx_sloc0_1_0,a
   1436 A3                 4569 	inc	dptr
   1437 E0                 4570 	movx	a,@dptr
   1438 F5*14              4571 	mov	(_UART_get_rx_sloc0_1_0 + 1),a
   143A A3                 4572 	inc	dptr
   143B E0                 4573 	movx	a,@dptr
   143C F5*15              4574 	mov	(_UART_get_rx_sloc0_1_0 + 2),a
                           4575 ;	genCmpEq
                           4576 ;	gencjneshort
   143E E5*13              4577 	mov	a,_UART_get_rx_sloc0_1_0
   1440 70 0B              4578 	jnz	00141$
   1442 E5*14              4579 	mov	a,(_UART_get_rx_sloc0_1_0 + 1)
   1444 70 07              4580 	jnz	00141$
   1446 E5*15              4581 	mov	a,(_UART_get_rx_sloc0_1_0 + 2)
   1448 70 03              4582 	jnz	00141$
   144A 02s15rB8           4583 	ljmp	00121$
   144D                    4584 00141$:
                    144D   4585 	C$core_uart_apb.c$209$1$1 ==.
                           4586 ;	../drivers/CoreUARTapb/core_uart_apb.c:209: (rx_buffer != NULL_BUFFER)   &&
                           4587 ;	genIfx
   144D ED                 4588 	mov	a,r5
                           4589 ;	genIfxJump
   144E 60 03              4590 	jz	00142$
   1450 02s15rB8           4591 	ljmp	00121$
   1453                    4592 00142$:
                    1453   4593 	C$core_uart_apb.c$210$1$1 ==.
                           4594 ;	../drivers/CoreUARTapb/core_uart_apb.c:210: (buff_size > 0u) )
                           4595 ;	genIfx
   1453 EE                 4596 	mov	a,r6
   1454 4F                 4597 	orl	a,r7
                           4598 ;	genIfxJump
   1455 70 03              4599 	jnz	00143$
   1457 02s15rB8           4600 	ljmp	00121$
   145A                    4601 00143$:
                    145A   4602 	C$core_uart_apb.c$212$1$1 ==.
                           4603 ;	../drivers/CoreUARTapb/core_uart_apb.c:212: rx_idx = 0u;
                           4604 ;	genIpush
                           4605 ;	genAssign
   145A 90s01rD4           4606 	mov	dptr,#_UART_get_rx_rx_idx_1_1
   145D E4                 4607 	clr	a
   145E F0                 4608 	movx	@dptr,a
   145F A3                 4609 	inc	dptr
   1460 F0                 4610 	movx	@dptr,a
                    1461   4611 	C$core_uart_apb.c$213$2$8 ==.
                           4612 ;	../drivers/CoreUARTapb/core_uart_apb.c:213: new_status = HAL_get_8bit_reg( this_uart->base_address, STATUS );
                           4613 ;	genPointerGet
                           4614 ;	genGenPointerGet
   1461 85*13 82           4615 	mov	dpl,_UART_get_rx_sloc0_1_0
   1464 85*14 83           4616 	mov	dph,(_UART_get_rx_sloc0_1_0 + 1)
   1467 85*15 F0           4617 	mov	b,(_UART_get_rx_sloc0_1_0 + 2)
   146A 12s00r00           4618 	lcall	__gptrget
   146D FD                 4619 	mov	r5,a
   146E A3                 4620 	inc	dptr
   146F 12s00r00           4621 	lcall	__gptrget
   1472 F8                 4622 	mov	r0,a
                           4623 ;	genPlus
                           4624 ;	genPlusIncr
   1473 74 10              4625 	mov	a,#0x10
   1475 25 05              4626 	add	a,ar5
   1477 FD                 4627 	mov	r5,a
   1478 74 00              4628 	mov	a,#0x00
   147A 35 00              4629 	addc	a,ar0
   147C F8                 4630 	mov	r0,a
                           4631 ;	genCall
   147D 8D 82              4632 	mov	dpl,r5
   147F 88 83              4633 	mov	dph,r0
   1481 C0 06              4634 	push	ar6
   1483 C0 07              4635 	push	ar7
   1485 12s00r00           4636 	lcall	_HW_get_8bit_reg
   1488 AD 82              4637 	mov	r5,dpl
   148A D0 07              4638 	pop	ar7
   148C D0 06              4639 	pop	ar6
                    148E   4640 	C$core_uart_apb.c$214$2$8 ==.
                           4641 ;	../drivers/CoreUARTapb/core_uart_apb.c:214: this_uart->status |= new_status;
                           4642 ;	genPlus
                           4643 ;	genPlusIncr
   148E 74 02              4644 	mov	a,#0x02
   1490 25*13              4645 	add	a,_UART_get_rx_sloc0_1_0
   1492 F8                 4646 	mov	r0,a
   1493 74 00              4647 	mov	a,#0x00
   1495 35*14              4648 	addc	a,(_UART_get_rx_sloc0_1_0 + 1)
   1497 F9                 4649 	mov	r1,a
   1498 AA*15              4650 	mov	r2,(_UART_get_rx_sloc0_1_0 + 2)
                           4651 ;	genPointerGet
                           4652 ;	genGenPointerGet
   149A 88 82              4653 	mov	dpl,r0
   149C 89 83              4654 	mov	dph,r1
   149E 8A F0              4655 	mov	b,r2
   14A0 12s00r00           4656 	lcall	__gptrget
   14A3 FB                 4657 	mov	r3,a
                           4658 ;	genOr
   14A4 ED                 4659 	mov	a,r5
   14A5 42 03              4660 	orl	ar3,a
                           4661 ;	genPointerSet
                           4662 ;	genGenPointerSet
   14A7 88 82              4663 	mov	dpl,r0
   14A9 89 83              4664 	mov	dph,r1
   14AB 8A F0              4665 	mov	b,r2
   14AD EB                 4666 	mov	a,r3
   14AE 12s00r00           4667 	lcall	__gptrput
                    14B1   4668 	C$core_uart_apb.c$215$2$8 ==.
                           4669 ;	../drivers/CoreUARTapb/core_uart_apb.c:215: rx_full = new_status & STATUS_RXFULL_MASK;
                           4670 ;	genCast
   14B1 7A 00              4671 	mov	r2,#0x00
                           4672 ;	genAnd
   14B3 53 05 02           4673 	anl	ar5,#0x02
   14B6 7A 00              4674 	mov	r2,#0x00
                           4675 ;	genCast
   14B8 90s01rD3           4676 	mov	dptr,#_UART_get_rx_rx_full_1_1
   14BB ED                 4677 	mov	a,r5
   14BC F0                 4678 	movx	@dptr,a
                    14BD   4679 	C$core_uart_apb.c$226$1$1 ==.
                           4680 ;	../drivers/CoreUARTapb/core_uart_apb.c:226: return rx_idx;
                           4681 ;	genIpop
                    14BD   4682 	C$core_uart_apb.c$216$3$9 ==.
                           4683 ;	../drivers/CoreUARTapb/core_uart_apb.c:216: while ( ( rx_full ) && ( rx_idx < buff_size ) )
                           4684 ;	genAssign
   14BD AD*13              4685 	mov	r5,_UART_get_rx_sloc0_1_0
   14BF A8*14              4686 	mov	r0,(_UART_get_rx_sloc0_1_0 + 1)
   14C1 A9*15              4687 	mov	r1,(_UART_get_rx_sloc0_1_0 + 2)
   14C3                    4688 00117$:
                           4689 ;	genAssign
   14C3 90s01rD3           4690 	mov	dptr,#_UART_get_rx_rx_full_1_1
   14C6 E0                 4691 	movx	a,@dptr
   14C7 FA                 4692 	mov	r2,a
                           4693 ;	genIfx
   14C8 EA                 4694 	mov	a,r2
                           4695 ;	genIfxJump
   14C9 70 03              4696 	jnz	00144$
   14CB 02s15rB8           4697 	ljmp	00121$
   14CE                    4698 00144$:
                           4699 ;	genAssign
   14CE 90s01rD4           4700 	mov	dptr,#_UART_get_rx_rx_idx_1_1
   14D1 E0                 4701 	movx	a,@dptr
   14D2 FA                 4702 	mov	r2,a
   14D3 A3                 4703 	inc	dptr
   14D4 E0                 4704 	movx	a,@dptr
   14D5 FB                 4705 	mov	r3,a
                           4706 ;	genCmpLt
                           4707 ;	genCmp
   14D6 C3                 4708 	clr	c
   14D7 EA                 4709 	mov	a,r2
   14D8 9E                 4710 	subb	a,r6
   14D9 EB                 4711 	mov	a,r3
   14DA 9F                 4712 	subb	a,r7
                           4713 ;	genIfxJump
   14DB 40 03              4714 	jc	00145$
   14DD 02s15rB8           4715 	ljmp	00121$
   14E0                    4716 00145$:
                    14E0   4717 	C$core_uart_apb.c$218$1$1 ==.
                           4718 ;	../drivers/CoreUARTapb/core_uart_apb.c:218: rx_buffer[rx_idx] = HAL_get_8bit_reg( this_uart->base_address,
                           4719 ;	genIpush
   14E0 C0 06              4720 	push	ar6
   14E2 C0 07              4721 	push	ar7
                           4722 ;	genPlus
   14E4 E5 02              4723 	mov	a,ar2
   14E6 25*16              4724 	add	a,_UART_get_rx_sloc1_1_0
   14E8 F5*13              4725 	mov	_UART_get_rx_sloc0_1_0,a
   14EA E5 03              4726 	mov	a,ar3
   14EC 35*17              4727 	addc	a,(_UART_get_rx_sloc1_1_0 + 1)
   14EE F5*14              4728 	mov	(_UART_get_rx_sloc0_1_0 + 1),a
   14F0 85*18*15           4729 	mov	(_UART_get_rx_sloc0_1_0 + 2),(_UART_get_rx_sloc1_1_0 + 2)
                           4730 ;	genPointerGet
                           4731 ;	genGenPointerGet
   14F3 8D 82              4732 	mov	dpl,r5
   14F5 88 83              4733 	mov	dph,r0
   14F7 89 F0              4734 	mov	b,r1
   14F9 12s00r00           4735 	lcall	__gptrget
   14FC FC                 4736 	mov	r4,a
   14FD A3                 4737 	inc	dptr
   14FE 12s00r00           4738 	lcall	__gptrget
   1501 FE                 4739 	mov	r6,a
                           4740 ;	genPlus
                           4741 ;	genPlusIncr
   1502 74 04              4742 	mov	a,#0x04
   1504 25 04              4743 	add	a,ar4
   1506 FC                 4744 	mov	r4,a
   1507 74 00              4745 	mov	a,#0x00
   1509 35 06              4746 	addc	a,ar6
   150B FE                 4747 	mov	r6,a
                           4748 ;	genCall
   150C 8C 82              4749 	mov	dpl,r4
   150E 8E 83              4750 	mov	dph,r6
   1510 C0 02              4751 	push	ar2
   1512 C0 03              4752 	push	ar3
   1514 C0 05              4753 	push	ar5
   1516 C0 06              4754 	push	ar6
   1518 C0 07              4755 	push	ar7
   151A C0 00              4756 	push	ar0
   151C C0 01              4757 	push	ar1
   151E 12s00r00           4758 	lcall	_HW_get_8bit_reg
   1521 AC 82              4759 	mov	r4,dpl
   1523 D0 01              4760 	pop	ar1
   1525 D0 00              4761 	pop	ar0
   1527 D0 07              4762 	pop	ar7
   1529 D0 06              4763 	pop	ar6
   152B D0 05              4764 	pop	ar5
   152D D0 03              4765 	pop	ar3
   152F D0 02              4766 	pop	ar2
                           4767 ;	genPointerSet
                           4768 ;	genGenPointerSet
   1531 85*13 82           4769 	mov	dpl,_UART_get_rx_sloc0_1_0
   1534 85*14 83           4770 	mov	dph,(_UART_get_rx_sloc0_1_0 + 1)
   1537 85*15 F0           4771 	mov	b,(_UART_get_rx_sloc0_1_0 + 2)
   153A EC                 4772 	mov	a,r4
   153B 12s00r00           4773 	lcall	__gptrput
                    153E   4774 	C$core_uart_apb.c$220$3$9 ==.
                           4775 ;	../drivers/CoreUARTapb/core_uart_apb.c:220: rx_idx++;
                           4776 ;	genPlus
   153E 90s01rD4           4777 	mov	dptr,#_UART_get_rx_rx_idx_1_1
                           4778 ;	genPlusIncr
   1541 74 01              4779 	mov	a,#0x01
   1543 25 02              4780 	add	a,ar2
   1545 F0                 4781 	movx	@dptr,a
   1546 74 00              4782 	mov	a,#0x00
   1548 35 03              4783 	addc	a,ar3
   154A A3                 4784 	inc	dptr
   154B F0                 4785 	movx	@dptr,a
                    154C   4786 	C$core_uart_apb.c$221$3$9 ==.
                           4787 ;	../drivers/CoreUARTapb/core_uart_apb.c:221: new_status = HAL_get_8bit_reg( this_uart->base_address, STATUS );
                           4788 ;	genPointerGet
                           4789 ;	genGenPointerGet
   154C 8D 82              4790 	mov	dpl,r5
   154E 88 83              4791 	mov	dph,r0
   1550 89 F0              4792 	mov	b,r1
   1552 12s00r00           4793 	lcall	__gptrget
   1555 FA                 4794 	mov	r2,a
   1556 A3                 4795 	inc	dptr
   1557 12s00r00           4796 	lcall	__gptrget
   155A FB                 4797 	mov	r3,a
                           4798 ;	genPlus
                           4799 ;	genPlusIncr
   155B 74 10              4800 	mov	a,#0x10
   155D 25 02              4801 	add	a,ar2
   155F FA                 4802 	mov	r2,a
   1560 74 00              4803 	mov	a,#0x00
   1562 35 03              4804 	addc	a,ar3
   1564 FB                 4805 	mov	r3,a
                           4806 ;	genCall
   1565 8A 82              4807 	mov	dpl,r2
   1567 8B 83              4808 	mov	dph,r3
   1569 C0 05              4809 	push	ar5
   156B C0 06              4810 	push	ar6
   156D C0 07              4811 	push	ar7
   156F C0 00              4812 	push	ar0
   1571 C0 01              4813 	push	ar1
   1573 12s00r00           4814 	lcall	_HW_get_8bit_reg
   1576 AA 82              4815 	mov	r2,dpl
   1578 D0 01              4816 	pop	ar1
   157A D0 00              4817 	pop	ar0
   157C D0 07              4818 	pop	ar7
   157E D0 06              4819 	pop	ar6
   1580 D0 05              4820 	pop	ar5
                    1582   4821 	C$core_uart_apb.c$222$3$9 ==.
                           4822 ;	../drivers/CoreUARTapb/core_uart_apb.c:222: this_uart->status |= new_status;
                           4823 ;	genPlus
                           4824 ;	genPlusIncr
   1582 74 02              4825 	mov	a,#0x02
   1584 25 05              4826 	add	a,ar5
   1586 FB                 4827 	mov	r3,a
   1587 74 00              4828 	mov	a,#0x00
   1589 35 00              4829 	addc	a,ar0
   158B FC                 4830 	mov	r4,a
   158C 89 06              4831 	mov	ar6,r1
                           4832 ;	genPointerGet
                           4833 ;	genGenPointerGet
   158E 8B 82              4834 	mov	dpl,r3
   1590 8C 83              4835 	mov	dph,r4
   1592 8E F0              4836 	mov	b,r6
   1594 12s00r00           4837 	lcall	__gptrget
   1597 FF                 4838 	mov	r7,a
                           4839 ;	genOr
   1598 EA                 4840 	mov	a,r2
   1599 42 07              4841 	orl	ar7,a
                           4842 ;	genPointerSet
                           4843 ;	genGenPointerSet
   159B 8B 82              4844 	mov	dpl,r3
   159D 8C 83              4845 	mov	dph,r4
   159F 8E F0              4846 	mov	b,r6
   15A1 EF                 4847 	mov	a,r7
   15A2 12s00r00           4848 	lcall	__gptrput
                    15A5   4849 	C$core_uart_apb.c$223$3$9 ==.
                           4850 ;	../drivers/CoreUARTapb/core_uart_apb.c:223: rx_full = new_status & STATUS_RXFULL_MASK;
                           4851 ;	genCast
   15A5 7B 00              4852 	mov	r3,#0x00
                           4853 ;	genAnd
   15A7 53 02 02           4854 	anl	ar2,#0x02
   15AA 7B 00              4855 	mov	r3,#0x00
                           4856 ;	genCast
   15AC 90s01rD3           4857 	mov	dptr,#_UART_get_rx_rx_full_1_1
   15AF EA                 4858 	mov	a,r2
   15B0 F0                 4859 	movx	@dptr,a
                           4860 ;	genIpop
   15B1 D0 07              4861 	pop	ar7
   15B3 D0 06              4862 	pop	ar6
   15B5 02s14rC3           4863 	ljmp	00117$
   15B8                    4864 00121$:
                    15B8   4865 	C$core_uart_apb.c$226$1$1 ==.
                           4866 ;	../drivers/CoreUARTapb/core_uart_apb.c:226: return rx_idx;
                           4867 ;	genAssign
   15B8 90s01rD4           4868 	mov	dptr,#_UART_get_rx_rx_idx_1_1
   15BB E0                 4869 	movx	a,@dptr
   15BC FA                 4870 	mov	r2,a
   15BD A3                 4871 	inc	dptr
   15BE E0                 4872 	movx	a,@dptr
   15BF FB                 4873 	mov	r3,a
                           4874 ;	genRet
   15C0 8A 82              4875 	mov	dpl,r2
   15C2 8B 83              4876 	mov	dph,r3
   15C4                    4877 00124$:
                    15C4   4878 	C$core_uart_apb.c$227$1$1 ==.
                    15C4   4879 	XG$UART_get_rx$0$0 ==.
   15C4 22                 4880 	ret
                           4881 ;------------------------------------------------------------
                           4882 ;Allocation info for local variables in function 'UART_polled_tx_string'
                           4883 ;------------------------------------------------------------
                           4884 ;sloc0                     Allocated with name '_UART_polled_tx_string_sloc0_1_0'
                           4885 ;sloc1                     Allocated with name '_UART_polled_tx_string_sloc1_1_0'
                           4886 ;p_sz_string               Allocated with name '_UART_polled_tx_string_PARM_2'
                           4887 ;this_uart                 Allocated with name '_UART_polled_tx_string_this_uart_1_1'
                           4888 ;char_idx                  Allocated with name '_UART_polled_tx_string_char_idx_1_1'
                           4889 ;tx_ready                  Allocated with name '_UART_polled_tx_string_tx_ready_1_1'
                           4890 ;file_name                 Allocated with name '_UART_polled_tx_string_file_name_3_3'
                           4891 ;file_name                 Allocated with name '_UART_polled_tx_string_file_name_3_5'
                           4892 ;------------------------------------------------------------
                    15C5   4893 	G$UART_polled_tx_string$0$0 ==.
                    15C5   4894 	C$core_uart_apb.c$234$1$1 ==.
                           4895 ;	../drivers/CoreUARTapb/core_uart_apb.c:234: UART_polled_tx_string
                           4896 ;	-----------------------------------------
                           4897 ;	 function UART_polled_tx_string
                           4898 ;	-----------------------------------------
   15C5                    4899 _UART_polled_tx_string:
                           4900 ;	genReceive
   15C5 AA F0              4901 	mov	r2,b
   15C7 AB 83              4902 	mov	r3,dph
   15C9 E5 82              4903 	mov	a,dpl
   15CB 90s02r4E           4904 	mov	dptr,#_UART_polled_tx_string_this_uart_1_1
   15CE F0                 4905 	movx	@dptr,a
   15CF A3                 4906 	inc	dptr
   15D0 EB                 4907 	mov	a,r3
   15D1 F0                 4908 	movx	@dptr,a
   15D2 A3                 4909 	inc	dptr
   15D3 EA                 4910 	mov	a,r2
   15D4 F0                 4911 	movx	@dptr,a
                    15D5   4912 	C$core_uart_apb.c$243$2$2 ==.
                           4913 ;	../drivers/CoreUARTapb/core_uart_apb.c:243: HAL_ASSERT( this_uart != NULL_INSTANCE )
                           4914 ;	genAssign
   15D5 90s02r4E           4915 	mov	dptr,#_UART_polled_tx_string_this_uart_1_1
   15D8 E0                 4916 	movx	a,@dptr
   15D9 FA                 4917 	mov	r2,a
   15DA A3                 4918 	inc	dptr
   15DB E0                 4919 	movx	a,@dptr
   15DC FB                 4920 	mov	r3,a
   15DD A3                 4921 	inc	dptr
   15DE E0                 4922 	movx	a,@dptr
   15DF FC                 4923 	mov	r4,a
                           4924 ;	genCmpEq
                           4925 ;	gencjneshort
   15E0 BA 00 08           4926 	cjne	r2,#0x00,00129$
   15E3 BB 00 05           4927 	cjne	r3,#0x00,00129$
   15E6 BC 00 02           4928 	cjne	r4,#0x00,00129$
   15E9 80 03              4929 	sjmp	00130$
   15EB                    4930 00129$:
   15EB 02s16rF1           4931 	ljmp	00104$
   15EE                    4932 00130$:
                           4933 ;	genPointerSet
                           4934 ;     genFarPointerSet
   15EE 90s02r55           4935 	mov	dptr,#_UART_polled_tx_string_file_name_3_3
   15F1 74 2E              4936 	mov	a,#0x2E
   15F3 F0                 4937 	movx	@dptr,a
                           4938 ;	genPointerSet
                           4939 ;     genFarPointerSet
   15F4 90s02r56           4940 	mov	dptr,#(_UART_polled_tx_string_file_name_3_3 + 0x0001)
   15F7 74 2E              4941 	mov	a,#0x2E
   15F9 F0                 4942 	movx	@dptr,a
                           4943 ;	genPointerSet
                           4944 ;     genFarPointerSet
   15FA 90s02r57           4945 	mov	dptr,#(_UART_polled_tx_string_file_name_3_3 + 0x0002)
   15FD 74 2F              4946 	mov	a,#0x2F
   15FF F0                 4947 	movx	@dptr,a
                           4948 ;	genPointerSet
                           4949 ;     genFarPointerSet
   1600 90s02r58           4950 	mov	dptr,#(_UART_polled_tx_string_file_name_3_3 + 0x0003)
   1603 74 64              4951 	mov	a,#0x64
   1605 F0                 4952 	movx	@dptr,a
                           4953 ;	genPointerSet
                           4954 ;     genFarPointerSet
   1606 90s02r59           4955 	mov	dptr,#(_UART_polled_tx_string_file_name_3_3 + 0x0004)
   1609 74 72              4956 	mov	a,#0x72
   160B F0                 4957 	movx	@dptr,a
                           4958 ;	genPointerSet
                           4959 ;     genFarPointerSet
   160C 90s02r5A           4960 	mov	dptr,#(_UART_polled_tx_string_file_name_3_3 + 0x0005)
   160F 74 69              4961 	mov	a,#0x69
   1611 F0                 4962 	movx	@dptr,a
                           4963 ;	genPointerSet
                           4964 ;     genFarPointerSet
   1612 90s02r5B           4965 	mov	dptr,#(_UART_polled_tx_string_file_name_3_3 + 0x0006)
   1615 74 76              4966 	mov	a,#0x76
   1617 F0                 4967 	movx	@dptr,a
                           4968 ;	genPointerSet
                           4969 ;     genFarPointerSet
   1618 90s02r5C           4970 	mov	dptr,#(_UART_polled_tx_string_file_name_3_3 + 0x0007)
   161B 74 65              4971 	mov	a,#0x65
   161D F0                 4972 	movx	@dptr,a
                           4973 ;	genPointerSet
                           4974 ;     genFarPointerSet
   161E 90s02r5D           4975 	mov	dptr,#(_UART_polled_tx_string_file_name_3_3 + 0x0008)
   1621 74 72              4976 	mov	a,#0x72
   1623 F0                 4977 	movx	@dptr,a
                           4978 ;	genPointerSet
                           4979 ;     genFarPointerSet
   1624 90s02r5E           4980 	mov	dptr,#(_UART_polled_tx_string_file_name_3_3 + 0x0009)
   1627 74 73              4981 	mov	a,#0x73
   1629 F0                 4982 	movx	@dptr,a
                           4983 ;	genPointerSet
                           4984 ;     genFarPointerSet
   162A 90s02r5F           4985 	mov	dptr,#(_UART_polled_tx_string_file_name_3_3 + 0x000a)
   162D 74 2F              4986 	mov	a,#0x2F
   162F F0                 4987 	movx	@dptr,a
                           4988 ;	genPointerSet
                           4989 ;     genFarPointerSet
   1630 90s02r60           4990 	mov	dptr,#(_UART_polled_tx_string_file_name_3_3 + 0x000b)
   1633 74 43              4991 	mov	a,#0x43
   1635 F0                 4992 	movx	@dptr,a
                           4993 ;	genPointerSet
                           4994 ;     genFarPointerSet
   1636 90s02r61           4995 	mov	dptr,#(_UART_polled_tx_string_file_name_3_3 + 0x000c)
   1639 74 6F              4996 	mov	a,#0x6F
   163B F0                 4997 	movx	@dptr,a
                           4998 ;	genPointerSet
                           4999 ;     genFarPointerSet
   163C 90s02r62           5000 	mov	dptr,#(_UART_polled_tx_string_file_name_3_3 + 0x000d)
   163F 74 72              5001 	mov	a,#0x72
   1641 F0                 5002 	movx	@dptr,a
                           5003 ;	genPointerSet
                           5004 ;     genFarPointerSet
   1642 90s02r63           5005 	mov	dptr,#(_UART_polled_tx_string_file_name_3_3 + 0x000e)
   1645 74 65              5006 	mov	a,#0x65
   1647 F0                 5007 	movx	@dptr,a
                           5008 ;	genPointerSet
                           5009 ;     genFarPointerSet
   1648 90s02r64           5010 	mov	dptr,#(_UART_polled_tx_string_file_name_3_3 + 0x000f)
   164B 74 55              5011 	mov	a,#0x55
   164D F0                 5012 	movx	@dptr,a
                           5013 ;	genPointerSet
                           5014 ;     genFarPointerSet
   164E 90s02r65           5015 	mov	dptr,#(_UART_polled_tx_string_file_name_3_3 + 0x0010)
   1651 74 41              5016 	mov	a,#0x41
   1653 F0                 5017 	movx	@dptr,a
                           5018 ;	genPointerSet
                           5019 ;     genFarPointerSet
   1654 90s02r66           5020 	mov	dptr,#(_UART_polled_tx_string_file_name_3_3 + 0x0011)
   1657 74 52              5021 	mov	a,#0x52
   1659 F0                 5022 	movx	@dptr,a
                           5023 ;	genPointerSet
                           5024 ;     genFarPointerSet
   165A 90s02r67           5025 	mov	dptr,#(_UART_polled_tx_string_file_name_3_3 + 0x0012)
   165D 74 54              5026 	mov	a,#0x54
   165F F0                 5027 	movx	@dptr,a
                           5028 ;	genPointerSet
                           5029 ;     genFarPointerSet
   1660 90s02r68           5030 	mov	dptr,#(_UART_polled_tx_string_file_name_3_3 + 0x0013)
   1663 74 61              5031 	mov	a,#0x61
   1665 F0                 5032 	movx	@dptr,a
                           5033 ;	genPointerSet
                           5034 ;     genFarPointerSet
   1666 90s02r69           5035 	mov	dptr,#(_UART_polled_tx_string_file_name_3_3 + 0x0014)
   1669 74 70              5036 	mov	a,#0x70
   166B F0                 5037 	movx	@dptr,a
                           5038 ;	genPointerSet
                           5039 ;     genFarPointerSet
   166C 90s02r6A           5040 	mov	dptr,#(_UART_polled_tx_string_file_name_3_3 + 0x0015)
   166F 74 62              5041 	mov	a,#0x62
   1671 F0                 5042 	movx	@dptr,a
                           5043 ;	genPointerSet
                           5044 ;     genFarPointerSet
   1672 90s02r6B           5045 	mov	dptr,#(_UART_polled_tx_string_file_name_3_3 + 0x0016)
   1675 74 2F              5046 	mov	a,#0x2F
   1677 F0                 5047 	movx	@dptr,a
                           5048 ;	genPointerSet
                           5049 ;     genFarPointerSet
   1678 90s02r6C           5050 	mov	dptr,#(_UART_polled_tx_string_file_name_3_3 + 0x0017)
   167B 74 63              5051 	mov	a,#0x63
   167D F0                 5052 	movx	@dptr,a
                           5053 ;	genPointerSet
                           5054 ;     genFarPointerSet
   167E 90s02r6D           5055 	mov	dptr,#(_UART_polled_tx_string_file_name_3_3 + 0x0018)
   1681 74 6F              5056 	mov	a,#0x6F
   1683 F0                 5057 	movx	@dptr,a
                           5058 ;	genPointerSet
                           5059 ;     genFarPointerSet
   1684 90s02r6E           5060 	mov	dptr,#(_UART_polled_tx_string_file_name_3_3 + 0x0019)
   1687 74 72              5061 	mov	a,#0x72
   1689 F0                 5062 	movx	@dptr,a
                           5063 ;	genPointerSet
                           5064 ;     genFarPointerSet
   168A 90s02r6F           5065 	mov	dptr,#(_UART_polled_tx_string_file_name_3_3 + 0x001a)
   168D 74 65              5066 	mov	a,#0x65
   168F F0                 5067 	movx	@dptr,a
                           5068 ;	genPointerSet
                           5069 ;     genFarPointerSet
   1690 90s02r70           5070 	mov	dptr,#(_UART_polled_tx_string_file_name_3_3 + 0x001b)
   1693 74 5F              5071 	mov	a,#0x5F
   1695 F0                 5072 	movx	@dptr,a
                           5073 ;	genPointerSet
                           5074 ;     genFarPointerSet
   1696 90s02r71           5075 	mov	dptr,#(_UART_polled_tx_string_file_name_3_3 + 0x001c)
   1699 74 75              5076 	mov	a,#0x75
   169B F0                 5077 	movx	@dptr,a
                           5078 ;	genPointerSet
                           5079 ;     genFarPointerSet
   169C 90s02r72           5080 	mov	dptr,#(_UART_polled_tx_string_file_name_3_3 + 0x001d)
   169F 74 61              5081 	mov	a,#0x61
   16A1 F0                 5082 	movx	@dptr,a
                           5083 ;	genPointerSet
                           5084 ;     genFarPointerSet
   16A2 90s02r73           5085 	mov	dptr,#(_UART_polled_tx_string_file_name_3_3 + 0x001e)
   16A5 74 72              5086 	mov	a,#0x72
   16A7 F0                 5087 	movx	@dptr,a
                           5088 ;	genPointerSet
                           5089 ;     genFarPointerSet
   16A8 90s02r74           5090 	mov	dptr,#(_UART_polled_tx_string_file_name_3_3 + 0x001f)
   16AB 74 74              5091 	mov	a,#0x74
   16AD F0                 5092 	movx	@dptr,a
                           5093 ;	genPointerSet
                           5094 ;     genFarPointerSet
   16AE 90s02r75           5095 	mov	dptr,#(_UART_polled_tx_string_file_name_3_3 + 0x0020)
   16B1 74 5F              5096 	mov	a,#0x5F
   16B3 F0                 5097 	movx	@dptr,a
                           5098 ;	genPointerSet
                           5099 ;     genFarPointerSet
   16B4 90s02r76           5100 	mov	dptr,#(_UART_polled_tx_string_file_name_3_3 + 0x0021)
   16B7 74 61              5101 	mov	a,#0x61
   16B9 F0                 5102 	movx	@dptr,a
                           5103 ;	genPointerSet
                           5104 ;     genFarPointerSet
   16BA 90s02r77           5105 	mov	dptr,#(_UART_polled_tx_string_file_name_3_3 + 0x0022)
   16BD 74 70              5106 	mov	a,#0x70
   16BF F0                 5107 	movx	@dptr,a
                           5108 ;	genPointerSet
                           5109 ;     genFarPointerSet
   16C0 90s02r78           5110 	mov	dptr,#(_UART_polled_tx_string_file_name_3_3 + 0x0023)
   16C3 74 62              5111 	mov	a,#0x62
   16C5 F0                 5112 	movx	@dptr,a
                           5113 ;	genPointerSet
                           5114 ;     genFarPointerSet
   16C6 90s02r79           5115 	mov	dptr,#(_UART_polled_tx_string_file_name_3_3 + 0x0024)
   16C9 74 2E              5116 	mov	a,#0x2E
   16CB F0                 5117 	movx	@dptr,a
                           5118 ;	genPointerSet
                           5119 ;     genFarPointerSet
   16CC 90s02r7A           5120 	mov	dptr,#(_UART_polled_tx_string_file_name_3_3 + 0x0025)
   16CF 74 63              5121 	mov	a,#0x63
   16D1 F0                 5122 	movx	@dptr,a
                           5123 ;	genPointerSet
                           5124 ;     genFarPointerSet
   16D2 90s02r7B           5125 	mov	dptr,#(_UART_polled_tx_string_file_name_3_3 + 0x0026)
   16D5 74 00              5126 	mov	a,#0x00
   16D7 F0                 5127 	movx	@dptr,a
                           5128 ;	genAssign
   16D8 90s00r00           5129 	mov	dptr,#_HAL_assert_fail_PARM_2
   16DB 74 F3              5130 	mov	a,#0xF3
   16DD F0                 5131 	movx	@dptr,a
   16DE E4                 5132 	clr	a
   16DF A3                 5133 	inc	dptr
   16E0 F0                 5134 	movx	@dptr,a
   16E1 A3                 5135 	inc	dptr
   16E2 F0                 5136 	movx	@dptr,a
   16E3 A3                 5137 	inc	dptr
   16E4 F0                 5138 	movx	@dptr,a
                           5139 ;	genCall
   16E5 75 82r55           5140 	mov	dpl,#_UART_polled_tx_string_file_name_3_3
   16E8 75 83s02           5141 	mov	dph,#(_UART_polled_tx_string_file_name_3_3 >> 8)
   16EB 75 F0 00           5142 	mov	b,#0x00
   16EE 12s00r00           5143 	lcall	_HAL_assert_fail
   16F1                    5144 00104$:
                    16F1   5145 	C$core_uart_apb.c$244$2$4 ==.
                           5146 ;	../drivers/CoreUARTapb/core_uart_apb.c:244: HAL_ASSERT( p_sz_string != NULL_BUFFER )
                           5147 ;	genAssign
   16F1 90s02r4B           5148 	mov	dptr,#_UART_polled_tx_string_PARM_2
   16F4 E0                 5149 	movx	a,@dptr
   16F5 FA                 5150 	mov	r2,a
   16F6 A3                 5151 	inc	dptr
   16F7 E0                 5152 	movx	a,@dptr
   16F8 FB                 5153 	mov	r3,a
   16F9 A3                 5154 	inc	dptr
   16FA E0                 5155 	movx	a,@dptr
   16FB FC                 5156 	mov	r4,a
                           5157 ;	genCmpEq
                           5158 ;	gencjne
                           5159 ;	gencjneshort
   16FC BA 00 0A           5160 	cjne	r2,#0x00,00131$
   16FF BB 00 07           5161 	cjne	r3,#0x00,00131$
   1702 BC 00 04           5162 	cjne	r4,#0x00,00131$
   1705 74 01              5163 	mov	a,#0x01
   1707 80 01              5164 	sjmp	00132$
   1709                    5165 00131$:
   1709 E4                 5166 	clr	a
   170A                    5167 00132$:
   170A FD                 5168 	mov	r5,a
                           5169 ;	genIfx
   170B ED                 5170 	mov	a,r5
                           5171 ;	genIfxJump
   170C 70 03              5172 	jnz	00133$
   170E 02s18r24           5173 	ljmp	00109$
   1711                    5174 00133$:
                           5175 ;	genPointerSet
                           5176 ;     genFarPointerSet
   1711 90s02r7C           5177 	mov	dptr,#_UART_polled_tx_string_file_name_3_5
   1714 74 2E              5178 	mov	a,#0x2E
   1716 F0                 5179 	movx	@dptr,a
                           5180 ;	genPointerSet
                           5181 ;     genFarPointerSet
   1717 90s02r7D           5182 	mov	dptr,#(_UART_polled_tx_string_file_name_3_5 + 0x0001)
   171A 74 2E              5183 	mov	a,#0x2E
   171C F0                 5184 	movx	@dptr,a
                           5185 ;	genPointerSet
                           5186 ;     genFarPointerSet
   171D 90s02r7E           5187 	mov	dptr,#(_UART_polled_tx_string_file_name_3_5 + 0x0002)
   1720 74 2F              5188 	mov	a,#0x2F
   1722 F0                 5189 	movx	@dptr,a
                           5190 ;	genPointerSet
                           5191 ;     genFarPointerSet
   1723 90s02r7F           5192 	mov	dptr,#(_UART_polled_tx_string_file_name_3_5 + 0x0003)
   1726 74 64              5193 	mov	a,#0x64
   1728 F0                 5194 	movx	@dptr,a
                           5195 ;	genPointerSet
                           5196 ;     genFarPointerSet
   1729 90s02r80           5197 	mov	dptr,#(_UART_polled_tx_string_file_name_3_5 + 0x0004)
   172C 74 72              5198 	mov	a,#0x72
   172E F0                 5199 	movx	@dptr,a
                           5200 ;	genPointerSet
                           5201 ;     genFarPointerSet
   172F 90s02r81           5202 	mov	dptr,#(_UART_polled_tx_string_file_name_3_5 + 0x0005)
   1732 74 69              5203 	mov	a,#0x69
   1734 F0                 5204 	movx	@dptr,a
                           5205 ;	genPointerSet
                           5206 ;     genFarPointerSet
   1735 90s02r82           5207 	mov	dptr,#(_UART_polled_tx_string_file_name_3_5 + 0x0006)
   1738 74 76              5208 	mov	a,#0x76
   173A F0                 5209 	movx	@dptr,a
                           5210 ;	genPointerSet
                           5211 ;     genFarPointerSet
   173B 90s02r83           5212 	mov	dptr,#(_UART_polled_tx_string_file_name_3_5 + 0x0007)
   173E 74 65              5213 	mov	a,#0x65
   1740 F0                 5214 	movx	@dptr,a
                           5215 ;	genPointerSet
                           5216 ;     genFarPointerSet
   1741 90s02r84           5217 	mov	dptr,#(_UART_polled_tx_string_file_name_3_5 + 0x0008)
   1744 74 72              5218 	mov	a,#0x72
   1746 F0                 5219 	movx	@dptr,a
                           5220 ;	genPointerSet
                           5221 ;     genFarPointerSet
   1747 90s02r85           5222 	mov	dptr,#(_UART_polled_tx_string_file_name_3_5 + 0x0009)
   174A 74 73              5223 	mov	a,#0x73
   174C F0                 5224 	movx	@dptr,a
                           5225 ;	genPointerSet
                           5226 ;     genFarPointerSet
   174D 90s02r86           5227 	mov	dptr,#(_UART_polled_tx_string_file_name_3_5 + 0x000a)
   1750 74 2F              5228 	mov	a,#0x2F
   1752 F0                 5229 	movx	@dptr,a
                           5230 ;	genPointerSet
                           5231 ;     genFarPointerSet
   1753 90s02r87           5232 	mov	dptr,#(_UART_polled_tx_string_file_name_3_5 + 0x000b)
   1756 74 43              5233 	mov	a,#0x43
   1758 F0                 5234 	movx	@dptr,a
                           5235 ;	genPointerSet
                           5236 ;     genFarPointerSet
   1759 90s02r88           5237 	mov	dptr,#(_UART_polled_tx_string_file_name_3_5 + 0x000c)
   175C 74 6F              5238 	mov	a,#0x6F
   175E F0                 5239 	movx	@dptr,a
                           5240 ;	genPointerSet
                           5241 ;     genFarPointerSet
   175F 90s02r89           5242 	mov	dptr,#(_UART_polled_tx_string_file_name_3_5 + 0x000d)
   1762 74 72              5243 	mov	a,#0x72
   1764 F0                 5244 	movx	@dptr,a
                           5245 ;	genPointerSet
                           5246 ;     genFarPointerSet
   1765 90s02r8A           5247 	mov	dptr,#(_UART_polled_tx_string_file_name_3_5 + 0x000e)
   1768 74 65              5248 	mov	a,#0x65
   176A F0                 5249 	movx	@dptr,a
                           5250 ;	genPointerSet
                           5251 ;     genFarPointerSet
   176B 90s02r8B           5252 	mov	dptr,#(_UART_polled_tx_string_file_name_3_5 + 0x000f)
   176E 74 55              5253 	mov	a,#0x55
   1770 F0                 5254 	movx	@dptr,a
                           5255 ;	genPointerSet
                           5256 ;     genFarPointerSet
   1771 90s02r8C           5257 	mov	dptr,#(_UART_polled_tx_string_file_name_3_5 + 0x0010)
   1774 74 41              5258 	mov	a,#0x41
   1776 F0                 5259 	movx	@dptr,a
                           5260 ;	genPointerSet
                           5261 ;     genFarPointerSet
   1777 90s02r8D           5262 	mov	dptr,#(_UART_polled_tx_string_file_name_3_5 + 0x0011)
   177A 74 52              5263 	mov	a,#0x52
   177C F0                 5264 	movx	@dptr,a
                           5265 ;	genPointerSet
                           5266 ;     genFarPointerSet
   177D 90s02r8E           5267 	mov	dptr,#(_UART_polled_tx_string_file_name_3_5 + 0x0012)
   1780 74 54              5268 	mov	a,#0x54
   1782 F0                 5269 	movx	@dptr,a
                           5270 ;	genPointerSet
                           5271 ;     genFarPointerSet
   1783 90s02r8F           5272 	mov	dptr,#(_UART_polled_tx_string_file_name_3_5 + 0x0013)
   1786 74 61              5273 	mov	a,#0x61
   1788 F0                 5274 	movx	@dptr,a
                           5275 ;	genPointerSet
                           5276 ;     genFarPointerSet
   1789 90s02r90           5277 	mov	dptr,#(_UART_polled_tx_string_file_name_3_5 + 0x0014)
   178C 74 70              5278 	mov	a,#0x70
   178E F0                 5279 	movx	@dptr,a
                           5280 ;	genPointerSet
                           5281 ;     genFarPointerSet
   178F 90s02r91           5282 	mov	dptr,#(_UART_polled_tx_string_file_name_3_5 + 0x0015)
   1792 74 62              5283 	mov	a,#0x62
   1794 F0                 5284 	movx	@dptr,a
                           5285 ;	genPointerSet
                           5286 ;     genFarPointerSet
   1795 90s02r92           5287 	mov	dptr,#(_UART_polled_tx_string_file_name_3_5 + 0x0016)
   1798 74 2F              5288 	mov	a,#0x2F
   179A F0                 5289 	movx	@dptr,a
                           5290 ;	genPointerSet
                           5291 ;     genFarPointerSet
   179B 90s02r93           5292 	mov	dptr,#(_UART_polled_tx_string_file_name_3_5 + 0x0017)
   179E 74 63              5293 	mov	a,#0x63
   17A0 F0                 5294 	movx	@dptr,a
                           5295 ;	genPointerSet
                           5296 ;     genFarPointerSet
   17A1 90s02r94           5297 	mov	dptr,#(_UART_polled_tx_string_file_name_3_5 + 0x0018)
   17A4 74 6F              5298 	mov	a,#0x6F
   17A6 F0                 5299 	movx	@dptr,a
                           5300 ;	genPointerSet
                           5301 ;     genFarPointerSet
   17A7 90s02r95           5302 	mov	dptr,#(_UART_polled_tx_string_file_name_3_5 + 0x0019)
   17AA 74 72              5303 	mov	a,#0x72
   17AC F0                 5304 	movx	@dptr,a
                           5305 ;	genPointerSet
                           5306 ;     genFarPointerSet
   17AD 90s02r96           5307 	mov	dptr,#(_UART_polled_tx_string_file_name_3_5 + 0x001a)
   17B0 74 65              5308 	mov	a,#0x65
   17B2 F0                 5309 	movx	@dptr,a
                           5310 ;	genPointerSet
                           5311 ;     genFarPointerSet
   17B3 90s02r97           5312 	mov	dptr,#(_UART_polled_tx_string_file_name_3_5 + 0x001b)
   17B6 74 5F              5313 	mov	a,#0x5F
   17B8 F0                 5314 	movx	@dptr,a
                           5315 ;	genPointerSet
                           5316 ;     genFarPointerSet
   17B9 90s02r98           5317 	mov	dptr,#(_UART_polled_tx_string_file_name_3_5 + 0x001c)
   17BC 74 75              5318 	mov	a,#0x75
   17BE F0                 5319 	movx	@dptr,a
                           5320 ;	genPointerSet
                           5321 ;     genFarPointerSet
   17BF 90s02r99           5322 	mov	dptr,#(_UART_polled_tx_string_file_name_3_5 + 0x001d)
   17C2 74 61              5323 	mov	a,#0x61
   17C4 F0                 5324 	movx	@dptr,a
                           5325 ;	genPointerSet
                           5326 ;     genFarPointerSet
   17C5 90s02r9A           5327 	mov	dptr,#(_UART_polled_tx_string_file_name_3_5 + 0x001e)
   17C8 74 72              5328 	mov	a,#0x72
   17CA F0                 5329 	movx	@dptr,a
                           5330 ;	genPointerSet
                           5331 ;     genFarPointerSet
   17CB 90s02r9B           5332 	mov	dptr,#(_UART_polled_tx_string_file_name_3_5 + 0x001f)
   17CE 74 74              5333 	mov	a,#0x74
   17D0 F0                 5334 	movx	@dptr,a
                           5335 ;	genPointerSet
                           5336 ;     genFarPointerSet
   17D1 90s02r9C           5337 	mov	dptr,#(_UART_polled_tx_string_file_name_3_5 + 0x0020)
   17D4 74 5F              5338 	mov	a,#0x5F
   17D6 F0                 5339 	movx	@dptr,a
                           5340 ;	genPointerSet
                           5341 ;     genFarPointerSet
   17D7 90s02r9D           5342 	mov	dptr,#(_UART_polled_tx_string_file_name_3_5 + 0x0021)
   17DA 74 61              5343 	mov	a,#0x61
   17DC F0                 5344 	movx	@dptr,a
                           5345 ;	genPointerSet
                           5346 ;     genFarPointerSet
   17DD 90s02r9E           5347 	mov	dptr,#(_UART_polled_tx_string_file_name_3_5 + 0x0022)
   17E0 74 70              5348 	mov	a,#0x70
   17E2 F0                 5349 	movx	@dptr,a
                           5350 ;	genPointerSet
                           5351 ;     genFarPointerSet
   17E3 90s02r9F           5352 	mov	dptr,#(_UART_polled_tx_string_file_name_3_5 + 0x0023)
   17E6 74 62              5353 	mov	a,#0x62
   17E8 F0                 5354 	movx	@dptr,a
                           5355 ;	genPointerSet
                           5356 ;     genFarPointerSet
   17E9 90s02rA0           5357 	mov	dptr,#(_UART_polled_tx_string_file_name_3_5 + 0x0024)
   17EC 74 2E              5358 	mov	a,#0x2E
   17EE F0                 5359 	movx	@dptr,a
                           5360 ;	genPointerSet
                           5361 ;     genFarPointerSet
   17EF 90s02rA1           5362 	mov	dptr,#(_UART_polled_tx_string_file_name_3_5 + 0x0025)
   17F2 74 63              5363 	mov	a,#0x63
   17F4 F0                 5364 	movx	@dptr,a
                           5365 ;	genPointerSet
                           5366 ;     genFarPointerSet
   17F5 90s02rA2           5367 	mov	dptr,#(_UART_polled_tx_string_file_name_3_5 + 0x0026)
   17F8 74 00              5368 	mov	a,#0x00
   17FA F0                 5369 	movx	@dptr,a
                           5370 ;	genAssign
   17FB 90s00r00           5371 	mov	dptr,#_HAL_assert_fail_PARM_2
   17FE 74 F4              5372 	mov	a,#0xF4
   1800 F0                 5373 	movx	@dptr,a
   1801 E4                 5374 	clr	a
   1802 A3                 5375 	inc	dptr
   1803 F0                 5376 	movx	@dptr,a
   1804 A3                 5377 	inc	dptr
   1805 F0                 5378 	movx	@dptr,a
   1806 A3                 5379 	inc	dptr
   1807 F0                 5380 	movx	@dptr,a
                           5381 ;	genCall
   1808 75 82r7C           5382 	mov	dpl,#_UART_polled_tx_string_file_name_3_5
   180B 75 83s02           5383 	mov	dph,#(_UART_polled_tx_string_file_name_3_5 >> 8)
   180E 75 F0 00           5384 	mov	b,#0x00
   1811 C0 02              5385 	push	ar2
   1813 C0 03              5386 	push	ar3
   1815 C0 04              5387 	push	ar4
   1817 C0 05              5388 	push	ar5
   1819 12s00r00           5389 	lcall	_HAL_assert_fail
   181C D0 05              5390 	pop	ar5
   181E D0 04              5391 	pop	ar4
   1820 D0 03              5392 	pop	ar3
   1822 D0 02              5393 	pop	ar2
   1824                    5394 00109$:
                    1824   5395 	C$core_uart_apb.c$246$1$1 ==.
                           5396 ;	../drivers/CoreUARTapb/core_uart_apb.c:246: if( ( this_uart != NULL_INSTANCE ) && ( p_sz_string != NULL_BUFFER ) )
                           5397 ;	genAssign
   1824 90s02r4E           5398 	mov	dptr,#_UART_polled_tx_string_this_uart_1_1
   1827 E0                 5399 	movx	a,@dptr
   1828 FE                 5400 	mov	r6,a
   1829 A3                 5401 	inc	dptr
   182A E0                 5402 	movx	a,@dptr
   182B FF                 5403 	mov	r7,a
   182C A3                 5404 	inc	dptr
   182D E0                 5405 	movx	a,@dptr
   182E F8                 5406 	mov	r0,a
                           5407 ;	genCmpEq
                           5408 ;	gencjneshort
   182F BE 00 09           5409 	cjne	r6,#0x00,00134$
   1832 BF 00 06           5410 	cjne	r7,#0x00,00134$
   1835 B8 00 03           5411 	cjne	r0,#0x00,00134$
   1838 02s19r5F           5412 	ljmp	00120$
   183B                    5413 00134$:
                           5414 ;	genIfx
   183B ED                 5415 	mov	a,r5
                           5416 ;	genIfxJump
   183C 60 03              5417 	jz	00135$
   183E 02s19r5F           5418 	ljmp	00120$
   1841                    5419 00135$:
                    1841   5420 	C$core_uart_apb.c$248$2$6 ==.
                           5421 ;	../drivers/CoreUARTapb/core_uart_apb.c:248: char_idx = 0U;
                           5422 ;	genAssign
   1841 90s02r51           5423 	mov	dptr,#_UART_polled_tx_string_char_idx_1_1
   1844 E4                 5424 	clr	a
   1845 F0                 5425 	movx	@dptr,a
   1846 A3                 5426 	inc	dptr
   1847 F0                 5427 	movx	@dptr,a
   1848 A3                 5428 	inc	dptr
   1849 F0                 5429 	movx	@dptr,a
   184A A3                 5430 	inc	dptr
   184B F0                 5431 	movx	@dptr,a
                    184C   5432 	C$core_uart_apb.c$249$4$8 ==.
                           5433 ;	../drivers/CoreUARTapb/core_uart_apb.c:249: while( 0U != p_sz_string[char_idx] )
                           5434 ;	genAssign
   184C 88 05              5435 	mov	ar5,r0
   184E                    5436 00114$:
                           5437 ;	genIpush
   184E C0 06              5438 	push	ar6
   1850 C0 07              5439 	push	ar7
   1852 C0 05              5440 	push	ar5
                           5441 ;	genAssign
   1854 90s02r51           5442 	mov	dptr,#_UART_polled_tx_string_char_idx_1_1
   1857 E0                 5443 	movx	a,@dptr
   1858 F8                 5444 	mov	r0,a
   1859 A3                 5445 	inc	dptr
   185A E0                 5446 	movx	a,@dptr
   185B F9                 5447 	mov	r1,a
   185C A3                 5448 	inc	dptr
   185D E0                 5449 	movx	a,@dptr
   185E FD                 5450 	mov	r5,a
   185F A3                 5451 	inc	dptr
   1860 E0                 5452 	movx	a,@dptr
   1861 FE                 5453 	mov	r6,a
                           5454 ;	genPlus
   1862 E5 00              5455 	mov	a,ar0
   1864 25 02              5456 	add	a,ar2
   1866 F8                 5457 	mov	r0,a
   1867 E5 01              5458 	mov	a,ar1
   1869 35 03              5459 	addc	a,ar3
   186B F9                 5460 	mov	r1,a
   186C 8C 05              5461 	mov	ar5,r4
                           5462 ;	genPointerGet
                           5463 ;	genGenPointerGet
   186E 88 82              5464 	mov	dpl,r0
   1870 89 83              5465 	mov	dph,r1
   1872 8D F0              5466 	mov	b,r5
   1874 12s00r00           5467 	lcall	__gptrget
   1877 F8                 5468 	mov	r0,a
                           5469 ;	genCast
   1878 7D 00              5470 	mov	r5,#0x00
                           5471 ;	genCmpEq
                           5472 ;	gencjne
                           5473 ;	gencjneshort
   187A B8 00 07           5474 	cjne	r0,#0x00,00136$
   187D BD 00 04           5475 	cjne	r5,#0x00,00136$
   1880 74 01              5476 	mov	a,#0x01
   1882 80 01              5477 	sjmp	00137$
   1884                    5478 00136$:
   1884 E4                 5479 	clr	a
   1885                    5480 00137$:
                           5481 ;	genIpop
   1885 D0 05              5482 	pop	ar5
   1887 D0 07              5483 	pop	ar7
   1889 D0 06              5484 	pop	ar6
                           5485 ;	genIfx
                           5486 ;	genIfxJump
   188B 60 03              5487 	jz	00138$
   188D 02s19r5F           5488 	ljmp	00120$
   1890                    5489 00138$:
                    1890   5490 	C$core_uart_apb.c$252$3$7 ==.
                           5491 ;	../drivers/CoreUARTapb/core_uart_apb.c:252: do {
   1890                    5492 00111$:
                    1890   5493 	C$core_uart_apb.c$253$4$8 ==.
                           5494 ;	../drivers/CoreUARTapb/core_uart_apb.c:253: tx_ready = HAL_get_8bit_reg( this_uart->base_address, STATUS ) &
                           5495 ;	genPointerGet
                           5496 ;	genGenPointerGet
   1890 8E 82              5497 	mov	dpl,r6
   1892 8F 83              5498 	mov	dph,r7
   1894 8D F0              5499 	mov	b,r5
   1896 12s00r00           5500 	lcall	__gptrget
   1899 F8                 5501 	mov	r0,a
   189A A3                 5502 	inc	dptr
   189B 12s00r00           5503 	lcall	__gptrget
   189E F9                 5504 	mov	r1,a
                           5505 ;	genPlus
                           5506 ;	genPlusIncr
   189F 74 10              5507 	mov	a,#0x10
   18A1 25 00              5508 	add	a,ar0
   18A3 F8                 5509 	mov	r0,a
   18A4 74 00              5510 	mov	a,#0x00
   18A6 35 01              5511 	addc	a,ar1
   18A8 F9                 5512 	mov	r1,a
                           5513 ;	genCall
   18A9 88 82              5514 	mov	dpl,r0
   18AB 89 83              5515 	mov	dph,r1
   18AD C0 02              5516 	push	ar2
   18AF C0 03              5517 	push	ar3
   18B1 C0 04              5518 	push	ar4
   18B3 C0 05              5519 	push	ar5
   18B5 C0 06              5520 	push	ar6
   18B7 C0 07              5521 	push	ar7
   18B9 12s00r00           5522 	lcall	_HW_get_8bit_reg
   18BC A8 82              5523 	mov	r0,dpl
   18BE D0 07              5524 	pop	ar7
   18C0 D0 06              5525 	pop	ar6
   18C2 D0 05              5526 	pop	ar5
   18C4 D0 04              5527 	pop	ar4
   18C6 D0 03              5528 	pop	ar3
   18C8 D0 02              5529 	pop	ar2
                           5530 ;	genCast
   18CA 79 00              5531 	mov	r1,#0x00
                           5532 ;	genAnd
   18CC 53 00 01           5533 	anl	ar0,#0x01
   18CF 79 00              5534 	mov	r1,#0x00
                           5535 ;	genCast
                    18D1   5536 	C$core_uart_apb.c$255$3$7 ==.
                           5537 ;	../drivers/CoreUARTapb/core_uart_apb.c:255: } while ( !tx_ready );
                           5538 ;	genIfx
   18D1 E8                 5539 	mov	a,r0
                           5540 ;	genIfxJump
   18D2 70 03              5541 	jnz	00139$
   18D4 02s18r90           5542 	ljmp	00111$
   18D7                    5543 00139$:
                    18D7   5544 	C$core_uart_apb.c$257$3$7 ==.
                           5545 ;	../drivers/CoreUARTapb/core_uart_apb.c:257: HAL_set_8bit_reg( this_uart->base_address, TXDATA,
                           5546 ;	genPointerGet
                           5547 ;	genGenPointerGet
   18D7 8E 82              5548 	mov	dpl,r6
   18D9 8F 83              5549 	mov	dph,r7
   18DB 8D F0              5550 	mov	b,r5
   18DD 12s00r00           5551 	lcall	__gptrget
   18E0 F5*19              5552 	mov	_UART_polled_tx_string_sloc0_1_0,a
   18E2 A3                 5553 	inc	dptr
   18E3 12s00r00           5554 	lcall	__gptrget
   18E6 F5*1A              5555 	mov	(_UART_polled_tx_string_sloc0_1_0 + 1),a
                           5556 ;	genIpush
   18E8 C0 06              5557 	push	ar6
   18EA C0 07              5558 	push	ar7
   18EC C0 05              5559 	push	ar5
                           5560 ;	genAssign
   18EE 90s02r51           5561 	mov	dptr,#_UART_polled_tx_string_char_idx_1_1
   18F1 E0                 5562 	movx	a,@dptr
   18F2 F5*1B              5563 	mov	_UART_polled_tx_string_sloc1_1_0,a
   18F4 A3                 5564 	inc	dptr
   18F5 E0                 5565 	movx	a,@dptr
   18F6 F5*1C              5566 	mov	(_UART_polled_tx_string_sloc1_1_0 + 1),a
   18F8 A3                 5567 	inc	dptr
   18F9 E0                 5568 	movx	a,@dptr
   18FA F5*1D              5569 	mov	(_UART_polled_tx_string_sloc1_1_0 + 2),a
   18FC A3                 5570 	inc	dptr
   18FD E0                 5571 	movx	a,@dptr
   18FE F5*1E              5572 	mov	(_UART_polled_tx_string_sloc1_1_0 + 3),a
                           5573 ;	genPlus
   1900 E5*1B              5574 	mov	a,_UART_polled_tx_string_sloc1_1_0
   1902 25 02              5575 	add	a,ar2
   1904 F9                 5576 	mov	r1,a
   1905 E5*1C              5577 	mov	a,(_UART_polled_tx_string_sloc1_1_0 + 1)
   1907 35 03              5578 	addc	a,ar3
   1909 FD                 5579 	mov	r5,a
   190A 8C 06              5580 	mov	ar6,r4
                           5581 ;	genPointerGet
                           5582 ;	genGenPointerGet
   190C 89 82              5583 	mov	dpl,r1
   190E 8D 83              5584 	mov	dph,r5
   1910 8E F0              5585 	mov	b,r6
   1912 12s00r00           5586 	lcall	__gptrget
   1915 F9                 5587 	mov	r1,a
                           5588 ;	genAssign
   1916 90s00r00           5589 	mov	dptr,#_HW_set_8bit_reg_PARM_2
   1919 E9                 5590 	mov	a,r1
   191A F0                 5591 	movx	@dptr,a
                           5592 ;	genCall
   191B 85*19 82           5593 	mov	dpl,_UART_polled_tx_string_sloc0_1_0
   191E 85*1A 83           5594 	mov	dph,(_UART_polled_tx_string_sloc0_1_0 + 1)
   1921 C0 02              5595 	push	ar2
   1923 C0 03              5596 	push	ar3
   1925 C0 04              5597 	push	ar4
   1927 C0 05              5598 	push	ar5
   1929 C0 06              5599 	push	ar6
   192B C0 07              5600 	push	ar7
   192D 12s00r00           5601 	lcall	_HW_set_8bit_reg
   1930 D0 07              5602 	pop	ar7
   1932 D0 06              5603 	pop	ar6
   1934 D0 05              5604 	pop	ar5
   1936 D0 04              5605 	pop	ar4
   1938 D0 03              5606 	pop	ar3
   193A D0 02              5607 	pop	ar2
                    193C   5608 	C$core_uart_apb.c$259$3$7 ==.
                           5609 ;	../drivers/CoreUARTapb/core_uart_apb.c:259: char_idx++;
                           5610 ;	genPlus
   193C 90s02r51           5611 	mov	dptr,#_UART_polled_tx_string_char_idx_1_1
                           5612 ;	genPlusIncr
   193F 74 01              5613 	mov	a,#0x01
   1941 25*1B              5614 	add	a,_UART_polled_tx_string_sloc1_1_0
   1943 F0                 5615 	movx	@dptr,a
   1944 74 00              5616 	mov	a,#0x00
   1946 35*1C              5617 	addc	a,(_UART_polled_tx_string_sloc1_1_0 + 1)
   1948 A3                 5618 	inc	dptr
   1949 F0                 5619 	movx	@dptr,a
   194A 74 00              5620 	mov	a,#0x00
   194C 35*1D              5621 	addc	a,(_UART_polled_tx_string_sloc1_1_0 + 2)
   194E A3                 5622 	inc	dptr
   194F F0                 5623 	movx	@dptr,a
   1950 74 00              5624 	mov	a,#0x00
   1952 35*1E              5625 	addc	a,(_UART_polled_tx_string_sloc1_1_0 + 3)
   1954 A3                 5626 	inc	dptr
   1955 F0                 5627 	movx	@dptr,a
                           5628 ;	genIpop
   1956 D0 05              5629 	pop	ar5
   1958 D0 07              5630 	pop	ar7
   195A D0 06              5631 	pop	ar6
   195C 02s18r4E           5632 	ljmp	00114$
   195F                    5633 00120$:
                    195F   5634 	C$core_uart_apb.c$262$2$1 ==.
                    195F   5635 	XG$UART_polled_tx_string$0$0 ==.
   195F 22                 5636 	ret
                           5637 ;------------------------------------------------------------
                           5638 ;Allocation info for local variables in function 'UART_get_rx_status'
                           5639 ;------------------------------------------------------------
                           5640 ;this_uart                 Allocated with name '_UART_get_rx_status_this_uart_1_1'
                           5641 ;status                    Allocated with name '_UART_get_rx_status_status_1_1'
                           5642 ;file_name                 Allocated with name '_UART_get_rx_status_file_name_3_3'
                           5643 ;------------------------------------------------------------
                    1960   5644 	G$UART_get_rx_status$0$0 ==.
                    1960   5645 	C$core_uart_apb.c$269$2$1 ==.
                           5646 ;	../drivers/CoreUARTapb/core_uart_apb.c:269: UART_get_rx_status
                           5647 ;	-----------------------------------------
                           5648 ;	 function UART_get_rx_status
                           5649 ;	-----------------------------------------
   1960                    5650 _UART_get_rx_status:
                           5651 ;	genReceive
   1960 AA F0              5652 	mov	r2,b
   1962 AB 83              5653 	mov	r3,dph
   1964 E5 82              5654 	mov	a,dpl
   1966 90s02rA3           5655 	mov	dptr,#_UART_get_rx_status_this_uart_1_1
   1969 F0                 5656 	movx	@dptr,a
   196A A3                 5657 	inc	dptr
   196B EB                 5658 	mov	a,r3
   196C F0                 5659 	movx	@dptr,a
   196D A3                 5660 	inc	dptr
   196E EA                 5661 	mov	a,r2
   196F F0                 5662 	movx	@dptr,a
                    1970   5663 	C$core_uart_apb.c$274$1$1 ==.
                           5664 ;	../drivers/CoreUARTapb/core_uart_apb.c:274: uint8_t status = UART_APB_INVALID_PARAM;
                           5665 ;	genAssign
   1970 90s02rA6           5666 	mov	dptr,#_UART_get_rx_status_status_1_1
   1973 74 FF              5667 	mov	a,#0xFF
   1975 F0                 5668 	movx	@dptr,a
                    1976   5669 	C$core_uart_apb.c$276$2$2 ==.
                           5670 ;	../drivers/CoreUARTapb/core_uart_apb.c:276: HAL_ASSERT( this_uart != NULL_INSTANCE )
                           5671 ;	genAssign
   1976 90s02rA3           5672 	mov	dptr,#_UART_get_rx_status_this_uart_1_1
   1979 E0                 5673 	movx	a,@dptr
   197A FA                 5674 	mov	r2,a
   197B A3                 5675 	inc	dptr
   197C E0                 5676 	movx	a,@dptr
   197D FB                 5677 	mov	r3,a
   197E A3                 5678 	inc	dptr
   197F E0                 5679 	movx	a,@dptr
   1980 FC                 5680 	mov	r4,a
                           5681 ;	genCmpEq
                           5682 ;	gencjneshort
   1981 BA 00 08           5683 	cjne	r2,#0x00,00112$
   1984 BB 00 05           5684 	cjne	r3,#0x00,00112$
   1987 BC 00 02           5685 	cjne	r4,#0x00,00112$
   198A 80 03              5686 	sjmp	00113$
   198C                    5687 00112$:
   198C 02s1Ar97           5688 	ljmp	00104$
   198F                    5689 00113$:
                           5690 ;	genPointerSet
                           5691 ;     genFarPointerSet
   198F 90s02rA7           5692 	mov	dptr,#_UART_get_rx_status_file_name_3_3
   1992 74 2E              5693 	mov	a,#0x2E
   1994 F0                 5694 	movx	@dptr,a
                           5695 ;	genPointerSet
                           5696 ;     genFarPointerSet
   1995 90s02rA8           5697 	mov	dptr,#(_UART_get_rx_status_file_name_3_3 + 0x0001)
   1998 74 2E              5698 	mov	a,#0x2E
   199A F0                 5699 	movx	@dptr,a
                           5700 ;	genPointerSet
                           5701 ;     genFarPointerSet
   199B 90s02rA9           5702 	mov	dptr,#(_UART_get_rx_status_file_name_3_3 + 0x0002)
   199E 74 2F              5703 	mov	a,#0x2F
   19A0 F0                 5704 	movx	@dptr,a
                           5705 ;	genPointerSet
                           5706 ;     genFarPointerSet
   19A1 90s02rAA           5707 	mov	dptr,#(_UART_get_rx_status_file_name_3_3 + 0x0003)
   19A4 74 64              5708 	mov	a,#0x64
   19A6 F0                 5709 	movx	@dptr,a
                           5710 ;	genPointerSet
                           5711 ;     genFarPointerSet
   19A7 90s02rAB           5712 	mov	dptr,#(_UART_get_rx_status_file_name_3_3 + 0x0004)
   19AA 74 72              5713 	mov	a,#0x72
   19AC F0                 5714 	movx	@dptr,a
                           5715 ;	genPointerSet
                           5716 ;     genFarPointerSet
   19AD 90s02rAC           5717 	mov	dptr,#(_UART_get_rx_status_file_name_3_3 + 0x0005)
   19B0 74 69              5718 	mov	a,#0x69
   19B2 F0                 5719 	movx	@dptr,a
                           5720 ;	genPointerSet
                           5721 ;     genFarPointerSet
   19B3 90s02rAD           5722 	mov	dptr,#(_UART_get_rx_status_file_name_3_3 + 0x0006)
   19B6 74 76              5723 	mov	a,#0x76
   19B8 F0                 5724 	movx	@dptr,a
                           5725 ;	genPointerSet
                           5726 ;     genFarPointerSet
   19B9 90s02rAE           5727 	mov	dptr,#(_UART_get_rx_status_file_name_3_3 + 0x0007)
   19BC 74 65              5728 	mov	a,#0x65
   19BE F0                 5729 	movx	@dptr,a
                           5730 ;	genPointerSet
                           5731 ;     genFarPointerSet
   19BF 90s02rAF           5732 	mov	dptr,#(_UART_get_rx_status_file_name_3_3 + 0x0008)
   19C2 74 72              5733 	mov	a,#0x72
   19C4 F0                 5734 	movx	@dptr,a
                           5735 ;	genPointerSet
                           5736 ;     genFarPointerSet
   19C5 90s02rB0           5737 	mov	dptr,#(_UART_get_rx_status_file_name_3_3 + 0x0009)
   19C8 74 73              5738 	mov	a,#0x73
   19CA F0                 5739 	movx	@dptr,a
                           5740 ;	genPointerSet
                           5741 ;     genFarPointerSet
   19CB 90s02rB1           5742 	mov	dptr,#(_UART_get_rx_status_file_name_3_3 + 0x000a)
   19CE 74 2F              5743 	mov	a,#0x2F
   19D0 F0                 5744 	movx	@dptr,a
                           5745 ;	genPointerSet
                           5746 ;     genFarPointerSet
   19D1 90s02rB2           5747 	mov	dptr,#(_UART_get_rx_status_file_name_3_3 + 0x000b)
   19D4 74 43              5748 	mov	a,#0x43
   19D6 F0                 5749 	movx	@dptr,a
                           5750 ;	genPointerSet
                           5751 ;     genFarPointerSet
   19D7 90s02rB3           5752 	mov	dptr,#(_UART_get_rx_status_file_name_3_3 + 0x000c)
   19DA 74 6F              5753 	mov	a,#0x6F
   19DC F0                 5754 	movx	@dptr,a
                           5755 ;	genPointerSet
                           5756 ;     genFarPointerSet
   19DD 90s02rB4           5757 	mov	dptr,#(_UART_get_rx_status_file_name_3_3 + 0x000d)
   19E0 74 72              5758 	mov	a,#0x72
   19E2 F0                 5759 	movx	@dptr,a
                           5760 ;	genPointerSet
                           5761 ;     genFarPointerSet
   19E3 90s02rB5           5762 	mov	dptr,#(_UART_get_rx_status_file_name_3_3 + 0x000e)
   19E6 74 65              5763 	mov	a,#0x65
   19E8 F0                 5764 	movx	@dptr,a
                           5765 ;	genPointerSet
                           5766 ;     genFarPointerSet
   19E9 90s02rB6           5767 	mov	dptr,#(_UART_get_rx_status_file_name_3_3 + 0x000f)
   19EC 74 55              5768 	mov	a,#0x55
   19EE F0                 5769 	movx	@dptr,a
                           5770 ;	genPointerSet
                           5771 ;     genFarPointerSet
   19EF 90s02rB7           5772 	mov	dptr,#(_UART_get_rx_status_file_name_3_3 + 0x0010)
   19F2 74 41              5773 	mov	a,#0x41
   19F4 F0                 5774 	movx	@dptr,a
                           5775 ;	genPointerSet
                           5776 ;     genFarPointerSet
   19F5 90s02rB8           5777 	mov	dptr,#(_UART_get_rx_status_file_name_3_3 + 0x0011)
   19F8 74 52              5778 	mov	a,#0x52
   19FA F0                 5779 	movx	@dptr,a
                           5780 ;	genPointerSet
                           5781 ;     genFarPointerSet
   19FB 90s02rB9           5782 	mov	dptr,#(_UART_get_rx_status_file_name_3_3 + 0x0012)
   19FE 74 54              5783 	mov	a,#0x54
   1A00 F0                 5784 	movx	@dptr,a
                           5785 ;	genPointerSet
                           5786 ;     genFarPointerSet
   1A01 90s02rBA           5787 	mov	dptr,#(_UART_get_rx_status_file_name_3_3 + 0x0013)
   1A04 74 61              5788 	mov	a,#0x61
   1A06 F0                 5789 	movx	@dptr,a
                           5790 ;	genPointerSet
                           5791 ;     genFarPointerSet
   1A07 90s02rBB           5792 	mov	dptr,#(_UART_get_rx_status_file_name_3_3 + 0x0014)
   1A0A 74 70              5793 	mov	a,#0x70
   1A0C F0                 5794 	movx	@dptr,a
                           5795 ;	genPointerSet
                           5796 ;     genFarPointerSet
   1A0D 90s02rBC           5797 	mov	dptr,#(_UART_get_rx_status_file_name_3_3 + 0x0015)
   1A10 74 62              5798 	mov	a,#0x62
   1A12 F0                 5799 	movx	@dptr,a
                           5800 ;	genPointerSet
                           5801 ;     genFarPointerSet
   1A13 90s02rBD           5802 	mov	dptr,#(_UART_get_rx_status_file_name_3_3 + 0x0016)
   1A16 74 2F              5803 	mov	a,#0x2F
   1A18 F0                 5804 	movx	@dptr,a
                           5805 ;	genPointerSet
                           5806 ;     genFarPointerSet
   1A19 90s02rBE           5807 	mov	dptr,#(_UART_get_rx_status_file_name_3_3 + 0x0017)
   1A1C 74 63              5808 	mov	a,#0x63
   1A1E F0                 5809 	movx	@dptr,a
                           5810 ;	genPointerSet
                           5811 ;     genFarPointerSet
   1A1F 90s02rBF           5812 	mov	dptr,#(_UART_get_rx_status_file_name_3_3 + 0x0018)
   1A22 74 6F              5813 	mov	a,#0x6F
   1A24 F0                 5814 	movx	@dptr,a
                           5815 ;	genPointerSet
                           5816 ;     genFarPointerSet
   1A25 90s02rC0           5817 	mov	dptr,#(_UART_get_rx_status_file_name_3_3 + 0x0019)
   1A28 74 72              5818 	mov	a,#0x72
   1A2A F0                 5819 	movx	@dptr,a
                           5820 ;	genPointerSet
                           5821 ;     genFarPointerSet
   1A2B 90s02rC1           5822 	mov	dptr,#(_UART_get_rx_status_file_name_3_3 + 0x001a)
   1A2E 74 65              5823 	mov	a,#0x65
   1A30 F0                 5824 	movx	@dptr,a
                           5825 ;	genPointerSet
                           5826 ;     genFarPointerSet
   1A31 90s02rC2           5827 	mov	dptr,#(_UART_get_rx_status_file_name_3_3 + 0x001b)
   1A34 74 5F              5828 	mov	a,#0x5F
   1A36 F0                 5829 	movx	@dptr,a
                           5830 ;	genPointerSet
                           5831 ;     genFarPointerSet
   1A37 90s02rC3           5832 	mov	dptr,#(_UART_get_rx_status_file_name_3_3 + 0x001c)
   1A3A 74 75              5833 	mov	a,#0x75
   1A3C F0                 5834 	movx	@dptr,a
                           5835 ;	genPointerSet
                           5836 ;     genFarPointerSet
   1A3D 90s02rC4           5837 	mov	dptr,#(_UART_get_rx_status_file_name_3_3 + 0x001d)
   1A40 74 61              5838 	mov	a,#0x61
   1A42 F0                 5839 	movx	@dptr,a
                           5840 ;	genPointerSet
                           5841 ;     genFarPointerSet
   1A43 90s02rC5           5842 	mov	dptr,#(_UART_get_rx_status_file_name_3_3 + 0x001e)
   1A46 74 72              5843 	mov	a,#0x72
   1A48 F0                 5844 	movx	@dptr,a
                           5845 ;	genPointerSet
                           5846 ;     genFarPointerSet
   1A49 90s02rC6           5847 	mov	dptr,#(_UART_get_rx_status_file_name_3_3 + 0x001f)
   1A4C 74 74              5848 	mov	a,#0x74
   1A4E F0                 5849 	movx	@dptr,a
                           5850 ;	genPointerSet
                           5851 ;     genFarPointerSet
   1A4F 90s02rC7           5852 	mov	dptr,#(_UART_get_rx_status_file_name_3_3 + 0x0020)
   1A52 74 5F              5853 	mov	a,#0x5F
   1A54 F0                 5854 	movx	@dptr,a
                           5855 ;	genPointerSet
                           5856 ;     genFarPointerSet
   1A55 90s02rC8           5857 	mov	dptr,#(_UART_get_rx_status_file_name_3_3 + 0x0021)
   1A58 74 61              5858 	mov	a,#0x61
   1A5A F0                 5859 	movx	@dptr,a
                           5860 ;	genPointerSet
                           5861 ;     genFarPointerSet
   1A5B 90s02rC9           5862 	mov	dptr,#(_UART_get_rx_status_file_name_3_3 + 0x0022)
   1A5E 74 70              5863 	mov	a,#0x70
   1A60 F0                 5864 	movx	@dptr,a
                           5865 ;	genPointerSet
                           5866 ;     genFarPointerSet
   1A61 90s02rCA           5867 	mov	dptr,#(_UART_get_rx_status_file_name_3_3 + 0x0023)
   1A64 74 62              5868 	mov	a,#0x62
   1A66 F0                 5869 	movx	@dptr,a
                           5870 ;	genPointerSet
                           5871 ;     genFarPointerSet
   1A67 90s02rCB           5872 	mov	dptr,#(_UART_get_rx_status_file_name_3_3 + 0x0024)
   1A6A 74 2E              5873 	mov	a,#0x2E
   1A6C F0                 5874 	movx	@dptr,a
                           5875 ;	genPointerSet
                           5876 ;     genFarPointerSet
   1A6D 90s02rCC           5877 	mov	dptr,#(_UART_get_rx_status_file_name_3_3 + 0x0025)
   1A70 74 63              5878 	mov	a,#0x63
   1A72 F0                 5879 	movx	@dptr,a
                           5880 ;	genPointerSet
                           5881 ;     genFarPointerSet
   1A73 90s02rCD           5882 	mov	dptr,#(_UART_get_rx_status_file_name_3_3 + 0x0026)
   1A76 74 00              5883 	mov	a,#0x00
   1A78 F0                 5884 	movx	@dptr,a
                           5885 ;	genAssign
   1A79 90s00r00           5886 	mov	dptr,#_HAL_assert_fail_PARM_2
   1A7C 74 14              5887 	mov	a,#0x14
   1A7E F0                 5888 	movx	@dptr,a
   1A7F A3                 5889 	inc	dptr
   1A80 74 01              5890 	mov	a,#0x01
   1A82 F0                 5891 	movx	@dptr,a
   1A83 A3                 5892 	inc	dptr
   1A84 74 00              5893 	mov	a,#0x00
   1A86 F0                 5894 	movx	@dptr,a
   1A87 A3                 5895 	inc	dptr
   1A88 74 00              5896 	mov	a,#0x00
   1A8A F0                 5897 	movx	@dptr,a
                           5898 ;	genCall
   1A8B 75 82rA7           5899 	mov	dpl,#_UART_get_rx_status_file_name_3_3
   1A8E 75 83s02           5900 	mov	dph,#(_UART_get_rx_status_file_name_3_3 >> 8)
   1A91 75 F0 00           5901 	mov	b,#0x00
   1A94 12s00r00           5902 	lcall	_HAL_assert_fail
   1A97                    5903 00104$:
                    1A97   5904 	C$core_uart_apb.c$283$1$1 ==.
                           5905 ;	../drivers/CoreUARTapb/core_uart_apb.c:283: if( this_uart != NULL_INSTANCE )
                           5906 ;	genAssign
   1A97 90s02rA3           5907 	mov	dptr,#_UART_get_rx_status_this_uart_1_1
   1A9A E0                 5908 	movx	a,@dptr
   1A9B FA                 5909 	mov	r2,a
   1A9C A3                 5910 	inc	dptr
   1A9D E0                 5911 	movx	a,@dptr
   1A9E FB                 5912 	mov	r3,a
   1A9F A3                 5913 	inc	dptr
   1AA0 E0                 5914 	movx	a,@dptr
   1AA1 FC                 5915 	mov	r4,a
                           5916 ;	genCmpEq
                           5917 ;	gencjneshort
   1AA2 BA 00 09           5918 	cjne	r2,#0x00,00114$
   1AA5 BB 00 06           5919 	cjne	r3,#0x00,00114$
   1AA8 BC 00 03           5920 	cjne	r4,#0x00,00114$
   1AAB 02s1ArDB           5921 	ljmp	00107$
   1AAE                    5922 00114$:
                    1AAE   5923 	C$core_uart_apb.c$285$2$4 ==.
                           5924 ;	../drivers/CoreUARTapb/core_uart_apb.c:285: status = ( ( this_uart->status & STATUS_ERROR_MASK ) >> 
                           5925 ;	genPlus
                           5926 ;	genPlusIncr
   1AAE 74 02              5927 	mov	a,#0x02
   1AB0 25 02              5928 	add	a,ar2
   1AB2 FA                 5929 	mov	r2,a
   1AB3 74 00              5930 	mov	a,#0x00
   1AB5 35 03              5931 	addc	a,ar3
   1AB7 FB                 5932 	mov	r3,a
                           5933 ;	genPointerGet
                           5934 ;	genGenPointerGet
   1AB8 8A 82              5935 	mov	dpl,r2
   1ABA 8B 83              5936 	mov	dph,r3
   1ABC 8C F0              5937 	mov	b,r4
   1ABE 12s00r00           5938 	lcall	__gptrget
   1AC1 FD                 5939 	mov	r5,a
                           5940 ;	genAnd
   1AC2 53 05 1C           5941 	anl	ar5,#0x1C
                           5942 ;	genRightShift
                           5943 ;	genRightShiftLiteral
                           5944 ;	genrshOne
   1AC5 ED                 5945 	mov	a,r5
   1AC6 03                 5946 	rr	a
   1AC7 03                 5947 	rr	a
   1AC8 54 3F              5948 	anl	a,#0x3f
   1ACA FD                 5949 	mov	r5,a
                           5950 ;	genAssign
   1ACB 90s02rA6           5951 	mov	dptr,#_UART_get_rx_status_status_1_1
   1ACE ED                 5952 	mov	a,r5
   1ACF F0                 5953 	movx	@dptr,a
                    1AD0   5954 	C$core_uart_apb.c$290$2$4 ==.
                           5955 ;	../drivers/CoreUARTapb/core_uart_apb.c:290: this_uart->status = (uint8_t)0;
                           5956 ;	genPointerSet
                           5957 ;	genGenPointerSet
   1AD0 8A 82              5958 	mov	dpl,r2
   1AD2 8B 83              5959 	mov	dph,r3
   1AD4 8C F0              5960 	mov	b,r4
   1AD6 74 00              5961 	mov	a,#0x00
   1AD8 12s00r00           5962 	lcall	__gptrput
   1ADB                    5963 00107$:
                    1ADB   5964 	C$core_uart_apb.c$292$1$1 ==.
                           5965 ;	../drivers/CoreUARTapb/core_uart_apb.c:292: return status;
                           5966 ;	genAssign
   1ADB 90s02rA6           5967 	mov	dptr,#_UART_get_rx_status_status_1_1
   1ADE E0                 5968 	movx	a,@dptr
   1ADF FA                 5969 	mov	r2,a
                           5970 ;	genRet
   1AE0 8A 82              5971 	mov	dpl,r2
   1AE2                    5972 00108$:
                    1AE2   5973 	C$core_uart_apb.c$293$1$1 ==.
                    1AE2   5974 	XG$UART_get_rx_status$0$0 ==.
   1AE2 22                 5975 	ret
                           5976 	.area CSEG    (CODE)
                           5977 	.area CONST   (CODE)
                           5978 	.area XINIT   (CODE)
                           5979 	.area CABS    (ABS,CODE)
